MSP430 Assembler PC v21.6.1 Wed Nov 30 16:35:37 2022

Copyright (c) 2003-2018 Texas Instruments Incorporated
adc.asm                                                              PAGE    1

       1            ;******************************************************************************
       2            ;* MSP430 G3 C/C++ Codegen                                              PC v21.6.1.LTS *
       3            ;* Date/Time created: Wed Nov 30 16:35:34 2022                                *
       4            ;******************************************************************************
       5                    .compiler_opts --abi=eabi --diag_wrap=off --hll_source=on --mem_model:code=large --mem_model:d
       6            
       7            $C$DW$CU        .dwtag  DW_TAG_compile_unit
       8                    .dwattr $C$DW$CU, DW_AT_name("../driverlib/MSP430FR2xx_4xx/adc.c")
       9                    .dwattr $C$DW$CU, DW_AT_producer("TI MSP430 G3 C/C++ Codegen PC v21.6.1.LTS Copyright (c) 2003
      10                    .dwattr $C$DW$CU, DW_AT_TI_version(0x01)
      11                    .dwattr $C$DW$CU, DW_AT_comp_dir("C:\ccs_challengespace\MSP430_LCD_display\Debug")
      12            ;       C:\ti\ccs1110\ccs\tools\compiler\ti-cgt-msp430_21.6.1.LTS\bin\acpia430.exe -@C:\\Users\\DAVID~
      13 000000               .sect   ".text:ADC_init"
      14                    .clink
      15                    .global ADC_init
      16            
      17            $C$DW$1 .dwtag  DW_TAG_subprogram
      18                    .dwattr $C$DW$1, DW_AT_name("ADC_init")
      19                    .dwattr $C$DW$1, DW_AT_low_pc(ADC_init)
      20                    .dwattr $C$DW$1, DW_AT_high_pc(0x00)
      21                    .dwattr $C$DW$1, DW_AT_TI_symbol_name("ADC_init")
      22                    .dwattr $C$DW$1, DW_AT_external
      23                    .dwattr $C$DW$1, DW_AT_TI_begin_file("../driverlib/MSP430FR2xx_4xx/adc.c")
      24                    .dwattr $C$DW$1, DW_AT_TI_begin_line(0x15)
      25                    .dwattr $C$DW$1, DW_AT_TI_begin_column(0x06)
      26                    .dwattr $C$DW$1, DW_AT_decl_file("../driverlib/MSP430FR2xx_4xx/adc.c")
      27                    .dwattr $C$DW$1, DW_AT_decl_line(0x15)
      28                    .dwattr $C$DW$1, DW_AT_decl_column(0x06)
      29                    .dwattr $C$DW$1, DW_AT_TI_max_frame_size(0x0c)
      30                    .dwpsn  file "../driverlib/MSP430FR2xx_4xx/adc.c",line 25,column 1,is_stmt,address ADC_init,is
      31            
      32                    .dwfde $C$DW$CIE, ADC_init
      33            $C$DW$2 .dwtag  DW_TAG_formal_parameter
      34                    .dwattr $C$DW$2, DW_AT_name("baseAddress")
      35                    .dwattr $C$DW$2, DW_AT_TI_symbol_name("baseAddress")
      36                    .dwattr $C$DW$2, DW_AT_type(*$C$DW$T$24)
      37                    .dwattr $C$DW$2, DW_AT_location[DW_OP_reg12]
      38            
      39            $C$DW$3 .dwtag  DW_TAG_formal_parameter
      40                    .dwattr $C$DW$3, DW_AT_name("sampleHoldSignalSourceSelect")
      41                    .dwattr $C$DW$3, DW_AT_TI_symbol_name("sampleHoldSignalSourceSelect")
      42                    .dwattr $C$DW$3, DW_AT_type(*$C$DW$T$24)
      43                    .dwattr $C$DW$3, DW_AT_location[DW_OP_reg13]
      44            
      45            $C$DW$4 .dwtag  DW_TAG_formal_parameter
      46                    .dwattr $C$DW$4, DW_AT_name("clockSourceSelect")
      47                    .dwattr $C$DW$4, DW_AT_TI_symbol_name("clockSourceSelect")
      48                    .dwattr $C$DW$4, DW_AT_type(*$C$DW$T$26)
      49                    .dwattr $C$DW$4, DW_AT_location[DW_OP_reg14]
      50            
      51            $C$DW$5 .dwtag  DW_TAG_formal_parameter
      52                    .dwattr $C$DW$5, DW_AT_name("clockSourceDivider")
      53                    .dwattr $C$DW$5, DW_AT_TI_symbol_name("clockSourceDivider")
      54                    .dwattr $C$DW$5, DW_AT_type(*$C$DW$T$24)
      55                    .dwattr $C$DW$5, DW_AT_location[DW_OP_reg15]
MSP430 Assembler PC v21.6.1 Wed Nov 30 16:35:37 2022

Copyright (c) 2003-2018 Texas Instruments Incorporated
adc.asm                                                              PAGE    2

      56            
      57            
      58            ;*****************************************************************************
      59            ;* FUNCTION NAME: ADC_init                                                   *
      60            ;*                                                                           *
      61            ;*   Regs Modified     : SP,SR,r14,r15                                       *
      62            ;*   Regs Used         : SP,SR,r12,r13,r14,r15                               *
      63            ;*   Local Frame Size  : 0 Args + 8 Auto + 0 Save = 8 byte                   *
      64            ;*****************************************************************************
      65 000000       ADC_init:
      66            ;* --------------------------------------------------------------------------*
      67                    .dwcfi  cfa_offset, 4
      68                    .dwcfi  save_reg_to_mem, 16, -4
      69 000000 8231          SUB.W     #8,SP                 ; [] 
      70                    .dwcfi  cfa_offset, 12
      71            $C$DW$6 .dwtag  DW_TAG_variable
      72                    .dwattr $C$DW$6, DW_AT_name("baseAddress")
      73                    .dwattr $C$DW$6, DW_AT_TI_symbol_name("baseAddress")
      74                    .dwattr $C$DW$6, DW_AT_type(*$C$DW$T$24)
      75                    .dwattr $C$DW$6, DW_AT_location[DW_OP_breg1 0]
      76            
      77            $C$DW$7 .dwtag  DW_TAG_variable
      78                    .dwattr $C$DW$7, DW_AT_name("sampleHoldSignalSourceSelect")
      79                    .dwattr $C$DW$7, DW_AT_TI_symbol_name("sampleHoldSignalSourceSelect")
      80                    .dwattr $C$DW$7, DW_AT_type(*$C$DW$T$24)
      81                    .dwattr $C$DW$7, DW_AT_location[DW_OP_breg1 2]
      82            
      83            $C$DW$8 .dwtag  DW_TAG_variable
      84                    .dwattr $C$DW$8, DW_AT_name("clockSourceDivider")
      85                    .dwattr $C$DW$8, DW_AT_TI_symbol_name("clockSourceDivider")
      86                    .dwattr $C$DW$8, DW_AT_type(*$C$DW$T$24)
      87                    .dwattr $C$DW$8, DW_AT_location[DW_OP_breg1 4]
      88            
      89            $C$DW$9 .dwtag  DW_TAG_variable
      90                    .dwattr $C$DW$9, DW_AT_name("clockSourceSelect")
      91                    .dwattr $C$DW$9, DW_AT_TI_symbol_name("clockSourceSelect")
      92                    .dwattr $C$DW$9, DW_AT_type(*$C$DW$T$26)
      93                    .dwattr $C$DW$9, DW_AT_location[DW_OP_breg1 6]
      94            
      95 000002 4F81          MOV.W     r15,4(SP)             ; [] |25| 
         000004 0004 
      96 000006 4EC1          MOV.B     r14,6(SP)             ; [] |25| 
         000008 0006 
      97 00000a 4D81          MOV.W     r13,2(SP)             ; [] |25| 
         00000c 0002 
      98 00000e 4C81          MOV.W     r12,0(SP)             ; [] |25| 
         000010 0000 
      99                    .dwpsn  file "../driverlib/MSP430FR2xx_4xx/adc.c",line 27,column 5,is_stmt,isa 0
     100 000012 412F          MOV.W     0(SP),r15             ; [] |27| 
     101 000014 F0BF          AND.W     #65516,0(r15)         ; [] |27| 
         000016 FFEC 
         000018 0000 
     102                    .dwpsn  file "../driverlib/MSP430FR2xx_4xx/adc.c",line 28,column 5,is_stmt,isa 0
     103 00001a 403F          MOV.W     #26,r15               ; [] |28| 
         00001c 001A 
MSP430 Assembler PC v21.6.1 Wed Nov 30 16:35:37 2022

Copyright (c) 2003-2018 Texas Instruments Incorporated
adc.asm                                                              PAGE    3

     104 00001e 512F          ADD.W     0(SP),r15             ; [] |28| 
     105 000020 4F2E          MOV.W     @r15,r14              ; [] |28| 
     106 000022 438F          MOV.W     #0,0(r15)             ; [] |28| 
         000024 0000 
     107                    .dwpsn  file "../driverlib/MSP430FR2xx_4xx/adc.c",line 29,column 5,is_stmt,isa 0
     108 000026 403F          MOV.W     #28,r15               ; [] |29| 
         000028 001C 
     109 00002a 512F          ADD.W     0(SP),r15             ; [] |29| 
     110 00002c 4F2E          MOV.W     @r15,r14              ; [] |29| 
     111 00002e 438F          MOV.W     #0,0(r15)             ; [] |29| 
         000030 0000 
     112                    .dwpsn  file "../driverlib/MSP430FR2xx_4xx/adc.c",line 32,column 5,is_stmt,isa 0
     113 000032 403F          MOV.W     #224,r15              ; [] |32| 
         000034 00E0 
     114 000036 F11F          AND.W     4(SP),r15             ; [] |32| 
         000038 0004 
     115 00003a 511F          ADD.W     2(SP),r15             ; [] |32| 
         00003c 0002 
     116 00003e 415E          MOV.B     6(SP),r14             ; [] |32| 
         000040 0006 
     117 000042 5F0E          ADD.W     r15,r14               ; [] |32| 
     118 000044 412F          MOV.W     0(SP),r15             ; [] |32| 
     119 000046 4E8F          MOV.W     r14,2(r15)            ; [] |32| 
         000048 0002 
     120                    .dwpsn  file "../driverlib/MSP430FR2xx_4xx/adc.c",line 37,column 5,is_stmt,isa 0
     121 00004a 403F          MOV.W     #768,r15              ; [] |37| 
         00004c 0300 
     122 00004e F11F          AND.W     4(SP),r15             ; [] |37| 
         000050 0004 
     123 000052 503F          ADD.W     #16,r15               ; [] |37| 
         000054 0010 
     124 000056 412E          MOV.W     0(SP),r14             ; [] |37| 
     125 000058 4F8E          MOV.W     r15,4(r14)            ; [] |37| 
         00005a 0004 
     126                    .dwpsn  file "../driverlib/MSP430FR2xx_4xx/adc.c",line 39,column 1,is_stmt,isa 0
     127 00005c 5231          ADD.W     #8,SP                 ; [] 
     128                    .dwcfi  cfa_offset, 4
     129            $C$DW$10        .dwtag  DW_TAG_TI_branch
     130                    .dwattr $C$DW$10, DW_AT_low_pc(0x00)
     131                    .dwattr $C$DW$10, DW_AT_TI_return
     132            
     133 00005e 0110          RETA      ; [] 
     134                    ; [] 
     135                    .dwattr $C$DW$1, DW_AT_TI_end_file("../driverlib/MSP430FR2xx_4xx/adc.c")
     136                    .dwattr $C$DW$1, DW_AT_TI_end_line(0x27)
     137                    .dwattr $C$DW$1, DW_AT_TI_end_column(0x01)
     138                    .dwendentry
     139                    .dwendtag $C$DW$1
     140            
     141 000000               .sect   ".text:ADC_enable"
     142                    .clink
     143                    .global ADC_enable
     144            
     145            $C$DW$11        .dwtag  DW_TAG_subprogram
     146                    .dwattr $C$DW$11, DW_AT_name("ADC_enable")
MSP430 Assembler PC v21.6.1 Wed Nov 30 16:35:37 2022

Copyright (c) 2003-2018 Texas Instruments Incorporated
adc.asm                                                              PAGE    4

     147                    .dwattr $C$DW$11, DW_AT_low_pc(ADC_enable)
     148                    .dwattr $C$DW$11, DW_AT_high_pc(0x00)
     149                    .dwattr $C$DW$11, DW_AT_TI_symbol_name("ADC_enable")
     150                    .dwattr $C$DW$11, DW_AT_external
     151                    .dwattr $C$DW$11, DW_AT_TI_begin_file("../driverlib/MSP430FR2xx_4xx/adc.c")
     152                    .dwattr $C$DW$11, DW_AT_TI_begin_line(0x29)
     153                    .dwattr $C$DW$11, DW_AT_TI_begin_column(0x06)
     154                    .dwattr $C$DW$11, DW_AT_decl_file("../driverlib/MSP430FR2xx_4xx/adc.c")
     155                    .dwattr $C$DW$11, DW_AT_decl_line(0x29)
     156                    .dwattr $C$DW$11, DW_AT_decl_column(0x06)
     157                    .dwattr $C$DW$11, DW_AT_TI_max_frame_size(0x06)
     158                    .dwpsn  file "../driverlib/MSP430FR2xx_4xx/adc.c",line 42,column 1,is_stmt,address ADC_enable,
     159            
     160                    .dwfde $C$DW$CIE, ADC_enable
     161            $C$DW$12        .dwtag  DW_TAG_formal_parameter
     162                    .dwattr $C$DW$12, DW_AT_name("baseAddress")
     163                    .dwattr $C$DW$12, DW_AT_TI_symbol_name("baseAddress")
     164                    .dwattr $C$DW$12, DW_AT_type(*$C$DW$T$24)
     165                    .dwattr $C$DW$12, DW_AT_location[DW_OP_reg12]
     166            
     167            
     168            ;*****************************************************************************
     169            ;* FUNCTION NAME: ADC_enable                                                 *
     170            ;*                                                                           *
     171            ;*   Regs Modified     : SP,SR,r15                                           *
     172            ;*   Regs Used         : SP,SR,r12,r15                                       *
     173            ;*   Local Frame Size  : 0 Args + 2 Auto + 0 Save = 2 byte                   *
     174            ;*****************************************************************************
     175 000000       ADC_enable:
     176            ;* --------------------------------------------------------------------------*
     177                    .dwcfi  cfa_offset, 4
     178                    .dwcfi  save_reg_to_mem, 16, -4
     179 000000 8321          SUB.W     #2,SP                 ; [] 
     180                    .dwcfi  cfa_offset, 6
     181            $C$DW$13        .dwtag  DW_TAG_variable
     182                    .dwattr $C$DW$13, DW_AT_name("baseAddress")
     183                    .dwattr $C$DW$13, DW_AT_TI_symbol_name("baseAddress")
     184                    .dwattr $C$DW$13, DW_AT_type(*$C$DW$T$24)
     185                    .dwattr $C$DW$13, DW_AT_location[DW_OP_breg1 0]
     186            
     187 000002 4C81          MOV.W     r12,0(SP)             ; [] |42| 
         000004 0000 
     188                    .dwpsn  file "../driverlib/MSP430FR2xx_4xx/adc.c",line 44,column 5,is_stmt,isa 0
     189 000006 412F          MOV.W     0(SP),r15             ; [] |44| 
     190 000008 D0BF          OR.W      #16,0(r15)            ; [] |44| 
         00000a 0010 
         00000c 0000 
     191                    .dwpsn  file "../driverlib/MSP430FR2xx_4xx/adc.c",line 45,column 1,is_stmt,isa 0
     192 00000e 5321          ADD.W     #2,SP                 ; [] 
     193                    .dwcfi  cfa_offset, 4
     194            $C$DW$14        .dwtag  DW_TAG_TI_branch
     195                    .dwattr $C$DW$14, DW_AT_low_pc(0x00)
     196                    .dwattr $C$DW$14, DW_AT_TI_return
     197            
     198 000010 0110          RETA      ; [] 
MSP430 Assembler PC v21.6.1 Wed Nov 30 16:35:37 2022

Copyright (c) 2003-2018 Texas Instruments Incorporated
adc.asm                                                              PAGE    5

     199                    ; [] 
     200                    .dwattr $C$DW$11, DW_AT_TI_end_file("../driverlib/MSP430FR2xx_4xx/adc.c")
     201                    .dwattr $C$DW$11, DW_AT_TI_end_line(0x2d)
     202                    .dwattr $C$DW$11, DW_AT_TI_end_column(0x01)
     203                    .dwendentry
     204                    .dwendtag $C$DW$11
     205            
     206 000000               .sect   ".text:ADC_disable"
     207                    .clink
     208                    .global ADC_disable
     209            
     210            $C$DW$15        .dwtag  DW_TAG_subprogram
     211                    .dwattr $C$DW$15, DW_AT_name("ADC_disable")
     212                    .dwattr $C$DW$15, DW_AT_low_pc(ADC_disable)
     213                    .dwattr $C$DW$15, DW_AT_high_pc(0x00)
     214                    .dwattr $C$DW$15, DW_AT_TI_symbol_name("ADC_disable")
     215                    .dwattr $C$DW$15, DW_AT_external
     216                    .dwattr $C$DW$15, DW_AT_TI_begin_file("../driverlib/MSP430FR2xx_4xx/adc.c")
     217                    .dwattr $C$DW$15, DW_AT_TI_begin_line(0x2f)
     218                    .dwattr $C$DW$15, DW_AT_TI_begin_column(0x06)
     219                    .dwattr $C$DW$15, DW_AT_decl_file("../driverlib/MSP430FR2xx_4xx/adc.c")
     220                    .dwattr $C$DW$15, DW_AT_decl_line(0x2f)
     221                    .dwattr $C$DW$15, DW_AT_decl_column(0x06)
     222                    .dwattr $C$DW$15, DW_AT_TI_max_frame_size(0x06)
     223                    .dwpsn  file "../driverlib/MSP430FR2xx_4xx/adc.c",line 48,column 1,is_stmt,address ADC_disable
     224            
     225                    .dwfde $C$DW$CIE, ADC_disable
     226            $C$DW$16        .dwtag  DW_TAG_formal_parameter
     227                    .dwattr $C$DW$16, DW_AT_name("baseAddress")
     228                    .dwattr $C$DW$16, DW_AT_TI_symbol_name("baseAddress")
     229                    .dwattr $C$DW$16, DW_AT_type(*$C$DW$T$24)
     230                    .dwattr $C$DW$16, DW_AT_location[DW_OP_reg12]
     231            
     232            
     233            ;*****************************************************************************
     234            ;* FUNCTION NAME: ADC_disable                                                *
     235            ;*                                                                           *
     236            ;*   Regs Modified     : SP,SR,r15                                           *
     237            ;*   Regs Used         : SP,SR,r12,r15                                       *
     238            ;*   Local Frame Size  : 0 Args + 2 Auto + 0 Save = 2 byte                   *
     239            ;*****************************************************************************
     240 000000       ADC_disable:
     241            ;* --------------------------------------------------------------------------*
     242                    .dwcfi  cfa_offset, 4
     243                    .dwcfi  save_reg_to_mem, 16, -4
     244 000000 8321          SUB.W     #2,SP                 ; [] 
     245                    .dwcfi  cfa_offset, 6
     246            $C$DW$17        .dwtag  DW_TAG_variable
     247                    .dwattr $C$DW$17, DW_AT_name("baseAddress")
     248                    .dwattr $C$DW$17, DW_AT_TI_symbol_name("baseAddress")
     249                    .dwattr $C$DW$17, DW_AT_type(*$C$DW$T$24)
     250                    .dwattr $C$DW$17, DW_AT_location[DW_OP_breg1 0]
     251            
     252 000002 4C81          MOV.W     r12,0(SP)             ; [] |48| 
         000004 0000 
MSP430 Assembler PC v21.6.1 Wed Nov 30 16:35:37 2022

Copyright (c) 2003-2018 Texas Instruments Incorporated
adc.asm                                                              PAGE    6

     253                    .dwpsn  file "../driverlib/MSP430FR2xx_4xx/adc.c",line 50,column 5,is_stmt,isa 0
     254 000006 412F          MOV.W     0(SP),r15             ; [] |50| 
     255 000008 F0BF          AND.W     #65519,0(r15)         ; [] |50| 
         00000a FFEF 
         00000c 0000 
     256                    .dwpsn  file "../driverlib/MSP430FR2xx_4xx/adc.c",line 51,column 1,is_stmt,isa 0
     257 00000e 5321          ADD.W     #2,SP                 ; [] 
     258                    .dwcfi  cfa_offset, 4
     259            $C$DW$18        .dwtag  DW_TAG_TI_branch
     260                    .dwattr $C$DW$18, DW_AT_low_pc(0x00)
     261                    .dwattr $C$DW$18, DW_AT_TI_return
     262            
     263 000010 0110          RETA      ; [] 
     264                    ; [] 
     265                    .dwattr $C$DW$15, DW_AT_TI_end_file("../driverlib/MSP430FR2xx_4xx/adc.c")
     266                    .dwattr $C$DW$15, DW_AT_TI_end_line(0x33)
     267                    .dwattr $C$DW$15, DW_AT_TI_end_column(0x01)
     268                    .dwendentry
     269                    .dwendtag $C$DW$15
     270            
     271 000000               .sect   ".text:ADC_setupSamplingTimer"
     272                    .clink
     273                    .global ADC_setupSamplingTimer
     274            
     275            $C$DW$19        .dwtag  DW_TAG_subprogram
     276                    .dwattr $C$DW$19, DW_AT_name("ADC_setupSamplingTimer")
     277                    .dwattr $C$DW$19, DW_AT_low_pc(ADC_setupSamplingTimer)
     278                    .dwattr $C$DW$19, DW_AT_high_pc(0x00)
     279                    .dwattr $C$DW$19, DW_AT_TI_symbol_name("ADC_setupSamplingTimer")
     280                    .dwattr $C$DW$19, DW_AT_external
     281                    .dwattr $C$DW$19, DW_AT_TI_begin_file("../driverlib/MSP430FR2xx_4xx/adc.c")
     282                    .dwattr $C$DW$19, DW_AT_TI_begin_line(0x35)
     283                    .dwattr $C$DW$19, DW_AT_TI_begin_column(0x06)
     284                    .dwattr $C$DW$19, DW_AT_decl_file("../driverlib/MSP430FR2xx_4xx/adc.c")
     285                    .dwattr $C$DW$19, DW_AT_decl_line(0x35)
     286                    .dwattr $C$DW$19, DW_AT_decl_column(0x06)
     287                    .dwattr $C$DW$19, DW_AT_TI_max_frame_size(0x0a)
     288                    .dwpsn  file "../driverlib/MSP430FR2xx_4xx/adc.c",line 56,column 1,is_stmt,address ADC_setupSa
     289            
     290                    .dwfde $C$DW$CIE, ADC_setupSamplingTimer
     291            $C$DW$20        .dwtag  DW_TAG_formal_parameter
     292                    .dwattr $C$DW$20, DW_AT_name("baseAddress")
     293                    .dwattr $C$DW$20, DW_AT_TI_symbol_name("baseAddress")
     294                    .dwattr $C$DW$20, DW_AT_type(*$C$DW$T$24)
     295                    .dwattr $C$DW$20, DW_AT_location[DW_OP_reg12]
     296            
     297            $C$DW$21        .dwtag  DW_TAG_formal_parameter
     298                    .dwattr $C$DW$21, DW_AT_name("clockCycleHoldCount")
     299                    .dwattr $C$DW$21, DW_AT_TI_symbol_name("clockCycleHoldCount")
     300                    .dwattr $C$DW$21, DW_AT_type(*$C$DW$T$24)
     301                    .dwattr $C$DW$21, DW_AT_location[DW_OP_reg13]
     302            
     303            $C$DW$22        .dwtag  DW_TAG_formal_parameter
     304                    .dwattr $C$DW$22, DW_AT_name("multipleSamplesEnabled")
     305                    .dwattr $C$DW$22, DW_AT_TI_symbol_name("multipleSamplesEnabled")
MSP430 Assembler PC v21.6.1 Wed Nov 30 16:35:37 2022

Copyright (c) 2003-2018 Texas Instruments Incorporated
adc.asm                                                              PAGE    7

     306                    .dwattr $C$DW$22, DW_AT_type(*$C$DW$T$24)
     307                    .dwattr $C$DW$22, DW_AT_location[DW_OP_reg14]
     308            
     309            
     310            ;*****************************************************************************
     311            ;* FUNCTION NAME: ADC_setupSamplingTimer                                     *
     312            ;*                                                                           *
     313            ;*   Regs Modified     : SP,SR,r14,r15                                       *
     314            ;*   Regs Used         : SP,SR,r12,r13,r14,r15                               *
     315            ;*   Local Frame Size  : 0 Args + 6 Auto + 0 Save = 6 byte                   *
     316            ;*****************************************************************************
     317 000000       ADC_setupSamplingTimer:
     318            ;* --------------------------------------------------------------------------*
     319                    .dwcfi  cfa_offset, 4
     320                    .dwcfi  save_reg_to_mem, 16, -4
     321 000000 8031          SUB.W     #6,SP                 ; [] 
         000002 0006 
     322                    .dwcfi  cfa_offset, 10
     323            $C$DW$23        .dwtag  DW_TAG_variable
     324                    .dwattr $C$DW$23, DW_AT_name("baseAddress")
     325                    .dwattr $C$DW$23, DW_AT_TI_symbol_name("baseAddress")
     326                    .dwattr $C$DW$23, DW_AT_type(*$C$DW$T$24)
     327                    .dwattr $C$DW$23, DW_AT_location[DW_OP_breg1 0]
     328            
     329            $C$DW$24        .dwtag  DW_TAG_variable
     330                    .dwattr $C$DW$24, DW_AT_name("clockCycleHoldCount")
     331                    .dwattr $C$DW$24, DW_AT_TI_symbol_name("clockCycleHoldCount")
     332                    .dwattr $C$DW$24, DW_AT_type(*$C$DW$T$24)
     333                    .dwattr $C$DW$24, DW_AT_location[DW_OP_breg1 2]
     334            
     335            $C$DW$25        .dwtag  DW_TAG_variable
     336                    .dwattr $C$DW$25, DW_AT_name("multipleSamplesEnabled")
     337                    .dwattr $C$DW$25, DW_AT_TI_symbol_name("multipleSamplesEnabled")
     338                    .dwattr $C$DW$25, DW_AT_type(*$C$DW$T$24)
     339                    .dwattr $C$DW$25, DW_AT_location[DW_OP_breg1 4]
     340            
     341 000004 4E81          MOV.W     r14,4(SP)             ; [] |56| 
         000006 0004 
     342 000008 4D81          MOV.W     r13,2(SP)             ; [] |56| 
         00000a 0002 
     343 00000c 4C81          MOV.W     r12,0(SP)             ; [] |56| 
         00000e 0000 
     344                    .dwpsn  file "../driverlib/MSP430FR2xx_4xx/adc.c",line 57,column 5,is_stmt,isa 0
     345 000010 432F          MOV.W     #2,r15                ; [] |57| 
     346 000012 512F          ADD.W     0(SP),r15             ; [] |57| 
     347 000014 D0BF          OR.W      #512,0(r15)           ; [] |57| 
         000016 0200 
         000018 0000 
     348                    .dwpsn  file "../driverlib/MSP430FR2xx_4xx/adc.c",line 60,column 5,is_stmt,isa 0
     349 00001a 412F          MOV.W     0(SP),r15             ; [] |60| 
     350 00001c F0BF          AND.W     #61567,0(r15)         ; [] |60| 
         00001e F07F 
         000020 0000 
     351                    .dwpsn  file "../driverlib/MSP430FR2xx_4xx/adc.c",line 61,column 5,is_stmt,isa 0
     352 000022 412E          MOV.W     0(SP),r14             ; [] |61| 
MSP430 Assembler PC v21.6.1 Wed Nov 30 16:35:37 2022

Copyright (c) 2003-2018 Texas Instruments Incorporated
adc.asm                                                              PAGE    8

     353 000024 411F          MOV.W     4(SP),r15             ; [] |61| 
         000026 0004 
     354 000028 511F          ADD.W     2(SP),r15             ; [] |61| 
         00002a 0002 
     355 00002c DF8E          OR.W      r15,0(r14)            ; [] |61| 
         00002e 0000 
     356                    .dwpsn  file "../driverlib/MSP430FR2xx_4xx/adc.c",line 62,column 1,is_stmt,isa 0
     357 000030 5031          ADD.W     #6,SP                 ; [] 
         000032 0006 
     358                    .dwcfi  cfa_offset, 4
     359            $C$DW$26        .dwtag  DW_TAG_TI_branch
     360                    .dwattr $C$DW$26, DW_AT_low_pc(0x00)
     361                    .dwattr $C$DW$26, DW_AT_TI_return
     362            
     363 000034 0110          RETA      ; [] 
     364                    ; [] 
     365                    .dwattr $C$DW$19, DW_AT_TI_end_file("../driverlib/MSP430FR2xx_4xx/adc.c")
     366                    .dwattr $C$DW$19, DW_AT_TI_end_line(0x3e)
     367                    .dwattr $C$DW$19, DW_AT_TI_end_column(0x01)
     368                    .dwendentry
     369                    .dwendtag $C$DW$19
     370            
     371 000000               .sect   ".text:ADC_disableSamplingTimer"
     372                    .clink
     373                    .global ADC_disableSamplingTimer
     374            
     375            $C$DW$27        .dwtag  DW_TAG_subprogram
     376                    .dwattr $C$DW$27, DW_AT_name("ADC_disableSamplingTimer")
     377                    .dwattr $C$DW$27, DW_AT_low_pc(ADC_disableSamplingTimer)
     378                    .dwattr $C$DW$27, DW_AT_high_pc(0x00)
     379                    .dwattr $C$DW$27, DW_AT_TI_symbol_name("ADC_disableSamplingTimer")
     380                    .dwattr $C$DW$27, DW_AT_external
     381                    .dwattr $C$DW$27, DW_AT_TI_begin_file("../driverlib/MSP430FR2xx_4xx/adc.c")
     382                    .dwattr $C$DW$27, DW_AT_TI_begin_line(0x40)
     383                    .dwattr $C$DW$27, DW_AT_TI_begin_column(0x06)
     384                    .dwattr $C$DW$27, DW_AT_decl_file("../driverlib/MSP430FR2xx_4xx/adc.c")
     385                    .dwattr $C$DW$27, DW_AT_decl_line(0x40)
     386                    .dwattr $C$DW$27, DW_AT_decl_column(0x06)
     387                    .dwattr $C$DW$27, DW_AT_TI_max_frame_size(0x06)
     388                    .dwpsn  file "../driverlib/MSP430FR2xx_4xx/adc.c",line 65,column 1,is_stmt,address ADC_disable
     389            
     390                    .dwfde $C$DW$CIE, ADC_disableSamplingTimer
     391            $C$DW$28        .dwtag  DW_TAG_formal_parameter
     392                    .dwattr $C$DW$28, DW_AT_name("baseAddress")
     393                    .dwattr $C$DW$28, DW_AT_TI_symbol_name("baseAddress")
     394                    .dwattr $C$DW$28, DW_AT_type(*$C$DW$T$24)
     395                    .dwattr $C$DW$28, DW_AT_location[DW_OP_reg12]
     396            
     397            
     398            ;*****************************************************************************
     399            ;* FUNCTION NAME: ADC_disableSamplingTimer                                   *
     400            ;*                                                                           *
     401            ;*   Regs Modified     : SP,SR,r15                                           *
     402            ;*   Regs Used         : SP,SR,r12,r15                                       *
     403            ;*   Local Frame Size  : 0 Args + 2 Auto + 0 Save = 2 byte                   *
MSP430 Assembler PC v21.6.1 Wed Nov 30 16:35:37 2022

Copyright (c) 2003-2018 Texas Instruments Incorporated
adc.asm                                                              PAGE    9

     404            ;*****************************************************************************
     405 000000       ADC_disableSamplingTimer:
     406            ;* --------------------------------------------------------------------------*
     407                    .dwcfi  cfa_offset, 4
     408                    .dwcfi  save_reg_to_mem, 16, -4
     409 000000 8321          SUB.W     #2,SP                 ; [] 
     410                    .dwcfi  cfa_offset, 6
     411            $C$DW$29        .dwtag  DW_TAG_variable
     412                    .dwattr $C$DW$29, DW_AT_name("baseAddress")
     413                    .dwattr $C$DW$29, DW_AT_TI_symbol_name("baseAddress")
     414                    .dwattr $C$DW$29, DW_AT_type(*$C$DW$T$24)
     415                    .dwattr $C$DW$29, DW_AT_location[DW_OP_breg1 0]
     416            
     417 000002 4C81          MOV.W     r12,0(SP)             ; [] |65| 
         000004 0000 
     418                    .dwpsn  file "../driverlib/MSP430FR2xx_4xx/adc.c",line 66,column 5,is_stmt,isa 0
     419 000006 432F          MOV.W     #2,r15                ; [] |66| 
     420 000008 512F          ADD.W     0(SP),r15             ; [] |66| 
     421 00000a F0BF          AND.W     #65023,0(r15)         ; [] |66| 
         00000c FDFF 
         00000e 0000 
     422                    .dwpsn  file "../driverlib/MSP430FR2xx_4xx/adc.c",line 67,column 1,is_stmt,isa 0
     423 000010 5321          ADD.W     #2,SP                 ; [] 
     424                    .dwcfi  cfa_offset, 4
     425            $C$DW$30        .dwtag  DW_TAG_TI_branch
     426                    .dwattr $C$DW$30, DW_AT_low_pc(0x00)
     427                    .dwattr $C$DW$30, DW_AT_TI_return
     428            
     429 000012 0110          RETA      ; [] 
     430                    ; [] 
     431                    .dwattr $C$DW$27, DW_AT_TI_end_file("../driverlib/MSP430FR2xx_4xx/adc.c")
     432                    .dwattr $C$DW$27, DW_AT_TI_end_line(0x43)
     433                    .dwattr $C$DW$27, DW_AT_TI_end_column(0x01)
     434                    .dwendentry
     435                    .dwendtag $C$DW$27
     436            
     437 000000               .sect   ".text:ADC_configureMemory"
     438                    .clink
     439                    .global ADC_configureMemory
     440            
     441            $C$DW$31        .dwtag  DW_TAG_subprogram
     442                    .dwattr $C$DW$31, DW_AT_name("ADC_configureMemory")
     443                    .dwattr $C$DW$31, DW_AT_low_pc(ADC_configureMemory)
     444                    .dwattr $C$DW$31, DW_AT_high_pc(0x00)
     445                    .dwattr $C$DW$31, DW_AT_TI_symbol_name("ADC_configureMemory")
     446                    .dwattr $C$DW$31, DW_AT_external
     447                    .dwattr $C$DW$31, DW_AT_TI_begin_file("../driverlib/MSP430FR2xx_4xx/adc.c")
     448                    .dwattr $C$DW$31, DW_AT_TI_begin_line(0x45)
     449                    .dwattr $C$DW$31, DW_AT_TI_begin_column(0x06)
     450                    .dwattr $C$DW$31, DW_AT_decl_file("../driverlib/MSP430FR2xx_4xx/adc.c")
     451                    .dwattr $C$DW$31, DW_AT_decl_line(0x45)
     452                    .dwattr $C$DW$31, DW_AT_decl_column(0x06)
     453                    .dwattr $C$DW$31, DW_AT_TI_max_frame_size(0x0a)
     454                    .dwpsn  file "../driverlib/MSP430FR2xx_4xx/adc.c",line 73,column 1,is_stmt,address ADC_configu
     455            
MSP430 Assembler PC v21.6.1 Wed Nov 30 16:35:37 2022

Copyright (c) 2003-2018 Texas Instruments Incorporated
adc.asm                                                              PAGE   10

     456                    .dwfde $C$DW$CIE, ADC_configureMemory
     457            $C$DW$32        .dwtag  DW_TAG_formal_parameter
     458                    .dwattr $C$DW$32, DW_AT_name("baseAddress")
     459                    .dwattr $C$DW$32, DW_AT_TI_symbol_name("baseAddress")
     460                    .dwattr $C$DW$32, DW_AT_type(*$C$DW$T$24)
     461                    .dwattr $C$DW$32, DW_AT_location[DW_OP_reg12]
     462            
     463            $C$DW$33        .dwtag  DW_TAG_formal_parameter
     464                    .dwattr $C$DW$33, DW_AT_name("inputSourceSelect")
     465                    .dwattr $C$DW$33, DW_AT_TI_symbol_name("inputSourceSelect")
     466                    .dwattr $C$DW$33, DW_AT_type(*$C$DW$T$26)
     467                    .dwattr $C$DW$33, DW_AT_location[DW_OP_reg13]
     468            
     469            $C$DW$34        .dwtag  DW_TAG_formal_parameter
     470                    .dwattr $C$DW$34, DW_AT_name("positiveRefVoltageSourceSelect")
     471                    .dwattr $C$DW$34, DW_AT_TI_symbol_name("positiveRefVoltageSourceSelect")
     472                    .dwattr $C$DW$34, DW_AT_type(*$C$DW$T$26)
     473                    .dwattr $C$DW$34, DW_AT_location[DW_OP_reg14]
     474            
     475            $C$DW$35        .dwtag  DW_TAG_formal_parameter
     476                    .dwattr $C$DW$35, DW_AT_name("negativeRefVoltageSourceSelect")
     477                    .dwattr $C$DW$35, DW_AT_TI_symbol_name("negativeRefVoltageSourceSelect")
     478                    .dwattr $C$DW$35, DW_AT_type(*$C$DW$T$26)
     479                    .dwattr $C$DW$35, DW_AT_location[DW_OP_reg15]
     480            
     481            
     482            ;*****************************************************************************
     483            ;* FUNCTION NAME: ADC_configureMemory                                        *
     484            ;*                                                                           *
     485            ;*   Regs Modified     : SP,SR,r12,r13,r14,r15                               *
     486            ;*   Regs Used         : SP,SR,r12,r13,r14,r15                               *
     487            ;*   Local Frame Size  : 0 Args + 6 Auto + 0 Save = 6 byte                   *
     488            ;*****************************************************************************
     489 000000       ADC_configureMemory:
     490            ;* --------------------------------------------------------------------------*
     491                    .dwcfi  cfa_offset, 4
     492                    .dwcfi  save_reg_to_mem, 16, -4
     493 000000 8031          SUB.W     #6,SP                 ; [] 
         000002 0006 
     494                    .dwcfi  cfa_offset, 10
     495            $C$DW$36        .dwtag  DW_TAG_variable
     496                    .dwattr $C$DW$36, DW_AT_name("baseAddress")
     497                    .dwattr $C$DW$36, DW_AT_TI_symbol_name("baseAddress")
     498                    .dwattr $C$DW$36, DW_AT_type(*$C$DW$T$24)
     499                    .dwattr $C$DW$36, DW_AT_location[DW_OP_breg1 0]
     500            
     501            $C$DW$37        .dwtag  DW_TAG_variable
     502                    .dwattr $C$DW$37, DW_AT_name("inputSourceSelect")
     503                    .dwattr $C$DW$37, DW_AT_TI_symbol_name("inputSourceSelect")
     504                    .dwattr $C$DW$37, DW_AT_type(*$C$DW$T$26)
     505                    .dwattr $C$DW$37, DW_AT_location[DW_OP_breg1 2]
     506            
     507            $C$DW$38        .dwtag  DW_TAG_variable
     508                    .dwattr $C$DW$38, DW_AT_name("positiveRefVoltageSourceSelect")
     509                    .dwattr $C$DW$38, DW_AT_TI_symbol_name("positiveRefVoltageSourceSelect")
MSP430 Assembler PC v21.6.1 Wed Nov 30 16:35:37 2022

Copyright (c) 2003-2018 Texas Instruments Incorporated
adc.asm                                                              PAGE   11

     510                    .dwattr $C$DW$38, DW_AT_type(*$C$DW$T$26)
     511                    .dwattr $C$DW$38, DW_AT_location[DW_OP_breg1 3]
     512            
     513            $C$DW$39        .dwtag  DW_TAG_variable
     514                    .dwattr $C$DW$39, DW_AT_name("negativeRefVoltageSourceSelect")
     515                    .dwattr $C$DW$39, DW_AT_TI_symbol_name("negativeRefVoltageSourceSelect")
     516                    .dwattr $C$DW$39, DW_AT_type(*$C$DW$T$26)
     517                    .dwattr $C$DW$39, DW_AT_location[DW_OP_breg1 4]
     518            
     519 000004 4FC1          MOV.B     r15,4(SP)             ; [] |73| 
         000006 0004 
     520 000008 4EC1          MOV.B     r14,3(SP)             ; [] |73| 
         00000a 0003 
     521 00000c 4DC1          MOV.B     r13,2(SP)             ; [] |73| 
         00000e 0002 
     522 000010 4C81          MOV.W     r12,0(SP)             ; [] |73| 
         000012 0000 
     523                    .dwpsn  file "../driverlib/MSP430FR2xx_4xx/adc.c",line 76,column 5,is_stmt,isa 0
     524                    .dwpsn  file "../driverlib/MSP430FR2xx_4xx/adc.c",line 78,column 5,is_stmt,isa 0
     525 000014 412F          MOV.W     0(SP),r15             ; [] |78| 
     526 000016 432E          MOV.W     #2,r14                ; [] |78| 
     527 000018 BF2E          BIT.W     @r15,r14              ; [] |78| 
     528 00001a 2016          JNE       $C$L2                 ; [] |78| 
     529                                                      ; [] |78| 
     530            ;* --------------------------------------------------------------------------*
     531                    .dwpsn  file "../driverlib/MSP430FR2xx_4xx/adc.c",line 82,column 9,is_stmt,isa 0
     532 00001c 90F1          CMP.B     #10,2(SP)             ; [] |82| 
         00001e 000A 
         000020 0002 
     533 000022 2C07          JHS       $C$L1                 ; [] |82| 
     534                                                      ; [] |82| 
     535            ;* --------------------------------------------------------------------------*
     536                    .dwpsn  file "../driverlib/MSP430FR2xx_4xx/adc.c",line 84,column 13,is_stmt,isa 0
     537 000024 415D          MOV.B     2(SP),r13             ; [] |84| 
         000026 0002 
     538 000028 431C          MOV.W     #1,r12                ; [] |84| 
     539            $C$DW$40        .dwtag  DW_TAG_TI_branch
     540                    .dwattr $C$DW$40, DW_AT_low_pc(0x00)
     541                    .dwattr $C$DW$40, DW_AT_name("__mspabi_slli")
     542                    .dwattr $C$DW$40, DW_AT_TI_call
     543            
     544 00002a 13B0!         CALLA     #__mspabi_slli        ; [] |84| 
         00002c 0000 
     545                                                      ; [] |84| 
     546 00002e DC82          OR.W      r12,&0x164            ; [] |84| 
         000030 0164 
     547            ;* --------------------------------------------------------------------------*
     548 000032       $C$L1:    
     549                    .dwpsn  file "../driverlib/MSP430FR2xx_4xx/adc.c",line 94,column 9,is_stmt,isa 0
     550 000032 415F          MOV.B     2(SP),r15             ; [] |94| 
         000034 0002 
     551 000036 415E          MOV.B     3(SP),r14             ; [] |94| 
         000038 0003 
     552 00003a 5F0E          ADD.W     r15,r14               ; [] |94| 
     553 00003c 415F          MOV.B     4(SP),r15             ; [] |94| 
MSP430 Assembler PC v21.6.1 Wed Nov 30 16:35:37 2022

Copyright (c) 2003-2018 Texas Instruments Incorporated
adc.asm                                                              PAGE   12

         00003e 0004 
     554 000040 5F0E          ADD.W     r15,r14               ; [] |94| 
     555 000042 412F          MOV.W     0(SP),r15             ; [] |94| 
     556 000044 4E8F          MOV.W     r14,10(r15)           ; [] |94| 
         000046 000A 
     557                    .dwpsn  file "../driverlib/MSP430FR2xx_4xx/adc.c",line 97,column 1,is_stmt,isa 0
     558            ;* --------------------------------------------------------------------------*
     559 000048       $C$L2:    
     560 000048 5031          ADD.W     #6,SP                 ; [] 
         00004a 0006 
     561                    .dwcfi  cfa_offset, 4
     562            $C$DW$41        .dwtag  DW_TAG_TI_branch
     563                    .dwattr $C$DW$41, DW_AT_low_pc(0x00)
     564                    .dwattr $C$DW$41, DW_AT_TI_return
     565            
     566 00004c 0110          RETA      ; [] 
     567                    ; [] 
     568                    .dwattr $C$DW$31, DW_AT_TI_end_file("../driverlib/MSP430FR2xx_4xx/adc.c")
     569                    .dwattr $C$DW$31, DW_AT_TI_end_line(0x61)
     570                    .dwattr $C$DW$31, DW_AT_TI_end_column(0x01)
     571                    .dwendentry
     572                    .dwendtag $C$DW$31
     573            
     574 000000               .sect   ".text:ADC_enableInterrupt"
     575                    .clink
     576                    .global ADC_enableInterrupt
     577            
     578            $C$DW$42        .dwtag  DW_TAG_subprogram
     579                    .dwattr $C$DW$42, DW_AT_name("ADC_enableInterrupt")
     580                    .dwattr $C$DW$42, DW_AT_low_pc(ADC_enableInterrupt)
     581                    .dwattr $C$DW$42, DW_AT_high_pc(0x00)
     582                    .dwattr $C$DW$42, DW_AT_TI_symbol_name("ADC_enableInterrupt")
     583                    .dwattr $C$DW$42, DW_AT_external
     584                    .dwattr $C$DW$42, DW_AT_TI_begin_file("../driverlib/MSP430FR2xx_4xx/adc.c")
     585                    .dwattr $C$DW$42, DW_AT_TI_begin_line(0x63)
     586                    .dwattr $C$DW$42, DW_AT_TI_begin_column(0x06)
     587                    .dwattr $C$DW$42, DW_AT_decl_file("../driverlib/MSP430FR2xx_4xx/adc.c")
     588                    .dwattr $C$DW$42, DW_AT_decl_line(0x63)
     589                    .dwattr $C$DW$42, DW_AT_decl_column(0x06)
     590                    .dwattr $C$DW$42, DW_AT_TI_max_frame_size(0x08)
     591                    .dwpsn  file "../driverlib/MSP430FR2xx_4xx/adc.c",line 101,column 1,is_stmt,address ADC_enable
     592            
     593                    .dwfde $C$DW$CIE, ADC_enableInterrupt
     594            $C$DW$43        .dwtag  DW_TAG_formal_parameter
     595                    .dwattr $C$DW$43, DW_AT_name("baseAddress")
     596                    .dwattr $C$DW$43, DW_AT_TI_symbol_name("baseAddress")
     597                    .dwattr $C$DW$43, DW_AT_type(*$C$DW$T$24)
     598                    .dwattr $C$DW$43, DW_AT_location[DW_OP_reg12]
     599            
     600            $C$DW$44        .dwtag  DW_TAG_formal_parameter
     601                    .dwattr $C$DW$44, DW_AT_name("interruptMask")
     602                    .dwattr $C$DW$44, DW_AT_TI_symbol_name("interruptMask")
     603                    .dwattr $C$DW$44, DW_AT_type(*$C$DW$T$24)
     604                    .dwattr $C$DW$44, DW_AT_location[DW_OP_reg13]
     605            
MSP430 Assembler PC v21.6.1 Wed Nov 30 16:35:37 2022

Copyright (c) 2003-2018 Texas Instruments Incorporated
adc.asm                                                              PAGE   13

     606            
     607            ;*****************************************************************************
     608            ;* FUNCTION NAME: ADC_enableInterrupt                                        *
     609            ;*                                                                           *
     610            ;*   Regs Modified     : SP,SR,r15                                           *
     611            ;*   Regs Used         : SP,SR,r12,r13,r15                                   *
     612            ;*   Local Frame Size  : 0 Args + 4 Auto + 0 Save = 4 byte                   *
     613            ;*****************************************************************************
     614 000000       ADC_enableInterrupt:
     615            ;* --------------------------------------------------------------------------*
     616                    .dwcfi  cfa_offset, 4
     617                    .dwcfi  save_reg_to_mem, 16, -4
     618 000000 8221          SUB.W     #4,SP                 ; [] 
     619                    .dwcfi  cfa_offset, 8
     620            $C$DW$45        .dwtag  DW_TAG_variable
     621                    .dwattr $C$DW$45, DW_AT_name("baseAddress")
     622                    .dwattr $C$DW$45, DW_AT_TI_symbol_name("baseAddress")
     623                    .dwattr $C$DW$45, DW_AT_type(*$C$DW$T$24)
     624                    .dwattr $C$DW$45, DW_AT_location[DW_OP_breg1 0]
     625            
     626            $C$DW$46        .dwtag  DW_TAG_variable
     627                    .dwattr $C$DW$46, DW_AT_name("interruptMask")
     628                    .dwattr $C$DW$46, DW_AT_TI_symbol_name("interruptMask")
     629                    .dwattr $C$DW$46, DW_AT_type(*$C$DW$T$24)
     630                    .dwattr $C$DW$46, DW_AT_location[DW_OP_breg1 2]
     631            
     632 000002 4D81          MOV.W     r13,2(SP)             ; [] |101| 
         000004 0002 
     633 000006 4C81          MOV.W     r12,0(SP)             ; [] |101| 
         000008 0000 
     634                    .dwpsn  file "../driverlib/MSP430FR2xx_4xx/adc.c",line 102,column 5,is_stmt,isa 0
     635 00000a 403F          MOV.W     #26,r15               ; [] |102| 
         00000c 001A 
     636 00000e 512F          ADD.W     0(SP),r15             ; [] |102| 
     637 000010 D19F          OR.W      2(SP),0(r15)          ; [] |102| 
         000012 0002 
         000014 0000 
     638                    .dwpsn  file "../driverlib/MSP430FR2xx_4xx/adc.c",line 103,column 1,is_stmt,isa 0
     639 000016 5221          ADD.W     #4,SP                 ; [] 
     640                    .dwcfi  cfa_offset, 4
     641            $C$DW$47        .dwtag  DW_TAG_TI_branch
     642                    .dwattr $C$DW$47, DW_AT_low_pc(0x00)
     643                    .dwattr $C$DW$47, DW_AT_TI_return
     644            
     645 000018 0110          RETA      ; [] 
     646                    ; [] 
     647                    .dwattr $C$DW$42, DW_AT_TI_end_file("../driverlib/MSP430FR2xx_4xx/adc.c")
     648                    .dwattr $C$DW$42, DW_AT_TI_end_line(0x67)
     649                    .dwattr $C$DW$42, DW_AT_TI_end_column(0x01)
     650                    .dwendentry
     651                    .dwendtag $C$DW$42
     652            
     653 000000               .sect   ".text:ADC_disableInterrupt"
     654                    .clink
     655                    .global ADC_disableInterrupt
MSP430 Assembler PC v21.6.1 Wed Nov 30 16:35:37 2022

Copyright (c) 2003-2018 Texas Instruments Incorporated
adc.asm                                                              PAGE   14

     656            
     657            $C$DW$48        .dwtag  DW_TAG_subprogram
     658                    .dwattr $C$DW$48, DW_AT_name("ADC_disableInterrupt")
     659                    .dwattr $C$DW$48, DW_AT_low_pc(ADC_disableInterrupt)
     660                    .dwattr $C$DW$48, DW_AT_high_pc(0x00)
     661                    .dwattr $C$DW$48, DW_AT_TI_symbol_name("ADC_disableInterrupt")
     662                    .dwattr $C$DW$48, DW_AT_external
     663                    .dwattr $C$DW$48, DW_AT_TI_begin_file("../driverlib/MSP430FR2xx_4xx/adc.c")
     664                    .dwattr $C$DW$48, DW_AT_TI_begin_line(0x69)
     665                    .dwattr $C$DW$48, DW_AT_TI_begin_column(0x06)
     666                    .dwattr $C$DW$48, DW_AT_decl_file("../driverlib/MSP430FR2xx_4xx/adc.c")
     667                    .dwattr $C$DW$48, DW_AT_decl_line(0x69)
     668                    .dwattr $C$DW$48, DW_AT_decl_column(0x06)
     669                    .dwattr $C$DW$48, DW_AT_TI_max_frame_size(0x08)
     670                    .dwpsn  file "../driverlib/MSP430FR2xx_4xx/adc.c",line 107,column 1,is_stmt,address ADC_disabl
     671            
     672                    .dwfde $C$DW$CIE, ADC_disableInterrupt
     673            $C$DW$49        .dwtag  DW_TAG_formal_parameter
     674                    .dwattr $C$DW$49, DW_AT_name("baseAddress")
     675                    .dwattr $C$DW$49, DW_AT_TI_symbol_name("baseAddress")
     676                    .dwattr $C$DW$49, DW_AT_type(*$C$DW$T$24)
     677                    .dwattr $C$DW$49, DW_AT_location[DW_OP_reg12]
     678            
     679            $C$DW$50        .dwtag  DW_TAG_formal_parameter
     680                    .dwattr $C$DW$50, DW_AT_name("interruptMask")
     681                    .dwattr $C$DW$50, DW_AT_TI_symbol_name("interruptMask")
     682                    .dwattr $C$DW$50, DW_AT_type(*$C$DW$T$24)
     683                    .dwattr $C$DW$50, DW_AT_location[DW_OP_reg13]
     684            
     685            
     686            ;*****************************************************************************
     687            ;* FUNCTION NAME: ADC_disableInterrupt                                       *
     688            ;*                                                                           *
     689            ;*   Regs Modified     : SP,SR,r15                                           *
     690            ;*   Regs Used         : SP,SR,r12,r13,r15                                   *
     691            ;*   Local Frame Size  : 0 Args + 4 Auto + 0 Save = 4 byte                   *
     692            ;*****************************************************************************
     693 000000       ADC_disableInterrupt:
     694            ;* --------------------------------------------------------------------------*
     695                    .dwcfi  cfa_offset, 4
     696                    .dwcfi  save_reg_to_mem, 16, -4
     697 000000 8221          SUB.W     #4,SP                 ; [] 
     698                    .dwcfi  cfa_offset, 8
     699            $C$DW$51        .dwtag  DW_TAG_variable
     700                    .dwattr $C$DW$51, DW_AT_name("baseAddress")
     701                    .dwattr $C$DW$51, DW_AT_TI_symbol_name("baseAddress")
     702                    .dwattr $C$DW$51, DW_AT_type(*$C$DW$T$24)
     703                    .dwattr $C$DW$51, DW_AT_location[DW_OP_breg1 0]
     704            
     705            $C$DW$52        .dwtag  DW_TAG_variable
     706                    .dwattr $C$DW$52, DW_AT_name("interruptMask")
     707                    .dwattr $C$DW$52, DW_AT_TI_symbol_name("interruptMask")
     708                    .dwattr $C$DW$52, DW_AT_type(*$C$DW$T$24)
     709                    .dwattr $C$DW$52, DW_AT_location[DW_OP_breg1 2]
     710            
MSP430 Assembler PC v21.6.1 Wed Nov 30 16:35:37 2022

Copyright (c) 2003-2018 Texas Instruments Incorporated
adc.asm                                                              PAGE   15

     711 000002 4D81          MOV.W     r13,2(SP)             ; [] |107| 
         000004 0002 
     712 000006 4C81          MOV.W     r12,0(SP)             ; [] |107| 
         000008 0000 
     713                    .dwpsn  file "../driverlib/MSP430FR2xx_4xx/adc.c",line 108,column 5,is_stmt,isa 0
     714 00000a 403F          MOV.W     #26,r15               ; [] |108| 
         00000c 001A 
     715 00000e 512F          ADD.W     0(SP),r15             ; [] |108| 
     716 000010 C19F          BIC.W     2(SP),0(r15)          ; [] |108| 
         000012 0002 
         000014 0000 
     717                    .dwpsn  file "../driverlib/MSP430FR2xx_4xx/adc.c",line 109,column 1,is_stmt,isa 0
     718 000016 5221          ADD.W     #4,SP                 ; [] 
     719                    .dwcfi  cfa_offset, 4
     720            $C$DW$53        .dwtag  DW_TAG_TI_branch
     721                    .dwattr $C$DW$53, DW_AT_low_pc(0x00)
     722                    .dwattr $C$DW$53, DW_AT_TI_return
     723            
     724 000018 0110          RETA      ; [] 
     725                    ; [] 
     726                    .dwattr $C$DW$48, DW_AT_TI_end_file("../driverlib/MSP430FR2xx_4xx/adc.c")
     727                    .dwattr $C$DW$48, DW_AT_TI_end_line(0x6d)
     728                    .dwattr $C$DW$48, DW_AT_TI_end_column(0x01)
     729                    .dwendentry
     730                    .dwendtag $C$DW$48
     731            
     732 000000               .sect   ".text:ADC_clearInterrupt"
     733                    .clink
     734                    .global ADC_clearInterrupt
     735            
     736            $C$DW$54        .dwtag  DW_TAG_subprogram
     737                    .dwattr $C$DW$54, DW_AT_name("ADC_clearInterrupt")
     738                    .dwattr $C$DW$54, DW_AT_low_pc(ADC_clearInterrupt)
     739                    .dwattr $C$DW$54, DW_AT_high_pc(0x00)
     740                    .dwattr $C$DW$54, DW_AT_TI_symbol_name("ADC_clearInterrupt")
     741                    .dwattr $C$DW$54, DW_AT_external
     742                    .dwattr $C$DW$54, DW_AT_TI_begin_file("../driverlib/MSP430FR2xx_4xx/adc.c")
     743                    .dwattr $C$DW$54, DW_AT_TI_begin_line(0x6f)
     744                    .dwattr $C$DW$54, DW_AT_TI_begin_column(0x06)
     745                    .dwattr $C$DW$54, DW_AT_decl_file("../driverlib/MSP430FR2xx_4xx/adc.c")
     746                    .dwattr $C$DW$54, DW_AT_decl_line(0x6f)
     747                    .dwattr $C$DW$54, DW_AT_decl_column(0x06)
     748                    .dwattr $C$DW$54, DW_AT_TI_max_frame_size(0x08)
     749                    .dwpsn  file "../driverlib/MSP430FR2xx_4xx/adc.c",line 113,column 1,is_stmt,address ADC_clearI
     750            
     751                    .dwfde $C$DW$CIE, ADC_clearInterrupt
     752            $C$DW$55        .dwtag  DW_TAG_formal_parameter
     753                    .dwattr $C$DW$55, DW_AT_name("baseAddress")
     754                    .dwattr $C$DW$55, DW_AT_TI_symbol_name("baseAddress")
     755                    .dwattr $C$DW$55, DW_AT_type(*$C$DW$T$24)
     756                    .dwattr $C$DW$55, DW_AT_location[DW_OP_reg12]
     757            
     758            $C$DW$56        .dwtag  DW_TAG_formal_parameter
     759                    .dwattr $C$DW$56, DW_AT_name("interruptFlagMask")
     760                    .dwattr $C$DW$56, DW_AT_TI_symbol_name("interruptFlagMask")
MSP430 Assembler PC v21.6.1 Wed Nov 30 16:35:37 2022

Copyright (c) 2003-2018 Texas Instruments Incorporated
adc.asm                                                              PAGE   16

     761                    .dwattr $C$DW$56, DW_AT_type(*$C$DW$T$24)
     762                    .dwattr $C$DW$56, DW_AT_location[DW_OP_reg13]
     763            
     764            
     765            ;*****************************************************************************
     766            ;* FUNCTION NAME: ADC_clearInterrupt                                         *
     767            ;*                                                                           *
     768            ;*   Regs Modified     : SP,SR,r15                                           *
     769            ;*   Regs Used         : SP,SR,r12,r13,r15                                   *
     770            ;*   Local Frame Size  : 0 Args + 4 Auto + 0 Save = 4 byte                   *
     771            ;*****************************************************************************
     772 000000       ADC_clearInterrupt:
     773            ;* --------------------------------------------------------------------------*
     774                    .dwcfi  cfa_offset, 4
     775                    .dwcfi  save_reg_to_mem, 16, -4
     776 000000 8221          SUB.W     #4,SP                 ; [] 
     777                    .dwcfi  cfa_offset, 8
     778            $C$DW$57        .dwtag  DW_TAG_variable
     779                    .dwattr $C$DW$57, DW_AT_name("baseAddress")
     780                    .dwattr $C$DW$57, DW_AT_TI_symbol_name("baseAddress")
     781                    .dwattr $C$DW$57, DW_AT_type(*$C$DW$T$24)
     782                    .dwattr $C$DW$57, DW_AT_location[DW_OP_breg1 0]
     783            
     784            $C$DW$58        .dwtag  DW_TAG_variable
     785                    .dwattr $C$DW$58, DW_AT_name("interruptFlagMask")
     786                    .dwattr $C$DW$58, DW_AT_TI_symbol_name("interruptFlagMask")
     787                    .dwattr $C$DW$58, DW_AT_type(*$C$DW$T$24)
     788                    .dwattr $C$DW$58, DW_AT_location[DW_OP_breg1 2]
     789            
     790 000002 4D81          MOV.W     r13,2(SP)             ; [] |113| 
         000004 0002 
     791 000006 4C81          MOV.W     r12,0(SP)             ; [] |113| 
         000008 0000 
     792                    .dwpsn  file "../driverlib/MSP430FR2xx_4xx/adc.c",line 114,column 5,is_stmt,isa 0
     793 00000a 403F          MOV.W     #28,r15               ; [] |114| 
         00000c 001C 
     794 00000e 512F          ADD.W     0(SP),r15             ; [] |114| 
     795 000010 C19F          BIC.W     2(SP),0(r15)          ; [] |114| 
         000012 0002 
         000014 0000 
     796                    .dwpsn  file "../driverlib/MSP430FR2xx_4xx/adc.c",line 115,column 1,is_stmt,isa 0
     797 000016 5221          ADD.W     #4,SP                 ; [] 
     798                    .dwcfi  cfa_offset, 4
     799            $C$DW$59        .dwtag  DW_TAG_TI_branch
     800                    .dwattr $C$DW$59, DW_AT_low_pc(0x00)
     801                    .dwattr $C$DW$59, DW_AT_TI_return
     802            
     803 000018 0110          RETA      ; [] 
     804                    ; [] 
     805                    .dwattr $C$DW$54, DW_AT_TI_end_file("../driverlib/MSP430FR2xx_4xx/adc.c")
     806                    .dwattr $C$DW$54, DW_AT_TI_end_line(0x73)
     807                    .dwattr $C$DW$54, DW_AT_TI_end_column(0x01)
     808                    .dwendentry
     809                    .dwendtag $C$DW$54
     810            
MSP430 Assembler PC v21.6.1 Wed Nov 30 16:35:37 2022

Copyright (c) 2003-2018 Texas Instruments Incorporated
adc.asm                                                              PAGE   17

     811 000000               .sect   ".text:ADC_getInterruptStatus"
     812                    .clink
     813                    .global ADC_getInterruptStatus
     814            
     815            $C$DW$60        .dwtag  DW_TAG_subprogram
     816                    .dwattr $C$DW$60, DW_AT_name("ADC_getInterruptStatus")
     817                    .dwattr $C$DW$60, DW_AT_low_pc(ADC_getInterruptStatus)
     818                    .dwattr $C$DW$60, DW_AT_high_pc(0x00)
     819                    .dwattr $C$DW$60, DW_AT_TI_symbol_name("ADC_getInterruptStatus")
     820                    .dwattr $C$DW$60, DW_AT_external
     821                    .dwattr $C$DW$60, DW_AT_type(*$C$DW$T$26)
     822                    .dwattr $C$DW$60, DW_AT_TI_begin_file("../driverlib/MSP430FR2xx_4xx/adc.c")
     823                    .dwattr $C$DW$60, DW_AT_TI_begin_line(0x75)
     824                    .dwattr $C$DW$60, DW_AT_TI_begin_column(0x09)
     825                    .dwattr $C$DW$60, DW_AT_decl_file("../driverlib/MSP430FR2xx_4xx/adc.c")
     826                    .dwattr $C$DW$60, DW_AT_decl_line(0x75)
     827                    .dwattr $C$DW$60, DW_AT_decl_column(0x09)
     828                    .dwattr $C$DW$60, DW_AT_TI_max_frame_size(0x08)
     829                    .dwpsn  file "../driverlib/MSP430FR2xx_4xx/adc.c",line 119,column 1,is_stmt,address ADC_getInt
     830            
     831                    .dwfde $C$DW$CIE, ADC_getInterruptStatus
     832            $C$DW$61        .dwtag  DW_TAG_formal_parameter
     833                    .dwattr $C$DW$61, DW_AT_name("baseAddress")
     834                    .dwattr $C$DW$61, DW_AT_TI_symbol_name("baseAddress")
     835                    .dwattr $C$DW$61, DW_AT_type(*$C$DW$T$24)
     836                    .dwattr $C$DW$61, DW_AT_location[DW_OP_reg12]
     837            
     838            $C$DW$62        .dwtag  DW_TAG_formal_parameter
     839                    .dwattr $C$DW$62, DW_AT_name("interruptFlagMask")
     840                    .dwattr $C$DW$62, DW_AT_TI_symbol_name("interruptFlagMask")
     841                    .dwattr $C$DW$62, DW_AT_type(*$C$DW$T$26)
     842                    .dwattr $C$DW$62, DW_AT_location[DW_OP_reg13]
     843            
     844            
     845            ;*****************************************************************************
     846            ;* FUNCTION NAME: ADC_getInterruptStatus                                     *
     847            ;*                                                                           *
     848            ;*   Regs Modified     : SP,SR,r12                                           *
     849            ;*   Regs Used         : SP,SR,r12,r13                                       *
     850            ;*   Local Frame Size  : 0 Args + 4 Auto + 0 Save = 4 byte                   *
     851            ;*****************************************************************************
     852 000000       ADC_getInterruptStatus:
     853            ;* --------------------------------------------------------------------------*
     854                    .dwcfi  cfa_offset, 4
     855                    .dwcfi  save_reg_to_mem, 16, -4
     856 000000 8221          SUB.W     #4,SP                 ; [] 
     857                    .dwcfi  cfa_offset, 8
     858            $C$DW$63        .dwtag  DW_TAG_variable
     859                    .dwattr $C$DW$63, DW_AT_name("baseAddress")
     860                    .dwattr $C$DW$63, DW_AT_TI_symbol_name("baseAddress")
     861                    .dwattr $C$DW$63, DW_AT_type(*$C$DW$T$24)
     862                    .dwattr $C$DW$63, DW_AT_location[DW_OP_breg1 0]
     863            
     864            $C$DW$64        .dwtag  DW_TAG_variable
     865                    .dwattr $C$DW$64, DW_AT_name("interruptFlagMask")
MSP430 Assembler PC v21.6.1 Wed Nov 30 16:35:37 2022

Copyright (c) 2003-2018 Texas Instruments Incorporated
adc.asm                                                              PAGE   18

     866                    .dwattr $C$DW$64, DW_AT_TI_symbol_name("interruptFlagMask")
     867                    .dwattr $C$DW$64, DW_AT_type(*$C$DW$T$26)
     868                    .dwattr $C$DW$64, DW_AT_location[DW_OP_breg1 2]
     869            
     870 000002 4DC1          MOV.B     r13,2(SP)             ; [] |119| 
         000004 0002 
     871 000006 4C81          MOV.W     r12,0(SP)             ; [] |119| 
         000008 0000 
     872                    .dwpsn  file "../driverlib/MSP430FR2xx_4xx/adc.c",line 120,column 5,is_stmt,isa 0
     873 00000a 4C1C          MOV.W     28(r12),r12           ; [] |120| 
         00000c 001C 
     874 00000e F15C          AND.B     2(SP),r12             ; [] |120| 
         000010 0002 
     875                    .dwpsn  file "../driverlib/MSP430FR2xx_4xx/adc.c",line 121,column 1,is_stmt,isa 0
     876 000012 5221          ADD.W     #4,SP                 ; [] 
     877                    .dwcfi  cfa_offset, 4
     878            $C$DW$65        .dwtag  DW_TAG_TI_branch
     879                    .dwattr $C$DW$65, DW_AT_low_pc(0x00)
     880                    .dwattr $C$DW$65, DW_AT_TI_return
     881            
     882 000014 0110          RETA      ; [] 
     883                    ; [] 
     884                    .dwattr $C$DW$60, DW_AT_TI_end_file("../driverlib/MSP430FR2xx_4xx/adc.c")
     885                    .dwattr $C$DW$60, DW_AT_TI_end_line(0x79)
     886                    .dwattr $C$DW$60, DW_AT_TI_end_column(0x01)
     887                    .dwendentry
     888                    .dwendtag $C$DW$60
     889            
     890 000000               .sect   ".text:ADC_startConversion"
     891                    .clink
     892                    .global ADC_startConversion
     893            
     894            $C$DW$66        .dwtag  DW_TAG_subprogram
     895                    .dwattr $C$DW$66, DW_AT_name("ADC_startConversion")
     896                    .dwattr $C$DW$66, DW_AT_low_pc(ADC_startConversion)
     897                    .dwattr $C$DW$66, DW_AT_high_pc(0x00)
     898                    .dwattr $C$DW$66, DW_AT_TI_symbol_name("ADC_startConversion")
     899                    .dwattr $C$DW$66, DW_AT_external
     900                    .dwattr $C$DW$66, DW_AT_TI_begin_file("../driverlib/MSP430FR2xx_4xx/adc.c")
     901                    .dwattr $C$DW$66, DW_AT_TI_begin_line(0x7b)
     902                    .dwattr $C$DW$66, DW_AT_TI_begin_column(0x06)
     903                    .dwattr $C$DW$66, DW_AT_decl_file("../driverlib/MSP430FR2xx_4xx/adc.c")
     904                    .dwattr $C$DW$66, DW_AT_decl_line(0x7b)
     905                    .dwattr $C$DW$66, DW_AT_decl_column(0x06)
     906                    .dwattr $C$DW$66, DW_AT_TI_max_frame_size(0x08)
     907                    .dwpsn  file "../driverlib/MSP430FR2xx_4xx/adc.c",line 125,column 1,is_stmt,address ADC_startC
     908            
     909                    .dwfde $C$DW$CIE, ADC_startConversion
     910            $C$DW$67        .dwtag  DW_TAG_formal_parameter
     911                    .dwattr $C$DW$67, DW_AT_name("baseAddress")
     912                    .dwattr $C$DW$67, DW_AT_TI_symbol_name("baseAddress")
     913                    .dwattr $C$DW$67, DW_AT_type(*$C$DW$T$24)
     914                    .dwattr $C$DW$67, DW_AT_location[DW_OP_reg12]
     915            
     916            $C$DW$68        .dwtag  DW_TAG_formal_parameter
MSP430 Assembler PC v21.6.1 Wed Nov 30 16:35:37 2022

Copyright (c) 2003-2018 Texas Instruments Incorporated
adc.asm                                                              PAGE   19

     917                    .dwattr $C$DW$68, DW_AT_name("conversionSequenceModeSelect")
     918                    .dwattr $C$DW$68, DW_AT_TI_symbol_name("conversionSequenceModeSelect")
     919                    .dwattr $C$DW$68, DW_AT_type(*$C$DW$T$24)
     920                    .dwattr $C$DW$68, DW_AT_location[DW_OP_reg13]
     921            
     922            
     923            ;*****************************************************************************
     924            ;* FUNCTION NAME: ADC_startConversion                                        *
     925            ;*                                                                           *
     926            ;*   Regs Modified     : SP,SR,r15                                           *
     927            ;*   Regs Used         : SP,SR,r12,r13,r15                                   *
     928            ;*   Local Frame Size  : 0 Args + 4 Auto + 0 Save = 4 byte                   *
     929            ;*****************************************************************************
     930 000000       ADC_startConversion:
     931            ;* --------------------------------------------------------------------------*
     932                    .dwcfi  cfa_offset, 4
     933                    .dwcfi  save_reg_to_mem, 16, -4
     934 000000 8221          SUB.W     #4,SP                 ; [] 
     935                    .dwcfi  cfa_offset, 8
     936            $C$DW$69        .dwtag  DW_TAG_variable
     937                    .dwattr $C$DW$69, DW_AT_name("baseAddress")
     938                    .dwattr $C$DW$69, DW_AT_TI_symbol_name("baseAddress")
     939                    .dwattr $C$DW$69, DW_AT_type(*$C$DW$T$24)
     940                    .dwattr $C$DW$69, DW_AT_location[DW_OP_breg1 0]
     941            
     942            $C$DW$70        .dwtag  DW_TAG_variable
     943                    .dwattr $C$DW$70, DW_AT_name("conversionSequenceModeSelect")
     944                    .dwattr $C$DW$70, DW_AT_TI_symbol_name("conversionSequenceModeSelect")
     945                    .dwattr $C$DW$70, DW_AT_type(*$C$DW$T$24)
     946                    .dwattr $C$DW$70, DW_AT_location[DW_OP_breg1 2]
     947            
     948 000002 4D81          MOV.W     r13,2(SP)             ; [] |125| 
         000004 0002 
     949 000006 4C81          MOV.W     r12,0(SP)             ; [] |125| 
         000008 0000 
     950                    .dwpsn  file "../driverlib/MSP430FR2xx_4xx/adc.c",line 127,column 5,is_stmt,isa 0
     951 00000a 412F          MOV.W     0(SP),r15             ; [] |127| 
     952 00000c C3AF          BIC.W     #2,0(r15)             ; [] |127| 
         00000e 0000 
     953                    .dwpsn  file "../driverlib/MSP430FR2xx_4xx/adc.c",line 129,column 5,is_stmt,isa 0
     954 000010 432F          MOV.W     #2,r15                ; [] |129| 
     955 000012 512F          ADD.W     0(SP),r15             ; [] |129| 
     956 000014 F0BF          AND.W     #65529,0(r15)         ; [] |129| 
         000016 FFF9 
         000018 0000 
     957                    .dwpsn  file "../driverlib/MSP430FR2xx_4xx/adc.c",line 130,column 5,is_stmt,isa 0
     958 00001a 432F          MOV.W     #2,r15                ; [] |130| 
     959 00001c 512F          ADD.W     0(SP),r15             ; [] |130| 
     960 00001e D19F          OR.W      2(SP),0(r15)          ; [] |130| 
         000020 0002 
         000022 0000 
     961                    .dwpsn  file "../driverlib/MSP430FR2xx_4xx/adc.c",line 131,column 5,is_stmt,isa 0
     962 000024 412F          MOV.W     0(SP),r15             ; [] |131| 
     963 000026 D0BF          OR.W      #3,0(r15)             ; [] |131| 
         000028 0003 
MSP430 Assembler PC v21.6.1 Wed Nov 30 16:35:37 2022

Copyright (c) 2003-2018 Texas Instruments Incorporated
adc.asm                                                              PAGE   20

         00002a 0000 
     964                    .dwpsn  file "../driverlib/MSP430FR2xx_4xx/adc.c",line 132,column 1,is_stmt,isa 0
     965 00002c 5221          ADD.W     #4,SP                 ; [] 
     966                    .dwcfi  cfa_offset, 4
     967            $C$DW$71        .dwtag  DW_TAG_TI_branch
     968                    .dwattr $C$DW$71, DW_AT_low_pc(0x00)
     969                    .dwattr $C$DW$71, DW_AT_TI_return
     970            
     971 00002e 0110          RETA      ; [] 
     972                    ; [] 
     973                    .dwattr $C$DW$66, DW_AT_TI_end_file("../driverlib/MSP430FR2xx_4xx/adc.c")
     974                    .dwattr $C$DW$66, DW_AT_TI_end_line(0x84)
     975                    .dwattr $C$DW$66, DW_AT_TI_end_column(0x01)
     976                    .dwendentry
     977                    .dwendtag $C$DW$66
     978            
     979 000000               .sect   ".text:ADC_disableConversions"
     980                    .clink
     981                    .global ADC_disableConversions
     982            
     983            $C$DW$72        .dwtag  DW_TAG_subprogram
     984                    .dwattr $C$DW$72, DW_AT_name("ADC_disableConversions")
     985                    .dwattr $C$DW$72, DW_AT_low_pc(ADC_disableConversions)
     986                    .dwattr $C$DW$72, DW_AT_high_pc(0x00)
     987                    .dwattr $C$DW$72, DW_AT_TI_symbol_name("ADC_disableConversions")
     988                    .dwattr $C$DW$72, DW_AT_external
     989                    .dwattr $C$DW$72, DW_AT_TI_begin_file("../driverlib/MSP430FR2xx_4xx/adc.c")
     990                    .dwattr $C$DW$72, DW_AT_TI_begin_line(0x86)
     991                    .dwattr $C$DW$72, DW_AT_TI_begin_column(0x06)
     992                    .dwattr $C$DW$72, DW_AT_decl_file("../driverlib/MSP430FR2xx_4xx/adc.c")
     993                    .dwattr $C$DW$72, DW_AT_decl_line(0x86)
     994                    .dwattr $C$DW$72, DW_AT_decl_column(0x06)
     995                    .dwattr $C$DW$72, DW_AT_TI_max_frame_size(0x08)
     996                    .dwpsn  file "../driverlib/MSP430FR2xx_4xx/adc.c",line 136,column 1,is_stmt,address ADC_disabl
     997            
     998                    .dwfde $C$DW$CIE, ADC_disableConversions
     999            $C$DW$73        .dwtag  DW_TAG_formal_parameter
    1000                    .dwattr $C$DW$73, DW_AT_name("baseAddress")
    1001                    .dwattr $C$DW$73, DW_AT_TI_symbol_name("baseAddress")
    1002                    .dwattr $C$DW$73, DW_AT_type(*$C$DW$T$24)
    1003                    .dwattr $C$DW$73, DW_AT_location[DW_OP_reg12]
    1004            
    1005            $C$DW$74        .dwtag  DW_TAG_formal_parameter
    1006                    .dwattr $C$DW$74, DW_AT_name("preempt")
    1007                    .dwattr $C$DW$74, DW_AT_TI_symbol_name("preempt")
    1008                    .dwattr $C$DW$74, DW_AT_type(*$C$DW$T$32)
    1009                    .dwattr $C$DW$74, DW_AT_location[DW_OP_reg13]
    1010            
    1011            
    1012            ;*****************************************************************************
    1013            ;* FUNCTION NAME: ADC_disableConversions                                     *
    1014            ;*                                                                           *
    1015            ;*   Regs Modified     : SP,SR,r15                                           *
    1016            ;*   Regs Used         : SP,SR,r12,r13,r15                                   *
    1017            ;*   Local Frame Size  : 0 Args + 4 Auto + 0 Save = 4 byte                   *
MSP430 Assembler PC v21.6.1 Wed Nov 30 16:35:37 2022

Copyright (c) 2003-2018 Texas Instruments Incorporated
adc.asm                                                              PAGE   21

    1018            ;*****************************************************************************
    1019 000000       ADC_disableConversions:
    1020            ;* --------------------------------------------------------------------------*
    1021                    .dwcfi  cfa_offset, 4
    1022                    .dwcfi  save_reg_to_mem, 16, -4
    1023 000000 8221          SUB.W     #4,SP                 ; [] 
    1024                    .dwcfi  cfa_offset, 8
    1025            $C$DW$75        .dwtag  DW_TAG_variable
    1026                    .dwattr $C$DW$75, DW_AT_name("baseAddress")
    1027                    .dwattr $C$DW$75, DW_AT_TI_symbol_name("baseAddress")
    1028                    .dwattr $C$DW$75, DW_AT_type(*$C$DW$T$24)
    1029                    .dwattr $C$DW$75, DW_AT_location[DW_OP_breg1 0]
    1030            
    1031            $C$DW$76        .dwtag  DW_TAG_variable
    1032                    .dwattr $C$DW$76, DW_AT_name("preempt")
    1033                    .dwattr $C$DW$76, DW_AT_TI_symbol_name("preempt")
    1034                    .dwattr $C$DW$76, DW_AT_type(*$C$DW$T$32)
    1035                    .dwattr $C$DW$76, DW_AT_location[DW_OP_breg1 2]
    1036            
    1037 000002 4DC1          MOV.B     r13,2(SP)             ; [] |136| 
         000004 0002 
    1038 000006 4C81          MOV.W     r12,0(SP)             ; [] |136| 
         000008 0000 
    1039                    .dwpsn  file "../driverlib/MSP430FR2xx_4xx/adc.c",line 137,column 5,is_stmt,isa 0
    1040 00000a 93C1          TST.B     2(SP)                 ; [] |137| 
         00000c 0002 
    1041 00000e 2007          JNE       $C$L4                 ; [] |137| 
    1042                                                      ; [] |137| 
    1043            ;* --------------------------------------------------------------------------*
    1044                    .dwpsn  file "../driverlib/MSP430FR2xx_4xx/adc.c",line 138,column 9,is_stmt,isa 0
    1045 000010 B0BC          BIT.W     #6,2(r12)             ; [] |138| 
         000012 0006 
         000014 0002 
    1046 000016 2003          JNE       $C$L4                 ; [] |138| 
    1047                                                      ; [] |138| 
    1048            ;* --------------------------------------------------------------------------*
    1049                    .dwpsn  file "../driverlib/MSP430FR2xx_4xx/adc.c",line 141,column 13,is_stmt,isa 0
    1050            ;* --------------------------------------------------------------------------*
    1051            ;*   BEGIN LOOP $C$L3
    1052            ;*
    1053            ;*   Loop source line                : 141
    1054            ;*   Loop closing brace source line  : 141
    1055            ;*   Known Minimum Trip Count        : 1
    1056            ;*   Known Maximum Trip Count        : 4294967295
    1057            ;*   Known Max Trip Count Factor     : 1
    1058            ;* --------------------------------------------------------------------------*
    1059 000018       $C$L3:    
    1060 000018 B39C          BIT.W     #1,2(r12)             ; [] |141| 
         00001a 0002 
    1061 00001c 23FD          JNE       $C$L3                 ; [] |141| 
    1062                                                      ; [] |141| 
    1063            ;* --------------------------------------------------------------------------*
    1064 00001e       $C$L4:    
    1065                    .dwpsn  file "../driverlib/MSP430FR2xx_4xx/adc.c",line 145,column 5,is_stmt,isa 0
    1066 00001e 412F          MOV.W     0(SP),r15             ; [] |145| 
MSP430 Assembler PC v21.6.1 Wed Nov 30 16:35:37 2022

Copyright (c) 2003-2018 Texas Instruments Incorporated
adc.asm                                                              PAGE   22

    1067 000020 C3AF          BIC.W     #2,0(r15)             ; [] |145| 
         000022 0000 
    1068                    .dwpsn  file "../driverlib/MSP430FR2xx_4xx/adc.c",line 146,column 5,is_stmt,isa 0
    1069 000024 432F          MOV.W     #2,r15                ; [] |146| 
    1070 000026 512F          ADD.W     0(SP),r15             ; [] |146| 
    1071 000028 F0BF          AND.W     #65529,0(r15)         ; [] |146| 
         00002a FFF9 
         00002c 0000 
    1072                    .dwpsn  file "../driverlib/MSP430FR2xx_4xx/adc.c",line 147,column 1,is_stmt,isa 0
    1073 00002e 5221          ADD.W     #4,SP                 ; [] 
    1074                    .dwcfi  cfa_offset, 4
    1075            $C$DW$77        .dwtag  DW_TAG_TI_branch
    1076                    .dwattr $C$DW$77, DW_AT_low_pc(0x00)
    1077                    .dwattr $C$DW$77, DW_AT_TI_return
    1078            
    1079 000030 0110          RETA      ; [] 
    1080                    ; [] 
    1081                    .dwattr $C$DW$72, DW_AT_TI_end_file("../driverlib/MSP430FR2xx_4xx/adc.c")
    1082                    .dwattr $C$DW$72, DW_AT_TI_end_line(0x93)
    1083                    .dwattr $C$DW$72, DW_AT_TI_end_column(0x01)
    1084                    .dwendentry
    1085                    .dwendtag $C$DW$72
    1086            
    1087 000000               .sect   ".text:ADC_getResults"
    1088                    .clink
    1089                    .global ADC_getResults
    1090            
    1091            $C$DW$78        .dwtag  DW_TAG_subprogram
    1092                    .dwattr $C$DW$78, DW_AT_name("ADC_getResults")
    1093                    .dwattr $C$DW$78, DW_AT_low_pc(ADC_getResults)
    1094                    .dwattr $C$DW$78, DW_AT_high_pc(0x00)
    1095                    .dwattr $C$DW$78, DW_AT_TI_symbol_name("ADC_getResults")
    1096                    .dwattr $C$DW$78, DW_AT_external
    1097                    .dwattr $C$DW$78, DW_AT_type(*$C$DW$T$63)
    1098                    .dwattr $C$DW$78, DW_AT_TI_begin_file("../driverlib/MSP430FR2xx_4xx/adc.c")
    1099                    .dwattr $C$DW$78, DW_AT_TI_begin_line(0x95)
    1100                    .dwattr $C$DW$78, DW_AT_TI_begin_column(0x09)
    1101                    .dwattr $C$DW$78, DW_AT_decl_file("../driverlib/MSP430FR2xx_4xx/adc.c")
    1102                    .dwattr $C$DW$78, DW_AT_decl_line(0x95)
    1103                    .dwattr $C$DW$78, DW_AT_decl_column(0x09)
    1104                    .dwattr $C$DW$78, DW_AT_TI_max_frame_size(0x06)
    1105                    .dwpsn  file "../driverlib/MSP430FR2xx_4xx/adc.c",line 150,column 1,is_stmt,address ADC_getRes
    1106            
    1107                    .dwfde $C$DW$CIE, ADC_getResults
    1108            $C$DW$79        .dwtag  DW_TAG_formal_parameter
    1109                    .dwattr $C$DW$79, DW_AT_name("baseAddress")
    1110                    .dwattr $C$DW$79, DW_AT_TI_symbol_name("baseAddress")
    1111                    .dwattr $C$DW$79, DW_AT_type(*$C$DW$T$24)
    1112                    .dwattr $C$DW$79, DW_AT_location[DW_OP_reg12]
    1113            
    1114            
    1115            ;*****************************************************************************
    1116            ;* FUNCTION NAME: ADC_getResults                                             *
    1117            ;*                                                                           *
    1118            ;*   Regs Modified     : SP,SR,r12                                           *
MSP430 Assembler PC v21.6.1 Wed Nov 30 16:35:37 2022

Copyright (c) 2003-2018 Texas Instruments Incorporated
adc.asm                                                              PAGE   23

    1119            ;*   Regs Used         : SP,SR,r12                                           *
    1120            ;*   Local Frame Size  : 0 Args + 2 Auto + 0 Save = 2 byte                   *
    1121            ;*****************************************************************************
    1122 000000       ADC_getResults:
    1123            ;* --------------------------------------------------------------------------*
    1124                    .dwcfi  cfa_offset, 4
    1125                    .dwcfi  save_reg_to_mem, 16, -4
    1126 000000 8321          SUB.W     #2,SP                 ; [] 
    1127                    .dwcfi  cfa_offset, 6
    1128            $C$DW$80        .dwtag  DW_TAG_variable
    1129                    .dwattr $C$DW$80, DW_AT_name("baseAddress")
    1130                    .dwattr $C$DW$80, DW_AT_TI_symbol_name("baseAddress")
    1131                    .dwattr $C$DW$80, DW_AT_type(*$C$DW$T$24)
    1132                    .dwattr $C$DW$80, DW_AT_location[DW_OP_breg1 0]
    1133            
    1134 000002 4C81          MOV.W     r12,0(SP)             ; [] |150| 
         000004 0000 
    1135                    .dwpsn  file "../driverlib/MSP430FR2xx_4xx/adc.c",line 151,column 5,is_stmt,isa 0
    1136 000006 4C1C          MOV.W     18(r12),r12           ; [] |151| 
         000008 0012 
    1137                    .dwpsn  file "../driverlib/MSP430FR2xx_4xx/adc.c",line 152,column 1,is_stmt,isa 0
    1138 00000a 5321          ADD.W     #2,SP                 ; [] 
    1139                    .dwcfi  cfa_offset, 4
    1140            $C$DW$81        .dwtag  DW_TAG_TI_branch
    1141                    .dwattr $C$DW$81, DW_AT_low_pc(0x00)
    1142                    .dwattr $C$DW$81, DW_AT_TI_return
    1143            
    1144 00000c 0110          RETA      ; [] 
    1145                    ; [] 
    1146                    .dwattr $C$DW$78, DW_AT_TI_end_file("../driverlib/MSP430FR2xx_4xx/adc.c")
    1147                    .dwattr $C$DW$78, DW_AT_TI_end_line(0x98)
    1148                    .dwattr $C$DW$78, DW_AT_TI_end_column(0x01)
    1149                    .dwendentry
    1150                    .dwendtag $C$DW$78
    1151            
    1152 000000               .sect   ".text:ADC_setResolution"
    1153                    .clink
    1154                    .global ADC_setResolution
    1155            
    1156            $C$DW$82        .dwtag  DW_TAG_subprogram
    1157                    .dwattr $C$DW$82, DW_AT_name("ADC_setResolution")
    1158                    .dwattr $C$DW$82, DW_AT_low_pc(ADC_setResolution)
    1159                    .dwattr $C$DW$82, DW_AT_high_pc(0x00)
    1160                    .dwattr $C$DW$82, DW_AT_TI_symbol_name("ADC_setResolution")
    1161                    .dwattr $C$DW$82, DW_AT_external
    1162                    .dwattr $C$DW$82, DW_AT_TI_begin_file("../driverlib/MSP430FR2xx_4xx/adc.c")
    1163                    .dwattr $C$DW$82, DW_AT_TI_begin_line(0x9a)
    1164                    .dwattr $C$DW$82, DW_AT_TI_begin_column(0x06)
    1165                    .dwattr $C$DW$82, DW_AT_decl_file("../driverlib/MSP430FR2xx_4xx/adc.c")
    1166                    .dwattr $C$DW$82, DW_AT_decl_line(0x9a)
    1167                    .dwattr $C$DW$82, DW_AT_decl_column(0x06)
    1168                    .dwattr $C$DW$82, DW_AT_TI_max_frame_size(0x08)
    1169                    .dwpsn  file "../driverlib/MSP430FR2xx_4xx/adc.c",line 156,column 1,is_stmt,address ADC_setRes
    1170            
    1171                    .dwfde $C$DW$CIE, ADC_setResolution
MSP430 Assembler PC v21.6.1 Wed Nov 30 16:35:37 2022

Copyright (c) 2003-2018 Texas Instruments Incorporated
adc.asm                                                              PAGE   24

    1172            $C$DW$83        .dwtag  DW_TAG_formal_parameter
    1173                    .dwattr $C$DW$83, DW_AT_name("baseAddress")
    1174                    .dwattr $C$DW$83, DW_AT_TI_symbol_name("baseAddress")
    1175                    .dwattr $C$DW$83, DW_AT_type(*$C$DW$T$24)
    1176                    .dwattr $C$DW$83, DW_AT_location[DW_OP_reg12]
    1177            
    1178            $C$DW$84        .dwtag  DW_TAG_formal_parameter
    1179                    .dwattr $C$DW$84, DW_AT_name("resolutionSelect")
    1180                    .dwattr $C$DW$84, DW_AT_TI_symbol_name("resolutionSelect")
    1181                    .dwattr $C$DW$84, DW_AT_type(*$C$DW$T$24)
    1182                    .dwattr $C$DW$84, DW_AT_location[DW_OP_reg13]
    1183            
    1184            
    1185            ;*****************************************************************************
    1186            ;* FUNCTION NAME: ADC_setResolution                                          *
    1187            ;*                                                                           *
    1188            ;*   Regs Modified     : SP,SR,r15                                           *
    1189            ;*   Regs Used         : SP,SR,r12,r13,r15                                   *
    1190            ;*   Local Frame Size  : 0 Args + 4 Auto + 0 Save = 4 byte                   *
    1191            ;*****************************************************************************
    1192 000000       ADC_setResolution:
    1193            ;* --------------------------------------------------------------------------*
    1194                    .dwcfi  cfa_offset, 4
    1195                    .dwcfi  save_reg_to_mem, 16, -4
    1196 000000 8221          SUB.W     #4,SP                 ; [] 
    1197                    .dwcfi  cfa_offset, 8
    1198            $C$DW$85        .dwtag  DW_TAG_variable
    1199                    .dwattr $C$DW$85, DW_AT_name("baseAddress")
    1200                    .dwattr $C$DW$85, DW_AT_TI_symbol_name("baseAddress")
    1201                    .dwattr $C$DW$85, DW_AT_type(*$C$DW$T$24)
    1202                    .dwattr $C$DW$85, DW_AT_location[DW_OP_breg1 0]
    1203            
    1204            $C$DW$86        .dwtag  DW_TAG_variable
    1205                    .dwattr $C$DW$86, DW_AT_name("resolutionSelect")
    1206                    .dwattr $C$DW$86, DW_AT_TI_symbol_name("resolutionSelect")
    1207                    .dwattr $C$DW$86, DW_AT_type(*$C$DW$T$24)
    1208                    .dwattr $C$DW$86, DW_AT_location[DW_OP_breg1 2]
    1209            
    1210 000002 4D81          MOV.W     r13,2(SP)             ; [] |156| 
         000004 0002 
    1211 000006 4C81          MOV.W     r12,0(SP)             ; [] |156| 
         000008 0000 
    1212                    .dwpsn  file "../driverlib/MSP430FR2xx_4xx/adc.c",line 157,column 5,is_stmt,isa 0
    1213 00000a 422F          MOV.W     #4,r15                ; [] |157| 
    1214 00000c 512F          ADD.W     0(SP),r15             ; [] |157| 
    1215 00000e F0BF          AND.W     #65519,0(r15)         ; [] |157| 
         000010 FFEF 
         000012 0000 
    1216                    .dwpsn  file "../driverlib/MSP430FR2xx_4xx/adc.c",line 158,column 5,is_stmt,isa 0
    1217 000014 422F          MOV.W     #4,r15                ; [] |158| 
    1218 000016 512F          ADD.W     0(SP),r15             ; [] |158| 
    1219 000018 D19F          OR.W      2(SP),0(r15)          ; [] |158| 
         00001a 0002 
         00001c 0000 
    1220                    .dwpsn  file "../driverlib/MSP430FR2xx_4xx/adc.c",line 159,column 1,is_stmt,isa 0
MSP430 Assembler PC v21.6.1 Wed Nov 30 16:35:37 2022

Copyright (c) 2003-2018 Texas Instruments Incorporated
adc.asm                                                              PAGE   25

    1221 00001e 5221          ADD.W     #4,SP                 ; [] 
    1222                    .dwcfi  cfa_offset, 4
    1223            $C$DW$87        .dwtag  DW_TAG_TI_branch
    1224                    .dwattr $C$DW$87, DW_AT_low_pc(0x00)
    1225                    .dwattr $C$DW$87, DW_AT_TI_return
    1226            
    1227 000020 0110          RETA      ; [] 
    1228                    ; [] 
    1229                    .dwattr $C$DW$82, DW_AT_TI_end_file("../driverlib/MSP430FR2xx_4xx/adc.c")
    1230                    .dwattr $C$DW$82, DW_AT_TI_end_line(0x9f)
    1231                    .dwattr $C$DW$82, DW_AT_TI_end_column(0x01)
    1232                    .dwendentry
    1233                    .dwendtag $C$DW$82
    1234            
    1235 000000               .sect   ".text:ADC_setSampleHoldSignalInversion"
    1236                    .clink
    1237                    .global ADC_setSampleHoldSignalInversion
    1238            
    1239            $C$DW$88        .dwtag  DW_TAG_subprogram
    1240                    .dwattr $C$DW$88, DW_AT_name("ADC_setSampleHoldSignalInversion")
    1241                    .dwattr $C$DW$88, DW_AT_low_pc(ADC_setSampleHoldSignalInversion)
    1242                    .dwattr $C$DW$88, DW_AT_high_pc(0x00)
    1243                    .dwattr $C$DW$88, DW_AT_TI_symbol_name("ADC_setSampleHoldSignalInversion")
    1244                    .dwattr $C$DW$88, DW_AT_external
    1245                    .dwattr $C$DW$88, DW_AT_TI_begin_file("../driverlib/MSP430FR2xx_4xx/adc.c")
    1246                    .dwattr $C$DW$88, DW_AT_TI_begin_line(0xa1)
    1247                    .dwattr $C$DW$88, DW_AT_TI_begin_column(0x06)
    1248                    .dwattr $C$DW$88, DW_AT_decl_file("../driverlib/MSP430FR2xx_4xx/adc.c")
    1249                    .dwattr $C$DW$88, DW_AT_decl_line(0xa1)
    1250                    .dwattr $C$DW$88, DW_AT_decl_column(0x06)
    1251                    .dwattr $C$DW$88, DW_AT_TI_max_frame_size(0x08)
    1252                    .dwpsn  file "../driverlib/MSP430FR2xx_4xx/adc.c",line 163,column 1,is_stmt,address ADC_setSam
    1253            
    1254                    .dwfde $C$DW$CIE, ADC_setSampleHoldSignalInversion
    1255            $C$DW$89        .dwtag  DW_TAG_formal_parameter
    1256                    .dwattr $C$DW$89, DW_AT_name("baseAddress")
    1257                    .dwattr $C$DW$89, DW_AT_TI_symbol_name("baseAddress")
    1258                    .dwattr $C$DW$89, DW_AT_type(*$C$DW$T$24)
    1259                    .dwattr $C$DW$89, DW_AT_location[DW_OP_reg12]
    1260            
    1261            $C$DW$90        .dwtag  DW_TAG_formal_parameter
    1262                    .dwattr $C$DW$90, DW_AT_name("invertedSignal")
    1263                    .dwattr $C$DW$90, DW_AT_TI_symbol_name("invertedSignal")
    1264                    .dwattr $C$DW$90, DW_AT_type(*$C$DW$T$24)
    1265                    .dwattr $C$DW$90, DW_AT_location[DW_OP_reg13]
    1266            
    1267            
    1268            ;*****************************************************************************
    1269            ;* FUNCTION NAME: ADC_setSampleHoldSignalInversion                           *
    1270            ;*                                                                           *
    1271            ;*   Regs Modified     : SP,SR,r15                                           *
    1272            ;*   Regs Used         : SP,SR,r12,r13,r15                                   *
    1273            ;*   Local Frame Size  : 0 Args + 4 Auto + 0 Save = 4 byte                   *
    1274            ;*****************************************************************************
    1275 000000       ADC_setSampleHoldSignalInversion:
MSP430 Assembler PC v21.6.1 Wed Nov 30 16:35:37 2022

Copyright (c) 2003-2018 Texas Instruments Incorporated
adc.asm                                                              PAGE   26

    1276            ;* --------------------------------------------------------------------------*
    1277                    .dwcfi  cfa_offset, 4
    1278                    .dwcfi  save_reg_to_mem, 16, -4
    1279 000000 8221          SUB.W     #4,SP                 ; [] 
    1280                    .dwcfi  cfa_offset, 8
    1281            $C$DW$91        .dwtag  DW_TAG_variable
    1282                    .dwattr $C$DW$91, DW_AT_name("baseAddress")
    1283                    .dwattr $C$DW$91, DW_AT_TI_symbol_name("baseAddress")
    1284                    .dwattr $C$DW$91, DW_AT_type(*$C$DW$T$24)
    1285                    .dwattr $C$DW$91, DW_AT_location[DW_OP_breg1 0]
    1286            
    1287            $C$DW$92        .dwtag  DW_TAG_variable
    1288                    .dwattr $C$DW$92, DW_AT_name("invertedSignal")
    1289                    .dwattr $C$DW$92, DW_AT_TI_symbol_name("invertedSignal")
    1290                    .dwattr $C$DW$92, DW_AT_type(*$C$DW$T$24)
    1291                    .dwattr $C$DW$92, DW_AT_location[DW_OP_breg1 2]
    1292            
    1293 000002 4D81          MOV.W     r13,2(SP)             ; [] |163| 
         000004 0002 
    1294 000006 4C81          MOV.W     r12,0(SP)             ; [] |163| 
         000008 0000 
    1295                    .dwpsn  file "../driverlib/MSP430FR2xx_4xx/adc.c",line 164,column 5,is_stmt,isa 0
    1296 00000a 432F          MOV.W     #2,r15                ; [] |164| 
    1297 00000c 512F          ADD.W     0(SP),r15             ; [] |164| 
    1298 00000e F0BF          AND.W     #65279,0(r15)         ; [] |164| 
         000010 FEFF 
         000012 0000 
    1299                    .dwpsn  file "../driverlib/MSP430FR2xx_4xx/adc.c",line 165,column 5,is_stmt,isa 0
    1300 000014 432F          MOV.W     #2,r15                ; [] |165| 
    1301 000016 512F          ADD.W     0(SP),r15             ; [] |165| 
    1302 000018 D19F          OR.W      2(SP),0(r15)          ; [] |165| 
         00001a 0002 
         00001c 0000 
    1303                    .dwpsn  file "../driverlib/MSP430FR2xx_4xx/adc.c",line 166,column 1,is_stmt,isa 0
    1304 00001e 5221          ADD.W     #4,SP                 ; [] 
    1305                    .dwcfi  cfa_offset, 4
    1306            $C$DW$93        .dwtag  DW_TAG_TI_branch
    1307                    .dwattr $C$DW$93, DW_AT_low_pc(0x00)
    1308                    .dwattr $C$DW$93, DW_AT_TI_return
    1309            
    1310 000020 0110          RETA      ; [] 
    1311                    ; [] 
    1312                    .dwattr $C$DW$88, DW_AT_TI_end_file("../driverlib/MSP430FR2xx_4xx/adc.c")
    1313                    .dwattr $C$DW$88, DW_AT_TI_end_line(0xa6)
    1314                    .dwattr $C$DW$88, DW_AT_TI_end_column(0x01)
    1315                    .dwendentry
    1316                    .dwendtag $C$DW$88
    1317            
    1318 000000               .sect   ".text:ADC_setDataReadBackFormat"
    1319                    .clink
    1320                    .global ADC_setDataReadBackFormat
    1321            
    1322            $C$DW$94        .dwtag  DW_TAG_subprogram
    1323                    .dwattr $C$DW$94, DW_AT_name("ADC_setDataReadBackFormat")
    1324                    .dwattr $C$DW$94, DW_AT_low_pc(ADC_setDataReadBackFormat)
MSP430 Assembler PC v21.6.1 Wed Nov 30 16:35:37 2022

Copyright (c) 2003-2018 Texas Instruments Incorporated
adc.asm                                                              PAGE   27

    1325                    .dwattr $C$DW$94, DW_AT_high_pc(0x00)
    1326                    .dwattr $C$DW$94, DW_AT_TI_symbol_name("ADC_setDataReadBackFormat")
    1327                    .dwattr $C$DW$94, DW_AT_external
    1328                    .dwattr $C$DW$94, DW_AT_TI_begin_file("../driverlib/MSP430FR2xx_4xx/adc.c")
    1329                    .dwattr $C$DW$94, DW_AT_TI_begin_line(0xa8)
    1330                    .dwattr $C$DW$94, DW_AT_TI_begin_column(0x06)
    1331                    .dwattr $C$DW$94, DW_AT_decl_file("../driverlib/MSP430FR2xx_4xx/adc.c")
    1332                    .dwattr $C$DW$94, DW_AT_decl_line(0xa8)
    1333                    .dwattr $C$DW$94, DW_AT_decl_column(0x06)
    1334                    .dwattr $C$DW$94, DW_AT_TI_max_frame_size(0x08)
    1335                    .dwpsn  file "../driverlib/MSP430FR2xx_4xx/adc.c",line 170,column 1,is_stmt,address ADC_setDat
    1336            
    1337                    .dwfde $C$DW$CIE, ADC_setDataReadBackFormat
    1338            $C$DW$95        .dwtag  DW_TAG_formal_parameter
    1339                    .dwattr $C$DW$95, DW_AT_name("baseAddress")
    1340                    .dwattr $C$DW$95, DW_AT_TI_symbol_name("baseAddress")
    1341                    .dwattr $C$DW$95, DW_AT_type(*$C$DW$T$24)
    1342                    .dwattr $C$DW$95, DW_AT_location[DW_OP_reg12]
    1343            
    1344            $C$DW$96        .dwtag  DW_TAG_formal_parameter
    1345                    .dwattr $C$DW$96, DW_AT_name("readBackFormat")
    1346                    .dwattr $C$DW$96, DW_AT_TI_symbol_name("readBackFormat")
    1347                    .dwattr $C$DW$96, DW_AT_type(*$C$DW$T$24)
    1348                    .dwattr $C$DW$96, DW_AT_location[DW_OP_reg13]
    1349            
    1350            
    1351            ;*****************************************************************************
    1352            ;* FUNCTION NAME: ADC_setDataReadBackFormat                                  *
    1353            ;*                                                                           *
    1354            ;*   Regs Modified     : SP,SR,r15                                           *
    1355            ;*   Regs Used         : SP,SR,r12,r13,r15                                   *
    1356            ;*   Local Frame Size  : 0 Args + 4 Auto + 0 Save = 4 byte                   *
    1357            ;*****************************************************************************
    1358 000000       ADC_setDataReadBackFormat:
    1359            ;* --------------------------------------------------------------------------*
    1360                    .dwcfi  cfa_offset, 4
    1361                    .dwcfi  save_reg_to_mem, 16, -4
    1362 000000 8221          SUB.W     #4,SP                 ; [] 
    1363                    .dwcfi  cfa_offset, 8
    1364            $C$DW$97        .dwtag  DW_TAG_variable
    1365                    .dwattr $C$DW$97, DW_AT_name("baseAddress")
    1366                    .dwattr $C$DW$97, DW_AT_TI_symbol_name("baseAddress")
    1367                    .dwattr $C$DW$97, DW_AT_type(*$C$DW$T$24)
    1368                    .dwattr $C$DW$97, DW_AT_location[DW_OP_breg1 0]
    1369            
    1370            $C$DW$98        .dwtag  DW_TAG_variable
    1371                    .dwattr $C$DW$98, DW_AT_name("readBackFormat")
    1372                    .dwattr $C$DW$98, DW_AT_TI_symbol_name("readBackFormat")
    1373                    .dwattr $C$DW$98, DW_AT_type(*$C$DW$T$24)
    1374                    .dwattr $C$DW$98, DW_AT_location[DW_OP_breg1 2]
    1375            
    1376 000002 4D81          MOV.W     r13,2(SP)             ; [] |170| 
         000004 0002 
    1377 000006 4C81          MOV.W     r12,0(SP)             ; [] |170| 
         000008 0000 
MSP430 Assembler PC v21.6.1 Wed Nov 30 16:35:37 2022

Copyright (c) 2003-2018 Texas Instruments Incorporated
adc.asm                                                              PAGE   28

    1378                    .dwpsn  file "../driverlib/MSP430FR2xx_4xx/adc.c",line 171,column 5,is_stmt,isa 0
    1379 00000a 422F          MOV.W     #4,r15                ; [] |171| 
    1380 00000c 512F          ADD.W     0(SP),r15             ; [] |171| 
    1381 00000e C2BF          BIC.W     #8,0(r15)             ; [] |171| 
         000010 0000 
    1382                    .dwpsn  file "../driverlib/MSP430FR2xx_4xx/adc.c",line 172,column 5,is_stmt,isa 0
    1383 000012 422F          MOV.W     #4,r15                ; [] |172| 
    1384 000014 512F          ADD.W     0(SP),r15             ; [] |172| 
    1385 000016 D19F          OR.W      2(SP),0(r15)          ; [] |172| 
         000018 0002 
         00001a 0000 
    1386                    .dwpsn  file "../driverlib/MSP430FR2xx_4xx/adc.c",line 173,column 1,is_stmt,isa 0
    1387 00001c 5221          ADD.W     #4,SP                 ; [] 
    1388                    .dwcfi  cfa_offset, 4
    1389            $C$DW$99        .dwtag  DW_TAG_TI_branch
    1390                    .dwattr $C$DW$99, DW_AT_low_pc(0x00)
    1391                    .dwattr $C$DW$99, DW_AT_TI_return
    1392            
    1393 00001e 0110          RETA      ; [] 
    1394                    ; [] 
    1395                    .dwattr $C$DW$94, DW_AT_TI_end_file("../driverlib/MSP430FR2xx_4xx/adc.c")
    1396                    .dwattr $C$DW$94, DW_AT_TI_end_line(0xad)
    1397                    .dwattr $C$DW$94, DW_AT_TI_end_column(0x01)
    1398                    .dwendentry
    1399                    .dwendtag $C$DW$94
    1400            
    1401 000000               .sect   ".text:ADC_setReferenceBufferSamplingRate"
    1402                    .clink
    1403                    .global ADC_setReferenceBufferSamplingRate
    1404            
    1405            $C$DW$100       .dwtag  DW_TAG_subprogram
    1406                    .dwattr $C$DW$100, DW_AT_name("ADC_setReferenceBufferSamplingRate")
    1407                    .dwattr $C$DW$100, DW_AT_low_pc(ADC_setReferenceBufferSamplingRate)
    1408                    .dwattr $C$DW$100, DW_AT_high_pc(0x00)
    1409                    .dwattr $C$DW$100, DW_AT_TI_symbol_name("ADC_setReferenceBufferSamplingRate")
    1410                    .dwattr $C$DW$100, DW_AT_external
    1411                    .dwattr $C$DW$100, DW_AT_TI_begin_file("../driverlib/MSP430FR2xx_4xx/adc.c")
    1412                    .dwattr $C$DW$100, DW_AT_TI_begin_line(0xaf)
    1413                    .dwattr $C$DW$100, DW_AT_TI_begin_column(0x06)
    1414                    .dwattr $C$DW$100, DW_AT_decl_file("../driverlib/MSP430FR2xx_4xx/adc.c")
    1415                    .dwattr $C$DW$100, DW_AT_decl_line(0xaf)
    1416                    .dwattr $C$DW$100, DW_AT_decl_column(0x06)
    1417                    .dwattr $C$DW$100, DW_AT_TI_max_frame_size(0x08)
    1418                    .dwpsn  file "../driverlib/MSP430FR2xx_4xx/adc.c",line 177,column 1,is_stmt,address ADC_setRef
    1419            
    1420                    .dwfde $C$DW$CIE, ADC_setReferenceBufferSamplingRate
    1421            $C$DW$101       .dwtag  DW_TAG_formal_parameter
    1422                    .dwattr $C$DW$101, DW_AT_name("baseAddress")
    1423                    .dwattr $C$DW$101, DW_AT_TI_symbol_name("baseAddress")
    1424                    .dwattr $C$DW$101, DW_AT_type(*$C$DW$T$24)
    1425                    .dwattr $C$DW$101, DW_AT_location[DW_OP_reg12]
    1426            
    1427            $C$DW$102       .dwtag  DW_TAG_formal_parameter
    1428                    .dwattr $C$DW$102, DW_AT_name("samplingRateSelect")
    1429                    .dwattr $C$DW$102, DW_AT_TI_symbol_name("samplingRateSelect")
MSP430 Assembler PC v21.6.1 Wed Nov 30 16:35:37 2022

Copyright (c) 2003-2018 Texas Instruments Incorporated
adc.asm                                                              PAGE   29

    1430                    .dwattr $C$DW$102, DW_AT_type(*$C$DW$T$24)
    1431                    .dwattr $C$DW$102, DW_AT_location[DW_OP_reg13]
    1432            
    1433            
    1434            ;*****************************************************************************
    1435            ;* FUNCTION NAME: ADC_setReferenceBufferSamplingRate                         *
    1436            ;*                                                                           *
    1437            ;*   Regs Modified     : SP,SR,r15                                           *
    1438            ;*   Regs Used         : SP,SR,r12,r13,r15                                   *
    1439            ;*   Local Frame Size  : 0 Args + 4 Auto + 0 Save = 4 byte                   *
    1440            ;*****************************************************************************
    1441 000000       ADC_setReferenceBufferSamplingRate:
    1442            ;* --------------------------------------------------------------------------*
    1443                    .dwcfi  cfa_offset, 4
    1444                    .dwcfi  save_reg_to_mem, 16, -4
    1445 000000 8221          SUB.W     #4,SP                 ; [] 
    1446                    .dwcfi  cfa_offset, 8
    1447            $C$DW$103       .dwtag  DW_TAG_variable
    1448                    .dwattr $C$DW$103, DW_AT_name("baseAddress")
    1449                    .dwattr $C$DW$103, DW_AT_TI_symbol_name("baseAddress")
    1450                    .dwattr $C$DW$103, DW_AT_type(*$C$DW$T$24)
    1451                    .dwattr $C$DW$103, DW_AT_location[DW_OP_breg1 0]
    1452            
    1453            $C$DW$104       .dwtag  DW_TAG_variable
    1454                    .dwattr $C$DW$104, DW_AT_name("samplingRateSelect")
    1455                    .dwattr $C$DW$104, DW_AT_TI_symbol_name("samplingRateSelect")
    1456                    .dwattr $C$DW$104, DW_AT_type(*$C$DW$T$24)
    1457                    .dwattr $C$DW$104, DW_AT_location[DW_OP_breg1 2]
    1458            
    1459 000002 4D81          MOV.W     r13,2(SP)             ; [] |177| 
         000004 0002 
    1460 000006 4C81          MOV.W     r12,0(SP)             ; [] |177| 
         000008 0000 
    1461                    .dwpsn  file "../driverlib/MSP430FR2xx_4xx/adc.c",line 178,column 5,is_stmt,isa 0
    1462 00000a 422F          MOV.W     #4,r15                ; [] |178| 
    1463 00000c 512F          ADD.W     0(SP),r15             ; [] |178| 
    1464 00000e C2AF          BIC.W     #4,0(r15)             ; [] |178| 
         000010 0000 
    1465                    .dwpsn  file "../driverlib/MSP430FR2xx_4xx/adc.c",line 179,column 5,is_stmt,isa 0
    1466 000012 422F          MOV.W     #4,r15                ; [] |179| 
    1467 000014 512F          ADD.W     0(SP),r15             ; [] |179| 
    1468 000016 D19F          OR.W      2(SP),0(r15)          ; [] |179| 
         000018 0002 
         00001a 0000 
    1469                    .dwpsn  file "../driverlib/MSP430FR2xx_4xx/adc.c",line 180,column 1,is_stmt,isa 0
    1470 00001c 5221          ADD.W     #4,SP                 ; [] 
    1471                    .dwcfi  cfa_offset, 4
    1472            $C$DW$105       .dwtag  DW_TAG_TI_branch
    1473                    .dwattr $C$DW$105, DW_AT_low_pc(0x00)
    1474                    .dwattr $C$DW$105, DW_AT_TI_return
    1475            
    1476 00001e 0110          RETA      ; [] 
    1477                    ; [] 
    1478                    .dwattr $C$DW$100, DW_AT_TI_end_file("../driverlib/MSP430FR2xx_4xx/adc.c")
    1479                    .dwattr $C$DW$100, DW_AT_TI_end_line(0xb4)
MSP430 Assembler PC v21.6.1 Wed Nov 30 16:35:37 2022

Copyright (c) 2003-2018 Texas Instruments Incorporated
adc.asm                                                              PAGE   30

    1480                    .dwattr $C$DW$100, DW_AT_TI_end_column(0x01)
    1481                    .dwendentry
    1482                    .dwendtag $C$DW$100
    1483            
    1484 000000               .sect   ".text:ADC_setWindowComp"
    1485                    .clink
    1486                    .global ADC_setWindowComp
    1487            
    1488            $C$DW$106       .dwtag  DW_TAG_subprogram
    1489                    .dwattr $C$DW$106, DW_AT_name("ADC_setWindowComp")
    1490                    .dwattr $C$DW$106, DW_AT_low_pc(ADC_setWindowComp)
    1491                    .dwattr $C$DW$106, DW_AT_high_pc(0x00)
    1492                    .dwattr $C$DW$106, DW_AT_TI_symbol_name("ADC_setWindowComp")
    1493                    .dwattr $C$DW$106, DW_AT_external
    1494                    .dwattr $C$DW$106, DW_AT_TI_begin_file("../driverlib/MSP430FR2xx_4xx/adc.c")
    1495                    .dwattr $C$DW$106, DW_AT_TI_begin_line(0xb6)
    1496                    .dwattr $C$DW$106, DW_AT_TI_begin_column(0x06)
    1497                    .dwattr $C$DW$106, DW_AT_decl_file("../driverlib/MSP430FR2xx_4xx/adc.c")
    1498                    .dwattr $C$DW$106, DW_AT_decl_line(0xb6)
    1499                    .dwattr $C$DW$106, DW_AT_decl_column(0x06)
    1500                    .dwattr $C$DW$106, DW_AT_TI_max_frame_size(0x0a)
    1501                    .dwpsn  file "../driverlib/MSP430FR2xx_4xx/adc.c",line 185,column 1,is_stmt,address ADC_setWin
    1502            
    1503                    .dwfde $C$DW$CIE, ADC_setWindowComp
    1504            $C$DW$107       .dwtag  DW_TAG_formal_parameter
    1505                    .dwattr $C$DW$107, DW_AT_name("baseAddress")
    1506                    .dwattr $C$DW$107, DW_AT_TI_symbol_name("baseAddress")
    1507                    .dwattr $C$DW$107, DW_AT_type(*$C$DW$T$24)
    1508                    .dwattr $C$DW$107, DW_AT_location[DW_OP_reg12]
    1509            
    1510            $C$DW$108       .dwtag  DW_TAG_formal_parameter
    1511                    .dwattr $C$DW$108, DW_AT_name("highThreshold")
    1512                    .dwattr $C$DW$108, DW_AT_TI_symbol_name("highThreshold")
    1513                    .dwattr $C$DW$108, DW_AT_type(*$C$DW$T$24)
    1514                    .dwattr $C$DW$108, DW_AT_location[DW_OP_reg13]
    1515            
    1516            $C$DW$109       .dwtag  DW_TAG_formal_parameter
    1517                    .dwattr $C$DW$109, DW_AT_name("lowThreshold")
    1518                    .dwattr $C$DW$109, DW_AT_TI_symbol_name("lowThreshold")
    1519                    .dwattr $C$DW$109, DW_AT_type(*$C$DW$T$24)
    1520                    .dwattr $C$DW$109, DW_AT_location[DW_OP_reg14]
    1521            
    1522            
    1523            ;*****************************************************************************
    1524            ;* FUNCTION NAME: ADC_setWindowComp                                          *
    1525            ;*                                                                           *
    1526            ;*   Regs Modified     : SP,SR,r15                                           *
    1527            ;*   Regs Used         : SP,SR,r12,r13,r14,r15                               *
    1528            ;*   Local Frame Size  : 0 Args + 6 Auto + 0 Save = 6 byte                   *
    1529            ;*****************************************************************************
    1530 000000       ADC_setWindowComp:
    1531            ;* --------------------------------------------------------------------------*
    1532                    .dwcfi  cfa_offset, 4
    1533                    .dwcfi  save_reg_to_mem, 16, -4
    1534 000000 8031          SUB.W     #6,SP                 ; [] 
MSP430 Assembler PC v21.6.1 Wed Nov 30 16:35:37 2022

Copyright (c) 2003-2018 Texas Instruments Incorporated
adc.asm                                                              PAGE   31

         000002 0006 
    1535                    .dwcfi  cfa_offset, 10
    1536            $C$DW$110       .dwtag  DW_TAG_variable
    1537                    .dwattr $C$DW$110, DW_AT_name("baseAddress")
    1538                    .dwattr $C$DW$110, DW_AT_TI_symbol_name("baseAddress")
    1539                    .dwattr $C$DW$110, DW_AT_type(*$C$DW$T$24)
    1540                    .dwattr $C$DW$110, DW_AT_location[DW_OP_breg1 0]
    1541            
    1542            $C$DW$111       .dwtag  DW_TAG_variable
    1543                    .dwattr $C$DW$111, DW_AT_name("highThreshold")
    1544                    .dwattr $C$DW$111, DW_AT_TI_symbol_name("highThreshold")
    1545                    .dwattr $C$DW$111, DW_AT_type(*$C$DW$T$24)
    1546                    .dwattr $C$DW$111, DW_AT_location[DW_OP_breg1 2]
    1547            
    1548            $C$DW$112       .dwtag  DW_TAG_variable
    1549                    .dwattr $C$DW$112, DW_AT_name("lowThreshold")
    1550                    .dwattr $C$DW$112, DW_AT_TI_symbol_name("lowThreshold")
    1551                    .dwattr $C$DW$112, DW_AT_type(*$C$DW$T$24)
    1552                    .dwattr $C$DW$112, DW_AT_location[DW_OP_breg1 4]
    1553            
    1554 000004 4E81          MOV.W     r14,4(SP)             ; [] |185| 
         000006 0004 
    1555 000008 4D81          MOV.W     r13,2(SP)             ; [] |185| 
         00000a 0002 
    1556 00000c 4C81          MOV.W     r12,0(SP)             ; [] |185| 
         00000e 0000 
    1557                    .dwpsn  file "../driverlib/MSP430FR2xx_4xx/adc.c",line 186,column 5,is_stmt,isa 0
    1558 000010 419C          MOV.W     2(SP),8(r12)          ; [] |186| 
         000012 0002 
         000014 0008 
    1559                    .dwpsn  file "../driverlib/MSP430FR2xx_4xx/adc.c",line 187,column 5,is_stmt,isa 0
    1560 000016 412F          MOV.W     0(SP),r15             ; [] |187| 
    1561 000018 419F          MOV.W     4(SP),6(r15)          ; [] |187| 
         00001a 0004 
         00001c 0006 
    1562                    .dwpsn  file "../driverlib/MSP430FR2xx_4xx/adc.c",line 188,column 1,is_stmt,isa 0
    1563 00001e 5031          ADD.W     #6,SP                 ; [] 
         000020 0006 
    1564                    .dwcfi  cfa_offset, 4
    1565            $C$DW$113       .dwtag  DW_TAG_TI_branch
    1566                    .dwattr $C$DW$113, DW_AT_low_pc(0x00)
    1567                    .dwattr $C$DW$113, DW_AT_TI_return
    1568            
    1569 000022 0110          RETA      ; [] 
    1570                    ; [] 
    1571                    .dwattr $C$DW$106, DW_AT_TI_end_file("../driverlib/MSP430FR2xx_4xx/adc.c")
    1572                    .dwattr $C$DW$106, DW_AT_TI_end_line(0xbc)
    1573                    .dwattr $C$DW$106, DW_AT_TI_end_column(0x01)
    1574                    .dwendentry
    1575                    .dwendtag $C$DW$106
    1576            
    1577 000000               .sect   ".text:ADC_getMemoryAddressForDMA"
    1578                    .clink
    1579                    .global ADC_getMemoryAddressForDMA
    1580            
MSP430 Assembler PC v21.6.1 Wed Nov 30 16:35:37 2022

Copyright (c) 2003-2018 Texas Instruments Incorporated
adc.asm                                                              PAGE   32

    1581            $C$DW$114       .dwtag  DW_TAG_subprogram
    1582                    .dwattr $C$DW$114, DW_AT_name("ADC_getMemoryAddressForDMA")
    1583                    .dwattr $C$DW$114, DW_AT_low_pc(ADC_getMemoryAddressForDMA)
    1584                    .dwattr $C$DW$114, DW_AT_high_pc(0x00)
    1585                    .dwattr $C$DW$114, DW_AT_TI_symbol_name("ADC_getMemoryAddressForDMA")
    1586                    .dwattr $C$DW$114, DW_AT_external
    1587                    .dwattr $C$DW$114, DW_AT_type(*$C$DW$T$120)
    1588                    .dwattr $C$DW$114, DW_AT_TI_begin_file("../driverlib/MSP430FR2xx_4xx/adc.c")
    1589                    .dwattr $C$DW$114, DW_AT_TI_begin_line(0xbe)
    1590                    .dwattr $C$DW$114, DW_AT_TI_begin_column(0x0a)
    1591                    .dwattr $C$DW$114, DW_AT_decl_file("../driverlib/MSP430FR2xx_4xx/adc.c")
    1592                    .dwattr $C$DW$114, DW_AT_decl_line(0xbe)
    1593                    .dwattr $C$DW$114, DW_AT_decl_column(0x0a)
    1594                    .dwattr $C$DW$114, DW_AT_TI_max_frame_size(0x06)
    1595                    .dwpsn  file "../driverlib/MSP430FR2xx_4xx/adc.c",line 191,column 1,is_stmt,address ADC_getMem
    1596            
    1597                    .dwfde $C$DW$CIE, ADC_getMemoryAddressForDMA
    1598            $C$DW$115       .dwtag  DW_TAG_formal_parameter
    1599                    .dwattr $C$DW$115, DW_AT_name("baseAddress")
    1600                    .dwattr $C$DW$115, DW_AT_TI_symbol_name("baseAddress")
    1601                    .dwattr $C$DW$115, DW_AT_type(*$C$DW$T$24)
    1602                    .dwattr $C$DW$115, DW_AT_location[DW_OP_reg12]
    1603            
    1604            
    1605            ;*****************************************************************************
    1606            ;* FUNCTION NAME: ADC_getMemoryAddressForDMA                                 *
    1607            ;*                                                                           *
    1608            ;*   Regs Modified     : SP,SR,r12,r13                                       *
    1609            ;*   Regs Used         : SP,SR,r12,r13                                       *
    1610            ;*   Local Frame Size  : 0 Args + 2 Auto + 0 Save = 2 byte                   *
    1611            ;*****************************************************************************
    1612 000000       ADC_getMemoryAddressForDMA:
    1613            ;* --------------------------------------------------------------------------*
    1614                    .dwcfi  cfa_offset, 4
    1615                    .dwcfi  save_reg_to_mem, 16, -4
    1616 000000 8321          SUB.W     #2,SP                 ; [] 
    1617                    .dwcfi  cfa_offset, 6
    1618            $C$DW$116       .dwtag  DW_TAG_variable
    1619                    .dwattr $C$DW$116, DW_AT_name("baseAddress")
    1620                    .dwattr $C$DW$116, DW_AT_TI_symbol_name("baseAddress")
    1621                    .dwattr $C$DW$116, DW_AT_type(*$C$DW$T$24)
    1622                    .dwattr $C$DW$116, DW_AT_location[DW_OP_breg1 0]
    1623            
    1624 000002 4C81          MOV.W     r12,0(SP)             ; [] |191| 
         000004 0000 
    1625                    .dwpsn  file "../driverlib/MSP430FR2xx_4xx/adc.c",line 192,column 5,is_stmt,isa 0
    1626 000006 403C          MOV.W     #18,r12               ; [] |192| 
         000008 0012 
    1627 00000a 512C          ADD.W     0(SP),r12             ; [] |192| 
    1628 00000c 430D          MOV.W     #0,r13                ; [] |192| 
    1629                    .dwpsn  file "../driverlib/MSP430FR2xx_4xx/adc.c",line 193,column 1,is_stmt,isa 0
    1630 00000e 5321          ADD.W     #2,SP                 ; [] 
    1631                    .dwcfi  cfa_offset, 4
    1632            $C$DW$117       .dwtag  DW_TAG_TI_branch
    1633                    .dwattr $C$DW$117, DW_AT_low_pc(0x00)
MSP430 Assembler PC v21.6.1 Wed Nov 30 16:35:37 2022

Copyright (c) 2003-2018 Texas Instruments Incorporated
adc.asm                                                              PAGE   33

    1634                    .dwattr $C$DW$117, DW_AT_TI_return
    1635            
    1636 000010 0110          RETA      ; [] 
    1637                    ; [] 
    1638                    .dwattr $C$DW$114, DW_AT_TI_end_file("../driverlib/MSP430FR2xx_4xx/adc.c")
    1639                    .dwattr $C$DW$114, DW_AT_TI_end_line(0xc1)
    1640                    .dwattr $C$DW$114, DW_AT_TI_end_column(0x01)
    1641                    .dwendentry
    1642                    .dwendtag $C$DW$114
    1643            
    1644 000000               .sect   ".text:ADC_isBusy"
    1645                    .clink
    1646                    .global ADC_isBusy
    1647            
    1648            $C$DW$118       .dwtag  DW_TAG_subprogram
    1649                    .dwattr $C$DW$118, DW_AT_name("ADC_isBusy")
    1650                    .dwattr $C$DW$118, DW_AT_low_pc(ADC_isBusy)
    1651                    .dwattr $C$DW$118, DW_AT_high_pc(0x00)
    1652                    .dwattr $C$DW$118, DW_AT_TI_symbol_name("ADC_isBusy")
    1653                    .dwattr $C$DW$118, DW_AT_external
    1654                    .dwattr $C$DW$118, DW_AT_type(*$C$DW$T$26)
    1655                    .dwattr $C$DW$118, DW_AT_TI_begin_file("../driverlib/MSP430FR2xx_4xx/adc.c")
    1656                    .dwattr $C$DW$118, DW_AT_TI_begin_line(0xc3)
    1657                    .dwattr $C$DW$118, DW_AT_TI_begin_column(0x09)
    1658                    .dwattr $C$DW$118, DW_AT_decl_file("../driverlib/MSP430FR2xx_4xx/adc.c")
    1659                    .dwattr $C$DW$118, DW_AT_decl_line(0xc3)
    1660                    .dwattr $C$DW$118, DW_AT_decl_column(0x09)
    1661                    .dwattr $C$DW$118, DW_AT_TI_max_frame_size(0x06)
    1662                    .dwpsn  file "../driverlib/MSP430FR2xx_4xx/adc.c",line 196,column 1,is_stmt,address ADC_isBusy
    1663            
    1664                    .dwfde $C$DW$CIE, ADC_isBusy
    1665            $C$DW$119       .dwtag  DW_TAG_formal_parameter
    1666                    .dwattr $C$DW$119, DW_AT_name("baseAddress")
    1667                    .dwattr $C$DW$119, DW_AT_TI_symbol_name("baseAddress")
    1668                    .dwattr $C$DW$119, DW_AT_type(*$C$DW$T$24)
    1669                    .dwattr $C$DW$119, DW_AT_location[DW_OP_reg12]
    1670            
    1671            
    1672            ;*****************************************************************************
    1673            ;* FUNCTION NAME: ADC_isBusy                                                 *
    1674            ;*                                                                           *
    1675            ;*   Regs Modified     : SP,SR,r12                                           *
    1676            ;*   Regs Used         : SP,SR,r12                                           *
    1677            ;*   Local Frame Size  : 0 Args + 2 Auto + 0 Save = 2 byte                   *
    1678            ;*****************************************************************************
    1679 000000       ADC_isBusy:
    1680            ;* --------------------------------------------------------------------------*
    1681                    .dwcfi  cfa_offset, 4
    1682                    .dwcfi  save_reg_to_mem, 16, -4
    1683 000000 8321          SUB.W     #2,SP                 ; [] 
    1684                    .dwcfi  cfa_offset, 6
    1685            $C$DW$120       .dwtag  DW_TAG_variable
    1686                    .dwattr $C$DW$120, DW_AT_name("baseAddress")
    1687                    .dwattr $C$DW$120, DW_AT_TI_symbol_name("baseAddress")
    1688                    .dwattr $C$DW$120, DW_AT_type(*$C$DW$T$24)
MSP430 Assembler PC v21.6.1 Wed Nov 30 16:35:37 2022

Copyright (c) 2003-2018 Texas Instruments Incorporated
adc.asm                                                              PAGE   34

    1689                    .dwattr $C$DW$120, DW_AT_location[DW_OP_breg1 0]
    1690            
    1691 000002 4C81          MOV.W     r12,0(SP)             ; [] |196| 
         000004 0000 
    1692                    .dwpsn  file "../driverlib/MSP430FR2xx_4xx/adc.c",line 197,column 5,is_stmt,isa 0
    1693 000006 4C1C          MOV.W     2(r12),r12            ; [] |197| 
         000008 0002 
    1694 00000a F35C          AND.B     #1,r12                ; [] |197| 
    1695                    .dwpsn  file "../driverlib/MSP430FR2xx_4xx/adc.c",line 198,column 1,is_stmt,isa 0
    1696 00000c 5321          ADD.W     #2,SP                 ; [] 
    1697                    .dwcfi  cfa_offset, 4
    1698            $C$DW$121       .dwtag  DW_TAG_TI_branch
    1699                    .dwattr $C$DW$121, DW_AT_low_pc(0x00)
    1700                    .dwattr $C$DW$121, DW_AT_TI_return
    1701            
    1702 00000e 0110          RETA      ; [] 
    1703                    ; [] 
    1704                    .dwattr $C$DW$118, DW_AT_TI_end_file("../driverlib/MSP430FR2xx_4xx/adc.c")
    1705                    .dwattr $C$DW$118, DW_AT_TI_end_line(0xc6)
    1706                    .dwattr $C$DW$118, DW_AT_TI_end_column(0x01)
    1707                    .dwendentry
    1708                    .dwendtag $C$DW$118
    1709            
    1710            ;*****************************************************************************
    1711            ;* UNDEFINED EXTERNAL REFERENCES                                             *
    1712            ;*****************************************************************************
    1713                    .global __mspabi_slli
    1714            
    1715            ;******************************************************************************
    1716            ;* BUILD ATTRIBUTES                                                           *
    1717            ;******************************************************************************
    1718                    .battr "TI", Tag_File, 1, Tag_LOCKIO_INFO(1)
    1719                    .battr "TI", Tag_File, 1, Tag_WAITSTATE_INFO(2)
    1720                    .battr "TI", Tag_File, 1, Tag_HW_MPY_ISR_INFO(1)
    1721                    .battr "TI", Tag_File, 1, Tag_HW_MPY_INLINE_INFO(1)
    1722                    .battr "mspabi", Tag_File, 1, Tag_enum_size(3)
    1723            
    1724            ;******************************************************************************
    1725            ;* TYPE INFORMATION                                                           *
    1726            ;******************************************************************************
    1727            
    1728            $C$DW$T$21      .dwtag  DW_TAG_structure_type
    1729                    .dwattr $C$DW$T$21, DW_AT_byte_size(0x10)
    1730            $C$DW$122       .dwtag  DW_TAG_member
    1731                    .dwattr $C$DW$122, DW_AT_type(*$C$DW$T$14)
    1732                    .dwattr $C$DW$122, DW_AT_name("__max_align1")
    1733                    .dwattr $C$DW$122, DW_AT_TI_symbol_name("__max_align1")
    1734                    .dwattr $C$DW$122, DW_AT_data_member_location[DW_OP_plus_uconst 0x0]
    1735                    .dwattr $C$DW$122, DW_AT_accessibility(DW_ACCESS_public)
    1736                    .dwattr $C$DW$122, DW_AT_decl_file("C:/ti/ccs1110/ccs/tools/compiler/ti-cgt-msp430_21.6.1.LTS/
    1737                    .dwattr $C$DW$122, DW_AT_decl_line(0x7b)
    1738                    .dwattr $C$DW$122, DW_AT_decl_column(0x0c)
    1739            
    1740            $C$DW$123       .dwtag  DW_TAG_member
    1741                    .dwattr $C$DW$123, DW_AT_type(*$C$DW$T$18)
MSP430 Assembler PC v21.6.1 Wed Nov 30 16:35:37 2022

Copyright (c) 2003-2018 Texas Instruments Incorporated
adc.asm                                                              PAGE   35

    1742                    .dwattr $C$DW$123, DW_AT_name("__max_align2")
    1743                    .dwattr $C$DW$123, DW_AT_TI_symbol_name("__max_align2")
    1744                    .dwattr $C$DW$123, DW_AT_data_member_location[DW_OP_plus_uconst 0x8]
    1745                    .dwattr $C$DW$123, DW_AT_accessibility(DW_ACCESS_public)
    1746                    .dwattr $C$DW$123, DW_AT_decl_file("C:/ti/ccs1110/ccs/tools/compiler/ti-cgt-msp430_21.6.1.LTS/
    1747                    .dwattr $C$DW$123, DW_AT_decl_line(0x7c)
    1748                    .dwattr $C$DW$123, DW_AT_decl_column(0x0e)
    1749            
    1750                    .dwattr $C$DW$T$21, DW_AT_decl_file("C:/ti/ccs1110/ccs/tools/compiler/ti-cgt-msp430_21.6.1.LTS
    1751                    .dwattr $C$DW$T$21, DW_AT_decl_line(0x7a)
    1752                    .dwattr $C$DW$T$21, DW_AT_decl_column(0x10)
    1753                    .dwendtag $C$DW$T$21
    1754            
    1755            $C$DW$T$22      .dwtag  DW_TAG_typedef
    1756                    .dwattr $C$DW$T$22, DW_AT_name("__max_align_t")
    1757                    .dwattr $C$DW$T$22, DW_AT_type(*$C$DW$T$21)
    1758                    .dwattr $C$DW$T$22, DW_AT_language(DW_LANG_C)
    1759                    .dwattr $C$DW$T$22, DW_AT_decl_file("C:/ti/ccs1110/ccs/tools/compiler/ti-cgt-msp430_21.6.1.LTS
    1760                    .dwattr $C$DW$T$22, DW_AT_decl_line(0x7d)
    1761                    .dwattr $C$DW$T$22, DW_AT_decl_column(0x03)
    1762            
    1763            $C$DW$T$2       .dwtag  DW_TAG_unspecified_type
    1764                    .dwattr $C$DW$T$2, DW_AT_name("void")
    1765            
    1766            
    1767            $C$DW$T$34      .dwtag  DW_TAG_subroutine_type
    1768                    .dwattr $C$DW$T$34, DW_AT_language(DW_LANG_C)
    1769                    .dwendtag $C$DW$T$34
    1770            
    1771            $C$DW$T$35      .dwtag  DW_TAG_pointer_type
    1772                    .dwattr $C$DW$T$35, DW_AT_type(*$C$DW$T$34)
    1773                    .dwattr $C$DW$T$35, DW_AT_address_class(0x14)
    1774            
    1775            $C$DW$T$36      .dwtag  DW_TAG_typedef
    1776                    .dwattr $C$DW$T$36, DW_AT_name("__SFR_FARPTR")
    1777                    .dwattr $C$DW$T$36, DW_AT_type(*$C$DW$T$35)
    1778                    .dwattr $C$DW$T$36, DW_AT_language(DW_LANG_C)
    1779                    .dwattr $C$DW$T$36, DW_AT_decl_file("C:\ti\ccs1110\ccs\ccs_base\msp430\include\msp430fr4133.h"
    1780                    .dwattr $C$DW$T$36, DW_AT_decl_line(0x46)
    1781                    .dwattr $C$DW$T$36, DW_AT_decl_column(0x11)
    1782            
    1783            $C$DW$T$4       .dwtag  DW_TAG_base_type
    1784                    .dwattr $C$DW$T$4, DW_AT_encoding(DW_ATE_boolean)
    1785                    .dwattr $C$DW$T$4, DW_AT_name("bool")
    1786                    .dwattr $C$DW$T$4, DW_AT_byte_size(0x01)
    1787            
    1788            $C$DW$T$5       .dwtag  DW_TAG_base_type
    1789                    .dwattr $C$DW$T$5, DW_AT_encoding(DW_ATE_signed_char)
    1790                    .dwattr $C$DW$T$5, DW_AT_name("signed char")
    1791                    .dwattr $C$DW$T$5, DW_AT_byte_size(0x01)
    1792            
    1793            $C$DW$T$37      .dwtag  DW_TAG_typedef
    1794                    .dwattr $C$DW$T$37, DW_AT_name("__int8_t")
    1795                    .dwattr $C$DW$T$37, DW_AT_type(*$C$DW$T$5)
    1796                    .dwattr $C$DW$T$37, DW_AT_language(DW_LANG_C)
MSP430 Assembler PC v21.6.1 Wed Nov 30 16:35:37 2022

Copyright (c) 2003-2018 Texas Instruments Incorporated
adc.asm                                                              PAGE   36

    1797                    .dwattr $C$DW$T$37, DW_AT_decl_file("C:/ti/ccs1110/ccs/tools/compiler/ti-cgt-msp430_21.6.1.LTS
    1798                    .dwattr $C$DW$T$37, DW_AT_decl_line(0x36)
    1799                    .dwattr $C$DW$T$37, DW_AT_decl_column(0x16)
    1800            
    1801            $C$DW$T$38      .dwtag  DW_TAG_typedef
    1802                    .dwattr $C$DW$T$38, DW_AT_name("__int_least8_t")
    1803                    .dwattr $C$DW$T$38, DW_AT_type(*$C$DW$T$37)
    1804                    .dwattr $C$DW$T$38, DW_AT_language(DW_LANG_C)
    1805                    .dwattr $C$DW$T$38, DW_AT_decl_file("C:/ti/ccs1110/ccs/tools/compiler/ti-cgt-msp430_21.6.1.LTS
    1806                    .dwattr $C$DW$T$38, DW_AT_decl_line(0x5a)
    1807                    .dwattr $C$DW$T$38, DW_AT_decl_column(0x12)
    1808            
    1809            $C$DW$T$39      .dwtag  DW_TAG_typedef
    1810                    .dwattr $C$DW$T$39, DW_AT_name("int_least8_t")
    1811                    .dwattr $C$DW$T$39, DW_AT_type(*$C$DW$T$38)
    1812                    .dwattr $C$DW$T$39, DW_AT_language(DW_LANG_C)
    1813                    .dwattr $C$DW$T$39, DW_AT_decl_file("C:/ti/ccs1110/ccs/tools/compiler/ti-cgt-msp430_21.6.1.LTS
    1814                    .dwattr $C$DW$T$39, DW_AT_decl_line(0x2a)
    1815                    .dwattr $C$DW$T$39, DW_AT_decl_column(0x19)
    1816            
    1817            $C$DW$T$40      .dwtag  DW_TAG_typedef
    1818                    .dwattr $C$DW$T$40, DW_AT_name("int8_t")
    1819                    .dwattr $C$DW$T$40, DW_AT_type(*$C$DW$T$37)
    1820                    .dwattr $C$DW$T$40, DW_AT_language(DW_LANG_C)
    1821                    .dwattr $C$DW$T$40, DW_AT_decl_file("C:/ti/ccs1110/ccs/tools/compiler/ti-cgt-msp430_21.6.1.LTS
    1822                    .dwattr $C$DW$T$40, DW_AT_decl_line(0x25)
    1823                    .dwattr $C$DW$T$40, DW_AT_decl_column(0x13)
    1824            
    1825            $C$DW$T$6       .dwtag  DW_TAG_base_type
    1826                    .dwattr $C$DW$T$6, DW_AT_encoding(DW_ATE_unsigned_char)
    1827                    .dwattr $C$DW$T$6, DW_AT_name("unsigned char")
    1828                    .dwattr $C$DW$T$6, DW_AT_byte_size(0x01)
    1829            
    1830            $C$DW$T$25      .dwtag  DW_TAG_typedef
    1831                    .dwattr $C$DW$T$25, DW_AT_name("__uint8_t")
    1832                    .dwattr $C$DW$T$25, DW_AT_type(*$C$DW$T$6)
    1833                    .dwattr $C$DW$T$25, DW_AT_language(DW_LANG_C)
    1834                    .dwattr $C$DW$T$25, DW_AT_decl_file("C:/ti/ccs1110/ccs/tools/compiler/ti-cgt-msp430_21.6.1.LTS
    1835                    .dwattr $C$DW$T$25, DW_AT_decl_line(0x37)
    1836                    .dwattr $C$DW$T$25, DW_AT_decl_column(0x18)
    1837            
    1838            $C$DW$T$41      .dwtag  DW_TAG_typedef
    1839                    .dwattr $C$DW$T$41, DW_AT_name("__sa_family_t")
    1840                    .dwattr $C$DW$T$41, DW_AT_type(*$C$DW$T$25)
    1841                    .dwattr $C$DW$T$41, DW_AT_language(DW_LANG_C)
    1842                    .dwattr $C$DW$T$41, DW_AT_decl_file("C:/ti/ccs1110/ccs/tools/compiler/ti-cgt-msp430_21.6.1.LTS
    1843                    .dwattr $C$DW$T$41, DW_AT_decl_line(0x47)
    1844                    .dwattr $C$DW$T$41, DW_AT_decl_column(0x13)
    1845            
    1846            $C$DW$T$42      .dwtag  DW_TAG_typedef
    1847                    .dwattr $C$DW$T$42, DW_AT_name("__uint_least8_t")
    1848                    .dwattr $C$DW$T$42, DW_AT_type(*$C$DW$T$25)
    1849                    .dwattr $C$DW$T$42, DW_AT_language(DW_LANG_C)
    1850                    .dwattr $C$DW$T$42, DW_AT_decl_file("C:/ti/ccs1110/ccs/tools/compiler/ti-cgt-msp430_21.6.1.LTS
    1851                    .dwattr $C$DW$T$42, DW_AT_decl_line(0x74)
MSP430 Assembler PC v21.6.1 Wed Nov 30 16:35:37 2022

Copyright (c) 2003-2018 Texas Instruments Incorporated
adc.asm                                                              PAGE   37

    1852                    .dwattr $C$DW$T$42, DW_AT_decl_column(0x13)
    1853            
    1854            $C$DW$T$43      .dwtag  DW_TAG_typedef
    1855                    .dwattr $C$DW$T$43, DW_AT_name("uint_least8_t")
    1856                    .dwattr $C$DW$T$43, DW_AT_type(*$C$DW$T$42)
    1857                    .dwattr $C$DW$T$43, DW_AT_language(DW_LANG_C)
    1858                    .dwattr $C$DW$T$43, DW_AT_decl_file("C:/ti/ccs1110/ccs/tools/compiler/ti-cgt-msp430_21.6.1.LTS
    1859                    .dwattr $C$DW$T$43, DW_AT_decl_line(0x2f)
    1860                    .dwattr $C$DW$T$43, DW_AT_decl_column(0x1a)
    1861            
    1862            $C$DW$T$26      .dwtag  DW_TAG_typedef
    1863                    .dwattr $C$DW$T$26, DW_AT_name("uint8_t")
    1864                    .dwattr $C$DW$T$26, DW_AT_type(*$C$DW$T$25)
    1865                    .dwattr $C$DW$T$26, DW_AT_language(DW_LANG_C)
    1866                    .dwattr $C$DW$T$26, DW_AT_decl_file("C:/ti/ccs1110/ccs/tools/compiler/ti-cgt-msp430_21.6.1.LTS
    1867                    .dwattr $C$DW$T$26, DW_AT_decl_line(0x3b)
    1868                    .dwattr $C$DW$T$26, DW_AT_decl_column(0x14)
    1869            
    1870            $C$DW$T$7       .dwtag  DW_TAG_base_type
    1871                    .dwattr $C$DW$T$7, DW_AT_encoding(DW_ATE_signed_char)
    1872                    .dwattr $C$DW$T$7, DW_AT_name("wchar_t")
    1873                    .dwattr $C$DW$T$7, DW_AT_byte_size(0x02)
    1874            
    1875            $C$DW$T$8       .dwtag  DW_TAG_base_type
    1876                    .dwattr $C$DW$T$8, DW_AT_encoding(DW_ATE_signed)
    1877                    .dwattr $C$DW$T$8, DW_AT_name("short")
    1878                    .dwattr $C$DW$T$8, DW_AT_byte_size(0x02)
    1879            
    1880            $C$DW$T$9       .dwtag  DW_TAG_base_type
    1881                    .dwattr $C$DW$T$9, DW_AT_encoding(DW_ATE_unsigned)
    1882                    .dwattr $C$DW$T$9, DW_AT_name("unsigned short")
    1883                    .dwattr $C$DW$T$9, DW_AT_byte_size(0x02)
    1884            
    1885            $C$DW$T$10      .dwtag  DW_TAG_base_type
    1886                    .dwattr $C$DW$T$10, DW_AT_encoding(DW_ATE_signed)
    1887                    .dwattr $C$DW$T$10, DW_AT_name("int")
    1888                    .dwattr $C$DW$T$10, DW_AT_byte_size(0x02)
    1889            
    1890            $C$DW$T$46      .dwtag  DW_TAG_typedef
    1891                    .dwattr $C$DW$T$46, DW_AT_name("_Mbstatet")
    1892                    .dwattr $C$DW$T$46, DW_AT_type(*$C$DW$T$10)
    1893                    .dwattr $C$DW$T$46, DW_AT_language(DW_LANG_C)
    1894                    .dwattr $C$DW$T$46, DW_AT_decl_file("C:/ti/ccs1110/ccs/tools/compiler/ti-cgt-msp430_21.6.1.LTS
    1895                    .dwattr $C$DW$T$46, DW_AT_decl_line(0x8f)
    1896                    .dwattr $C$DW$T$46, DW_AT_decl_column(0x0d)
    1897            
    1898            $C$DW$T$47      .dwtag  DW_TAG_typedef
    1899                    .dwattr $C$DW$T$47, DW_AT_name("__mbstate_t")
    1900                    .dwattr $C$DW$T$47, DW_AT_type(*$C$DW$T$46)
    1901                    .dwattr $C$DW$T$47, DW_AT_language(DW_LANG_C)
    1902                    .dwattr $C$DW$T$47, DW_AT_decl_file("C:/ti/ccs1110/ccs/tools/compiler/ti-cgt-msp430_21.6.1.LTS
    1903                    .dwattr $C$DW$T$47, DW_AT_decl_line(0x92)
    1904                    .dwattr $C$DW$T$47, DW_AT_decl_column(0x13)
    1905            
    1906            $C$DW$T$48      .dwtag  DW_TAG_typedef
MSP430 Assembler PC v21.6.1 Wed Nov 30 16:35:37 2022

Copyright (c) 2003-2018 Texas Instruments Incorporated
adc.asm                                                              PAGE   38

    1907                    .dwattr $C$DW$T$48, DW_AT_name("__accmode_t")
    1908                    .dwattr $C$DW$T$48, DW_AT_type(*$C$DW$T$10)
    1909                    .dwattr $C$DW$T$48, DW_AT_language(DW_LANG_C)
    1910                    .dwattr $C$DW$T$48, DW_AT_decl_file("C:/ti/ccs1110/ccs/tools/compiler/ti-cgt-msp430_21.6.1.LTS
    1911                    .dwattr $C$DW$T$48, DW_AT_decl_line(0x3b)
    1912                    .dwattr $C$DW$T$48, DW_AT_decl_column(0x0e)
    1913            
    1914            $C$DW$T$49      .dwtag  DW_TAG_typedef
    1915                    .dwattr $C$DW$T$49, DW_AT_name("__cpulevel_t")
    1916                    .dwattr $C$DW$T$49, DW_AT_type(*$C$DW$T$10)
    1917                    .dwattr $C$DW$T$49, DW_AT_language(DW_LANG_C)
    1918                    .dwattr $C$DW$T$49, DW_AT_decl_file("C:/ti/ccs1110/ccs/tools/compiler/ti-cgt-msp430_21.6.1.LTS
    1919                    .dwattr $C$DW$T$49, DW_AT_decl_line(0x50)
    1920                    .dwattr $C$DW$T$49, DW_AT_decl_column(0x0e)
    1921            
    1922            $C$DW$T$50      .dwtag  DW_TAG_typedef
    1923                    .dwattr $C$DW$T$50, DW_AT_name("__cpusetid_t")
    1924                    .dwattr $C$DW$T$50, DW_AT_type(*$C$DW$T$10)
    1925                    .dwattr $C$DW$T$50, DW_AT_language(DW_LANG_C)
    1926                    .dwattr $C$DW$T$50, DW_AT_decl_file("C:/ti/ccs1110/ccs/tools/compiler/ti-cgt-msp430_21.6.1.LTS
    1927                    .dwattr $C$DW$T$50, DW_AT_decl_line(0x51)
    1928                    .dwattr $C$DW$T$50, DW_AT_decl_column(0x0e)
    1929            
    1930            $C$DW$T$51      .dwtag  DW_TAG_typedef
    1931                    .dwattr $C$DW$T$51, DW_AT_name("__cpuwhich_t")
    1932                    .dwattr $C$DW$T$51, DW_AT_type(*$C$DW$T$10)
    1933                    .dwattr $C$DW$T$51, DW_AT_language(DW_LANG_C)
    1934                    .dwattr $C$DW$T$51, DW_AT_decl_file("C:/ti/ccs1110/ccs/tools/compiler/ti-cgt-msp430_21.6.1.LTS
    1935                    .dwattr $C$DW$T$51, DW_AT_decl_line(0x4f)
    1936                    .dwattr $C$DW$T$51, DW_AT_decl_column(0x0e)
    1937            
    1938            $C$DW$T$52      .dwtag  DW_TAG_typedef
    1939                    .dwattr $C$DW$T$52, DW_AT_name("__ct_rune_t")
    1940                    .dwattr $C$DW$T$52, DW_AT_type(*$C$DW$T$10)
    1941                    .dwattr $C$DW$T$52, DW_AT_language(DW_LANG_C)
    1942                    .dwattr $C$DW$T$52, DW_AT_decl_file("C:/ti/ccs1110/ccs/tools/compiler/ti-cgt-msp430_21.6.1.LTS
    1943                    .dwattr $C$DW$T$52, DW_AT_decl_line(0x69)
    1944                    .dwattr $C$DW$T$52, DW_AT_decl_column(0x0e)
    1945            
    1946            $C$DW$T$53      .dwtag  DW_TAG_typedef
    1947                    .dwattr $C$DW$T$53, DW_AT_name("__rune_t")
    1948                    .dwattr $C$DW$T$53, DW_AT_type(*$C$DW$T$52)
    1949                    .dwattr $C$DW$T$53, DW_AT_language(DW_LANG_C)
    1950                    .dwattr $C$DW$T$53, DW_AT_decl_file("C:/ti/ccs1110/ccs/tools/compiler/ti-cgt-msp430_21.6.1.LTS
    1951                    .dwattr $C$DW$T$53, DW_AT_decl_line(0x6c)
    1952                    .dwattr $C$DW$T$53, DW_AT_decl_column(0x15)
    1953            
    1954            $C$DW$T$54      .dwtag  DW_TAG_typedef
    1955                    .dwattr $C$DW$T$54, DW_AT_name("__wint_t")
    1956                    .dwattr $C$DW$T$54, DW_AT_type(*$C$DW$T$52)
    1957                    .dwattr $C$DW$T$54, DW_AT_language(DW_LANG_C)
    1958                    .dwattr $C$DW$T$54, DW_AT_decl_file("C:/ti/ccs1110/ccs/tools/compiler/ti-cgt-msp430_21.6.1.LTS
    1959                    .dwattr $C$DW$T$54, DW_AT_decl_line(0x6d)
    1960                    .dwattr $C$DW$T$54, DW_AT_decl_column(0x15)
    1961            
MSP430 Assembler PC v21.6.1 Wed Nov 30 16:35:37 2022

Copyright (c) 2003-2018 Texas Instruments Incorporated
adc.asm                                                              PAGE   39

    1962            $C$DW$T$55      .dwtag  DW_TAG_typedef
    1963                    .dwattr $C$DW$T$55, DW_AT_name("__int16_t")
    1964                    .dwattr $C$DW$T$55, DW_AT_type(*$C$DW$T$10)
    1965                    .dwattr $C$DW$T$55, DW_AT_language(DW_LANG_C)
    1966                    .dwattr $C$DW$T$55, DW_AT_decl_file("C:/ti/ccs1110/ccs/tools/compiler/ti-cgt-msp430_21.6.1.LTS
    1967                    .dwattr $C$DW$T$55, DW_AT_decl_line(0x38)
    1968                    .dwattr $C$DW$T$55, DW_AT_decl_column(0x0f)
    1969            
    1970            $C$DW$T$56      .dwtag  DW_TAG_typedef
    1971                    .dwattr $C$DW$T$56, DW_AT_name("__int_fast16_t")
    1972                    .dwattr $C$DW$T$56, DW_AT_type(*$C$DW$T$55)
    1973                    .dwattr $C$DW$T$56, DW_AT_language(DW_LANG_C)
    1974                    .dwattr $C$DW$T$56, DW_AT_decl_file("C:/ti/ccs1110/ccs/tools/compiler/ti-cgt-msp430_21.6.1.LTS
    1975                    .dwattr $C$DW$T$56, DW_AT_decl_line(0x57)
    1976                    .dwattr $C$DW$T$56, DW_AT_decl_column(0x13)
    1977            
    1978            $C$DW$T$57      .dwtag  DW_TAG_typedef
    1979                    .dwattr $C$DW$T$57, DW_AT_name("int_fast16_t")
    1980                    .dwattr $C$DW$T$57, DW_AT_type(*$C$DW$T$56)
    1981                    .dwattr $C$DW$T$57, DW_AT_language(DW_LANG_C)
    1982                    .dwattr $C$DW$T$57, DW_AT_decl_file("C:/ti/ccs1110/ccs/tools/compiler/ti-cgt-msp430_21.6.1.LTS
    1983                    .dwattr $C$DW$T$57, DW_AT_decl_line(0x35)
    1984                    .dwattr $C$DW$T$57, DW_AT_decl_column(0x19)
    1985            
    1986            $C$DW$T$58      .dwtag  DW_TAG_typedef
    1987                    .dwattr $C$DW$T$58, DW_AT_name("__int_fast8_t")
    1988                    .dwattr $C$DW$T$58, DW_AT_type(*$C$DW$T$55)
    1989                    .dwattr $C$DW$T$58, DW_AT_language(DW_LANG_C)
    1990                    .dwattr $C$DW$T$58, DW_AT_decl_file("C:/ti/ccs1110/ccs/tools/compiler/ti-cgt-msp430_21.6.1.LTS
    1991                    .dwattr $C$DW$T$58, DW_AT_decl_line(0x56)
    1992                    .dwattr $C$DW$T$58, DW_AT_decl_column(0x13)
    1993            
    1994            $C$DW$T$59      .dwtag  DW_TAG_typedef
    1995                    .dwattr $C$DW$T$59, DW_AT_name("int_fast8_t")
    1996                    .dwattr $C$DW$T$59, DW_AT_type(*$C$DW$T$58)
    1997                    .dwattr $C$DW$T$59, DW_AT_language(DW_LANG_C)
    1998                    .dwattr $C$DW$T$59, DW_AT_decl_file("C:/ti/ccs1110/ccs/tools/compiler/ti-cgt-msp430_21.6.1.LTS
    1999                    .dwattr $C$DW$T$59, DW_AT_decl_line(0x34)
    2000                    .dwattr $C$DW$T$59, DW_AT_decl_column(0x18)
    2001            
    2002            $C$DW$T$60      .dwtag  DW_TAG_typedef
    2003                    .dwattr $C$DW$T$60, DW_AT_name("__int_least16_t")
    2004                    .dwattr $C$DW$T$60, DW_AT_type(*$C$DW$T$55)
    2005                    .dwattr $C$DW$T$60, DW_AT_language(DW_LANG_C)
    2006                    .dwattr $C$DW$T$60, DW_AT_decl_file("C:/ti/ccs1110/ccs/tools/compiler/ti-cgt-msp430_21.6.1.LTS
    2007                    .dwattr $C$DW$T$60, DW_AT_decl_line(0x5b)
    2008                    .dwattr $C$DW$T$60, DW_AT_decl_column(0x13)
    2009            
    2010            $C$DW$T$61      .dwtag  DW_TAG_typedef
    2011                    .dwattr $C$DW$T$61, DW_AT_name("int_least16_t")
    2012                    .dwattr $C$DW$T$61, DW_AT_type(*$C$DW$T$60)
    2013                    .dwattr $C$DW$T$61, DW_AT_language(DW_LANG_C)
    2014                    .dwattr $C$DW$T$61, DW_AT_decl_file("C:/ti/ccs1110/ccs/tools/compiler/ti-cgt-msp430_21.6.1.LTS
    2015                    .dwattr $C$DW$T$61, DW_AT_decl_line(0x2b)
    2016                    .dwattr $C$DW$T$61, DW_AT_decl_column(0x1a)
MSP430 Assembler PC v21.6.1 Wed Nov 30 16:35:37 2022

Copyright (c) 2003-2018 Texas Instruments Incorporated
adc.asm                                                              PAGE   40

    2017            
    2018            $C$DW$T$62      .dwtag  DW_TAG_typedef
    2019                    .dwattr $C$DW$T$62, DW_AT_name("__register_t")
    2020                    .dwattr $C$DW$T$62, DW_AT_type(*$C$DW$T$55)
    2021                    .dwattr $C$DW$T$62, DW_AT_language(DW_LANG_C)
    2022                    .dwattr $C$DW$T$62, DW_AT_decl_file("C:/ti/ccs1110/ccs/tools/compiler/ti-cgt-msp430_21.6.1.LTS
    2023                    .dwattr $C$DW$T$62, DW_AT_decl_line(0x5f)
    2024                    .dwattr $C$DW$T$62, DW_AT_decl_column(0x13)
    2025            
    2026            $C$DW$T$63      .dwtag  DW_TAG_typedef
    2027                    .dwattr $C$DW$T$63, DW_AT_name("int16_t")
    2028                    .dwattr $C$DW$T$63, DW_AT_type(*$C$DW$T$55)
    2029                    .dwattr $C$DW$T$63, DW_AT_language(DW_LANG_C)
    2030                    .dwattr $C$DW$T$63, DW_AT_decl_file("C:/ti/ccs1110/ccs/tools/compiler/ti-cgt-msp430_21.6.1.LTS
    2031                    .dwattr $C$DW$T$63, DW_AT_decl_line(0x2b)
    2032                    .dwattr $C$DW$T$63, DW_AT_decl_column(0x14)
    2033            
    2034            $C$DW$T$65      .dwtag  DW_TAG_typedef
    2035                    .dwattr $C$DW$T$65, DW_AT_name("__nl_item")
    2036                    .dwattr $C$DW$T$65, DW_AT_type(*$C$DW$T$10)
    2037                    .dwattr $C$DW$T$65, DW_AT_language(DW_LANG_C)
    2038                    .dwattr $C$DW$T$65, DW_AT_decl_file("C:/ti/ccs1110/ccs/tools/compiler/ti-cgt-msp430_21.6.1.LTS
    2039                    .dwattr $C$DW$T$65, DW_AT_decl_line(0x3c)
    2040                    .dwattr $C$DW$T$65, DW_AT_decl_column(0x0e)
    2041            
    2042            $C$DW$T$66      .dwtag  DW_TAG_typedef
    2043                    .dwattr $C$DW$T$66, DW_AT_name("__ptrdiff_t")
    2044                    .dwattr $C$DW$T$66, DW_AT_type(*$C$DW$T$10)
    2045                    .dwattr $C$DW$T$66, DW_AT_language(DW_LANG_C)
    2046                    .dwattr $C$DW$T$66, DW_AT_decl_file("C:/ti/ccs1110/ccs/tools/compiler/ti-cgt-msp430_21.6.1.LTS
    2047                    .dwattr $C$DW$T$66, DW_AT_decl_line(0x5e)
    2048                    .dwattr $C$DW$T$66, DW_AT_decl_column(0x1c)
    2049            
    2050            $C$DW$T$11      .dwtag  DW_TAG_base_type
    2051                    .dwattr $C$DW$T$11, DW_AT_encoding(DW_ATE_unsigned)
    2052                    .dwattr $C$DW$T$11, DW_AT_name("unsigned int")
    2053                    .dwattr $C$DW$T$11, DW_AT_byte_size(0x02)
    2054            
    2055            $C$DW$T$67      .dwtag  DW_TAG_typedef
    2056                    .dwattr $C$DW$T$67, DW_AT_name("___wchar_t")
    2057                    .dwattr $C$DW$T$67, DW_AT_type(*$C$DW$T$11)
    2058                    .dwattr $C$DW$T$67, DW_AT_language(DW_LANG_C)
    2059                    .dwattr $C$DW$T$67, DW_AT_decl_file("C:/ti/ccs1110/ccs/tools/compiler/ti-cgt-msp430_21.6.1.LTS
    2060                    .dwattr $C$DW$T$67, DW_AT_decl_line(0x7d)
    2061                    .dwattr $C$DW$T$67, DW_AT_decl_column(0x1a)
    2062            
    2063            $C$DW$T$68      .dwtag  DW_TAG_typedef
    2064                    .dwattr $C$DW$T$68, DW_AT_name("__size_t")
    2065                    .dwattr $C$DW$T$68, DW_AT_type(*$C$DW$T$11)
    2066                    .dwattr $C$DW$T$68, DW_AT_language(DW_LANG_C)
    2067                    .dwattr $C$DW$T$68, DW_AT_decl_file("C:/ti/ccs1110/ccs/tools/compiler/ti-cgt-msp430_21.6.1.LTS
    2068                    .dwattr $C$DW$T$68, DW_AT_decl_line(0x61)
    2069                    .dwattr $C$DW$T$68, DW_AT_decl_column(0x19)
    2070            
    2071            $C$DW$T$23      .dwtag  DW_TAG_typedef
MSP430 Assembler PC v21.6.1 Wed Nov 30 16:35:37 2022

Copyright (c) 2003-2018 Texas Instruments Incorporated
adc.asm                                                              PAGE   41

    2072                    .dwattr $C$DW$T$23, DW_AT_name("__uint16_t")
    2073                    .dwattr $C$DW$T$23, DW_AT_type(*$C$DW$T$11)
    2074                    .dwattr $C$DW$T$23, DW_AT_language(DW_LANG_C)
    2075                    .dwattr $C$DW$T$23, DW_AT_decl_file("C:/ti/ccs1110/ccs/tools/compiler/ti-cgt-msp430_21.6.1.LTS
    2076                    .dwattr $C$DW$T$23, DW_AT_decl_line(0x39)
    2077                    .dwattr $C$DW$T$23, DW_AT_decl_column(0x17)
    2078            
    2079            $C$DW$T$69      .dwtag  DW_TAG_typedef
    2080                    .dwattr $C$DW$T$69, DW_AT_name("__mode_t")
    2081                    .dwattr $C$DW$T$69, DW_AT_type(*$C$DW$T$23)
    2082                    .dwattr $C$DW$T$69, DW_AT_language(DW_LANG_C)
    2083                    .dwattr $C$DW$T$69, DW_AT_decl_file("C:/ti/ccs1110/ccs/tools/compiler/ti-cgt-msp430_21.6.1.LTS
    2084                    .dwattr $C$DW$T$69, DW_AT_decl_line(0x3a)
    2085                    .dwattr $C$DW$T$69, DW_AT_decl_column(0x14)
    2086            
    2087            $C$DW$T$70      .dwtag  DW_TAG_typedef
    2088                    .dwattr $C$DW$T$70, DW_AT_name("__u_register_t")
    2089                    .dwattr $C$DW$T$70, DW_AT_type(*$C$DW$T$23)
    2090                    .dwattr $C$DW$T$70, DW_AT_language(DW_LANG_C)
    2091                    .dwattr $C$DW$T$70, DW_AT_decl_file("C:/ti/ccs1110/ccs/tools/compiler/ti-cgt-msp430_21.6.1.LTS
    2092                    .dwattr $C$DW$T$70, DW_AT_decl_line(0x78)
    2093                    .dwattr $C$DW$T$70, DW_AT_decl_column(0x14)
    2094            
    2095            $C$DW$T$71      .dwtag  DW_TAG_typedef
    2096                    .dwattr $C$DW$T$71, DW_AT_name("__uint_fast16_t")
    2097                    .dwattr $C$DW$T$71, DW_AT_type(*$C$DW$T$23)
    2098                    .dwattr $C$DW$T$71, DW_AT_language(DW_LANG_C)
    2099                    .dwattr $C$DW$T$71, DW_AT_decl_file("C:/ti/ccs1110/ccs/tools/compiler/ti-cgt-msp430_21.6.1.LTS
    2100                    .dwattr $C$DW$T$71, DW_AT_decl_line(0x71)
    2101                    .dwattr $C$DW$T$71, DW_AT_decl_column(0x14)
    2102            
    2103            $C$DW$T$72      .dwtag  DW_TAG_typedef
    2104                    .dwattr $C$DW$T$72, DW_AT_name("uint_fast16_t")
    2105                    .dwattr $C$DW$T$72, DW_AT_type(*$C$DW$T$71)
    2106                    .dwattr $C$DW$T$72, DW_AT_language(DW_LANG_C)
    2107                    .dwattr $C$DW$T$72, DW_AT_decl_file("C:/ti/ccs1110/ccs/tools/compiler/ti-cgt-msp430_21.6.1.LTS
    2108                    .dwattr $C$DW$T$72, DW_AT_decl_line(0x3a)
    2109                    .dwattr $C$DW$T$72, DW_AT_decl_column(0x1a)
    2110            
    2111            $C$DW$T$73      .dwtag  DW_TAG_typedef
    2112                    .dwattr $C$DW$T$73, DW_AT_name("__uint_fast8_t")
    2113                    .dwattr $C$DW$T$73, DW_AT_type(*$C$DW$T$23)
    2114                    .dwattr $C$DW$T$73, DW_AT_language(DW_LANG_C)
    2115                    .dwattr $C$DW$T$73, DW_AT_decl_file("C:/ti/ccs1110/ccs/tools/compiler/ti-cgt-msp430_21.6.1.LTS
    2116                    .dwattr $C$DW$T$73, DW_AT_decl_line(0x70)
    2117                    .dwattr $C$DW$T$73, DW_AT_decl_column(0x14)
    2118            
    2119            $C$DW$T$74      .dwtag  DW_TAG_typedef
    2120                    .dwattr $C$DW$T$74, DW_AT_name("uint_fast8_t")
    2121                    .dwattr $C$DW$T$74, DW_AT_type(*$C$DW$T$73)
    2122                    .dwattr $C$DW$T$74, DW_AT_language(DW_LANG_C)
    2123                    .dwattr $C$DW$T$74, DW_AT_decl_file("C:/ti/ccs1110/ccs/tools/compiler/ti-cgt-msp430_21.6.1.LTS
    2124                    .dwattr $C$DW$T$74, DW_AT_decl_line(0x39)
    2125                    .dwattr $C$DW$T$74, DW_AT_decl_column(0x19)
    2126            
MSP430 Assembler PC v21.6.1 Wed Nov 30 16:35:37 2022

Copyright (c) 2003-2018 Texas Instruments Incorporated
adc.asm                                                              PAGE   42

    2127            $C$DW$T$75      .dwtag  DW_TAG_typedef
    2128                    .dwattr $C$DW$T$75, DW_AT_name("__uint_least16_t")
    2129                    .dwattr $C$DW$T$75, DW_AT_type(*$C$DW$T$23)
    2130                    .dwattr $C$DW$T$75, DW_AT_language(DW_LANG_C)
    2131                    .dwattr $C$DW$T$75, DW_AT_decl_file("C:/ti/ccs1110/ccs/tools/compiler/ti-cgt-msp430_21.6.1.LTS
    2132                    .dwattr $C$DW$T$75, DW_AT_decl_line(0x75)
    2133                    .dwattr $C$DW$T$75, DW_AT_decl_column(0x14)
    2134            
    2135            $C$DW$T$76      .dwtag  DW_TAG_typedef
    2136                    .dwattr $C$DW$T$76, DW_AT_name("__char16_t")
    2137                    .dwattr $C$DW$T$76, DW_AT_type(*$C$DW$T$75)
    2138                    .dwattr $C$DW$T$76, DW_AT_language(DW_LANG_C)
    2139                    .dwattr $C$DW$T$76, DW_AT_decl_file("C:/ti/ccs1110/ccs/tools/compiler/ti-cgt-msp430_21.6.1.LTS
    2140                    .dwattr $C$DW$T$76, DW_AT_decl_line(0x71)
    2141                    .dwattr $C$DW$T$76, DW_AT_decl_column(0x1a)
    2142            
    2143            $C$DW$T$77      .dwtag  DW_TAG_typedef
    2144                    .dwattr $C$DW$T$77, DW_AT_name("uint_least16_t")
    2145                    .dwattr $C$DW$T$77, DW_AT_type(*$C$DW$T$75)
    2146                    .dwattr $C$DW$T$77, DW_AT_language(DW_LANG_C)
    2147                    .dwattr $C$DW$T$77, DW_AT_decl_file("C:/ti/ccs1110/ccs/tools/compiler/ti-cgt-msp430_21.6.1.LTS
    2148                    .dwattr $C$DW$T$77, DW_AT_decl_line(0x30)
    2149                    .dwattr $C$DW$T$77, DW_AT_decl_column(0x1a)
    2150            
    2151            $C$DW$T$24      .dwtag  DW_TAG_typedef
    2152                    .dwattr $C$DW$T$24, DW_AT_name("uint16_t")
    2153                    .dwattr $C$DW$T$24, DW_AT_type(*$C$DW$T$23)
    2154                    .dwattr $C$DW$T$24, DW_AT_language(DW_LANG_C)
    2155                    .dwattr $C$DW$T$24, DW_AT_decl_file("C:/ti/ccs1110/ccs/tools/compiler/ti-cgt-msp430_21.6.1.LTS
    2156                    .dwattr $C$DW$T$24, DW_AT_decl_line(0x41)
    2157                    .dwattr $C$DW$T$24, DW_AT_decl_column(0x15)
    2158            
    2159            $C$DW$T$80      .dwtag  DW_TAG_typedef
    2160                    .dwattr $C$DW$T$80, DW_AT_name("__useconds_t")
    2161                    .dwattr $C$DW$T$80, DW_AT_type(*$C$DW$T$11)
    2162                    .dwattr $C$DW$T$80, DW_AT_language(DW_LANG_C)
    2163                    .dwattr $C$DW$T$80, DW_AT_decl_file("C:/ti/ccs1110/ccs/tools/compiler/ti-cgt-msp430_21.6.1.LTS
    2164                    .dwattr $C$DW$T$80, DW_AT_decl_line(0x4e)
    2165                    .dwattr $C$DW$T$80, DW_AT_decl_column(0x16)
    2166            
    2167            $C$DW$T$12      .dwtag  DW_TAG_base_type
    2168                    .dwattr $C$DW$T$12, DW_AT_encoding(DW_ATE_signed)
    2169                    .dwattr $C$DW$T$12, DW_AT_name("long")
    2170                    .dwattr $C$DW$T$12, DW_AT_byte_size(0x04)
    2171            
    2172            $C$DW$T$81      .dwtag  DW_TAG_typedef
    2173                    .dwattr $C$DW$T$81, DW_AT_name("__int32_t")
    2174                    .dwattr $C$DW$T$81, DW_AT_type(*$C$DW$T$12)
    2175                    .dwattr $C$DW$T$81, DW_AT_language(DW_LANG_C)
    2176                    .dwattr $C$DW$T$81, DW_AT_decl_file("C:/ti/ccs1110/ccs/tools/compiler/ti-cgt-msp430_21.6.1.LTS
    2177                    .dwattr $C$DW$T$81, DW_AT_decl_line(0x3a)
    2178                    .dwattr $C$DW$T$81, DW_AT_decl_column(0x10)
    2179            
    2180            $C$DW$T$82      .dwtag  DW_TAG_typedef
    2181                    .dwattr $C$DW$T$82, DW_AT_name("__blksize_t")
MSP430 Assembler PC v21.6.1 Wed Nov 30 16:35:37 2022

Copyright (c) 2003-2018 Texas Instruments Incorporated
adc.asm                                                              PAGE   43

    2182                    .dwattr $C$DW$T$82, DW_AT_type(*$C$DW$T$81)
    2183                    .dwattr $C$DW$T$82, DW_AT_language(DW_LANG_C)
    2184                    .dwattr $C$DW$T$82, DW_AT_decl_file("C:/ti/ccs1110/ccs/tools/compiler/ti-cgt-msp430_21.6.1.LTS
    2185                    .dwattr $C$DW$T$82, DW_AT_decl_line(0x2f)
    2186                    .dwattr $C$DW$T$82, DW_AT_decl_column(0x13)
    2187            
    2188            $C$DW$T$83      .dwtag  DW_TAG_typedef
    2189                    .dwattr $C$DW$T$83, DW_AT_name("__clockid_t")
    2190                    .dwattr $C$DW$T$83, DW_AT_type(*$C$DW$T$81)
    2191                    .dwattr $C$DW$T$83, DW_AT_language(DW_LANG_C)
    2192                    .dwattr $C$DW$T$83, DW_AT_decl_file("C:/ti/ccs1110/ccs/tools/compiler/ti-cgt-msp430_21.6.1.LTS
    2193                    .dwattr $C$DW$T$83, DW_AT_decl_line(0x31)
    2194                    .dwattr $C$DW$T$83, DW_AT_decl_column(0x13)
    2195            
    2196            $C$DW$T$84      .dwtag  DW_TAG_typedef
    2197                    .dwattr $C$DW$T$84, DW_AT_name("__critical_t")
    2198                    .dwattr $C$DW$T$84, DW_AT_type(*$C$DW$T$81)
    2199                    .dwattr $C$DW$T$84, DW_AT_language(DW_LANG_C)
    2200                    .dwattr $C$DW$T$84, DW_AT_decl_file("C:/ti/ccs1110/ccs/tools/compiler/ti-cgt-msp430_21.6.1.LTS
    2201                    .dwattr $C$DW$T$84, DW_AT_decl_line(0x4b)
    2202                    .dwattr $C$DW$T$84, DW_AT_decl_column(0x13)
    2203            
    2204            $C$DW$T$85      .dwtag  DW_TAG_typedef
    2205                    .dwattr $C$DW$T$85, DW_AT_name("__int_fast32_t")
    2206                    .dwattr $C$DW$T$85, DW_AT_type(*$C$DW$T$81)
    2207                    .dwattr $C$DW$T$85, DW_AT_language(DW_LANG_C)
    2208                    .dwattr $C$DW$T$85, DW_AT_decl_file("C:/ti/ccs1110/ccs/tools/compiler/ti-cgt-msp430_21.6.1.LTS
    2209                    .dwattr $C$DW$T$85, DW_AT_decl_line(0x58)
    2210                    .dwattr $C$DW$T$85, DW_AT_decl_column(0x13)
    2211            
    2212            $C$DW$T$86      .dwtag  DW_TAG_typedef
    2213                    .dwattr $C$DW$T$86, DW_AT_name("int_fast32_t")
    2214                    .dwattr $C$DW$T$86, DW_AT_type(*$C$DW$T$85)
    2215                    .dwattr $C$DW$T$86, DW_AT_language(DW_LANG_C)
    2216                    .dwattr $C$DW$T$86, DW_AT_decl_file("C:/ti/ccs1110/ccs/tools/compiler/ti-cgt-msp430_21.6.1.LTS
    2217                    .dwattr $C$DW$T$86, DW_AT_decl_line(0x36)
    2218                    .dwattr $C$DW$T$86, DW_AT_decl_column(0x19)
    2219            
    2220            $C$DW$T$87      .dwtag  DW_TAG_typedef
    2221                    .dwattr $C$DW$T$87, DW_AT_name("__int_least32_t")
    2222                    .dwattr $C$DW$T$87, DW_AT_type(*$C$DW$T$81)
    2223                    .dwattr $C$DW$T$87, DW_AT_language(DW_LANG_C)
    2224                    .dwattr $C$DW$T$87, DW_AT_decl_file("C:/ti/ccs1110/ccs/tools/compiler/ti-cgt-msp430_21.6.1.LTS
    2225                    .dwattr $C$DW$T$87, DW_AT_decl_line(0x5c)
    2226                    .dwattr $C$DW$T$87, DW_AT_decl_column(0x13)
    2227            
    2228            $C$DW$T$88      .dwtag  DW_TAG_typedef
    2229                    .dwattr $C$DW$T$88, DW_AT_name("int_least32_t")
    2230                    .dwattr $C$DW$T$88, DW_AT_type(*$C$DW$T$87)
    2231                    .dwattr $C$DW$T$88, DW_AT_language(DW_LANG_C)
    2232                    .dwattr $C$DW$T$88, DW_AT_decl_file("C:/ti/ccs1110/ccs/tools/compiler/ti-cgt-msp430_21.6.1.LTS
    2233                    .dwattr $C$DW$T$88, DW_AT_decl_line(0x2c)
    2234                    .dwattr $C$DW$T$88, DW_AT_decl_column(0x1a)
    2235            
    2236            $C$DW$T$89      .dwtag  DW_TAG_typedef
MSP430 Assembler PC v21.6.1 Wed Nov 30 16:35:37 2022

Copyright (c) 2003-2018 Texas Instruments Incorporated
adc.asm                                                              PAGE   44

    2237                    .dwattr $C$DW$T$89, DW_AT_name("__intfptr_t")
    2238                    .dwattr $C$DW$T$89, DW_AT_type(*$C$DW$T$81)
    2239                    .dwattr $C$DW$T$89, DW_AT_language(DW_LANG_C)
    2240                    .dwattr $C$DW$T$89, DW_AT_decl_file("C:/ti/ccs1110/ccs/tools/compiler/ti-cgt-msp430_21.6.1.LTS
    2241                    .dwattr $C$DW$T$89, DW_AT_decl_line(0x4e)
    2242                    .dwattr $C$DW$T$89, DW_AT_decl_column(0x13)
    2243            
    2244            $C$DW$T$90      .dwtag  DW_TAG_typedef
    2245                    .dwattr $C$DW$T$90, DW_AT_name("__intptr_t")
    2246                    .dwattr $C$DW$T$90, DW_AT_type(*$C$DW$T$81)
    2247                    .dwattr $C$DW$T$90, DW_AT_language(DW_LANG_C)
    2248                    .dwattr $C$DW$T$90, DW_AT_decl_file("C:/ti/ccs1110/ccs/tools/compiler/ti-cgt-msp430_21.6.1.LTS
    2249                    .dwattr $C$DW$T$90, DW_AT_decl_line(0x51)
    2250                    .dwattr $C$DW$T$90, DW_AT_decl_column(0x13)
    2251            
    2252            $C$DW$T$91      .dwtag  DW_TAG_typedef
    2253                    .dwattr $C$DW$T$91, DW_AT_name("intptr_t")
    2254                    .dwattr $C$DW$T$91, DW_AT_type(*$C$DW$T$90)
    2255                    .dwattr $C$DW$T$91, DW_AT_language(DW_LANG_C)
    2256                    .dwattr $C$DW$T$91, DW_AT_decl_file("C:/ti/ccs1110/ccs/tools/compiler/ti-cgt-msp430_21.6.1.LTS
    2257                    .dwattr $C$DW$T$91, DW_AT_decl_line(0x50)
    2258                    .dwattr $C$DW$T$91, DW_AT_decl_column(0x15)
    2259            
    2260            $C$DW$T$92      .dwtag  DW_TAG_typedef
    2261                    .dwattr $C$DW$T$92, DW_AT_name("__lwpid_t")
    2262                    .dwattr $C$DW$T$92, DW_AT_type(*$C$DW$T$81)
    2263                    .dwattr $C$DW$T$92, DW_AT_language(DW_LANG_C)
    2264                    .dwattr $C$DW$T$92, DW_AT_decl_file("C:/ti/ccs1110/ccs/tools/compiler/ti-cgt-msp430_21.6.1.LTS
    2265                    .dwattr $C$DW$T$92, DW_AT_decl_line(0x39)
    2266                    .dwattr $C$DW$T$92, DW_AT_decl_column(0x13)
    2267            
    2268            $C$DW$T$93      .dwtag  DW_TAG_typedef
    2269                    .dwattr $C$DW$T$93, DW_AT_name("__pid_t")
    2270                    .dwattr $C$DW$T$93, DW_AT_type(*$C$DW$T$81)
    2271                    .dwattr $C$DW$T$93, DW_AT_language(DW_LANG_C)
    2272                    .dwattr $C$DW$T$93, DW_AT_decl_file("C:/ti/ccs1110/ccs/tools/compiler/ti-cgt-msp430_21.6.1.LTS
    2273                    .dwattr $C$DW$T$93, DW_AT_decl_line(0x40)
    2274                    .dwattr $C$DW$T$93, DW_AT_decl_column(0x13)
    2275            
    2276            $C$DW$T$94      .dwtag  DW_TAG_typedef
    2277                    .dwattr $C$DW$T$94, DW_AT_name("__segsz_t")
    2278                    .dwattr $C$DW$T$94, DW_AT_type(*$C$DW$T$81)
    2279                    .dwattr $C$DW$T$94, DW_AT_language(DW_LANG_C)
    2280                    .dwattr $C$DW$T$94, DW_AT_decl_file("C:/ti/ccs1110/ccs/tools/compiler/ti-cgt-msp430_21.6.1.LTS
    2281                    .dwattr $C$DW$T$94, DW_AT_decl_line(0x60)
    2282                    .dwattr $C$DW$T$94, DW_AT_decl_column(0x13)
    2283            
    2284            $C$DW$T$95      .dwtag  DW_TAG_typedef
    2285                    .dwattr $C$DW$T$95, DW_AT_name("__ssize_t")
    2286                    .dwattr $C$DW$T$95, DW_AT_type(*$C$DW$T$81)
    2287                    .dwattr $C$DW$T$95, DW_AT_language(DW_LANG_C)
    2288                    .dwattr $C$DW$T$95, DW_AT_decl_file("C:/ti/ccs1110/ccs/tools/compiler/ti-cgt-msp430_21.6.1.LTS
    2289                    .dwattr $C$DW$T$95, DW_AT_decl_line(0x62)
    2290                    .dwattr $C$DW$T$95, DW_AT_decl_column(0x13)
    2291            
MSP430 Assembler PC v21.6.1 Wed Nov 30 16:35:37 2022

Copyright (c) 2003-2018 Texas Instruments Incorporated
adc.asm                                                              PAGE   45

    2292            $C$DW$T$96      .dwtag  DW_TAG_typedef
    2293                    .dwattr $C$DW$T$96, DW_AT_name("int32_t")
    2294                    .dwattr $C$DW$T$96, DW_AT_type(*$C$DW$T$81)
    2295                    .dwattr $C$DW$T$96, DW_AT_language(DW_LANG_C)
    2296                    .dwattr $C$DW$T$96, DW_AT_decl_file("C:/ti/ccs1110/ccs/tools/compiler/ti-cgt-msp430_21.6.1.LTS
    2297                    .dwattr $C$DW$T$96, DW_AT_decl_line(0x30)
    2298                    .dwattr $C$DW$T$96, DW_AT_decl_column(0x14)
    2299            
    2300            $C$DW$T$97      .dwtag  DW_TAG_typedef
    2301                    .dwattr $C$DW$T$97, DW_AT_name("__key_t")
    2302                    .dwattr $C$DW$T$97, DW_AT_type(*$C$DW$T$12)
    2303                    .dwattr $C$DW$T$97, DW_AT_language(DW_LANG_C)
    2304                    .dwattr $C$DW$T$97, DW_AT_decl_file("C:/ti/ccs1110/ccs/tools/compiler/ti-cgt-msp430_21.6.1.LTS
    2305                    .dwattr $C$DW$T$97, DW_AT_decl_line(0x38)
    2306                    .dwattr $C$DW$T$97, DW_AT_decl_column(0x0f)
    2307            
    2308            $C$DW$T$98      .dwtag  DW_TAG_typedef
    2309                    .dwattr $C$DW$T$98, DW_AT_name("__suseconds_t")
    2310                    .dwattr $C$DW$T$98, DW_AT_type(*$C$DW$T$12)
    2311                    .dwattr $C$DW$T$98, DW_AT_language(DW_LANG_C)
    2312                    .dwattr $C$DW$T$98, DW_AT_decl_file("C:/ti/ccs1110/ccs/tools/compiler/ti-cgt-msp430_21.6.1.LTS
    2313                    .dwattr $C$DW$T$98, DW_AT_decl_line(0x4a)
    2314                    .dwattr $C$DW$T$98, DW_AT_decl_column(0x0f)
    2315            
    2316            $C$DW$T$99      .dwtag  DW_TAG_typedef
    2317                    .dwattr $C$DW$T$99, DW_AT_name("_off_t")
    2318                    .dwattr $C$DW$T$99, DW_AT_type(*$C$DW$T$12)
    2319                    .dwattr $C$DW$T$99, DW_AT_language(DW_LANG_C)
    2320                    .dwattr $C$DW$T$99, DW_AT_decl_file("C:/ti/ccs1110/ccs/tools/compiler/ti-cgt-msp430_21.6.1.LTS
    2321                    .dwattr $C$DW$T$99, DW_AT_decl_line(0x8d)
    2322                    .dwattr $C$DW$T$99, DW_AT_decl_column(0x12)
    2323            
    2324            $C$DW$T$100     .dwtag  DW_TAG_typedef
    2325                    .dwattr $C$DW$T$100, DW_AT_name("__off_t")
    2326                    .dwattr $C$DW$T$100, DW_AT_type(*$C$DW$T$99)
    2327                    .dwattr $C$DW$T$100, DW_AT_language(DW_LANG_C)
    2328                    .dwattr $C$DW$T$100, DW_AT_decl_file("C:/ti/ccs1110/ccs/tools/compiler/ti-cgt-msp430_21.6.1.LT
    2329                    .dwattr $C$DW$T$100, DW_AT_decl_line(0x3e)
    2330                    .dwattr $C$DW$T$100, DW_AT_decl_column(0x18)
    2331            
    2332            $C$DW$T$13      .dwtag  DW_TAG_base_type
    2333                    .dwattr $C$DW$T$13, DW_AT_encoding(DW_ATE_unsigned)
    2334                    .dwattr $C$DW$T$13, DW_AT_name("unsigned long")
    2335                    .dwattr $C$DW$T$13, DW_AT_byte_size(0x04)
    2336            
    2337            $C$DW$T$101     .dwtag  DW_TAG_typedef
    2338                    .dwattr $C$DW$T$101, DW_AT_name("__uint32_t")
    2339                    .dwattr $C$DW$T$101, DW_AT_type(*$C$DW$T$13)
    2340                    .dwattr $C$DW$T$101, DW_AT_language(DW_LANG_C)
    2341                    .dwattr $C$DW$T$101, DW_AT_decl_file("C:/ti/ccs1110/ccs/tools/compiler/ti-cgt-msp430_21.6.1.LT
    2342                    .dwattr $C$DW$T$101, DW_AT_decl_line(0x3b)
    2343                    .dwattr $C$DW$T$101, DW_AT_decl_column(0x18)
    2344            
    2345            $C$DW$T$102     .dwtag  DW_TAG_typedef
    2346                    .dwattr $C$DW$T$102, DW_AT_name("__clock_t")
MSP430 Assembler PC v21.6.1 Wed Nov 30 16:35:37 2022

Copyright (c) 2003-2018 Texas Instruments Incorporated
adc.asm                                                              PAGE   46

    2347                    .dwattr $C$DW$T$102, DW_AT_type(*$C$DW$T$101)
    2348                    .dwattr $C$DW$T$102, DW_AT_language(DW_LANG_C)
    2349                    .dwattr $C$DW$T$102, DW_AT_decl_file("C:/ti/ccs1110/ccs/tools/compiler/ti-cgt-msp430_21.6.1.LT
    2350                    .dwattr $C$DW$T$102, DW_AT_decl_line(0x4a)
    2351                    .dwattr $C$DW$T$102, DW_AT_decl_column(0x14)
    2352            
    2353            $C$DW$T$103     .dwtag  DW_TAG_typedef
    2354                    .dwattr $C$DW$T$103, DW_AT_name("__fflags_t")
    2355                    .dwattr $C$DW$T$103, DW_AT_type(*$C$DW$T$101)
    2356                    .dwattr $C$DW$T$103, DW_AT_language(DW_LANG_C)
    2357                    .dwattr $C$DW$T$103, DW_AT_decl_file("C:/ti/ccs1110/ccs/tools/compiler/ti-cgt-msp430_21.6.1.LT
    2358                    .dwattr $C$DW$T$103, DW_AT_decl_line(0x32)
    2359                    .dwattr $C$DW$T$103, DW_AT_decl_column(0x14)
    2360            
    2361            $C$DW$T$104     .dwtag  DW_TAG_typedef
    2362                    .dwattr $C$DW$T$104, DW_AT_name("__fixpt_t")
    2363                    .dwattr $C$DW$T$104, DW_AT_type(*$C$DW$T$101)
    2364                    .dwattr $C$DW$T$104, DW_AT_language(DW_LANG_C)
    2365                    .dwattr $C$DW$T$104, DW_AT_decl_file("C:/ti/ccs1110/ccs/tools/compiler/ti-cgt-msp430_21.6.1.LT
    2366                    .dwattr $C$DW$T$104, DW_AT_decl_line(0x81)
    2367                    .dwattr $C$DW$T$104, DW_AT_decl_column(0x14)
    2368            
    2369            $C$DW$T$105     .dwtag  DW_TAG_typedef
    2370                    .dwattr $C$DW$T$105, DW_AT_name("__gid_t")
    2371                    .dwattr $C$DW$T$105, DW_AT_type(*$C$DW$T$101)
    2372                    .dwattr $C$DW$T$105, DW_AT_language(DW_LANG_C)
    2373                    .dwattr $C$DW$T$105, DW_AT_decl_file("C:/ti/ccs1110/ccs/tools/compiler/ti-cgt-msp430_21.6.1.LT
    2374                    .dwattr $C$DW$T$105, DW_AT_decl_line(0x35)
    2375                    .dwattr $C$DW$T$105, DW_AT_decl_column(0x14)
    2376            
    2377            $C$DW$T$106     .dwtag  DW_TAG_typedef
    2378                    .dwattr $C$DW$T$106, DW_AT_name("__socklen_t")
    2379                    .dwattr $C$DW$T$106, DW_AT_type(*$C$DW$T$101)
    2380                    .dwattr $C$DW$T$106, DW_AT_language(DW_LANG_C)
    2381                    .dwattr $C$DW$T$106, DW_AT_decl_file("C:/ti/ccs1110/ccs/tools/compiler/ti-cgt-msp430_21.6.1.LT
    2382                    .dwattr $C$DW$T$106, DW_AT_decl_line(0x49)
    2383                    .dwattr $C$DW$T$106, DW_AT_decl_column(0x14)
    2384            
    2385            $C$DW$T$107     .dwtag  DW_TAG_typedef
    2386                    .dwattr $C$DW$T$107, DW_AT_name("__time_t")
    2387                    .dwattr $C$DW$T$107, DW_AT_type(*$C$DW$T$101)
    2388                    .dwattr $C$DW$T$107, DW_AT_language(DW_LANG_C)
    2389                    .dwattr $C$DW$T$107, DW_AT_decl_file("C:/ti/ccs1110/ccs/tools/compiler/ti-cgt-msp430_21.6.1.LT
    2390                    .dwattr $C$DW$T$107, DW_AT_decl_line(0x66)
    2391                    .dwattr $C$DW$T$107, DW_AT_decl_column(0x19)
    2392            
    2393            $C$DW$T$108     .dwtag  DW_TAG_typedef
    2394                    .dwattr $C$DW$T$108, DW_AT_name("__uid_t")
    2395                    .dwattr $C$DW$T$108, DW_AT_type(*$C$DW$T$101)
    2396                    .dwattr $C$DW$T$108, DW_AT_language(DW_LANG_C)
    2397                    .dwattr $C$DW$T$108, DW_AT_decl_file("C:/ti/ccs1110/ccs/tools/compiler/ti-cgt-msp430_21.6.1.LT
    2398                    .dwattr $C$DW$T$108, DW_AT_decl_line(0x4d)
    2399                    .dwattr $C$DW$T$108, DW_AT_decl_column(0x14)
    2400            
    2401            $C$DW$T$109     .dwtag  DW_TAG_typedef
MSP430 Assembler PC v21.6.1 Wed Nov 30 16:35:37 2022

Copyright (c) 2003-2018 Texas Instruments Incorporated
adc.asm                                                              PAGE   47

    2402                    .dwattr $C$DW$T$109, DW_AT_name("__uint_fast32_t")
    2403                    .dwattr $C$DW$T$109, DW_AT_type(*$C$DW$T$101)
    2404                    .dwattr $C$DW$T$109, DW_AT_language(DW_LANG_C)
    2405                    .dwattr $C$DW$T$109, DW_AT_decl_file("C:/ti/ccs1110/ccs/tools/compiler/ti-cgt-msp430_21.6.1.LT
    2406                    .dwattr $C$DW$T$109, DW_AT_decl_line(0x72)
    2407                    .dwattr $C$DW$T$109, DW_AT_decl_column(0x14)
    2408            
    2409            $C$DW$T$110     .dwtag  DW_TAG_typedef
    2410                    .dwattr $C$DW$T$110, DW_AT_name("uint_fast32_t")
    2411                    .dwattr $C$DW$T$110, DW_AT_type(*$C$DW$T$109)
    2412                    .dwattr $C$DW$T$110, DW_AT_language(DW_LANG_C)
    2413                    .dwattr $C$DW$T$110, DW_AT_decl_file("C:/ti/ccs1110/ccs/tools/compiler/ti-cgt-msp430_21.6.1.LT
    2414                    .dwattr $C$DW$T$110, DW_AT_decl_line(0x3b)
    2415                    .dwattr $C$DW$T$110, DW_AT_decl_column(0x1a)
    2416            
    2417            $C$DW$T$111     .dwtag  DW_TAG_typedef
    2418                    .dwattr $C$DW$T$111, DW_AT_name("__uint_least32_t")
    2419                    .dwattr $C$DW$T$111, DW_AT_type(*$C$DW$T$101)
    2420                    .dwattr $C$DW$T$111, DW_AT_language(DW_LANG_C)
    2421                    .dwattr $C$DW$T$111, DW_AT_decl_file("C:/ti/ccs1110/ccs/tools/compiler/ti-cgt-msp430_21.6.1.LT
    2422                    .dwattr $C$DW$T$111, DW_AT_decl_line(0x76)
    2423                    .dwattr $C$DW$T$111, DW_AT_decl_column(0x14)
    2424            
    2425            $C$DW$T$112     .dwtag  DW_TAG_typedef
    2426                    .dwattr $C$DW$T$112, DW_AT_name("__char32_t")
    2427                    .dwattr $C$DW$T$112, DW_AT_type(*$C$DW$T$111)
    2428                    .dwattr $C$DW$T$112, DW_AT_language(DW_LANG_C)
    2429                    .dwattr $C$DW$T$112, DW_AT_decl_file("C:/ti/ccs1110/ccs/tools/compiler/ti-cgt-msp430_21.6.1.LT
    2430                    .dwattr $C$DW$T$112, DW_AT_decl_line(0x72)
    2431                    .dwattr $C$DW$T$112, DW_AT_decl_column(0x1a)
    2432            
    2433            $C$DW$T$113     .dwtag  DW_TAG_typedef
    2434                    .dwattr $C$DW$T$113, DW_AT_name("uint_least32_t")
    2435                    .dwattr $C$DW$T$113, DW_AT_type(*$C$DW$T$111)
    2436                    .dwattr $C$DW$T$113, DW_AT_language(DW_LANG_C)
    2437                    .dwattr $C$DW$T$113, DW_AT_decl_file("C:/ti/ccs1110/ccs/tools/compiler/ti-cgt-msp430_21.6.1.LT
    2438                    .dwattr $C$DW$T$113, DW_AT_decl_line(0x31)
    2439                    .dwattr $C$DW$T$113, DW_AT_decl_column(0x1a)
    2440            
    2441            $C$DW$T$114     .dwtag  DW_TAG_typedef
    2442                    .dwattr $C$DW$T$114, DW_AT_name("__uintfptr_t")
    2443                    .dwattr $C$DW$T$114, DW_AT_type(*$C$DW$T$101)
    2444                    .dwattr $C$DW$T$114, DW_AT_language(DW_LANG_C)
    2445                    .dwattr $C$DW$T$114, DW_AT_decl_file("C:/ti/ccs1110/ccs/tools/compiler/ti-cgt-msp430_21.6.1.LT
    2446                    .dwattr $C$DW$T$114, DW_AT_decl_line(0x68)
    2447                    .dwattr $C$DW$T$114, DW_AT_decl_column(0x14)
    2448            
    2449            $C$DW$T$115     .dwtag  DW_TAG_typedef
    2450                    .dwattr $C$DW$T$115, DW_AT_name("__uintptr_t")
    2451                    .dwattr $C$DW$T$115, DW_AT_type(*$C$DW$T$101)
    2452                    .dwattr $C$DW$T$115, DW_AT_language(DW_LANG_C)
    2453                    .dwattr $C$DW$T$115, DW_AT_decl_file("C:/ti/ccs1110/ccs/tools/compiler/ti-cgt-msp430_21.6.1.LT
    2454                    .dwattr $C$DW$T$115, DW_AT_decl_line(0x6b)
    2455                    .dwattr $C$DW$T$115, DW_AT_decl_column(0x14)
    2456            
MSP430 Assembler PC v21.6.1 Wed Nov 30 16:35:37 2022

Copyright (c) 2003-2018 Texas Instruments Incorporated
adc.asm                                                              PAGE   48

    2457            $C$DW$T$116     .dwtag  DW_TAG_typedef
    2458                    .dwattr $C$DW$T$116, DW_AT_name("uintptr_t")
    2459                    .dwattr $C$DW$T$116, DW_AT_type(*$C$DW$T$115)
    2460                    .dwattr $C$DW$T$116, DW_AT_language(DW_LANG_C)
    2461                    .dwattr $C$DW$T$116, DW_AT_decl_file("C:/ti/ccs1110/ccs/tools/compiler/ti-cgt-msp430_21.6.1.LT
    2462                    .dwattr $C$DW$T$116, DW_AT_decl_line(0x54)
    2463                    .dwattr $C$DW$T$116, DW_AT_decl_column(0x16)
    2464            
    2465            $C$DW$T$117     .dwtag  DW_TAG_typedef
    2466                    .dwattr $C$DW$T$117, DW_AT_name("__vm_offset_t")
    2467                    .dwattr $C$DW$T$117, DW_AT_type(*$C$DW$T$101)
    2468                    .dwattr $C$DW$T$117, DW_AT_language(DW_LANG_C)
    2469                    .dwattr $C$DW$T$117, DW_AT_decl_file("C:/ti/ccs1110/ccs/tools/compiler/ti-cgt-msp430_21.6.1.LT
    2470                    .dwattr $C$DW$T$117, DW_AT_decl_line(0x79)
    2471                    .dwattr $C$DW$T$117, DW_AT_decl_column(0x14)
    2472            
    2473            $C$DW$T$118     .dwtag  DW_TAG_typedef
    2474                    .dwattr $C$DW$T$118, DW_AT_name("__vm_paddr_t")
    2475                    .dwattr $C$DW$T$118, DW_AT_type(*$C$DW$T$101)
    2476                    .dwattr $C$DW$T$118, DW_AT_language(DW_LANG_C)
    2477                    .dwattr $C$DW$T$118, DW_AT_decl_file("C:/ti/ccs1110/ccs/tools/compiler/ti-cgt-msp430_21.6.1.LT
    2478                    .dwattr $C$DW$T$118, DW_AT_decl_line(0x7a)
    2479                    .dwattr $C$DW$T$118, DW_AT_decl_column(0x14)
    2480            
    2481            $C$DW$T$119     .dwtag  DW_TAG_typedef
    2482                    .dwattr $C$DW$T$119, DW_AT_name("__vm_size_t")
    2483                    .dwattr $C$DW$T$119, DW_AT_type(*$C$DW$T$101)
    2484                    .dwattr $C$DW$T$119, DW_AT_language(DW_LANG_C)
    2485                    .dwattr $C$DW$T$119, DW_AT_decl_file("C:/ti/ccs1110/ccs/tools/compiler/ti-cgt-msp430_21.6.1.LT
    2486                    .dwattr $C$DW$T$119, DW_AT_decl_line(0x7b)
    2487                    .dwattr $C$DW$T$119, DW_AT_decl_column(0x14)
    2488            
    2489            $C$DW$T$120     .dwtag  DW_TAG_typedef
    2490                    .dwattr $C$DW$T$120, DW_AT_name("uint32_t")
    2491                    .dwattr $C$DW$T$120, DW_AT_type(*$C$DW$T$101)
    2492                    .dwattr $C$DW$T$120, DW_AT_language(DW_LANG_C)
    2493                    .dwattr $C$DW$T$120, DW_AT_decl_file("C:/ti/ccs1110/ccs/tools/compiler/ti-cgt-msp430_21.6.1.LT
    2494                    .dwattr $C$DW$T$120, DW_AT_decl_line(0x46)
    2495                    .dwattr $C$DW$T$120, DW_AT_decl_column(0x15)
    2496            
    2497            $C$DW$T$14      .dwtag  DW_TAG_base_type
    2498                    .dwattr $C$DW$T$14, DW_AT_encoding(DW_ATE_signed)
    2499                    .dwattr $C$DW$T$14, DW_AT_name("long long")
    2500                    .dwattr $C$DW$T$14, DW_AT_byte_size(0x08)
    2501            
    2502            $C$DW$T$122     .dwtag  DW_TAG_typedef
    2503                    .dwattr $C$DW$T$122, DW_AT_name("__int64_t")
    2504                    .dwattr $C$DW$T$122, DW_AT_type(*$C$DW$T$14)
    2505                    .dwattr $C$DW$T$122, DW_AT_language(DW_LANG_C)
    2506                    .dwattr $C$DW$T$122, DW_AT_decl_file("C:/ti/ccs1110/ccs/tools/compiler/ti-cgt-msp430_21.6.1.LT
    2507                    .dwattr $C$DW$T$122, DW_AT_decl_line(0x40)
    2508                    .dwattr $C$DW$T$122, DW_AT_decl_column(0x14)
    2509            
    2510            $C$DW$T$123     .dwtag  DW_TAG_typedef
    2511                    .dwattr $C$DW$T$123, DW_AT_name("__blkcnt_t")
MSP430 Assembler PC v21.6.1 Wed Nov 30 16:35:37 2022

Copyright (c) 2003-2018 Texas Instruments Incorporated
adc.asm                                                              PAGE   49

    2512                    .dwattr $C$DW$T$123, DW_AT_type(*$C$DW$T$122)
    2513                    .dwattr $C$DW$T$123, DW_AT_language(DW_LANG_C)
    2514                    .dwattr $C$DW$T$123, DW_AT_decl_file("C:/ti/ccs1110/ccs/tools/compiler/ti-cgt-msp430_21.6.1.LT
    2515                    .dwattr $C$DW$T$123, DW_AT_decl_line(0x30)
    2516                    .dwattr $C$DW$T$123, DW_AT_decl_column(0x13)
    2517            
    2518            $C$DW$T$124     .dwtag  DW_TAG_typedef
    2519                    .dwattr $C$DW$T$124, DW_AT_name("__id_t")
    2520                    .dwattr $C$DW$T$124, DW_AT_type(*$C$DW$T$122)
    2521                    .dwattr $C$DW$T$124, DW_AT_language(DW_LANG_C)
    2522                    .dwattr $C$DW$T$124, DW_AT_decl_file("C:/ti/ccs1110/ccs/tools/compiler/ti-cgt-msp430_21.6.1.LT
    2523                    .dwattr $C$DW$T$124, DW_AT_decl_line(0x36)
    2524                    .dwattr $C$DW$T$124, DW_AT_decl_column(0x13)
    2525            
    2526            $C$DW$T$125     .dwtag  DW_TAG_typedef
    2527                    .dwattr $C$DW$T$125, DW_AT_name("__int_fast64_t")
    2528                    .dwattr $C$DW$T$125, DW_AT_type(*$C$DW$T$122)
    2529                    .dwattr $C$DW$T$125, DW_AT_language(DW_LANG_C)
    2530                    .dwattr $C$DW$T$125, DW_AT_decl_file("C:/ti/ccs1110/ccs/tools/compiler/ti-cgt-msp430_21.6.1.LT
    2531                    .dwattr $C$DW$T$125, DW_AT_decl_line(0x59)
    2532                    .dwattr $C$DW$T$125, DW_AT_decl_column(0x13)
    2533            
    2534            $C$DW$T$126     .dwtag  DW_TAG_typedef
    2535                    .dwattr $C$DW$T$126, DW_AT_name("int_fast64_t")
    2536                    .dwattr $C$DW$T$126, DW_AT_type(*$C$DW$T$125)
    2537                    .dwattr $C$DW$T$126, DW_AT_language(DW_LANG_C)
    2538                    .dwattr $C$DW$T$126, DW_AT_decl_file("C:/ti/ccs1110/ccs/tools/compiler/ti-cgt-msp430_21.6.1.LT
    2539                    .dwattr $C$DW$T$126, DW_AT_decl_line(0x37)
    2540                    .dwattr $C$DW$T$126, DW_AT_decl_column(0x19)
    2541            
    2542            $C$DW$T$127     .dwtag  DW_TAG_typedef
    2543                    .dwattr $C$DW$T$127, DW_AT_name("__int_least64_t")
    2544                    .dwattr $C$DW$T$127, DW_AT_type(*$C$DW$T$122)
    2545                    .dwattr $C$DW$T$127, DW_AT_language(DW_LANG_C)
    2546                    .dwattr $C$DW$T$127, DW_AT_decl_file("C:/ti/ccs1110/ccs/tools/compiler/ti-cgt-msp430_21.6.1.LT
    2547                    .dwattr $C$DW$T$127, DW_AT_decl_line(0x5d)
    2548                    .dwattr $C$DW$T$127, DW_AT_decl_column(0x13)
    2549            
    2550            $C$DW$T$128     .dwtag  DW_TAG_typedef
    2551                    .dwattr $C$DW$T$128, DW_AT_name("int_least64_t")
    2552                    .dwattr $C$DW$T$128, DW_AT_type(*$C$DW$T$127)
    2553                    .dwattr $C$DW$T$128, DW_AT_language(DW_LANG_C)
    2554                    .dwattr $C$DW$T$128, DW_AT_decl_file("C:/ti/ccs1110/ccs/tools/compiler/ti-cgt-msp430_21.6.1.LT
    2555                    .dwattr $C$DW$T$128, DW_AT_decl_line(0x2d)
    2556                    .dwattr $C$DW$T$128, DW_AT_decl_column(0x1a)
    2557            
    2558            $C$DW$T$129     .dwtag  DW_TAG_typedef
    2559                    .dwattr $C$DW$T$129, DW_AT_name("__intmax_t")
    2560                    .dwattr $C$DW$T$129, DW_AT_type(*$C$DW$T$122)
    2561                    .dwattr $C$DW$T$129, DW_AT_language(DW_LANG_C)
    2562                    .dwattr $C$DW$T$129, DW_AT_decl_file("C:/ti/ccs1110/ccs/tools/compiler/ti-cgt-msp430_21.6.1.LT
    2563                    .dwattr $C$DW$T$129, DW_AT_decl_line(0x4f)
    2564                    .dwattr $C$DW$T$129, DW_AT_decl_column(0x13)
    2565            
    2566            $C$DW$T$130     .dwtag  DW_TAG_typedef
MSP430 Assembler PC v21.6.1 Wed Nov 30 16:35:37 2022

Copyright (c) 2003-2018 Texas Instruments Incorporated
adc.asm                                                              PAGE   50

    2567                    .dwattr $C$DW$T$130, DW_AT_name("intmax_t")
    2568                    .dwattr $C$DW$T$130, DW_AT_type(*$C$DW$T$129)
    2569                    .dwattr $C$DW$T$130, DW_AT_language(DW_LANG_C)
    2570                    .dwattr $C$DW$T$130, DW_AT_decl_file("C:/ti/ccs1110/ccs/tools/compiler/ti-cgt-msp430_21.6.1.LT
    2571                    .dwattr $C$DW$T$130, DW_AT_decl_line(0x58)
    2572                    .dwattr $C$DW$T$130, DW_AT_decl_column(0x15)
    2573            
    2574            $C$DW$T$131     .dwtag  DW_TAG_typedef
    2575                    .dwattr $C$DW$T$131, DW_AT_name("__off64_t")
    2576                    .dwattr $C$DW$T$131, DW_AT_type(*$C$DW$T$122)
    2577                    .dwattr $C$DW$T$131, DW_AT_language(DW_LANG_C)
    2578                    .dwattr $C$DW$T$131, DW_AT_decl_file("C:/ti/ccs1110/ccs/tools/compiler/ti-cgt-msp430_21.6.1.LT
    2579                    .dwattr $C$DW$T$131, DW_AT_decl_line(0x3f)
    2580                    .dwattr $C$DW$T$131, DW_AT_decl_column(0x13)
    2581            
    2582            $C$DW$T$132     .dwtag  DW_TAG_typedef
    2583                    .dwattr $C$DW$T$132, DW_AT_name("__rlim_t")
    2584                    .dwattr $C$DW$T$132, DW_AT_type(*$C$DW$T$122)
    2585                    .dwattr $C$DW$T$132, DW_AT_language(DW_LANG_C)
    2586                    .dwattr $C$DW$T$132, DW_AT_decl_file("C:/ti/ccs1110/ccs/tools/compiler/ti-cgt-msp430_21.6.1.LT
    2587                    .dwattr $C$DW$T$132, DW_AT_decl_line(0x41)
    2588                    .dwattr $C$DW$T$132, DW_AT_decl_column(0x13)
    2589            
    2590            $C$DW$T$133     .dwtag  DW_TAG_typedef
    2591                    .dwattr $C$DW$T$133, DW_AT_name("int64_t")
    2592                    .dwattr $C$DW$T$133, DW_AT_type(*$C$DW$T$122)
    2593                    .dwattr $C$DW$T$133, DW_AT_language(DW_LANG_C)
    2594                    .dwattr $C$DW$T$133, DW_AT_decl_file("C:/ti/ccs1110/ccs/tools/compiler/ti-cgt-msp430_21.6.1.LT
    2595                    .dwattr $C$DW$T$133, DW_AT_decl_line(0x35)
    2596                    .dwattr $C$DW$T$133, DW_AT_decl_column(0x14)
    2597            
    2598            $C$DW$T$15      .dwtag  DW_TAG_base_type
    2599                    .dwattr $C$DW$T$15, DW_AT_encoding(DW_ATE_unsigned)
    2600                    .dwattr $C$DW$T$15, DW_AT_name("unsigned long long")
    2601                    .dwattr $C$DW$T$15, DW_AT_byte_size(0x08)
    2602            
    2603            $C$DW$T$134     .dwtag  DW_TAG_typedef
    2604                    .dwattr $C$DW$T$134, DW_AT_name("__uint64_t")
    2605                    .dwattr $C$DW$T$134, DW_AT_type(*$C$DW$T$15)
    2606                    .dwattr $C$DW$T$134, DW_AT_language(DW_LANG_C)
    2607                    .dwattr $C$DW$T$134, DW_AT_decl_file("C:/ti/ccs1110/ccs/tools/compiler/ti-cgt-msp430_21.6.1.LT
    2608                    .dwattr $C$DW$T$134, DW_AT_decl_line(0x45)
    2609                    .dwattr $C$DW$T$134, DW_AT_decl_column(0x1c)
    2610            
    2611            $C$DW$T$135     .dwtag  DW_TAG_typedef
    2612                    .dwattr $C$DW$T$135, DW_AT_name("__dev_t")
    2613                    .dwattr $C$DW$T$135, DW_AT_type(*$C$DW$T$134)
    2614                    .dwattr $C$DW$T$135, DW_AT_language(DW_LANG_C)
    2615                    .dwattr $C$DW$T$135, DW_AT_decl_file("C:/ti/ccs1110/ccs/tools/compiler/ti-cgt-msp430_21.6.1.LT
    2616                    .dwattr $C$DW$T$135, DW_AT_decl_line(0x7f)
    2617                    .dwattr $C$DW$T$135, DW_AT_decl_column(0x14)
    2618            
    2619            $C$DW$T$136     .dwtag  DW_TAG_typedef
    2620                    .dwattr $C$DW$T$136, DW_AT_name("__fsblkcnt_t")
    2621                    .dwattr $C$DW$T$136, DW_AT_type(*$C$DW$T$134)
MSP430 Assembler PC v21.6.1 Wed Nov 30 16:35:37 2022

Copyright (c) 2003-2018 Texas Instruments Incorporated
adc.asm                                                              PAGE   51

    2622                    .dwattr $C$DW$T$136, DW_AT_language(DW_LANG_C)
    2623                    .dwattr $C$DW$T$136, DW_AT_decl_file("C:/ti/ccs1110/ccs/tools/compiler/ti-cgt-msp430_21.6.1.LT
    2624                    .dwattr $C$DW$T$136, DW_AT_decl_line(0x33)
    2625                    .dwattr $C$DW$T$136, DW_AT_decl_column(0x14)
    2626            
    2627            $C$DW$T$137     .dwtag  DW_TAG_typedef
    2628                    .dwattr $C$DW$T$137, DW_AT_name("__fsfilcnt_t")
    2629                    .dwattr $C$DW$T$137, DW_AT_type(*$C$DW$T$134)
    2630                    .dwattr $C$DW$T$137, DW_AT_language(DW_LANG_C)
    2631                    .dwattr $C$DW$T$137, DW_AT_decl_file("C:/ti/ccs1110/ccs/tools/compiler/ti-cgt-msp430_21.6.1.LT
    2632                    .dwattr $C$DW$T$137, DW_AT_decl_line(0x34)
    2633                    .dwattr $C$DW$T$137, DW_AT_decl_column(0x14)
    2634            
    2635            $C$DW$T$138     .dwtag  DW_TAG_typedef
    2636                    .dwattr $C$DW$T$138, DW_AT_name("__ino_t")
    2637                    .dwattr $C$DW$T$138, DW_AT_type(*$C$DW$T$134)
    2638                    .dwattr $C$DW$T$138, DW_AT_language(DW_LANG_C)
    2639                    .dwattr $C$DW$T$138, DW_AT_decl_file("C:/ti/ccs1110/ccs/tools/compiler/ti-cgt-msp430_21.6.1.LT
    2640                    .dwattr $C$DW$T$138, DW_AT_decl_line(0x37)
    2641                    .dwattr $C$DW$T$138, DW_AT_decl_column(0x14)
    2642            
    2643            $C$DW$T$139     .dwtag  DW_TAG_typedef
    2644                    .dwattr $C$DW$T$139, DW_AT_name("__nlink_t")
    2645                    .dwattr $C$DW$T$139, DW_AT_type(*$C$DW$T$134)
    2646                    .dwattr $C$DW$T$139, DW_AT_language(DW_LANG_C)
    2647                    .dwattr $C$DW$T$139, DW_AT_decl_file("C:/ti/ccs1110/ccs/tools/compiler/ti-cgt-msp430_21.6.1.LT
    2648                    .dwattr $C$DW$T$139, DW_AT_decl_line(0x3d)
    2649                    .dwattr $C$DW$T$139, DW_AT_decl_column(0x14)
    2650            
    2651            $C$DW$T$140     .dwtag  DW_TAG_typedef
    2652                    .dwattr $C$DW$T$140, DW_AT_name("__uint_fast64_t")
    2653                    .dwattr $C$DW$T$140, DW_AT_type(*$C$DW$T$134)
    2654                    .dwattr $C$DW$T$140, DW_AT_language(DW_LANG_C)
    2655                    .dwattr $C$DW$T$140, DW_AT_decl_file("C:/ti/ccs1110/ccs/tools/compiler/ti-cgt-msp430_21.6.1.LT
    2656                    .dwattr $C$DW$T$140, DW_AT_decl_line(0x73)
    2657                    .dwattr $C$DW$T$140, DW_AT_decl_column(0x14)
    2658            
    2659            $C$DW$T$141     .dwtag  DW_TAG_typedef
    2660                    .dwattr $C$DW$T$141, DW_AT_name("uint_fast64_t")
    2661                    .dwattr $C$DW$T$141, DW_AT_type(*$C$DW$T$140)
    2662                    .dwattr $C$DW$T$141, DW_AT_language(DW_LANG_C)
    2663                    .dwattr $C$DW$T$141, DW_AT_decl_file("C:/ti/ccs1110/ccs/tools/compiler/ti-cgt-msp430_21.6.1.LT
    2664                    .dwattr $C$DW$T$141, DW_AT_decl_line(0x3c)
    2665                    .dwattr $C$DW$T$141, DW_AT_decl_column(0x1a)
    2666            
    2667            $C$DW$T$142     .dwtag  DW_TAG_typedef
    2668                    .dwattr $C$DW$T$142, DW_AT_name("__uint_least64_t")
    2669                    .dwattr $C$DW$T$142, DW_AT_type(*$C$DW$T$134)
    2670                    .dwattr $C$DW$T$142, DW_AT_language(DW_LANG_C)
    2671                    .dwattr $C$DW$T$142, DW_AT_decl_file("C:/ti/ccs1110/ccs/tools/compiler/ti-cgt-msp430_21.6.1.LT
    2672                    .dwattr $C$DW$T$142, DW_AT_decl_line(0x77)
    2673                    .dwattr $C$DW$T$142, DW_AT_decl_column(0x14)
    2674            
    2675            $C$DW$T$143     .dwtag  DW_TAG_typedef
    2676                    .dwattr $C$DW$T$143, DW_AT_name("uint_least64_t")
MSP430 Assembler PC v21.6.1 Wed Nov 30 16:35:37 2022

Copyright (c) 2003-2018 Texas Instruments Incorporated
adc.asm                                                              PAGE   52

    2677                    .dwattr $C$DW$T$143, DW_AT_type(*$C$DW$T$142)
    2678                    .dwattr $C$DW$T$143, DW_AT_language(DW_LANG_C)
    2679                    .dwattr $C$DW$T$143, DW_AT_decl_file("C:/ti/ccs1110/ccs/tools/compiler/ti-cgt-msp430_21.6.1.LT
    2680                    .dwattr $C$DW$T$143, DW_AT_decl_line(0x32)
    2681                    .dwattr $C$DW$T$143, DW_AT_decl_column(0x1a)
    2682            
    2683            $C$DW$T$144     .dwtag  DW_TAG_typedef
    2684                    .dwattr $C$DW$T$144, DW_AT_name("__uintmax_t")
    2685                    .dwattr $C$DW$T$144, DW_AT_type(*$C$DW$T$134)
    2686                    .dwattr $C$DW$T$144, DW_AT_language(DW_LANG_C)
    2687                    .dwattr $C$DW$T$144, DW_AT_decl_file("C:/ti/ccs1110/ccs/tools/compiler/ti-cgt-msp430_21.6.1.LT
    2688                    .dwattr $C$DW$T$144, DW_AT_decl_line(0x69)
    2689                    .dwattr $C$DW$T$144, DW_AT_decl_column(0x14)
    2690            
    2691            $C$DW$T$145     .dwtag  DW_TAG_typedef
    2692                    .dwattr $C$DW$T$145, DW_AT_name("__rman_res_t")
    2693                    .dwattr $C$DW$T$145, DW_AT_type(*$C$DW$T$144)
    2694                    .dwattr $C$DW$T$145, DW_AT_language(DW_LANG_C)
    2695                    .dwattr $C$DW$T$145, DW_AT_decl_file("C:/ti/ccs1110/ccs/tools/compiler/ti-cgt-msp430_21.6.1.LT
    2696                    .dwattr $C$DW$T$145, DW_AT_decl_line(0x9a)
    2697                    .dwattr $C$DW$T$145, DW_AT_decl_column(0x19)
    2698            
    2699            $C$DW$T$146     .dwtag  DW_TAG_typedef
    2700                    .dwattr $C$DW$T$146, DW_AT_name("uintmax_t")
    2701                    .dwattr $C$DW$T$146, DW_AT_type(*$C$DW$T$144)
    2702                    .dwattr $C$DW$T$146, DW_AT_language(DW_LANG_C)
    2703                    .dwattr $C$DW$T$146, DW_AT_decl_file("C:/ti/ccs1110/ccs/tools/compiler/ti-cgt-msp430_21.6.1.LT
    2704                    .dwattr $C$DW$T$146, DW_AT_decl_line(0x5c)
    2705                    .dwattr $C$DW$T$146, DW_AT_decl_column(0x16)
    2706            
    2707            $C$DW$T$147     .dwtag  DW_TAG_typedef
    2708                    .dwattr $C$DW$T$147, DW_AT_name("uint64_t")
    2709                    .dwattr $C$DW$T$147, DW_AT_type(*$C$DW$T$134)
    2710                    .dwattr $C$DW$T$147, DW_AT_language(DW_LANG_C)
    2711                    .dwattr $C$DW$T$147, DW_AT_decl_file("C:/ti/ccs1110/ccs/tools/compiler/ti-cgt-msp430_21.6.1.LT
    2712                    .dwattr $C$DW$T$147, DW_AT_decl_line(0x4b)
    2713                    .dwattr $C$DW$T$147, DW_AT_decl_column(0x15)
    2714            
    2715            $C$DW$T$16      .dwtag  DW_TAG_base_type
    2716                    .dwattr $C$DW$T$16, DW_AT_encoding(DW_ATE_float)
    2717                    .dwattr $C$DW$T$16, DW_AT_name("float")
    2718                    .dwattr $C$DW$T$16, DW_AT_byte_size(0x04)
    2719            
    2720            $C$DW$T$148     .dwtag  DW_TAG_typedef
    2721                    .dwattr $C$DW$T$148, DW_AT_name("__float_t")
    2722                    .dwattr $C$DW$T$148, DW_AT_type(*$C$DW$T$16)
    2723                    .dwattr $C$DW$T$148, DW_AT_language(DW_LANG_C)
    2724                    .dwattr $C$DW$T$148, DW_AT_decl_file("C:/ti/ccs1110/ccs/tools/compiler/ti-cgt-msp430_21.6.1.LT
    2725                    .dwattr $C$DW$T$148, DW_AT_decl_line(0x4d)
    2726                    .dwattr $C$DW$T$148, DW_AT_decl_column(0x10)
    2727            
    2728            $C$DW$T$17      .dwtag  DW_TAG_base_type
    2729                    .dwattr $C$DW$T$17, DW_AT_encoding(DW_ATE_float)
    2730                    .dwattr $C$DW$T$17, DW_AT_name("double")
    2731                    .dwattr $C$DW$T$17, DW_AT_byte_size(0x08)
MSP430 Assembler PC v21.6.1 Wed Nov 30 16:35:37 2022

Copyright (c) 2003-2018 Texas Instruments Incorporated
adc.asm                                                              PAGE   53

    2732            
    2733            $C$DW$T$149     .dwtag  DW_TAG_typedef
    2734                    .dwattr $C$DW$T$149, DW_AT_name("__double_t")
    2735                    .dwattr $C$DW$T$149, DW_AT_type(*$C$DW$T$17)
    2736                    .dwattr $C$DW$T$149, DW_AT_language(DW_LANG_C)
    2737                    .dwattr $C$DW$T$149, DW_AT_decl_file("C:/ti/ccs1110/ccs/tools/compiler/ti-cgt-msp430_21.6.1.LT
    2738                    .dwattr $C$DW$T$149, DW_AT_decl_line(0x4c)
    2739                    .dwattr $C$DW$T$149, DW_AT_decl_column(0x11)
    2740            
    2741            $C$DW$T$18      .dwtag  DW_TAG_base_type
    2742                    .dwattr $C$DW$T$18, DW_AT_encoding(DW_ATE_float)
    2743                    .dwattr $C$DW$T$18, DW_AT_name("long double")
    2744                    .dwattr $C$DW$T$18, DW_AT_byte_size(0x08)
    2745            
    2746            $C$DW$T$32      .dwtag  DW_TAG_base_type
    2747                    .dwattr $C$DW$T$32, DW_AT_encoding(DW_ATE_unsigned_char)
    2748                    .dwattr $C$DW$T$32, DW_AT_name("unsigned char")
    2749                    .dwattr $C$DW$T$32, DW_AT_byte_size(0x01)
    2750            
    2751            $C$DW$T$151     .dwtag  DW_TAG_pointer_type
    2752                    .dwattr $C$DW$T$151, DW_AT_type(*$C$DW$T$6)
    2753                    .dwattr $C$DW$T$151, DW_AT_address_class(0x10)
    2754            
    2755            $C$DW$T$152     .dwtag  DW_TAG_typedef
    2756                    .dwattr $C$DW$T$152, DW_AT_name("__va_list")
    2757                    .dwattr $C$DW$T$152, DW_AT_type(*$C$DW$T$151)
    2758                    .dwattr $C$DW$T$152, DW_AT_language(DW_LANG_C)
    2759                    .dwattr $C$DW$T$152, DW_AT_decl_file("C:/ti/ccs1110/ccs/tools/compiler/ti-cgt-msp430_21.6.1.LT
    2760                    .dwattr $C$DW$T$152, DW_AT_decl_line(0x92)
    2761                    .dwattr $C$DW$T$152, DW_AT_decl_column(0x0f)
    2762            
    2763            
    2764            $C$DW$T$19      .dwtag  DW_TAG_structure_type
    2765                    .dwattr $C$DW$T$19, DW_AT_name("__mq")
    2766                    .dwattr $C$DW$T$19, DW_AT_declaration
    2767                    .dwattr $C$DW$T$19, DW_AT_decl_file("C:/ti/ccs1110/ccs/tools/compiler/ti-cgt-msp430_21.6.1.LTS
    2768                    .dwattr $C$DW$T$19, DW_AT_decl_line(0x4c)
    2769                    .dwattr $C$DW$T$19, DW_AT_decl_column(0x10)
    2770                    .dwendtag $C$DW$T$19
    2771            
    2772            $C$DW$T$153     .dwtag  DW_TAG_pointer_type
    2773                    .dwattr $C$DW$T$153, DW_AT_type(*$C$DW$T$19)
    2774                    .dwattr $C$DW$T$153, DW_AT_address_class(0x10)
    2775            
    2776            $C$DW$T$154     .dwtag  DW_TAG_typedef
    2777                    .dwattr $C$DW$T$154, DW_AT_name("__mqd_t")
    2778                    .dwattr $C$DW$T$154, DW_AT_type(*$C$DW$T$153)
    2779                    .dwattr $C$DW$T$154, DW_AT_language(DW_LANG_C)
    2780                    .dwattr $C$DW$T$154, DW_AT_decl_file("C:/ti/ccs1110/ccs/tools/compiler/ti-cgt-msp430_21.6.1.LT
    2781                    .dwattr $C$DW$T$154, DW_AT_decl_line(0x4c)
    2782                    .dwattr $C$DW$T$154, DW_AT_decl_column(0x16)
    2783            
    2784            
    2785            $C$DW$T$20      .dwtag  DW_TAG_structure_type
    2786                    .dwattr $C$DW$T$20, DW_AT_name("__timer")
MSP430 Assembler PC v21.6.1 Wed Nov 30 16:35:37 2022

Copyright (c) 2003-2018 Texas Instruments Incorporated
adc.asm                                                              PAGE   54

    2787                    .dwattr $C$DW$T$20, DW_AT_declaration
    2788                    .dwattr $C$DW$T$20, DW_AT_decl_file("C:/ti/ccs1110/ccs/tools/compiler/ti-cgt-msp430_21.6.1.LTS
    2789                    .dwattr $C$DW$T$20, DW_AT_decl_line(0x4b)
    2790                    .dwattr $C$DW$T$20, DW_AT_decl_column(0x10)
    2791                    .dwendtag $C$DW$T$20
    2792            
    2793            $C$DW$T$155     .dwtag  DW_TAG_pointer_type
    2794                    .dwattr $C$DW$T$155, DW_AT_type(*$C$DW$T$20)
    2795                    .dwattr $C$DW$T$155, DW_AT_address_class(0x10)
    2796            
    2797            $C$DW$T$156     .dwtag  DW_TAG_typedef
    2798                    .dwattr $C$DW$T$156, DW_AT_name("__timer_t")
    2799                    .dwattr $C$DW$T$156, DW_AT_type(*$C$DW$T$155)
    2800                    .dwattr $C$DW$T$156, DW_AT_language(DW_LANG_C)
    2801                    .dwattr $C$DW$T$156, DW_AT_decl_file("C:/ti/ccs1110/ccs/tools/compiler/ti-cgt-msp430_21.6.1.LT
    2802                    .dwattr $C$DW$T$156, DW_AT_decl_line(0x4b)
    2803                    .dwattr $C$DW$T$156, DW_AT_decl_column(0x19)
    2804            
    2805                    .dwattr $C$DW$CU, DW_AT_language(DW_LANG_C)
    2806            
    2807            ;***************************************************************
    2808            ;* DWARF CIE ENTRIES                                           *
    2809            ;***************************************************************
    2810            
    2811            $C$DW$CIE       .dwcie 16
    2812                    .dwcfi  cfa_register, 1
    2813                    .dwcfi  cfa_offset, 0
    2814                    .dwcfi  same_value, 0
    2815                    .dwcfi  same_value, 1
    2816                    .dwcfi  same_value, 3
    2817                    .dwcfi  same_value, 4
    2818                    .dwcfi  same_value, 5
    2819                    .dwcfi  same_value, 6
    2820                    .dwcfi  same_value, 7
    2821                    .dwcfi  same_value, 8
    2822                    .dwcfi  same_value, 9
    2823                    .dwcfi  same_value, 10
    2824                    .dwendentry
    2825            
    2826            ;***************************************************************
    2827            ;* DWARF REGISTER MAP                                          *
    2828            ;***************************************************************
    2829            
    2830            $C$DW$124       .dwtag  DW_TAG_TI_assign_register
    2831                    .dwattr $C$DW$124, DW_AT_name("PC")
    2832                    .dwattr $C$DW$124, DW_AT_location[DW_OP_reg0]
    2833            
    2834            $C$DW$125       .dwtag  DW_TAG_TI_assign_register
    2835                    .dwattr $C$DW$125, DW_AT_name("SP")
    2836                    .dwattr $C$DW$125, DW_AT_location[DW_OP_reg1]
    2837            
    2838            $C$DW$126       .dwtag  DW_TAG_TI_assign_register
    2839                    .dwattr $C$DW$126, DW_AT_name("SR")
    2840                    .dwattr $C$DW$126, DW_AT_location[DW_OP_reg2]
    2841            
MSP430 Assembler PC v21.6.1 Wed Nov 30 16:35:37 2022

Copyright (c) 2003-2018 Texas Instruments Incorporated
adc.asm                                                              PAGE   55

    2842            $C$DW$127       .dwtag  DW_TAG_TI_assign_register
    2843                    .dwattr $C$DW$127, DW_AT_name("CG")
    2844                    .dwattr $C$DW$127, DW_AT_location[DW_OP_reg3]
    2845            
    2846            $C$DW$128       .dwtag  DW_TAG_TI_assign_register
    2847                    .dwattr $C$DW$128, DW_AT_name("r4")
    2848                    .dwattr $C$DW$128, DW_AT_location[DW_OP_reg4]
    2849            
    2850            $C$DW$129       .dwtag  DW_TAG_TI_assign_register
    2851                    .dwattr $C$DW$129, DW_AT_name("r5")
    2852                    .dwattr $C$DW$129, DW_AT_location[DW_OP_reg5]
    2853            
    2854            $C$DW$130       .dwtag  DW_TAG_TI_assign_register
    2855                    .dwattr $C$DW$130, DW_AT_name("r6")
    2856                    .dwattr $C$DW$130, DW_AT_location[DW_OP_reg6]
    2857            
    2858            $C$DW$131       .dwtag  DW_TAG_TI_assign_register
    2859                    .dwattr $C$DW$131, DW_AT_name("r7")
    2860                    .dwattr $C$DW$131, DW_AT_location[DW_OP_reg7]
    2861            
    2862            $C$DW$132       .dwtag  DW_TAG_TI_assign_register
    2863                    .dwattr $C$DW$132, DW_AT_name("r8")
    2864                    .dwattr $C$DW$132, DW_AT_location[DW_OP_reg8]
    2865            
    2866            $C$DW$133       .dwtag  DW_TAG_TI_assign_register
    2867                    .dwattr $C$DW$133, DW_AT_name("r9")
    2868                    .dwattr $C$DW$133, DW_AT_location[DW_OP_reg9]
    2869            
    2870            $C$DW$134       .dwtag  DW_TAG_TI_assign_register
    2871                    .dwattr $C$DW$134, DW_AT_name("r10")
    2872                    .dwattr $C$DW$134, DW_AT_location[DW_OP_reg10]
    2873            
    2874            $C$DW$135       .dwtag  DW_TAG_TI_assign_register
    2875                    .dwattr $C$DW$135, DW_AT_name("r11")
    2876                    .dwattr $C$DW$135, DW_AT_location[DW_OP_reg11]
    2877            
    2878            $C$DW$136       .dwtag  DW_TAG_TI_assign_register
    2879                    .dwattr $C$DW$136, DW_AT_name("r12")
    2880                    .dwattr $C$DW$136, DW_AT_location[DW_OP_reg12]
    2881            
    2882            $C$DW$137       .dwtag  DW_TAG_TI_assign_register
    2883                    .dwattr $C$DW$137, DW_AT_name("r13")
    2884                    .dwattr $C$DW$137, DW_AT_location[DW_OP_reg13]
    2885            
    2886            $C$DW$138       .dwtag  DW_TAG_TI_assign_register
    2887                    .dwattr $C$DW$138, DW_AT_name("r14")
    2888                    .dwattr $C$DW$138, DW_AT_location[DW_OP_reg14]
    2889            
    2890            $C$DW$139       .dwtag  DW_TAG_TI_assign_register
    2891                    .dwattr $C$DW$139, DW_AT_name("r15")
    2892                    .dwattr $C$DW$139, DW_AT_location[DW_OP_reg15]
    2893            
    2894            $C$DW$140       .dwtag  DW_TAG_TI_assign_register
    2895                    .dwattr $C$DW$140, DW_AT_name("CIE_RETA")
    2896                    .dwattr $C$DW$140, DW_AT_location[DW_OP_reg16]
MSP430 Assembler PC v21.6.1 Wed Nov 30 16:35:37 2022

Copyright (c) 2003-2018 Texas Instruments Incorporated
adc.asm                                                              PAGE   56

    2897            
    2898                    .dwendtag $C$DW$CU
    2899            

No Assembly Errors, No Assembly Warnings
