MSP430 Assembler PC v21.6.1 Wed Nov 30 16:35:38 2022

Copyright (c) 2003-2018 Texas Instruments Incorporated
eusci_a_uart.asm                                                     PAGE    1

       1            ;******************************************************************************
       2            ;* MSP430 G3 C/C++ Codegen                                              PC v21.6.1.LTS *
       3            ;* Date/Time created: Wed Nov 30 16:35:35 2022                                *
       4            ;******************************************************************************
       5                    .compiler_opts --abi=eabi --diag_wrap=off --hll_source=on --mem_model:code=large --mem_model:d
       6            
       7            $C$DW$CU        .dwtag  DW_TAG_compile_unit
       8                    .dwattr $C$DW$CU, DW_AT_name("../driverlib/MSP430FR2xx_4xx/eusci_a_uart.c")
       9                    .dwattr $C$DW$CU, DW_AT_producer("TI MSP430 G3 C/C++ Codegen PC v21.6.1.LTS Copyright (c) 2003
      10                    .dwattr $C$DW$CU, DW_AT_TI_version(0x01)
      11                    .dwattr $C$DW$CU, DW_AT_comp_dir("C:\ccs_challengespace\MSP430_LCD_display\Debug")
      12            ;       C:\ti\ccs1110\ccs\tools\compiler\ti-cgt-msp430_21.6.1.LTS\bin\acpia430.exe -@C:\\Users\\DAVID~
      13 000000               .sect   ".text:EUSCI_A_UART_init"
      14                    .clink
      15                    .global EUSCI_A_UART_init
      16            
      17            $C$DW$1 .dwtag  DW_TAG_subprogram
      18                    .dwattr $C$DW$1, DW_AT_name("EUSCI_A_UART_init")
      19                    .dwattr $C$DW$1, DW_AT_low_pc(EUSCI_A_UART_init)
      20                    .dwattr $C$DW$1, DW_AT_high_pc(0x00)
      21                    .dwattr $C$DW$1, DW_AT_TI_symbol_name("EUSCI_A_UART_init")
      22                    .dwattr $C$DW$1, DW_AT_external
      23                    .dwattr $C$DW$1, DW_AT_type(*$C$DW$T$148)
      24                    .dwattr $C$DW$1, DW_AT_TI_begin_file("../driverlib/MSP430FR2xx_4xx/eusci_a_uart.c")
      25                    .dwattr $C$DW$1, DW_AT_TI_begin_line(0x15)
      26                    .dwattr $C$DW$1, DW_AT_TI_begin_column(0x06)
      27                    .dwattr $C$DW$1, DW_AT_decl_file("../driverlib/MSP430FR2xx_4xx/eusci_a_uart.c")
      28                    .dwattr $C$DW$1, DW_AT_decl_line(0x15)
      29                    .dwattr $C$DW$1, DW_AT_decl_column(0x06)
      30                    .dwattr $C$DW$1, DW_AT_TI_max_frame_size(0x0a)
      31                    .dwpsn  file "../driverlib/MSP430FR2xx_4xx/eusci_a_uart.c",line 22,column 1,is_stmt,address EU
      32            
      33                    .dwfde $C$DW$CIE, EUSCI_A_UART_init
      34            $C$DW$2 .dwtag  DW_TAG_formal_parameter
      35                    .dwattr $C$DW$2, DW_AT_name("baseAddress")
      36                    .dwattr $C$DW$2, DW_AT_TI_symbol_name("baseAddress")
      37                    .dwattr $C$DW$2, DW_AT_type(*$C$DW$T$25)
      38                    .dwattr $C$DW$2, DW_AT_location[DW_OP_reg12]
      39            
      40            $C$DW$3 .dwtag  DW_TAG_formal_parameter
      41                    .dwattr $C$DW$3, DW_AT_name("param")
      42                    .dwattr $C$DW$3, DW_AT_TI_symbol_name("param")
      43                    .dwattr $C$DW$3, DW_AT_type(*$C$DW$T$29)
      44                    .dwattr $C$DW$3, DW_AT_location[DW_OP_reg13]
      45            
      46            
      47            ;*****************************************************************************
      48            ;* FUNCTION NAME: EUSCI_A_UART_init                                          *
      49            ;*                                                                           *
      50            ;*   Regs Modified     : SP,SR,r12                                           *
      51            ;*   Regs Used         : SP,SR,r12,r13                                       *
      52            ;*   Local Frame Size  : 0 Args + 6 Auto + 0 Save = 6 byte                   *
      53            ;*****************************************************************************
      54 000000       EUSCI_A_UART_init:
      55            ;* --------------------------------------------------------------------------*
MSP430 Assembler PC v21.6.1 Wed Nov 30 16:35:38 2022

Copyright (c) 2003-2018 Texas Instruments Incorporated
eusci_a_uart.asm                                                     PAGE    2

      56                    .dwcfi  cfa_offset, 4
      57                    .dwcfi  save_reg_to_mem, 16, -4
      58 000000 8031          SUB.W     #6,SP                 ; [] 
         000002 0006 
      59                    .dwcfi  cfa_offset, 10
      60            $C$DW$4 .dwtag  DW_TAG_variable
      61                    .dwattr $C$DW$4, DW_AT_name("baseAddress")
      62                    .dwattr $C$DW$4, DW_AT_TI_symbol_name("baseAddress")
      63                    .dwattr $C$DW$4, DW_AT_type(*$C$DW$T$25)
      64                    .dwattr $C$DW$4, DW_AT_location[DW_OP_breg1 0]
      65            
      66            $C$DW$5 .dwtag  DW_TAG_variable
      67                    .dwattr $C$DW$5, DW_AT_name("param")
      68                    .dwattr $C$DW$5, DW_AT_TI_symbol_name("param")
      69                    .dwattr $C$DW$5, DW_AT_type(*$C$DW$T$29)
      70                    .dwattr $C$DW$5, DW_AT_location[DW_OP_breg1 2]
      71            
      72            $C$DW$6 .dwtag  DW_TAG_variable
      73                    .dwattr $C$DW$6, DW_AT_name("retVal")
      74                    .dwattr $C$DW$6, DW_AT_TI_symbol_name("retVal")
      75                    .dwattr $C$DW$6, DW_AT_type(*$C$DW$T$148)
      76                    .dwattr $C$DW$6, DW_AT_location[DW_OP_breg1 4]
      77            
      78 000004 4D81          MOV.W     r13,2(SP)             ; [] |22| 
         000006 0002 
      79 000008 4C81          MOV.W     r12,0(SP)             ; [] |22| 
         00000a 0000 
      80                    .dwpsn  file "../driverlib/MSP430FR2xx_4xx/eusci_a_uart.c",line 23,column 17,is_stmt,isa 0
      81 00000c 43D1          MOV.B     #1,4(SP)              ; [] |23| 
         00000e 0004 
      82                    .dwpsn  file "../driverlib/MSP430FR2xx_4xx/eusci_a_uart.c",line 80,column 5,is_stmt,isa 0
      83 000010 415C          MOV.B     4(SP),r12             ; [] |80| 
         000012 0004 
      84                    .dwpsn  file "../driverlib/MSP430FR2xx_4xx/eusci_a_uart.c",line 81,column 1,is_stmt,isa 0
      85 000014 5031          ADD.W     #6,SP                 ; [] 
         000016 0006 
      86                    .dwcfi  cfa_offset, 4
      87            $C$DW$7 .dwtag  DW_TAG_TI_branch
      88                    .dwattr $C$DW$7, DW_AT_low_pc(0x00)
      89                    .dwattr $C$DW$7, DW_AT_TI_return
      90            
      91 000018 0110          RETA      ; [] 
      92                    ; [] 
      93                    .dwattr $C$DW$1, DW_AT_TI_end_file("../driverlib/MSP430FR2xx_4xx/eusci_a_uart.c")
      94                    .dwattr $C$DW$1, DW_AT_TI_end_line(0x51)
      95                    .dwattr $C$DW$1, DW_AT_TI_end_column(0x01)
      96                    .dwendentry
      97                    .dwendtag $C$DW$1
      98            
      99 000000               .sect   ".text:EUSCI_A_UART_transmitData"
     100                    .clink
     101                    .global EUSCI_A_UART_transmitData
     102            
     103            $C$DW$8 .dwtag  DW_TAG_subprogram
     104                    .dwattr $C$DW$8, DW_AT_name("EUSCI_A_UART_transmitData")
MSP430 Assembler PC v21.6.1 Wed Nov 30 16:35:38 2022

Copyright (c) 2003-2018 Texas Instruments Incorporated
eusci_a_uart.asm                                                     PAGE    3

     105                    .dwattr $C$DW$8, DW_AT_low_pc(EUSCI_A_UART_transmitData)
     106                    .dwattr $C$DW$8, DW_AT_high_pc(0x00)
     107                    .dwattr $C$DW$8, DW_AT_TI_symbol_name("EUSCI_A_UART_transmitData")
     108                    .dwattr $C$DW$8, DW_AT_external
     109                    .dwattr $C$DW$8, DW_AT_TI_begin_file("../driverlib/MSP430FR2xx_4xx/eusci_a_uart.c")
     110                    .dwattr $C$DW$8, DW_AT_TI_begin_line(0x53)
     111                    .dwattr $C$DW$8, DW_AT_TI_begin_column(0x06)
     112                    .dwattr $C$DW$8, DW_AT_decl_file("../driverlib/MSP430FR2xx_4xx/eusci_a_uart.c")
     113                    .dwattr $C$DW$8, DW_AT_decl_line(0x53)
     114                    .dwattr $C$DW$8, DW_AT_decl_column(0x06)
     115                    .dwattr $C$DW$8, DW_AT_TI_max_frame_size(0x08)
     116                    .dwpsn  file "../driverlib/MSP430FR2xx_4xx/eusci_a_uart.c",line 86,column 1,is_stmt,address EU
     117            
     118                    .dwfde $C$DW$CIE, EUSCI_A_UART_transmitData
     119            $C$DW$9 .dwtag  DW_TAG_formal_parameter
     120                    .dwattr $C$DW$9, DW_AT_name("baseAddress")
     121                    .dwattr $C$DW$9, DW_AT_TI_symbol_name("baseAddress")
     122                    .dwattr $C$DW$9, DW_AT_type(*$C$DW$T$25)
     123                    .dwattr $C$DW$9, DW_AT_location[DW_OP_reg12]
     124            
     125            $C$DW$10        .dwtag  DW_TAG_formal_parameter
     126                    .dwattr $C$DW$10, DW_AT_name("transmitData")
     127                    .dwattr $C$DW$10, DW_AT_TI_symbol_name("transmitData")
     128                    .dwattr $C$DW$10, DW_AT_type(*$C$DW$T$23)
     129                    .dwattr $C$DW$10, DW_AT_location[DW_OP_reg13]
     130            
     131            
     132            ;*****************************************************************************
     133            ;* FUNCTION NAME: EUSCI_A_UART_transmitData                                  *
     134            ;*                                                                           *
     135            ;*   Regs Modified     : SP,SR,r15                                           *
     136            ;*   Regs Used         : SP,SR,r12,r13,r15                                   *
     137            ;*   Local Frame Size  : 0 Args + 4 Auto + 0 Save = 4 byte                   *
     138            ;*****************************************************************************
     139 000000       EUSCI_A_UART_transmitData:
     140            ;* --------------------------------------------------------------------------*
     141                    .dwcfi  cfa_offset, 4
     142                    .dwcfi  save_reg_to_mem, 16, -4
     143 000000 8221          SUB.W     #4,SP                 ; [] 
     144                    .dwcfi  cfa_offset, 8
     145            $C$DW$11        .dwtag  DW_TAG_variable
     146                    .dwattr $C$DW$11, DW_AT_name("baseAddress")
     147                    .dwattr $C$DW$11, DW_AT_TI_symbol_name("baseAddress")
     148                    .dwattr $C$DW$11, DW_AT_type(*$C$DW$T$25)
     149                    .dwattr $C$DW$11, DW_AT_location[DW_OP_breg1 0]
     150            
     151            $C$DW$12        .dwtag  DW_TAG_variable
     152                    .dwattr $C$DW$12, DW_AT_name("transmitData")
     153                    .dwattr $C$DW$12, DW_AT_TI_symbol_name("transmitData")
     154                    .dwattr $C$DW$12, DW_AT_type(*$C$DW$T$23)
     155                    .dwattr $C$DW$12, DW_AT_location[DW_OP_breg1 2]
     156            
     157 000002 4DC1          MOV.B     r13,2(SP)             ; [] |86| 
         000004 0002 
     158 000006 4C81          MOV.W     r12,0(SP)             ; [] |86| 
MSP430 Assembler PC v21.6.1 Wed Nov 30 16:35:38 2022

Copyright (c) 2003-2018 Texas Instruments Incorporated
eusci_a_uart.asm                                                     PAGE    4

         000008 0000 
     159                    .dwpsn  file "../driverlib/MSP430FR2xx_4xx/eusci_a_uart.c",line 88,column 5,is_stmt,isa 0
     160 00000a B3AC          BIT.W     #2,26(r12)            ; [] |88| 
         00000c 001A 
     161 00000e 2003          JNE       $C$L2                 ; [] |88| 
     162                                                      ; [] |88| 
     163            ;* --------------------------------------------------------------------------*
     164                    .dwpsn  file "../driverlib/MSP430FR2xx_4xx/eusci_a_uart.c",line 90,column 9,is_stmt,isa 0
     165            ;* --------------------------------------------------------------------------*
     166            ;*   BEGIN LOOP $C$L1
     167            ;*
     168            ;*   Loop source line                : 90
     169            ;*   Loop closing brace source line  : 90
     170            ;*   Known Minimum Trip Count        : 1
     171            ;*   Known Maximum Trip Count        : 4294967295
     172            ;*   Known Max Trip Count Factor     : 1
     173            ;* --------------------------------------------------------------------------*
     174 000010       $C$L1:    
     175                    .dwpsn  file "../driverlib/MSP430FR2xx_4xx/eusci_a_uart.c",line 90,column 16,is_stmt,isa 0
     176 000010 B3AC          BIT.W     #2,28(r12)            ; [] |90| 
         000012 001C 
     177 000014 27FD          JEQ       $C$L1                 ; [] |90| 
     178                                                      ; [] |90| 
     179            ;* --------------------------------------------------------------------------*
     180 000016       $C$L2:    
     181                    .dwpsn  file "../driverlib/MSP430FR2xx_4xx/eusci_a_uart.c",line 93,column 5,is_stmt,isa 0
     182 000016 415F          MOV.B     2(SP),r15             ; [] |93| 
         000018 0002 
     183 00001a 4F8C          MOV.W     r15,14(r12)           ; [] |93| 
         00001c 000E 
     184                    .dwpsn  file "../driverlib/MSP430FR2xx_4xx/eusci_a_uart.c",line 94,column 1,is_stmt,isa 0
     185 00001e 5221          ADD.W     #4,SP                 ; [] 
     186                    .dwcfi  cfa_offset, 4
     187            $C$DW$13        .dwtag  DW_TAG_TI_branch
     188                    .dwattr $C$DW$13, DW_AT_low_pc(0x00)
     189                    .dwattr $C$DW$13, DW_AT_TI_return
     190            
     191 000020 0110          RETA      ; [] 
     192                    ; [] 
     193                    .dwattr $C$DW$8, DW_AT_TI_end_file("../driverlib/MSP430FR2xx_4xx/eusci_a_uart.c")
     194                    .dwattr $C$DW$8, DW_AT_TI_end_line(0x5e)
     195                    .dwattr $C$DW$8, DW_AT_TI_end_column(0x01)
     196                    .dwendentry
     197                    .dwendtag $C$DW$8
     198            
     199 000000               .sect   ".text:EUSCI_A_UART_receiveData"
     200                    .clink
     201                    .global EUSCI_A_UART_receiveData
     202            
     203            $C$DW$14        .dwtag  DW_TAG_subprogram
     204                    .dwattr $C$DW$14, DW_AT_name("EUSCI_A_UART_receiveData")
     205                    .dwattr $C$DW$14, DW_AT_low_pc(EUSCI_A_UART_receiveData)
     206                    .dwattr $C$DW$14, DW_AT_high_pc(0x00)
     207                    .dwattr $C$DW$14, DW_AT_TI_symbol_name("EUSCI_A_UART_receiveData")
     208                    .dwattr $C$DW$14, DW_AT_external
MSP430 Assembler PC v21.6.1 Wed Nov 30 16:35:38 2022

Copyright (c) 2003-2018 Texas Instruments Incorporated
eusci_a_uart.asm                                                     PAGE    5

     209                    .dwattr $C$DW$14, DW_AT_type(*$C$DW$T$23)
     210                    .dwattr $C$DW$14, DW_AT_TI_begin_file("../driverlib/MSP430FR2xx_4xx/eusci_a_uart.c")
     211                    .dwattr $C$DW$14, DW_AT_TI_begin_line(0x60)
     212                    .dwattr $C$DW$14, DW_AT_TI_begin_column(0x09)
     213                    .dwattr $C$DW$14, DW_AT_decl_file("../driverlib/MSP430FR2xx_4xx/eusci_a_uart.c")
     214                    .dwattr $C$DW$14, DW_AT_decl_line(0x60)
     215                    .dwattr $C$DW$14, DW_AT_decl_column(0x09)
     216                    .dwattr $C$DW$14, DW_AT_TI_max_frame_size(0x06)
     217                    .dwpsn  file "../driverlib/MSP430FR2xx_4xx/eusci_a_uart.c",line 97,column 1,is_stmt,address EU
     218            
     219                    .dwfde $C$DW$CIE, EUSCI_A_UART_receiveData
     220            $C$DW$15        .dwtag  DW_TAG_formal_parameter
     221                    .dwattr $C$DW$15, DW_AT_name("baseAddress")
     222                    .dwattr $C$DW$15, DW_AT_TI_symbol_name("baseAddress")
     223                    .dwattr $C$DW$15, DW_AT_type(*$C$DW$T$25)
     224                    .dwattr $C$DW$15, DW_AT_location[DW_OP_reg12]
     225            
     226            
     227            ;*****************************************************************************
     228            ;* FUNCTION NAME: EUSCI_A_UART_receiveData                                   *
     229            ;*                                                                           *
     230            ;*   Regs Modified     : SP,SR,r12                                           *
     231            ;*   Regs Used         : SP,SR,r12                                           *
     232            ;*   Local Frame Size  : 0 Args + 2 Auto + 0 Save = 2 byte                   *
     233            ;*****************************************************************************
     234 000000       EUSCI_A_UART_receiveData:
     235            ;* --------------------------------------------------------------------------*
     236                    .dwcfi  cfa_offset, 4
     237                    .dwcfi  save_reg_to_mem, 16, -4
     238 000000 8321          SUB.W     #2,SP                 ; [] 
     239                    .dwcfi  cfa_offset, 6
     240            $C$DW$16        .dwtag  DW_TAG_variable
     241                    .dwattr $C$DW$16, DW_AT_name("baseAddress")
     242                    .dwattr $C$DW$16, DW_AT_TI_symbol_name("baseAddress")
     243                    .dwattr $C$DW$16, DW_AT_type(*$C$DW$T$25)
     244                    .dwattr $C$DW$16, DW_AT_location[DW_OP_breg1 0]
     245            
     246 000002 4C81          MOV.W     r12,0(SP)             ; [] |97| 
         000004 0000 
     247                    .dwpsn  file "../driverlib/MSP430FR2xx_4xx/eusci_a_uart.c",line 99,column 5,is_stmt,isa 0
     248 000006 B39C          BIT.W     #1,26(r12)            ; [] |99| 
         000008 001A 
     249 00000a 2003          JNE       $C$L4                 ; [] |99| 
     250                                                      ; [] |99| 
     251            ;* --------------------------------------------------------------------------*
     252                    .dwpsn  file "../driverlib/MSP430FR2xx_4xx/eusci_a_uart.c",line 101,column 9,is_stmt,isa 0
     253            ;* --------------------------------------------------------------------------*
     254            ;*   BEGIN LOOP $C$L3
     255            ;*
     256            ;*   Loop source line                : 101
     257            ;*   Loop closing brace source line  : 101
     258            ;*   Known Minimum Trip Count        : 1
     259            ;*   Known Maximum Trip Count        : 4294967295
     260            ;*   Known Max Trip Count Factor     : 1
     261            ;* --------------------------------------------------------------------------*
MSP430 Assembler PC v21.6.1 Wed Nov 30 16:35:38 2022

Copyright (c) 2003-2018 Texas Instruments Incorporated
eusci_a_uart.asm                                                     PAGE    6

     262 00000c       $C$L3:    
     263                    .dwpsn  file "../driverlib/MSP430FR2xx_4xx/eusci_a_uart.c",line 101,column 16,is_stmt,isa 0
     264 00000c B39C          BIT.W     #1,28(r12)            ; [] |101| 
         00000e 001C 
     265 000010 27FD          JEQ       $C$L3                 ; [] |101| 
     266                                                      ; [] |101| 
     267            ;* --------------------------------------------------------------------------*
     268 000012       $C$L4:    
     269                    .dwpsn  file "../driverlib/MSP430FR2xx_4xx/eusci_a_uart.c",line 104,column 5,is_stmt,isa 0
     270 000012 4C1C          MOV.W     12(r12),r12           ; [] |104| 
         000014 000C 
     271 000016 4C4C          MOV.B     r12,r12               ; [] |104| 
     272                    .dwpsn  file "../driverlib/MSP430FR2xx_4xx/eusci_a_uart.c",line 105,column 1,is_stmt,isa 0
     273 000018 5321          ADD.W     #2,SP                 ; [] 
     274                    .dwcfi  cfa_offset, 4
     275            $C$DW$17        .dwtag  DW_TAG_TI_branch
     276                    .dwattr $C$DW$17, DW_AT_low_pc(0x00)
     277                    .dwattr $C$DW$17, DW_AT_TI_return
     278            
     279 00001a 0110          RETA      ; [] 
     280                    ; [] 
     281                    .dwattr $C$DW$14, DW_AT_TI_end_file("../driverlib/MSP430FR2xx_4xx/eusci_a_uart.c")
     282                    .dwattr $C$DW$14, DW_AT_TI_end_line(0x69)
     283                    .dwattr $C$DW$14, DW_AT_TI_end_column(0x01)
     284                    .dwendentry
     285                    .dwendtag $C$DW$14
     286            
     287 000000               .sect   ".text:EUSCI_A_UART_enableInterrupt"
     288                    .clink
     289                    .global EUSCI_A_UART_enableInterrupt
     290            
     291            $C$DW$18        .dwtag  DW_TAG_subprogram
     292                    .dwattr $C$DW$18, DW_AT_name("EUSCI_A_UART_enableInterrupt")
     293                    .dwattr $C$DW$18, DW_AT_low_pc(EUSCI_A_UART_enableInterrupt)
     294                    .dwattr $C$DW$18, DW_AT_high_pc(0x00)
     295                    .dwattr $C$DW$18, DW_AT_TI_symbol_name("EUSCI_A_UART_enableInterrupt")
     296                    .dwattr $C$DW$18, DW_AT_external
     297                    .dwattr $C$DW$18, DW_AT_TI_begin_file("../driverlib/MSP430FR2xx_4xx/eusci_a_uart.c")
     298                    .dwattr $C$DW$18, DW_AT_TI_begin_line(0x6b)
     299                    .dwattr $C$DW$18, DW_AT_TI_begin_column(0x06)
     300                    .dwattr $C$DW$18, DW_AT_decl_file("../driverlib/MSP430FR2xx_4xx/eusci_a_uart.c")
     301                    .dwattr $C$DW$18, DW_AT_decl_line(0x6b)
     302                    .dwattr $C$DW$18, DW_AT_decl_column(0x06)
     303                    .dwattr $C$DW$18, DW_AT_TI_max_frame_size(0x08)
     304                    .dwpsn  file "../driverlib/MSP430FR2xx_4xx/eusci_a_uart.c",line 110,column 1,is_stmt,address E
     305            
     306                    .dwfde $C$DW$CIE, EUSCI_A_UART_enableInterrupt
     307            $C$DW$19        .dwtag  DW_TAG_formal_parameter
     308                    .dwattr $C$DW$19, DW_AT_name("baseAddress")
     309                    .dwattr $C$DW$19, DW_AT_TI_symbol_name("baseAddress")
     310                    .dwattr $C$DW$19, DW_AT_type(*$C$DW$T$25)
     311                    .dwattr $C$DW$19, DW_AT_location[DW_OP_reg12]
     312            
     313            $C$DW$20        .dwtag  DW_TAG_formal_parameter
     314                    .dwattr $C$DW$20, DW_AT_name("mask")
MSP430 Assembler PC v21.6.1 Wed Nov 30 16:35:38 2022

Copyright (c) 2003-2018 Texas Instruments Incorporated
eusci_a_uart.asm                                                     PAGE    7

     315                    .dwattr $C$DW$20, DW_AT_TI_symbol_name("mask")
     316                    .dwattr $C$DW$20, DW_AT_type(*$C$DW$T$23)
     317                    .dwattr $C$DW$20, DW_AT_location[DW_OP_reg13]
     318            
     319            
     320            ;*****************************************************************************
     321            ;* FUNCTION NAME: EUSCI_A_UART_enableInterrupt                               *
     322            ;*                                                                           *
     323            ;*   Regs Modified     : SP,SR,r14,r15                                       *
     324            ;*   Regs Used         : SP,SR,r12,r13,r14,r15                               *
     325            ;*   Local Frame Size  : 0 Args + 4 Auto + 0 Save = 4 byte                   *
     326            ;*****************************************************************************
     327 000000       EUSCI_A_UART_enableInterrupt:
     328            ;* --------------------------------------------------------------------------*
     329                    .dwcfi  cfa_offset, 4
     330                    .dwcfi  save_reg_to_mem, 16, -4
     331 000000 8221          SUB.W     #4,SP                 ; [] 
     332                    .dwcfi  cfa_offset, 8
     333            $C$DW$21        .dwtag  DW_TAG_variable
     334                    .dwattr $C$DW$21, DW_AT_name("baseAddress")
     335                    .dwattr $C$DW$21, DW_AT_TI_symbol_name("baseAddress")
     336                    .dwattr $C$DW$21, DW_AT_type(*$C$DW$T$25)
     337                    .dwattr $C$DW$21, DW_AT_location[DW_OP_breg1 0]
     338            
     339            $C$DW$22        .dwtag  DW_TAG_variable
     340                    .dwattr $C$DW$22, DW_AT_name("mask")
     341                    .dwattr $C$DW$22, DW_AT_TI_symbol_name("mask")
     342                    .dwattr $C$DW$22, DW_AT_type(*$C$DW$T$23)
     343                    .dwattr $C$DW$22, DW_AT_location[DW_OP_breg1 2]
     344            
     345            $C$DW$23        .dwtag  DW_TAG_variable
     346                    .dwattr $C$DW$23, DW_AT_name("locMask")
     347                    .dwattr $C$DW$23, DW_AT_TI_symbol_name("locMask")
     348                    .dwattr $C$DW$23, DW_AT_type(*$C$DW$T$23)
     349                    .dwattr $C$DW$23, DW_AT_location[DW_OP_breg1 3]
     350            
     351 000002 4DC1          MOV.B     r13,2(SP)             ; [] |110| 
         000004 0002 
     352 000006 4C81          MOV.W     r12,0(SP)             ; [] |110| 
         000008 0000 
     353                    .dwpsn  file "../driverlib/MSP430FR2xx_4xx/eusci_a_uart.c",line 113,column 5,is_stmt,isa 0
     354 00000a 403F          MOV.W     #15,r15               ; [] |113| 
         00000c 000F 
     355 00000e F15F          AND.B     2(SP),r15             ; [] |113| 
         000010 0002 
     356 000012 4FC1          MOV.B     r15,3(SP)             ; [] |113| 
         000014 0003 
     357                    .dwpsn  file "../driverlib/MSP430FR2xx_4xx/eusci_a_uart.c",line 118,column 5,is_stmt,isa 0
     358 000016 403F          MOV.W     #26,r15               ; [] |118| 
         000018 001A 
     359 00001a 512F          ADD.W     0(SP),r15             ; [] |118| 
     360 00001c 415E          MOV.B     3(SP),r14             ; [] |118| 
         00001e 0003 
     361 000020 DE8F          OR.W      r14,0(r15)            ; [] |118| 
         000022 0000 
MSP430 Assembler PC v21.6.1 Wed Nov 30 16:35:38 2022

Copyright (c) 2003-2018 Texas Instruments Incorporated
eusci_a_uart.asm                                                     PAGE    8

     362                    .dwpsn  file "../driverlib/MSP430FR2xx_4xx/eusci_a_uart.c",line 120,column 5,is_stmt,isa 0
     363 000024 403F          MOV.W     #48,r15               ; [] |120| 
         000026 0030 
     364 000028 F15F          AND.B     2(SP),r15             ; [] |120| 
         00002a 0002 
     365 00002c 4FC1          MOV.B     r15,3(SP)             ; [] |120| 
         00002e 0003 
     366                    .dwpsn  file "../driverlib/MSP430FR2xx_4xx/eusci_a_uart.c",line 122,column 5,is_stmt,isa 0
     367 000030 412E          MOV.W     0(SP),r14             ; [] |122| 
     368 000032 415F          MOV.B     3(SP),r15             ; [] |122| 
         000034 0003 
     369 000036 DF8E          OR.W      r15,0(r14)            ; [] |122| 
         000038 0000 
     370                    .dwpsn  file "../driverlib/MSP430FR2xx_4xx/eusci_a_uart.c",line 123,column 1,is_stmt,isa 0
     371 00003a 5221          ADD.W     #4,SP                 ; [] 
     372                    .dwcfi  cfa_offset, 4
     373            $C$DW$24        .dwtag  DW_TAG_TI_branch
     374                    .dwattr $C$DW$24, DW_AT_low_pc(0x00)
     375                    .dwattr $C$DW$24, DW_AT_TI_return
     376            
     377 00003c 0110          RETA      ; [] 
     378                    ; [] 
     379                    .dwattr $C$DW$18, DW_AT_TI_end_file("../driverlib/MSP430FR2xx_4xx/eusci_a_uart.c")
     380                    .dwattr $C$DW$18, DW_AT_TI_end_line(0x7b)
     381                    .dwattr $C$DW$18, DW_AT_TI_end_column(0x01)
     382                    .dwendentry
     383                    .dwendtag $C$DW$18
     384            
     385 000000               .sect   ".text:EUSCI_A_UART_disableInterrupt"
     386                    .clink
     387                    .global EUSCI_A_UART_disableInterrupt
     388            
     389            $C$DW$25        .dwtag  DW_TAG_subprogram
     390                    .dwattr $C$DW$25, DW_AT_name("EUSCI_A_UART_disableInterrupt")
     391                    .dwattr $C$DW$25, DW_AT_low_pc(EUSCI_A_UART_disableInterrupt)
     392                    .dwattr $C$DW$25, DW_AT_high_pc(0x00)
     393                    .dwattr $C$DW$25, DW_AT_TI_symbol_name("EUSCI_A_UART_disableInterrupt")
     394                    .dwattr $C$DW$25, DW_AT_external
     395                    .dwattr $C$DW$25, DW_AT_TI_begin_file("../driverlib/MSP430FR2xx_4xx/eusci_a_uart.c")
     396                    .dwattr $C$DW$25, DW_AT_TI_begin_line(0x7d)
     397                    .dwattr $C$DW$25, DW_AT_TI_begin_column(0x06)
     398                    .dwattr $C$DW$25, DW_AT_decl_file("../driverlib/MSP430FR2xx_4xx/eusci_a_uart.c")
     399                    .dwattr $C$DW$25, DW_AT_decl_line(0x7d)
     400                    .dwattr $C$DW$25, DW_AT_decl_column(0x06)
     401                    .dwattr $C$DW$25, DW_AT_TI_max_frame_size(0x08)
     402                    .dwpsn  file "../driverlib/MSP430FR2xx_4xx/eusci_a_uart.c",line 128,column 1,is_stmt,address E
     403            
     404                    .dwfde $C$DW$CIE, EUSCI_A_UART_disableInterrupt
     405            $C$DW$26        .dwtag  DW_TAG_formal_parameter
     406                    .dwattr $C$DW$26, DW_AT_name("baseAddress")
     407                    .dwattr $C$DW$26, DW_AT_TI_symbol_name("baseAddress")
     408                    .dwattr $C$DW$26, DW_AT_type(*$C$DW$T$25)
     409                    .dwattr $C$DW$26, DW_AT_location[DW_OP_reg12]
     410            
     411            $C$DW$27        .dwtag  DW_TAG_formal_parameter
MSP430 Assembler PC v21.6.1 Wed Nov 30 16:35:38 2022

Copyright (c) 2003-2018 Texas Instruments Incorporated
eusci_a_uart.asm                                                     PAGE    9

     412                    .dwattr $C$DW$27, DW_AT_name("mask")
     413                    .dwattr $C$DW$27, DW_AT_TI_symbol_name("mask")
     414                    .dwattr $C$DW$27, DW_AT_type(*$C$DW$T$23)
     415                    .dwattr $C$DW$27, DW_AT_location[DW_OP_reg13]
     416            
     417            
     418            ;*****************************************************************************
     419            ;* FUNCTION NAME: EUSCI_A_UART_disableInterrupt                              *
     420            ;*                                                                           *
     421            ;*   Regs Modified     : SP,SR,r14,r15                                       *
     422            ;*   Regs Used         : SP,SR,r12,r13,r14,r15                               *
     423            ;*   Local Frame Size  : 0 Args + 4 Auto + 0 Save = 4 byte                   *
     424            ;*****************************************************************************
     425 000000       EUSCI_A_UART_disableInterrupt:
     426            ;* --------------------------------------------------------------------------*
     427                    .dwcfi  cfa_offset, 4
     428                    .dwcfi  save_reg_to_mem, 16, -4
     429 000000 8221          SUB.W     #4,SP                 ; [] 
     430                    .dwcfi  cfa_offset, 8
     431            $C$DW$28        .dwtag  DW_TAG_variable
     432                    .dwattr $C$DW$28, DW_AT_name("baseAddress")
     433                    .dwattr $C$DW$28, DW_AT_TI_symbol_name("baseAddress")
     434                    .dwattr $C$DW$28, DW_AT_type(*$C$DW$T$25)
     435                    .dwattr $C$DW$28, DW_AT_location[DW_OP_breg1 0]
     436            
     437            $C$DW$29        .dwtag  DW_TAG_variable
     438                    .dwattr $C$DW$29, DW_AT_name("mask")
     439                    .dwattr $C$DW$29, DW_AT_TI_symbol_name("mask")
     440                    .dwattr $C$DW$29, DW_AT_type(*$C$DW$T$23)
     441                    .dwattr $C$DW$29, DW_AT_location[DW_OP_breg1 2]
     442            
     443            $C$DW$30        .dwtag  DW_TAG_variable
     444                    .dwattr $C$DW$30, DW_AT_name("locMask")
     445                    .dwattr $C$DW$30, DW_AT_TI_symbol_name("locMask")
     446                    .dwattr $C$DW$30, DW_AT_type(*$C$DW$T$23)
     447                    .dwattr $C$DW$30, DW_AT_location[DW_OP_breg1 3]
     448            
     449 000002 4DC1          MOV.B     r13,2(SP)             ; [] |128| 
         000004 0002 
     450 000006 4C81          MOV.W     r12,0(SP)             ; [] |128| 
         000008 0000 
     451                    .dwpsn  file "../driverlib/MSP430FR2xx_4xx/eusci_a_uart.c",line 131,column 5,is_stmt,isa 0
     452 00000a 403F          MOV.W     #15,r15               ; [] |131| 
         00000c 000F 
     453 00000e F15F          AND.B     2(SP),r15             ; [] |131| 
         000010 0002 
     454 000012 4FC1          MOV.B     r15,3(SP)             ; [] |131| 
         000014 0003 
     455                    .dwpsn  file "../driverlib/MSP430FR2xx_4xx/eusci_a_uart.c",line 135,column 5,is_stmt,isa 0
     456 000016 403F          MOV.W     #26,r15               ; [] |135| 
         000018 001A 
     457 00001a 512F          ADD.W     0(SP),r15             ; [] |135| 
     458 00001c 415E          MOV.B     3(SP),r14             ; [] |135| 
         00001e 0003 
     459 000020 CE8F          BIC.W     r14,0(r15)            ; [] |135| 
MSP430 Assembler PC v21.6.1 Wed Nov 30 16:35:38 2022

Copyright (c) 2003-2018 Texas Instruments Incorporated
eusci_a_uart.asm                                                     PAGE   10

         000022 0000 
     460                    .dwpsn  file "../driverlib/MSP430FR2xx_4xx/eusci_a_uart.c",line 137,column 5,is_stmt,isa 0
     461 000024 403F          MOV.W     #48,r15               ; [] |137| 
         000026 0030 
     462 000028 F15F          AND.B     2(SP),r15             ; [] |137| 
         00002a 0002 
     463 00002c 4FC1          MOV.B     r15,3(SP)             ; [] |137| 
         00002e 0003 
     464                    .dwpsn  file "../driverlib/MSP430FR2xx_4xx/eusci_a_uart.c",line 139,column 5,is_stmt,isa 0
     465 000030 412E          MOV.W     0(SP),r14             ; [] |139| 
     466 000032 415F          MOV.B     3(SP),r15             ; [] |139| 
         000034 0003 
     467 000036 CF8E          BIC.W     r15,0(r14)            ; [] |139| 
         000038 0000 
     468                    .dwpsn  file "../driverlib/MSP430FR2xx_4xx/eusci_a_uart.c",line 140,column 1,is_stmt,isa 0
     469 00003a 5221          ADD.W     #4,SP                 ; [] 
     470                    .dwcfi  cfa_offset, 4
     471            $C$DW$31        .dwtag  DW_TAG_TI_branch
     472                    .dwattr $C$DW$31, DW_AT_low_pc(0x00)
     473                    .dwattr $C$DW$31, DW_AT_TI_return
     474            
     475 00003c 0110          RETA      ; [] 
     476                    ; [] 
     477                    .dwattr $C$DW$25, DW_AT_TI_end_file("../driverlib/MSP430FR2xx_4xx/eusci_a_uart.c")
     478                    .dwattr $C$DW$25, DW_AT_TI_end_line(0x8c)
     479                    .dwattr $C$DW$25, DW_AT_TI_end_column(0x01)
     480                    .dwendentry
     481                    .dwendtag $C$DW$25
     482            
     483 000000               .sect   ".text:EUSCI_A_UART_getInterruptStatus"
     484                    .clink
     485                    .global EUSCI_A_UART_getInterruptStatus
     486            
     487            $C$DW$32        .dwtag  DW_TAG_subprogram
     488                    .dwattr $C$DW$32, DW_AT_name("EUSCI_A_UART_getInterruptStatus")
     489                    .dwattr $C$DW$32, DW_AT_low_pc(EUSCI_A_UART_getInterruptStatus)
     490                    .dwattr $C$DW$32, DW_AT_high_pc(0x00)
     491                    .dwattr $C$DW$32, DW_AT_TI_symbol_name("EUSCI_A_UART_getInterruptStatus")
     492                    .dwattr $C$DW$32, DW_AT_external
     493                    .dwattr $C$DW$32, DW_AT_type(*$C$DW$T$23)
     494                    .dwattr $C$DW$32, DW_AT_TI_begin_file("../driverlib/MSP430FR2xx_4xx/eusci_a_uart.c")
     495                    .dwattr $C$DW$32, DW_AT_TI_begin_line(0x8e)
     496                    .dwattr $C$DW$32, DW_AT_TI_begin_column(0x09)
     497                    .dwattr $C$DW$32, DW_AT_decl_file("../driverlib/MSP430FR2xx_4xx/eusci_a_uart.c")
     498                    .dwattr $C$DW$32, DW_AT_decl_line(0x8e)
     499                    .dwattr $C$DW$32, DW_AT_decl_column(0x09)
     500                    .dwattr $C$DW$32, DW_AT_TI_max_frame_size(0x08)
     501                    .dwpsn  file "../driverlib/MSP430FR2xx_4xx/eusci_a_uart.c",line 144,column 1,is_stmt,address E
     502            
     503                    .dwfde $C$DW$CIE, EUSCI_A_UART_getInterruptStatus
     504            $C$DW$33        .dwtag  DW_TAG_formal_parameter
     505                    .dwattr $C$DW$33, DW_AT_name("baseAddress")
     506                    .dwattr $C$DW$33, DW_AT_TI_symbol_name("baseAddress")
     507                    .dwattr $C$DW$33, DW_AT_type(*$C$DW$T$25)
     508                    .dwattr $C$DW$33, DW_AT_location[DW_OP_reg12]
MSP430 Assembler PC v21.6.1 Wed Nov 30 16:35:38 2022

Copyright (c) 2003-2018 Texas Instruments Incorporated
eusci_a_uart.asm                                                     PAGE   11

     509            
     510            $C$DW$34        .dwtag  DW_TAG_formal_parameter
     511                    .dwattr $C$DW$34, DW_AT_name("mask")
     512                    .dwattr $C$DW$34, DW_AT_TI_symbol_name("mask")
     513                    .dwattr $C$DW$34, DW_AT_type(*$C$DW$T$23)
     514                    .dwattr $C$DW$34, DW_AT_location[DW_OP_reg13]
     515            
     516            
     517            ;*****************************************************************************
     518            ;* FUNCTION NAME: EUSCI_A_UART_getInterruptStatus                            *
     519            ;*                                                                           *
     520            ;*   Regs Modified     : SP,SR,r12                                           *
     521            ;*   Regs Used         : SP,SR,r12,r13                                       *
     522            ;*   Local Frame Size  : 0 Args + 4 Auto + 0 Save = 4 byte                   *
     523            ;*****************************************************************************
     524 000000       EUSCI_A_UART_getInterruptStatus:
     525            ;* --------------------------------------------------------------------------*
     526                    .dwcfi  cfa_offset, 4
     527                    .dwcfi  save_reg_to_mem, 16, -4
     528 000000 8221          SUB.W     #4,SP                 ; [] 
     529                    .dwcfi  cfa_offset, 8
     530            $C$DW$35        .dwtag  DW_TAG_variable
     531                    .dwattr $C$DW$35, DW_AT_name("baseAddress")
     532                    .dwattr $C$DW$35, DW_AT_TI_symbol_name("baseAddress")
     533                    .dwattr $C$DW$35, DW_AT_type(*$C$DW$T$25)
     534                    .dwattr $C$DW$35, DW_AT_location[DW_OP_breg1 0]
     535            
     536            $C$DW$36        .dwtag  DW_TAG_variable
     537                    .dwattr $C$DW$36, DW_AT_name("mask")
     538                    .dwattr $C$DW$36, DW_AT_TI_symbol_name("mask")
     539                    .dwattr $C$DW$36, DW_AT_type(*$C$DW$T$23)
     540                    .dwattr $C$DW$36, DW_AT_location[DW_OP_breg1 2]
     541            
     542 000002 4DC1          MOV.B     r13,2(SP)             ; [] |144| 
         000004 0002 
     543 000006 4C81          MOV.W     r12,0(SP)             ; [] |144| 
         000008 0000 
     544                    .dwpsn  file "../driverlib/MSP430FR2xx_4xx/eusci_a_uart.c",line 145,column 5,is_stmt,isa 0
     545 00000a 4C1C          MOV.W     28(r12),r12           ; [] |145| 
         00000c 001C 
     546 00000e F15C          AND.B     2(SP),r12             ; [] |145| 
         000010 0002 
     547                    .dwpsn  file "../driverlib/MSP430FR2xx_4xx/eusci_a_uart.c",line 146,column 1,is_stmt,isa 0
     548 000012 5221          ADD.W     #4,SP                 ; [] 
     549                    .dwcfi  cfa_offset, 4
     550            $C$DW$37        .dwtag  DW_TAG_TI_branch
     551                    .dwattr $C$DW$37, DW_AT_low_pc(0x00)
     552                    .dwattr $C$DW$37, DW_AT_TI_return
     553            
     554 000014 0110          RETA      ; [] 
     555                    ; [] 
     556                    .dwattr $C$DW$32, DW_AT_TI_end_file("../driverlib/MSP430FR2xx_4xx/eusci_a_uart.c")
     557                    .dwattr $C$DW$32, DW_AT_TI_end_line(0x92)
     558                    .dwattr $C$DW$32, DW_AT_TI_end_column(0x01)
     559                    .dwendentry
MSP430 Assembler PC v21.6.1 Wed Nov 30 16:35:38 2022

Copyright (c) 2003-2018 Texas Instruments Incorporated
eusci_a_uart.asm                                                     PAGE   12

     560                    .dwendtag $C$DW$32
     561            
     562 000000               .sect   ".text:EUSCI_A_UART_clearInterrupt"
     563                    .clink
     564                    .global EUSCI_A_UART_clearInterrupt
     565            
     566            $C$DW$38        .dwtag  DW_TAG_subprogram
     567                    .dwattr $C$DW$38, DW_AT_name("EUSCI_A_UART_clearInterrupt")
     568                    .dwattr $C$DW$38, DW_AT_low_pc(EUSCI_A_UART_clearInterrupt)
     569                    .dwattr $C$DW$38, DW_AT_high_pc(0x00)
     570                    .dwattr $C$DW$38, DW_AT_TI_symbol_name("EUSCI_A_UART_clearInterrupt")
     571                    .dwattr $C$DW$38, DW_AT_external
     572                    .dwattr $C$DW$38, DW_AT_TI_begin_file("../driverlib/MSP430FR2xx_4xx/eusci_a_uart.c")
     573                    .dwattr $C$DW$38, DW_AT_TI_begin_line(0x94)
     574                    .dwattr $C$DW$38, DW_AT_TI_begin_column(0x06)
     575                    .dwattr $C$DW$38, DW_AT_decl_file("../driverlib/MSP430FR2xx_4xx/eusci_a_uart.c")
     576                    .dwattr $C$DW$38, DW_AT_decl_line(0x94)
     577                    .dwattr $C$DW$38, DW_AT_decl_column(0x06)
     578                    .dwattr $C$DW$38, DW_AT_TI_max_frame_size(0x08)
     579                    .dwpsn  file "../driverlib/MSP430FR2xx_4xx/eusci_a_uart.c",line 149,column 1,is_stmt,address E
     580            
     581                    .dwfde $C$DW$CIE, EUSCI_A_UART_clearInterrupt
     582            $C$DW$39        .dwtag  DW_TAG_formal_parameter
     583                    .dwattr $C$DW$39, DW_AT_name("baseAddress")
     584                    .dwattr $C$DW$39, DW_AT_TI_symbol_name("baseAddress")
     585                    .dwattr $C$DW$39, DW_AT_type(*$C$DW$T$25)
     586                    .dwattr $C$DW$39, DW_AT_location[DW_OP_reg12]
     587            
     588            $C$DW$40        .dwtag  DW_TAG_formal_parameter
     589                    .dwattr $C$DW$40, DW_AT_name("mask")
     590                    .dwattr $C$DW$40, DW_AT_TI_symbol_name("mask")
     591                    .dwattr $C$DW$40, DW_AT_type(*$C$DW$T$25)
     592                    .dwattr $C$DW$40, DW_AT_location[DW_OP_reg13]
     593            
     594            
     595            ;*****************************************************************************
     596            ;* FUNCTION NAME: EUSCI_A_UART_clearInterrupt                                *
     597            ;*                                                                           *
     598            ;*   Regs Modified     : SP,SR,r15                                           *
     599            ;*   Regs Used         : SP,SR,r12,r13,r15                                   *
     600            ;*   Local Frame Size  : 0 Args + 4 Auto + 0 Save = 4 byte                   *
     601            ;*****************************************************************************
     602 000000       EUSCI_A_UART_clearInterrupt:
     603            ;* --------------------------------------------------------------------------*
     604                    .dwcfi  cfa_offset, 4
     605                    .dwcfi  save_reg_to_mem, 16, -4
     606 000000 8221          SUB.W     #4,SP                 ; [] 
     607                    .dwcfi  cfa_offset, 8
     608            $C$DW$41        .dwtag  DW_TAG_variable
     609                    .dwattr $C$DW$41, DW_AT_name("baseAddress")
     610                    .dwattr $C$DW$41, DW_AT_TI_symbol_name("baseAddress")
     611                    .dwattr $C$DW$41, DW_AT_type(*$C$DW$T$25)
     612                    .dwattr $C$DW$41, DW_AT_location[DW_OP_breg1 0]
     613            
     614            $C$DW$42        .dwtag  DW_TAG_variable
MSP430 Assembler PC v21.6.1 Wed Nov 30 16:35:38 2022

Copyright (c) 2003-2018 Texas Instruments Incorporated
eusci_a_uart.asm                                                     PAGE   13

     615                    .dwattr $C$DW$42, DW_AT_name("mask")
     616                    .dwattr $C$DW$42, DW_AT_TI_symbol_name("mask")
     617                    .dwattr $C$DW$42, DW_AT_type(*$C$DW$T$25)
     618                    .dwattr $C$DW$42, DW_AT_location[DW_OP_breg1 2]
     619            
     620 000002 4D81          MOV.W     r13,2(SP)             ; [] |149| 
         000004 0002 
     621 000006 4C81          MOV.W     r12,0(SP)             ; [] |149| 
         000008 0000 
     622                    .dwpsn  file "../driverlib/MSP430FR2xx_4xx/eusci_a_uart.c",line 151,column 5,is_stmt,isa 0
     623 00000a 403F          MOV.W     #28,r15               ; [] |151| 
         00000c 001C 
     624 00000e 512F          ADD.W     0(SP),r15             ; [] |151| 
     625 000010 C19F          BIC.W     2(SP),0(r15)          ; [] |151| 
         000012 0002 
         000014 0000 
     626                    .dwpsn  file "../driverlib/MSP430FR2xx_4xx/eusci_a_uart.c",line 152,column 1,is_stmt,isa 0
     627 000016 5221          ADD.W     #4,SP                 ; [] 
     628                    .dwcfi  cfa_offset, 4
     629            $C$DW$43        .dwtag  DW_TAG_TI_branch
     630                    .dwattr $C$DW$43, DW_AT_low_pc(0x00)
     631                    .dwattr $C$DW$43, DW_AT_TI_return
     632            
     633 000018 0110          RETA      ; [] 
     634                    ; [] 
     635                    .dwattr $C$DW$38, DW_AT_TI_end_file("../driverlib/MSP430FR2xx_4xx/eusci_a_uart.c")
     636                    .dwattr $C$DW$38, DW_AT_TI_end_line(0x98)
     637                    .dwattr $C$DW$38, DW_AT_TI_end_column(0x01)
     638                    .dwendentry
     639                    .dwendtag $C$DW$38
     640            
     641 000000               .sect   ".text:EUSCI_A_UART_enable"
     642                    .clink
     643                    .global EUSCI_A_UART_enable
     644            
     645            $C$DW$44        .dwtag  DW_TAG_subprogram
     646                    .dwattr $C$DW$44, DW_AT_name("EUSCI_A_UART_enable")
     647                    .dwattr $C$DW$44, DW_AT_low_pc(EUSCI_A_UART_enable)
     648                    .dwattr $C$DW$44, DW_AT_high_pc(0x00)
     649                    .dwattr $C$DW$44, DW_AT_TI_symbol_name("EUSCI_A_UART_enable")
     650                    .dwattr $C$DW$44, DW_AT_external
     651                    .dwattr $C$DW$44, DW_AT_TI_begin_file("../driverlib/MSP430FR2xx_4xx/eusci_a_uart.c")
     652                    .dwattr $C$DW$44, DW_AT_TI_begin_line(0x9a)
     653                    .dwattr $C$DW$44, DW_AT_TI_begin_column(0x06)
     654                    .dwattr $C$DW$44, DW_AT_decl_file("../driverlib/MSP430FR2xx_4xx/eusci_a_uart.c")
     655                    .dwattr $C$DW$44, DW_AT_decl_line(0x9a)
     656                    .dwattr $C$DW$44, DW_AT_decl_column(0x06)
     657                    .dwattr $C$DW$44, DW_AT_TI_max_frame_size(0x06)
     658                    .dwpsn  file "../driverlib/MSP430FR2xx_4xx/eusci_a_uart.c",line 155,column 1,is_stmt,address E
     659            
     660                    .dwfde $C$DW$CIE, EUSCI_A_UART_enable
     661            $C$DW$45        .dwtag  DW_TAG_formal_parameter
     662                    .dwattr $C$DW$45, DW_AT_name("baseAddress")
     663                    .dwattr $C$DW$45, DW_AT_TI_symbol_name("baseAddress")
     664                    .dwattr $C$DW$45, DW_AT_type(*$C$DW$T$25)
MSP430 Assembler PC v21.6.1 Wed Nov 30 16:35:38 2022

Copyright (c) 2003-2018 Texas Instruments Incorporated
eusci_a_uart.asm                                                     PAGE   14

     665                    .dwattr $C$DW$45, DW_AT_location[DW_OP_reg12]
     666            
     667            
     668            ;*****************************************************************************
     669            ;* FUNCTION NAME: EUSCI_A_UART_enable                                        *
     670            ;*                                                                           *
     671            ;*   Regs Modified     : SP,SR,r15                                           *
     672            ;*   Regs Used         : SP,SR,r12,r15                                       *
     673            ;*   Local Frame Size  : 0 Args + 2 Auto + 0 Save = 2 byte                   *
     674            ;*****************************************************************************
     675 000000       EUSCI_A_UART_enable:
     676            ;* --------------------------------------------------------------------------*
     677                    .dwcfi  cfa_offset, 4
     678                    .dwcfi  save_reg_to_mem, 16, -4
     679 000000 8321          SUB.W     #2,SP                 ; [] 
     680                    .dwcfi  cfa_offset, 6
     681            $C$DW$46        .dwtag  DW_TAG_variable
     682                    .dwattr $C$DW$46, DW_AT_name("baseAddress")
     683                    .dwattr $C$DW$46, DW_AT_TI_symbol_name("baseAddress")
     684                    .dwattr $C$DW$46, DW_AT_type(*$C$DW$T$25)
     685                    .dwattr $C$DW$46, DW_AT_location[DW_OP_breg1 0]
     686            
     687 000002 4C81          MOV.W     r12,0(SP)             ; [] |155| 
         000004 0000 
     688                    .dwpsn  file "../driverlib/MSP430FR2xx_4xx/eusci_a_uart.c",line 157,column 5,is_stmt,isa 0
     689 000006 412F          MOV.W     0(SP),r15             ; [] |157| 
     690 000008 C39F          BIC.W     #1,0(r15)             ; [] |157| 
         00000a 0000 
     691                    .dwpsn  file "../driverlib/MSP430FR2xx_4xx/eusci_a_uart.c",line 158,column 1,is_stmt,isa 0
     692 00000c 5321          ADD.W     #2,SP                 ; [] 
     693                    .dwcfi  cfa_offset, 4
     694            $C$DW$47        .dwtag  DW_TAG_TI_branch
     695                    .dwattr $C$DW$47, DW_AT_low_pc(0x00)
     696                    .dwattr $C$DW$47, DW_AT_TI_return
     697            
     698 00000e 0110          RETA      ; [] 
     699                    ; [] 
     700                    .dwattr $C$DW$44, DW_AT_TI_end_file("../driverlib/MSP430FR2xx_4xx/eusci_a_uart.c")
     701                    .dwattr $C$DW$44, DW_AT_TI_end_line(0x9e)
     702                    .dwattr $C$DW$44, DW_AT_TI_end_column(0x01)
     703                    .dwendentry
     704                    .dwendtag $C$DW$44
     705            
     706 000000               .sect   ".text:EUSCI_A_UART_disable"
     707                    .clink
     708                    .global EUSCI_A_UART_disable
     709            
     710            $C$DW$48        .dwtag  DW_TAG_subprogram
     711                    .dwattr $C$DW$48, DW_AT_name("EUSCI_A_UART_disable")
     712                    .dwattr $C$DW$48, DW_AT_low_pc(EUSCI_A_UART_disable)
     713                    .dwattr $C$DW$48, DW_AT_high_pc(0x00)
     714                    .dwattr $C$DW$48, DW_AT_TI_symbol_name("EUSCI_A_UART_disable")
     715                    .dwattr $C$DW$48, DW_AT_external
     716                    .dwattr $C$DW$48, DW_AT_TI_begin_file("../driverlib/MSP430FR2xx_4xx/eusci_a_uart.c")
     717                    .dwattr $C$DW$48, DW_AT_TI_begin_line(0xa0)
MSP430 Assembler PC v21.6.1 Wed Nov 30 16:35:38 2022

Copyright (c) 2003-2018 Texas Instruments Incorporated
eusci_a_uart.asm                                                     PAGE   15

     718                    .dwattr $C$DW$48, DW_AT_TI_begin_column(0x06)
     719                    .dwattr $C$DW$48, DW_AT_decl_file("../driverlib/MSP430FR2xx_4xx/eusci_a_uart.c")
     720                    .dwattr $C$DW$48, DW_AT_decl_line(0xa0)
     721                    .dwattr $C$DW$48, DW_AT_decl_column(0x06)
     722                    .dwattr $C$DW$48, DW_AT_TI_max_frame_size(0x06)
     723                    .dwpsn  file "../driverlib/MSP430FR2xx_4xx/eusci_a_uart.c",line 161,column 1,is_stmt,address E
     724            
     725                    .dwfde $C$DW$CIE, EUSCI_A_UART_disable
     726            $C$DW$49        .dwtag  DW_TAG_formal_parameter
     727                    .dwattr $C$DW$49, DW_AT_name("baseAddress")
     728                    .dwattr $C$DW$49, DW_AT_TI_symbol_name("baseAddress")
     729                    .dwattr $C$DW$49, DW_AT_type(*$C$DW$T$25)
     730                    .dwattr $C$DW$49, DW_AT_location[DW_OP_reg12]
     731            
     732            
     733            ;*****************************************************************************
     734            ;* FUNCTION NAME: EUSCI_A_UART_disable                                       *
     735            ;*                                                                           *
     736            ;*   Regs Modified     : SP,SR,r15                                           *
     737            ;*   Regs Used         : SP,SR,r12,r15                                       *
     738            ;*   Local Frame Size  : 0 Args + 2 Auto + 0 Save = 2 byte                   *
     739            ;*****************************************************************************
     740 000000       EUSCI_A_UART_disable:
     741            ;* --------------------------------------------------------------------------*
     742                    .dwcfi  cfa_offset, 4
     743                    .dwcfi  save_reg_to_mem, 16, -4
     744 000000 8321          SUB.W     #2,SP                 ; [] 
     745                    .dwcfi  cfa_offset, 6
     746            $C$DW$50        .dwtag  DW_TAG_variable
     747                    .dwattr $C$DW$50, DW_AT_name("baseAddress")
     748                    .dwattr $C$DW$50, DW_AT_TI_symbol_name("baseAddress")
     749                    .dwattr $C$DW$50, DW_AT_type(*$C$DW$T$25)
     750                    .dwattr $C$DW$50, DW_AT_location[DW_OP_breg1 0]
     751            
     752 000002 4C81          MOV.W     r12,0(SP)             ; [] |161| 
         000004 0000 
     753                    .dwpsn  file "../driverlib/MSP430FR2xx_4xx/eusci_a_uart.c",line 163,column 5,is_stmt,isa 0
     754 000006 412F          MOV.W     0(SP),r15             ; [] |163| 
     755 000008 D39F          OR.W      #1,0(r15)             ; [] |163| 
         00000a 0000 
     756                    .dwpsn  file "../driverlib/MSP430FR2xx_4xx/eusci_a_uart.c",line 164,column 1,is_stmt,isa 0
     757 00000c 5321          ADD.W     #2,SP                 ; [] 
     758                    .dwcfi  cfa_offset, 4
     759            $C$DW$51        .dwtag  DW_TAG_TI_branch
     760                    .dwattr $C$DW$51, DW_AT_low_pc(0x00)
     761                    .dwattr $C$DW$51, DW_AT_TI_return
     762            
     763 00000e 0110          RETA      ; [] 
     764                    ; [] 
     765                    .dwattr $C$DW$48, DW_AT_TI_end_file("../driverlib/MSP430FR2xx_4xx/eusci_a_uart.c")
     766                    .dwattr $C$DW$48, DW_AT_TI_end_line(0xa4)
     767                    .dwattr $C$DW$48, DW_AT_TI_end_column(0x01)
     768                    .dwendentry
     769                    .dwendtag $C$DW$48
     770            
MSP430 Assembler PC v21.6.1 Wed Nov 30 16:35:38 2022

Copyright (c) 2003-2018 Texas Instruments Incorporated
eusci_a_uart.asm                                                     PAGE   16

     771 000000               .sect   ".text:EUSCI_A_UART_queryStatusFlags"
     772                    .clink
     773                    .global EUSCI_A_UART_queryStatusFlags
     774            
     775            $C$DW$52        .dwtag  DW_TAG_subprogram
     776                    .dwattr $C$DW$52, DW_AT_name("EUSCI_A_UART_queryStatusFlags")
     777                    .dwattr $C$DW$52, DW_AT_low_pc(EUSCI_A_UART_queryStatusFlags)
     778                    .dwattr $C$DW$52, DW_AT_high_pc(0x00)
     779                    .dwattr $C$DW$52, DW_AT_TI_symbol_name("EUSCI_A_UART_queryStatusFlags")
     780                    .dwattr $C$DW$52, DW_AT_external
     781                    .dwattr $C$DW$52, DW_AT_type(*$C$DW$T$23)
     782                    .dwattr $C$DW$52, DW_AT_TI_begin_file("../driverlib/MSP430FR2xx_4xx/eusci_a_uart.c")
     783                    .dwattr $C$DW$52, DW_AT_TI_begin_line(0xa6)
     784                    .dwattr $C$DW$52, DW_AT_TI_begin_column(0x09)
     785                    .dwattr $C$DW$52, DW_AT_decl_file("../driverlib/MSP430FR2xx_4xx/eusci_a_uart.c")
     786                    .dwattr $C$DW$52, DW_AT_decl_line(0xa6)
     787                    .dwattr $C$DW$52, DW_AT_decl_column(0x09)
     788                    .dwattr $C$DW$52, DW_AT_TI_max_frame_size(0x08)
     789                    .dwpsn  file "../driverlib/MSP430FR2xx_4xx/eusci_a_uart.c",line 168,column 1,is_stmt,address E
     790            
     791                    .dwfde $C$DW$CIE, EUSCI_A_UART_queryStatusFlags
     792            $C$DW$53        .dwtag  DW_TAG_formal_parameter
     793                    .dwattr $C$DW$53, DW_AT_name("baseAddress")
     794                    .dwattr $C$DW$53, DW_AT_TI_symbol_name("baseAddress")
     795                    .dwattr $C$DW$53, DW_AT_type(*$C$DW$T$25)
     796                    .dwattr $C$DW$53, DW_AT_location[DW_OP_reg12]
     797            
     798            $C$DW$54        .dwtag  DW_TAG_formal_parameter
     799                    .dwattr $C$DW$54, DW_AT_name("mask")
     800                    .dwattr $C$DW$54, DW_AT_TI_symbol_name("mask")
     801                    .dwattr $C$DW$54, DW_AT_type(*$C$DW$T$23)
     802                    .dwattr $C$DW$54, DW_AT_location[DW_OP_reg13]
     803            
     804            
     805            ;*****************************************************************************
     806            ;* FUNCTION NAME: EUSCI_A_UART_queryStatusFlags                              *
     807            ;*                                                                           *
     808            ;*   Regs Modified     : SP,SR,r12                                           *
     809            ;*   Regs Used         : SP,SR,r12,r13                                       *
     810            ;*   Local Frame Size  : 0 Args + 4 Auto + 0 Save = 4 byte                   *
     811            ;*****************************************************************************
     812 000000       EUSCI_A_UART_queryStatusFlags:
     813            ;* --------------------------------------------------------------------------*
     814                    .dwcfi  cfa_offset, 4
     815                    .dwcfi  save_reg_to_mem, 16, -4
     816 000000 8221          SUB.W     #4,SP                 ; [] 
     817                    .dwcfi  cfa_offset, 8
     818            $C$DW$55        .dwtag  DW_TAG_variable
     819                    .dwattr $C$DW$55, DW_AT_name("baseAddress")
     820                    .dwattr $C$DW$55, DW_AT_TI_symbol_name("baseAddress")
     821                    .dwattr $C$DW$55, DW_AT_type(*$C$DW$T$25)
     822                    .dwattr $C$DW$55, DW_AT_location[DW_OP_breg1 0]
     823            
     824            $C$DW$56        .dwtag  DW_TAG_variable
     825                    .dwattr $C$DW$56, DW_AT_name("mask")
MSP430 Assembler PC v21.6.1 Wed Nov 30 16:35:38 2022

Copyright (c) 2003-2018 Texas Instruments Incorporated
eusci_a_uart.asm                                                     PAGE   17

     826                    .dwattr $C$DW$56, DW_AT_TI_symbol_name("mask")
     827                    .dwattr $C$DW$56, DW_AT_type(*$C$DW$T$23)
     828                    .dwattr $C$DW$56, DW_AT_location[DW_OP_breg1 2]
     829            
     830 000002 4DC1          MOV.B     r13,2(SP)             ; [] |168| 
         000004 0002 
     831 000006 4C81          MOV.W     r12,0(SP)             ; [] |168| 
         000008 0000 
     832                    .dwpsn  file "../driverlib/MSP430FR2xx_4xx/eusci_a_uart.c",line 169,column 5,is_stmt,isa 0
     833 00000a 4C1C          MOV.W     10(r12),r12           ; [] |169| 
         00000c 000A 
     834 00000e F15C          AND.B     2(SP),r12             ; [] |169| 
         000010 0002 
     835                    .dwpsn  file "../driverlib/MSP430FR2xx_4xx/eusci_a_uart.c",line 170,column 1,is_stmt,isa 0
     836 000012 5221          ADD.W     #4,SP                 ; [] 
     837                    .dwcfi  cfa_offset, 4
     838            $C$DW$57        .dwtag  DW_TAG_TI_branch
     839                    .dwattr $C$DW$57, DW_AT_low_pc(0x00)
     840                    .dwattr $C$DW$57, DW_AT_TI_return
     841            
     842 000014 0110          RETA      ; [] 
     843                    ; [] 
     844                    .dwattr $C$DW$52, DW_AT_TI_end_file("../driverlib/MSP430FR2xx_4xx/eusci_a_uart.c")
     845                    .dwattr $C$DW$52, DW_AT_TI_end_line(0xaa)
     846                    .dwattr $C$DW$52, DW_AT_TI_end_column(0x01)
     847                    .dwendentry
     848                    .dwendtag $C$DW$52
     849            
     850 000000               .sect   ".text:EUSCI_A_UART_setDormant"
     851                    .clink
     852                    .global EUSCI_A_UART_setDormant
     853            
     854            $C$DW$58        .dwtag  DW_TAG_subprogram
     855                    .dwattr $C$DW$58, DW_AT_name("EUSCI_A_UART_setDormant")
     856                    .dwattr $C$DW$58, DW_AT_low_pc(EUSCI_A_UART_setDormant)
     857                    .dwattr $C$DW$58, DW_AT_high_pc(0x00)
     858                    .dwattr $C$DW$58, DW_AT_TI_symbol_name("EUSCI_A_UART_setDormant")
     859                    .dwattr $C$DW$58, DW_AT_external
     860                    .dwattr $C$DW$58, DW_AT_TI_begin_file("../driverlib/MSP430FR2xx_4xx/eusci_a_uart.c")
     861                    .dwattr $C$DW$58, DW_AT_TI_begin_line(0xac)
     862                    .dwattr $C$DW$58, DW_AT_TI_begin_column(0x06)
     863                    .dwattr $C$DW$58, DW_AT_decl_file("../driverlib/MSP430FR2xx_4xx/eusci_a_uart.c")
     864                    .dwattr $C$DW$58, DW_AT_decl_line(0xac)
     865                    .dwattr $C$DW$58, DW_AT_decl_column(0x06)
     866                    .dwattr $C$DW$58, DW_AT_TI_max_frame_size(0x06)
     867                    .dwpsn  file "../driverlib/MSP430FR2xx_4xx/eusci_a_uart.c",line 173,column 1,is_stmt,address E
     868            
     869                    .dwfde $C$DW$CIE, EUSCI_A_UART_setDormant
     870            $C$DW$59        .dwtag  DW_TAG_formal_parameter
     871                    .dwattr $C$DW$59, DW_AT_name("baseAddress")
     872                    .dwattr $C$DW$59, DW_AT_TI_symbol_name("baseAddress")
     873                    .dwattr $C$DW$59, DW_AT_type(*$C$DW$T$25)
     874                    .dwattr $C$DW$59, DW_AT_location[DW_OP_reg12]
     875            
     876            
MSP430 Assembler PC v21.6.1 Wed Nov 30 16:35:38 2022

Copyright (c) 2003-2018 Texas Instruments Incorporated
eusci_a_uart.asm                                                     PAGE   18

     877            ;*****************************************************************************
     878            ;* FUNCTION NAME: EUSCI_A_UART_setDormant                                    *
     879            ;*                                                                           *
     880            ;*   Regs Modified     : SP,SR,r15                                           *
     881            ;*   Regs Used         : SP,SR,r12,r15                                       *
     882            ;*   Local Frame Size  : 0 Args + 2 Auto + 0 Save = 2 byte                   *
     883            ;*****************************************************************************
     884 000000       EUSCI_A_UART_setDormant:
     885            ;* --------------------------------------------------------------------------*
     886                    .dwcfi  cfa_offset, 4
     887                    .dwcfi  save_reg_to_mem, 16, -4
     888 000000 8321          SUB.W     #2,SP                 ; [] 
     889                    .dwcfi  cfa_offset, 6
     890            $C$DW$60        .dwtag  DW_TAG_variable
     891                    .dwattr $C$DW$60, DW_AT_name("baseAddress")
     892                    .dwattr $C$DW$60, DW_AT_TI_symbol_name("baseAddress")
     893                    .dwattr $C$DW$60, DW_AT_type(*$C$DW$T$25)
     894                    .dwattr $C$DW$60, DW_AT_location[DW_OP_breg1 0]
     895            
     896 000002 4C81          MOV.W     r12,0(SP)             ; [] |173| 
         000004 0000 
     897                    .dwpsn  file "../driverlib/MSP430FR2xx_4xx/eusci_a_uart.c",line 174,column 5,is_stmt,isa 0
     898 000006 412F          MOV.W     0(SP),r15             ; [] |174| 
     899 000008 D2BF          OR.W      #8,0(r15)             ; [] |174| 
         00000a 0000 
     900                    .dwpsn  file "../driverlib/MSP430FR2xx_4xx/eusci_a_uart.c",line 175,column 1,is_stmt,isa 0
     901 00000c 5321          ADD.W     #2,SP                 ; [] 
     902                    .dwcfi  cfa_offset, 4
     903            $C$DW$61        .dwtag  DW_TAG_TI_branch
     904                    .dwattr $C$DW$61, DW_AT_low_pc(0x00)
     905                    .dwattr $C$DW$61, DW_AT_TI_return
     906            
     907 00000e 0110          RETA      ; [] 
     908                    ; [] 
     909                    .dwattr $C$DW$58, DW_AT_TI_end_file("../driverlib/MSP430FR2xx_4xx/eusci_a_uart.c")
     910                    .dwattr $C$DW$58, DW_AT_TI_end_line(0xaf)
     911                    .dwattr $C$DW$58, DW_AT_TI_end_column(0x01)
     912                    .dwendentry
     913                    .dwendtag $C$DW$58
     914            
     915 000000               .sect   ".text:EUSCI_A_UART_resetDormant"
     916                    .clink
     917                    .global EUSCI_A_UART_resetDormant
     918            
     919            $C$DW$62        .dwtag  DW_TAG_subprogram
     920                    .dwattr $C$DW$62, DW_AT_name("EUSCI_A_UART_resetDormant")
     921                    .dwattr $C$DW$62, DW_AT_low_pc(EUSCI_A_UART_resetDormant)
     922                    .dwattr $C$DW$62, DW_AT_high_pc(0x00)
     923                    .dwattr $C$DW$62, DW_AT_TI_symbol_name("EUSCI_A_UART_resetDormant")
     924                    .dwattr $C$DW$62, DW_AT_external
     925                    .dwattr $C$DW$62, DW_AT_TI_begin_file("../driverlib/MSP430FR2xx_4xx/eusci_a_uart.c")
     926                    .dwattr $C$DW$62, DW_AT_TI_begin_line(0xb1)
     927                    .dwattr $C$DW$62, DW_AT_TI_begin_column(0x06)
     928                    .dwattr $C$DW$62, DW_AT_decl_file("../driverlib/MSP430FR2xx_4xx/eusci_a_uart.c")
     929                    .dwattr $C$DW$62, DW_AT_decl_line(0xb1)
MSP430 Assembler PC v21.6.1 Wed Nov 30 16:35:38 2022

Copyright (c) 2003-2018 Texas Instruments Incorporated
eusci_a_uart.asm                                                     PAGE   19

     930                    .dwattr $C$DW$62, DW_AT_decl_column(0x06)
     931                    .dwattr $C$DW$62, DW_AT_TI_max_frame_size(0x06)
     932                    .dwpsn  file "../driverlib/MSP430FR2xx_4xx/eusci_a_uart.c",line 178,column 1,is_stmt,address E
     933            
     934                    .dwfde $C$DW$CIE, EUSCI_A_UART_resetDormant
     935            $C$DW$63        .dwtag  DW_TAG_formal_parameter
     936                    .dwattr $C$DW$63, DW_AT_name("baseAddress")
     937                    .dwattr $C$DW$63, DW_AT_TI_symbol_name("baseAddress")
     938                    .dwattr $C$DW$63, DW_AT_type(*$C$DW$T$25)
     939                    .dwattr $C$DW$63, DW_AT_location[DW_OP_reg12]
     940            
     941            
     942            ;*****************************************************************************
     943            ;* FUNCTION NAME: EUSCI_A_UART_resetDormant                                  *
     944            ;*                                                                           *
     945            ;*   Regs Modified     : SP,SR,r15                                           *
     946            ;*   Regs Used         : SP,SR,r12,r15                                       *
     947            ;*   Local Frame Size  : 0 Args + 2 Auto + 0 Save = 2 byte                   *
     948            ;*****************************************************************************
     949 000000       EUSCI_A_UART_resetDormant:
     950            ;* --------------------------------------------------------------------------*
     951                    .dwcfi  cfa_offset, 4
     952                    .dwcfi  save_reg_to_mem, 16, -4
     953 000000 8321          SUB.W     #2,SP                 ; [] 
     954                    .dwcfi  cfa_offset, 6
     955            $C$DW$64        .dwtag  DW_TAG_variable
     956                    .dwattr $C$DW$64, DW_AT_name("baseAddress")
     957                    .dwattr $C$DW$64, DW_AT_TI_symbol_name("baseAddress")
     958                    .dwattr $C$DW$64, DW_AT_type(*$C$DW$T$25)
     959                    .dwattr $C$DW$64, DW_AT_location[DW_OP_breg1 0]
     960            
     961 000002 4C81          MOV.W     r12,0(SP)             ; [] |178| 
         000004 0000 
     962                    .dwpsn  file "../driverlib/MSP430FR2xx_4xx/eusci_a_uart.c",line 179,column 5,is_stmt,isa 0
     963 000006 412F          MOV.W     0(SP),r15             ; [] |179| 
     964 000008 C2BF          BIC.W     #8,0(r15)             ; [] |179| 
         00000a 0000 
     965                    .dwpsn  file "../driverlib/MSP430FR2xx_4xx/eusci_a_uart.c",line 180,column 1,is_stmt,isa 0
     966 00000c 5321          ADD.W     #2,SP                 ; [] 
     967                    .dwcfi  cfa_offset, 4
     968            $C$DW$65        .dwtag  DW_TAG_TI_branch
     969                    .dwattr $C$DW$65, DW_AT_low_pc(0x00)
     970                    .dwattr $C$DW$65, DW_AT_TI_return
     971            
     972 00000e 0110          RETA      ; [] 
     973                    ; [] 
     974                    .dwattr $C$DW$62, DW_AT_TI_end_file("../driverlib/MSP430FR2xx_4xx/eusci_a_uart.c")
     975                    .dwattr $C$DW$62, DW_AT_TI_end_line(0xb4)
     976                    .dwattr $C$DW$62, DW_AT_TI_end_column(0x01)
     977                    .dwendentry
     978                    .dwendtag $C$DW$62
     979            
     980 000000               .sect   ".text:EUSCI_A_UART_transmitAddress"
     981                    .clink
     982                    .global EUSCI_A_UART_transmitAddress
MSP430 Assembler PC v21.6.1 Wed Nov 30 16:35:38 2022

Copyright (c) 2003-2018 Texas Instruments Incorporated
eusci_a_uart.asm                                                     PAGE   20

     983            
     984            $C$DW$66        .dwtag  DW_TAG_subprogram
     985                    .dwattr $C$DW$66, DW_AT_name("EUSCI_A_UART_transmitAddress")
     986                    .dwattr $C$DW$66, DW_AT_low_pc(EUSCI_A_UART_transmitAddress)
     987                    .dwattr $C$DW$66, DW_AT_high_pc(0x00)
     988                    .dwattr $C$DW$66, DW_AT_TI_symbol_name("EUSCI_A_UART_transmitAddress")
     989                    .dwattr $C$DW$66, DW_AT_external
     990                    .dwattr $C$DW$66, DW_AT_TI_begin_file("../driverlib/MSP430FR2xx_4xx/eusci_a_uart.c")
     991                    .dwattr $C$DW$66, DW_AT_TI_begin_line(0xb6)
     992                    .dwattr $C$DW$66, DW_AT_TI_begin_column(0x06)
     993                    .dwattr $C$DW$66, DW_AT_decl_file("../driverlib/MSP430FR2xx_4xx/eusci_a_uart.c")
     994                    .dwattr $C$DW$66, DW_AT_decl_line(0xb6)
     995                    .dwattr $C$DW$66, DW_AT_decl_column(0x06)
     996                    .dwattr $C$DW$66, DW_AT_TI_max_frame_size(0x08)
     997                    .dwpsn  file "../driverlib/MSP430FR2xx_4xx/eusci_a_uart.c",line 184,column 1,is_stmt,address E
     998            
     999                    .dwfde $C$DW$CIE, EUSCI_A_UART_transmitAddress
    1000            $C$DW$67        .dwtag  DW_TAG_formal_parameter
    1001                    .dwattr $C$DW$67, DW_AT_name("baseAddress")
    1002                    .dwattr $C$DW$67, DW_AT_TI_symbol_name("baseAddress")
    1003                    .dwattr $C$DW$67, DW_AT_type(*$C$DW$T$25)
    1004                    .dwattr $C$DW$67, DW_AT_location[DW_OP_reg12]
    1005            
    1006            $C$DW$68        .dwtag  DW_TAG_formal_parameter
    1007                    .dwattr $C$DW$68, DW_AT_name("transmitAddress")
    1008                    .dwattr $C$DW$68, DW_AT_TI_symbol_name("transmitAddress")
    1009                    .dwattr $C$DW$68, DW_AT_type(*$C$DW$T$23)
    1010                    .dwattr $C$DW$68, DW_AT_location[DW_OP_reg13]
    1011            
    1012            
    1013            ;*****************************************************************************
    1014            ;* FUNCTION NAME: EUSCI_A_UART_transmitAddress                               *
    1015            ;*                                                                           *
    1016            ;*   Regs Modified     : SP,SR,r14,r15                                       *
    1017            ;*   Regs Used         : SP,SR,r12,r13,r14,r15                               *
    1018            ;*   Local Frame Size  : 0 Args + 4 Auto + 0 Save = 4 byte                   *
    1019            ;*****************************************************************************
    1020 000000       EUSCI_A_UART_transmitAddress:
    1021            ;* --------------------------------------------------------------------------*
    1022                    .dwcfi  cfa_offset, 4
    1023                    .dwcfi  save_reg_to_mem, 16, -4
    1024 000000 8221          SUB.W     #4,SP                 ; [] 
    1025                    .dwcfi  cfa_offset, 8
    1026            $C$DW$69        .dwtag  DW_TAG_variable
    1027                    .dwattr $C$DW$69, DW_AT_name("baseAddress")
    1028                    .dwattr $C$DW$69, DW_AT_TI_symbol_name("baseAddress")
    1029                    .dwattr $C$DW$69, DW_AT_type(*$C$DW$T$25)
    1030                    .dwattr $C$DW$69, DW_AT_location[DW_OP_breg1 0]
    1031            
    1032            $C$DW$70        .dwtag  DW_TAG_variable
    1033                    .dwattr $C$DW$70, DW_AT_name("transmitAddress")
    1034                    .dwattr $C$DW$70, DW_AT_TI_symbol_name("transmitAddress")
    1035                    .dwattr $C$DW$70, DW_AT_type(*$C$DW$T$23)
    1036                    .dwattr $C$DW$70, DW_AT_location[DW_OP_breg1 2]
    1037            
MSP430 Assembler PC v21.6.1 Wed Nov 30 16:35:38 2022

Copyright (c) 2003-2018 Texas Instruments Incorporated
eusci_a_uart.asm                                                     PAGE   21

    1038 000002 4DC1          MOV.B     r13,2(SP)             ; [] |184| 
         000004 0002 
    1039 000006 4C81          MOV.W     r12,0(SP)             ; [] |184| 
         000008 0000 
    1040                    .dwpsn  file "../driverlib/MSP430FR2xx_4xx/eusci_a_uart.c",line 186,column 5,is_stmt,isa 0
    1041 00000a 412F          MOV.W     0(SP),r15             ; [] |186| 
    1042 00000c D2AF          OR.W      #4,0(r15)             ; [] |186| 
         00000e 0000 
    1043                    .dwpsn  file "../driverlib/MSP430FR2xx_4xx/eusci_a_uart.c",line 189,column 5,is_stmt,isa 0
    1044 000010 415F          MOV.B     2(SP),r15             ; [] |189| 
         000012 0002 
    1045 000014 412E          MOV.W     0(SP),r14             ; [] |189| 
    1046 000016 4F8E          MOV.W     r15,14(r14)           ; [] |189| 
         000018 000E 
    1047                    .dwpsn  file "../driverlib/MSP430FR2xx_4xx/eusci_a_uart.c",line 190,column 1,is_stmt,isa 0
    1048 00001a 5221          ADD.W     #4,SP                 ; [] 
    1049                    .dwcfi  cfa_offset, 4
    1050            $C$DW$71        .dwtag  DW_TAG_TI_branch
    1051                    .dwattr $C$DW$71, DW_AT_low_pc(0x00)
    1052                    .dwattr $C$DW$71, DW_AT_TI_return
    1053            
    1054 00001c 0110          RETA      ; [] 
    1055                    ; [] 
    1056                    .dwattr $C$DW$66, DW_AT_TI_end_file("../driverlib/MSP430FR2xx_4xx/eusci_a_uart.c")
    1057                    .dwattr $C$DW$66, DW_AT_TI_end_line(0xbe)
    1058                    .dwattr $C$DW$66, DW_AT_TI_end_column(0x01)
    1059                    .dwendentry
    1060                    .dwendtag $C$DW$66
    1061            
    1062 000000               .sect   ".text:EUSCI_A_UART_transmitBreak"
    1063                    .clink
    1064                    .global EUSCI_A_UART_transmitBreak
    1065            
    1066            $C$DW$72        .dwtag  DW_TAG_subprogram
    1067                    .dwattr $C$DW$72, DW_AT_name("EUSCI_A_UART_transmitBreak")
    1068                    .dwattr $C$DW$72, DW_AT_low_pc(EUSCI_A_UART_transmitBreak)
    1069                    .dwattr $C$DW$72, DW_AT_high_pc(0x00)
    1070                    .dwattr $C$DW$72, DW_AT_TI_symbol_name("EUSCI_A_UART_transmitBreak")
    1071                    .dwattr $C$DW$72, DW_AT_external
    1072                    .dwattr $C$DW$72, DW_AT_TI_begin_file("../driverlib/MSP430FR2xx_4xx/eusci_a_uart.c")
    1073                    .dwattr $C$DW$72, DW_AT_TI_begin_line(0xc0)
    1074                    .dwattr $C$DW$72, DW_AT_TI_begin_column(0x06)
    1075                    .dwattr $C$DW$72, DW_AT_decl_file("../driverlib/MSP430FR2xx_4xx/eusci_a_uart.c")
    1076                    .dwattr $C$DW$72, DW_AT_decl_line(0xc0)
    1077                    .dwattr $C$DW$72, DW_AT_decl_column(0x06)
    1078                    .dwattr $C$DW$72, DW_AT_TI_max_frame_size(0x06)
    1079                    .dwpsn  file "../driverlib/MSP430FR2xx_4xx/eusci_a_uart.c",line 193,column 1,is_stmt,address E
    1080            
    1081                    .dwfde $C$DW$CIE, EUSCI_A_UART_transmitBreak
    1082            $C$DW$73        .dwtag  DW_TAG_formal_parameter
    1083                    .dwattr $C$DW$73, DW_AT_name("baseAddress")
    1084                    .dwattr $C$DW$73, DW_AT_TI_symbol_name("baseAddress")
    1085                    .dwattr $C$DW$73, DW_AT_type(*$C$DW$T$25)
    1086                    .dwattr $C$DW$73, DW_AT_location[DW_OP_reg12]
    1087            
MSP430 Assembler PC v21.6.1 Wed Nov 30 16:35:38 2022

Copyright (c) 2003-2018 Texas Instruments Incorporated
eusci_a_uart.asm                                                     PAGE   22

    1088            
    1089            ;*****************************************************************************
    1090            ;* FUNCTION NAME: EUSCI_A_UART_transmitBreak                                 *
    1091            ;*                                                                           *
    1092            ;*   Regs Modified     : SP,SR,r14,r15                                       *
    1093            ;*   Regs Used         : SP,SR,r12,r14,r15                                   *
    1094            ;*   Local Frame Size  : 0 Args + 2 Auto + 0 Save = 2 byte                   *
    1095            ;*****************************************************************************
    1096 000000       EUSCI_A_UART_transmitBreak:
    1097            ;* --------------------------------------------------------------------------*
    1098                    .dwcfi  cfa_offset, 4
    1099                    .dwcfi  save_reg_to_mem, 16, -4
    1100 000000 8321          SUB.W     #2,SP                 ; [] 
    1101                    .dwcfi  cfa_offset, 6
    1102            $C$DW$74        .dwtag  DW_TAG_variable
    1103                    .dwattr $C$DW$74, DW_AT_name("baseAddress")
    1104                    .dwattr $C$DW$74, DW_AT_TI_symbol_name("baseAddress")
    1105                    .dwattr $C$DW$74, DW_AT_type(*$C$DW$T$25)
    1106                    .dwattr $C$DW$74, DW_AT_location[DW_OP_breg1 0]
    1107            
    1108 000002 4C81          MOV.W     r12,0(SP)             ; [] |193| 
         000004 0000 
    1109                    .dwpsn  file "../driverlib/MSP430FR2xx_4xx/eusci_a_uart.c",line 195,column 5,is_stmt,isa 0
    1110 000006 412F          MOV.W     0(SP),r15             ; [] |195| 
    1111 000008 D3AF          OR.W      #2,0(r15)             ; [] |195| 
         00000a 0000 
    1112                    .dwpsn  file "../driverlib/MSP430FR2xx_4xx/eusci_a_uart.c",line 198,column 5,is_stmt,isa 0
    1113 00000c 412E          MOV.W     0(SP),r14             ; [] |198| 
    1114 00000e 403F          MOV.W     #1536,r15             ; [] |198| 
         000010 0600 
    1115 000012 FE2F          AND.W     @r14,r15              ; [] |198| 
    1116 000014 903F          CMP.W     #1536,r15             ; [] |198| 
         000016 0600 
    1117 000018 2005          JNE       $C$L5                 ; [] |198| 
    1118                                                      ; [] |198| 
    1119            ;* --------------------------------------------------------------------------*
    1120                    .dwpsn  file "../driverlib/MSP430FR2xx_4xx/eusci_a_uart.c",line 201,column 9,is_stmt,isa 0
    1121 00001a 412F          MOV.W     0(SP),r15             ; [] |201| 
    1122 00001c 40BF          MOV.W     #85,14(r15)           ; [] |201| 
         00001e 0055 
         000020 000E 
    1123 000022 3C03          JMP       $C$L6                 ; [] 
    1124                                                      ; [] 
    1125            ;* --------------------------------------------------------------------------*
    1126 000024       $C$L5:    
    1127                    .dwpsn  file "../driverlib/MSP430FR2xx_4xx/eusci_a_uart.c",line 203,column 9,is_stmt,isa 0
    1128 000024 412F          MOV.W     0(SP),r15             ; [] |203| 
    1129 000026 438F          MOV.W     #0,14(r15)            ; [] |203| 
         000028 000E 
    1130            ;* --------------------------------------------------------------------------*
    1131 00002a       $C$L6:    
    1132                    .dwpsn  file "../driverlib/MSP430FR2xx_4xx/eusci_a_uart.c",line 207,column 5,is_stmt,isa 0
    1133 00002a 412F          MOV.W     0(SP),r15             ; [] |207| 
    1134 00002c B3AF          BIT.W     #2,26(r15)            ; [] |207| 
         00002e 001A 
MSP430 Assembler PC v21.6.1 Wed Nov 30 16:35:38 2022

Copyright (c) 2003-2018 Texas Instruments Incorporated
eusci_a_uart.asm                                                     PAGE   23

    1135 000030 2003          JNE       $C$L8                 ; [] |207| 
    1136                                                      ; [] |207| 
    1137            ;* --------------------------------------------------------------------------*
    1138                    .dwpsn  file "../driverlib/MSP430FR2xx_4xx/eusci_a_uart.c",line 209,column 9,is_stmt,isa 0
    1139            ;* --------------------------------------------------------------------------*
    1140            ;*   BEGIN LOOP $C$L7
    1141            ;*
    1142            ;*   Loop source line                : 209
    1143            ;*   Loop closing brace source line  : 209
    1144            ;*   Known Minimum Trip Count        : 1
    1145            ;*   Known Maximum Trip Count        : 4294967295
    1146            ;*   Known Max Trip Count Factor     : 1
    1147            ;* --------------------------------------------------------------------------*
    1148 000032       $C$L7:    
    1149                    .dwpsn  file "../driverlib/MSP430FR2xx_4xx/eusci_a_uart.c",line 209,column 16,is_stmt,isa 0
    1150 000032 B3AF          BIT.W     #2,28(r15)            ; [] |209| 
         000034 001C 
    1151 000036 27FD          JEQ       $C$L7                 ; [] |209| 
    1152                                                      ; [] |209| 
    1153            ;* --------------------------------------------------------------------------*
    1154                    .dwpsn  file "../driverlib/MSP430FR2xx_4xx/eusci_a_uart.c",line 211,column 1,is_stmt,isa 0
    1155            ;* --------------------------------------------------------------------------*
    1156 000038       $C$L8:    
    1157 000038 5321          ADD.W     #2,SP                 ; [] 
    1158                    .dwcfi  cfa_offset, 4
    1159            $C$DW$75        .dwtag  DW_TAG_TI_branch
    1160                    .dwattr $C$DW$75, DW_AT_low_pc(0x00)
    1161                    .dwattr $C$DW$75, DW_AT_TI_return
    1162            
    1163 00003a 0110          RETA      ; [] 
    1164                    ; [] 
    1165                    .dwattr $C$DW$72, DW_AT_TI_end_file("../driverlib/MSP430FR2xx_4xx/eusci_a_uart.c")
    1166                    .dwattr $C$DW$72, DW_AT_TI_end_line(0xd3)
    1167                    .dwattr $C$DW$72, DW_AT_TI_end_column(0x01)
    1168                    .dwendentry
    1169                    .dwendtag $C$DW$72
    1170            
    1171 000000               .sect   ".text:EUSCI_A_UART_getReceiveBufferAddress"
    1172                    .clink
    1173                    .global EUSCI_A_UART_getReceiveBufferAddress
    1174            
    1175            $C$DW$76        .dwtag  DW_TAG_subprogram
    1176                    .dwattr $C$DW$76, DW_AT_name("EUSCI_A_UART_getReceiveBufferAddress")
    1177                    .dwattr $C$DW$76, DW_AT_low_pc(EUSCI_A_UART_getReceiveBufferAddress)
    1178                    .dwattr $C$DW$76, DW_AT_high_pc(0x00)
    1179                    .dwattr $C$DW$76, DW_AT_TI_symbol_name("EUSCI_A_UART_getReceiveBufferAddress")
    1180                    .dwattr $C$DW$76, DW_AT_external
    1181                    .dwattr $C$DW$76, DW_AT_type(*$C$DW$T$118)
    1182                    .dwattr $C$DW$76, DW_AT_TI_begin_file("../driverlib/MSP430FR2xx_4xx/eusci_a_uart.c")
    1183                    .dwattr $C$DW$76, DW_AT_TI_begin_line(0xd5)
    1184                    .dwattr $C$DW$76, DW_AT_TI_begin_column(0x0a)
    1185                    .dwattr $C$DW$76, DW_AT_decl_file("../driverlib/MSP430FR2xx_4xx/eusci_a_uart.c")
    1186                    .dwattr $C$DW$76, DW_AT_decl_line(0xd5)
    1187                    .dwattr $C$DW$76, DW_AT_decl_column(0x0a)
    1188                    .dwattr $C$DW$76, DW_AT_TI_max_frame_size(0x06)
MSP430 Assembler PC v21.6.1 Wed Nov 30 16:35:38 2022

Copyright (c) 2003-2018 Texas Instruments Incorporated
eusci_a_uart.asm                                                     PAGE   24

    1189                    .dwpsn  file "../driverlib/MSP430FR2xx_4xx/eusci_a_uart.c",line 214,column 1,is_stmt,address E
    1190            
    1191                    .dwfde $C$DW$CIE, EUSCI_A_UART_getReceiveBufferAddress
    1192            $C$DW$77        .dwtag  DW_TAG_formal_parameter
    1193                    .dwattr $C$DW$77, DW_AT_name("baseAddress")
    1194                    .dwattr $C$DW$77, DW_AT_TI_symbol_name("baseAddress")
    1195                    .dwattr $C$DW$77, DW_AT_type(*$C$DW$T$25)
    1196                    .dwattr $C$DW$77, DW_AT_location[DW_OP_reg12]
    1197            
    1198            
    1199            ;*****************************************************************************
    1200            ;* FUNCTION NAME: EUSCI_A_UART_getReceiveBufferAddress                       *
    1201            ;*                                                                           *
    1202            ;*   Regs Modified     : SP,SR,r12,r13                                       *
    1203            ;*   Regs Used         : SP,SR,r12,r13                                       *
    1204            ;*   Local Frame Size  : 0 Args + 2 Auto + 0 Save = 2 byte                   *
    1205            ;*****************************************************************************
    1206 000000       EUSCI_A_UART_getReceiveBufferAddress:
    1207            ;* --------------------------------------------------------------------------*
    1208                    .dwcfi  cfa_offset, 4
    1209                    .dwcfi  save_reg_to_mem, 16, -4
    1210 000000 8321          SUB.W     #2,SP                 ; [] 
    1211                    .dwcfi  cfa_offset, 6
    1212            $C$DW$78        .dwtag  DW_TAG_variable
    1213                    .dwattr $C$DW$78, DW_AT_name("baseAddress")
    1214                    .dwattr $C$DW$78, DW_AT_TI_symbol_name("baseAddress")
    1215                    .dwattr $C$DW$78, DW_AT_type(*$C$DW$T$25)
    1216                    .dwattr $C$DW$78, DW_AT_location[DW_OP_breg1 0]
    1217            
    1218 000002 4C81          MOV.W     r12,0(SP)             ; [] |214| 
         000004 0000 
    1219                    .dwpsn  file "../driverlib/MSP430FR2xx_4xx/eusci_a_uart.c",line 215,column 5,is_stmt,isa 0
    1220 000006 403C          MOV.W     #12,r12               ; [] |215| 
         000008 000C 
    1221 00000a 512C          ADD.W     0(SP),r12             ; [] |215| 
    1222 00000c 430D          MOV.W     #0,r13                ; [] |215| 
    1223                    .dwpsn  file "../driverlib/MSP430FR2xx_4xx/eusci_a_uart.c",line 216,column 1,is_stmt,isa 0
    1224 00000e 5321          ADD.W     #2,SP                 ; [] 
    1225                    .dwcfi  cfa_offset, 4
    1226            $C$DW$79        .dwtag  DW_TAG_TI_branch
    1227                    .dwattr $C$DW$79, DW_AT_low_pc(0x00)
    1228                    .dwattr $C$DW$79, DW_AT_TI_return
    1229            
    1230 000010 0110          RETA      ; [] 
    1231                    ; [] 
    1232                    .dwattr $C$DW$76, DW_AT_TI_end_file("../driverlib/MSP430FR2xx_4xx/eusci_a_uart.c")
    1233                    .dwattr $C$DW$76, DW_AT_TI_end_line(0xd8)
    1234                    .dwattr $C$DW$76, DW_AT_TI_end_column(0x01)
    1235                    .dwendentry
    1236                    .dwendtag $C$DW$76
    1237            
    1238 000000               .sect   ".text:EUSCI_A_UART_getTransmitBufferAddress"
    1239                    .clink
    1240                    .global EUSCI_A_UART_getTransmitBufferAddress
    1241            
MSP430 Assembler PC v21.6.1 Wed Nov 30 16:35:38 2022

Copyright (c) 2003-2018 Texas Instruments Incorporated
eusci_a_uart.asm                                                     PAGE   25

    1242            $C$DW$80        .dwtag  DW_TAG_subprogram
    1243                    .dwattr $C$DW$80, DW_AT_name("EUSCI_A_UART_getTransmitBufferAddress")
    1244                    .dwattr $C$DW$80, DW_AT_low_pc(EUSCI_A_UART_getTransmitBufferAddress)
    1245                    .dwattr $C$DW$80, DW_AT_high_pc(0x00)
    1246                    .dwattr $C$DW$80, DW_AT_TI_symbol_name("EUSCI_A_UART_getTransmitBufferAddress")
    1247                    .dwattr $C$DW$80, DW_AT_external
    1248                    .dwattr $C$DW$80, DW_AT_type(*$C$DW$T$118)
    1249                    .dwattr $C$DW$80, DW_AT_TI_begin_file("../driverlib/MSP430FR2xx_4xx/eusci_a_uart.c")
    1250                    .dwattr $C$DW$80, DW_AT_TI_begin_line(0xda)
    1251                    .dwattr $C$DW$80, DW_AT_TI_begin_column(0x0a)
    1252                    .dwattr $C$DW$80, DW_AT_decl_file("../driverlib/MSP430FR2xx_4xx/eusci_a_uart.c")
    1253                    .dwattr $C$DW$80, DW_AT_decl_line(0xda)
    1254                    .dwattr $C$DW$80, DW_AT_decl_column(0x0a)
    1255                    .dwattr $C$DW$80, DW_AT_TI_max_frame_size(0x06)
    1256                    .dwpsn  file "../driverlib/MSP430FR2xx_4xx/eusci_a_uart.c",line 219,column 1,is_stmt,address E
    1257            
    1258                    .dwfde $C$DW$CIE, EUSCI_A_UART_getTransmitBufferAddress
    1259            $C$DW$81        .dwtag  DW_TAG_formal_parameter
    1260                    .dwattr $C$DW$81, DW_AT_name("baseAddress")
    1261                    .dwattr $C$DW$81, DW_AT_TI_symbol_name("baseAddress")
    1262                    .dwattr $C$DW$81, DW_AT_type(*$C$DW$T$25)
    1263                    .dwattr $C$DW$81, DW_AT_location[DW_OP_reg12]
    1264            
    1265            
    1266            ;*****************************************************************************
    1267            ;* FUNCTION NAME: EUSCI_A_UART_getTransmitBufferAddress                      *
    1268            ;*                                                                           *
    1269            ;*   Regs Modified     : SP,SR,r12,r13                                       *
    1270            ;*   Regs Used         : SP,SR,r12,r13                                       *
    1271            ;*   Local Frame Size  : 0 Args + 2 Auto + 0 Save = 2 byte                   *
    1272            ;*****************************************************************************
    1273 000000       EUSCI_A_UART_getTransmitBufferAddress:
    1274            ;* --------------------------------------------------------------------------*
    1275                    .dwcfi  cfa_offset, 4
    1276                    .dwcfi  save_reg_to_mem, 16, -4
    1277 000000 8321          SUB.W     #2,SP                 ; [] 
    1278                    .dwcfi  cfa_offset, 6
    1279            $C$DW$82        .dwtag  DW_TAG_variable
    1280                    .dwattr $C$DW$82, DW_AT_name("baseAddress")
    1281                    .dwattr $C$DW$82, DW_AT_TI_symbol_name("baseAddress")
    1282                    .dwattr $C$DW$82, DW_AT_type(*$C$DW$T$25)
    1283                    .dwattr $C$DW$82, DW_AT_location[DW_OP_breg1 0]
    1284            
    1285 000002 4C81          MOV.W     r12,0(SP)             ; [] |219| 
         000004 0000 
    1286                    .dwpsn  file "../driverlib/MSP430FR2xx_4xx/eusci_a_uart.c",line 220,column 5,is_stmt,isa 0
    1287 000006 403C          MOV.W     #14,r12               ; [] |220| 
         000008 000E 
    1288 00000a 512C          ADD.W     0(SP),r12             ; [] |220| 
    1289 00000c 430D          MOV.W     #0,r13                ; [] |220| 
    1290                    .dwpsn  file "../driverlib/MSP430FR2xx_4xx/eusci_a_uart.c",line 221,column 1,is_stmt,isa 0
    1291 00000e 5321          ADD.W     #2,SP                 ; [] 
    1292                    .dwcfi  cfa_offset, 4
    1293            $C$DW$83        .dwtag  DW_TAG_TI_branch
    1294                    .dwattr $C$DW$83, DW_AT_low_pc(0x00)
MSP430 Assembler PC v21.6.1 Wed Nov 30 16:35:38 2022

Copyright (c) 2003-2018 Texas Instruments Incorporated
eusci_a_uart.asm                                                     PAGE   26

    1295                    .dwattr $C$DW$83, DW_AT_TI_return
    1296            
    1297 000010 0110          RETA      ; [] 
    1298                    ; [] 
    1299                    .dwattr $C$DW$80, DW_AT_TI_end_file("../driverlib/MSP430FR2xx_4xx/eusci_a_uart.c")
    1300                    .dwattr $C$DW$80, DW_AT_TI_end_line(0xdd)
    1301                    .dwattr $C$DW$80, DW_AT_TI_end_column(0x01)
    1302                    .dwendentry
    1303                    .dwendtag $C$DW$80
    1304            
    1305 000000               .sect   ".text:EUSCI_A_UART_selectDeglitchTime"
    1306                    .clink
    1307                    .global EUSCI_A_UART_selectDeglitchTime
    1308            
    1309            $C$DW$84        .dwtag  DW_TAG_subprogram
    1310                    .dwattr $C$DW$84, DW_AT_name("EUSCI_A_UART_selectDeglitchTime")
    1311                    .dwattr $C$DW$84, DW_AT_low_pc(EUSCI_A_UART_selectDeglitchTime)
    1312                    .dwattr $C$DW$84, DW_AT_high_pc(0x00)
    1313                    .dwattr $C$DW$84, DW_AT_TI_symbol_name("EUSCI_A_UART_selectDeglitchTime")
    1314                    .dwattr $C$DW$84, DW_AT_external
    1315                    .dwattr $C$DW$84, DW_AT_TI_begin_file("../driverlib/MSP430FR2xx_4xx/eusci_a_uart.c")
    1316                    .dwattr $C$DW$84, DW_AT_TI_begin_line(0xdf)
    1317                    .dwattr $C$DW$84, DW_AT_TI_begin_column(0x06)
    1318                    .dwattr $C$DW$84, DW_AT_decl_file("../driverlib/MSP430FR2xx_4xx/eusci_a_uart.c")
    1319                    .dwattr $C$DW$84, DW_AT_decl_line(0xdf)
    1320                    .dwattr $C$DW$84, DW_AT_decl_column(0x06)
    1321                    .dwattr $C$DW$84, DW_AT_TI_max_frame_size(0x08)
    1322                    .dwpsn  file "../driverlib/MSP430FR2xx_4xx/eusci_a_uart.c",line 226,column 1,is_stmt,address E
    1323            
    1324                    .dwfde $C$DW$CIE, EUSCI_A_UART_selectDeglitchTime
    1325            $C$DW$85        .dwtag  DW_TAG_formal_parameter
    1326                    .dwattr $C$DW$85, DW_AT_name("baseAddress")
    1327                    .dwattr $C$DW$85, DW_AT_TI_symbol_name("baseAddress")
    1328                    .dwattr $C$DW$85, DW_AT_type(*$C$DW$T$25)
    1329                    .dwattr $C$DW$85, DW_AT_location[DW_OP_reg12]
    1330            
    1331            $C$DW$86        .dwtag  DW_TAG_formal_parameter
    1332                    .dwattr $C$DW$86, DW_AT_name("deglitchTime")
    1333                    .dwattr $C$DW$86, DW_AT_TI_symbol_name("deglitchTime")
    1334                    .dwattr $C$DW$86, DW_AT_type(*$C$DW$T$25)
    1335                    .dwattr $C$DW$86, DW_AT_location[DW_OP_reg13]
    1336            
    1337            
    1338            ;*****************************************************************************
    1339            ;* FUNCTION NAME: EUSCI_A_UART_selectDeglitchTime                            *
    1340            ;*                                                                           *
    1341            ;*   Regs Modified     : SP,SR,r15                                           *
    1342            ;*   Regs Used         : SP,SR,r12,r13,r15                                   *
    1343            ;*   Local Frame Size  : 0 Args + 4 Auto + 0 Save = 4 byte                   *
    1344            ;*****************************************************************************
    1345 000000       EUSCI_A_UART_selectDeglitchTime:
    1346            ;* --------------------------------------------------------------------------*
    1347                    .dwcfi  cfa_offset, 4
    1348                    .dwcfi  save_reg_to_mem, 16, -4
    1349 000000 8221          SUB.W     #4,SP                 ; [] 
MSP430 Assembler PC v21.6.1 Wed Nov 30 16:35:38 2022

Copyright (c) 2003-2018 Texas Instruments Incorporated
eusci_a_uart.asm                                                     PAGE   27

    1350                    .dwcfi  cfa_offset, 8
    1351            $C$DW$87        .dwtag  DW_TAG_variable
    1352                    .dwattr $C$DW$87, DW_AT_name("baseAddress")
    1353                    .dwattr $C$DW$87, DW_AT_TI_symbol_name("baseAddress")
    1354                    .dwattr $C$DW$87, DW_AT_type(*$C$DW$T$25)
    1355                    .dwattr $C$DW$87, DW_AT_location[DW_OP_breg1 0]
    1356            
    1357            $C$DW$88        .dwtag  DW_TAG_variable
    1358                    .dwattr $C$DW$88, DW_AT_name("deglitchTime")
    1359                    .dwattr $C$DW$88, DW_AT_TI_symbol_name("deglitchTime")
    1360                    .dwattr $C$DW$88, DW_AT_type(*$C$DW$T$25)
    1361                    .dwattr $C$DW$88, DW_AT_location[DW_OP_breg1 2]
    1362            
    1363 000002 4D81          MOV.W     r13,2(SP)             ; [] |226| 
         000004 0002 
    1364 000006 4C81          MOV.W     r12,0(SP)             ; [] |226| 
         000008 0000 
    1365                    .dwpsn  file "../driverlib/MSP430FR2xx_4xx/eusci_a_uart.c",line 227,column 5,is_stmt,isa 0
    1366 00000a 432F          MOV.W     #2,r15                ; [] |227| 
    1367 00000c 512F          ADD.W     0(SP),r15             ; [] |227| 
    1368 00000e F0BF          AND.W     #65532,0(r15)         ; [] |227| 
         000010 FFFC 
         000012 0000 
    1369                    .dwpsn  file "../driverlib/MSP430FR2xx_4xx/eusci_a_uart.c",line 229,column 5,is_stmt,isa 0
    1370 000014 432F          MOV.W     #2,r15                ; [] |229| 
    1371 000016 512F          ADD.W     0(SP),r15             ; [] |229| 
    1372 000018 D19F          OR.W      2(SP),0(r15)          ; [] |229| 
         00001a 0002 
         00001c 0000 
    1373                    .dwpsn  file "../driverlib/MSP430FR2xx_4xx/eusci_a_uart.c",line 230,column 1,is_stmt,isa 0
    1374 00001e 5221          ADD.W     #4,SP                 ; [] 
    1375                    .dwcfi  cfa_offset, 4
    1376            $C$DW$89        .dwtag  DW_TAG_TI_branch
    1377                    .dwattr $C$DW$89, DW_AT_low_pc(0x00)
    1378                    .dwattr $C$DW$89, DW_AT_TI_return
    1379            
    1380 000020 0110          RETA      ; [] 
    1381                    ; [] 
    1382                    .dwattr $C$DW$84, DW_AT_TI_end_file("../driverlib/MSP430FR2xx_4xx/eusci_a_uart.c")
    1383                    .dwattr $C$DW$84, DW_AT_TI_end_line(0xe6)
    1384                    .dwattr $C$DW$84, DW_AT_TI_end_column(0x01)
    1385                    .dwendentry
    1386                    .dwendtag $C$DW$84
    1387            
    1388 000000               .sect   ".text:EUSCI_A_UART_remapPins"
    1389                    .clink
    1390                    .global EUSCI_A_UART_remapPins
    1391            
    1392            $C$DW$90        .dwtag  DW_TAG_subprogram
    1393                    .dwattr $C$DW$90, DW_AT_name("EUSCI_A_UART_remapPins")
    1394                    .dwattr $C$DW$90, DW_AT_low_pc(EUSCI_A_UART_remapPins)
    1395                    .dwattr $C$DW$90, DW_AT_high_pc(0x00)
    1396                    .dwattr $C$DW$90, DW_AT_TI_symbol_name("EUSCI_A_UART_remapPins")
    1397                    .dwattr $C$DW$90, DW_AT_external
    1398                    .dwattr $C$DW$90, DW_AT_TI_begin_file("../driverlib/MSP430FR2xx_4xx/eusci_a_uart.c")
MSP430 Assembler PC v21.6.1 Wed Nov 30 16:35:38 2022

Copyright (c) 2003-2018 Texas Instruments Incorporated
eusci_a_uart.asm                                                     PAGE   28

    1399                    .dwattr $C$DW$90, DW_AT_TI_begin_line(0xe8)
    1400                    .dwattr $C$DW$90, DW_AT_TI_begin_column(0x06)
    1401                    .dwattr $C$DW$90, DW_AT_decl_file("../driverlib/MSP430FR2xx_4xx/eusci_a_uart.c")
    1402                    .dwattr $C$DW$90, DW_AT_decl_line(0xe8)
    1403                    .dwattr $C$DW$90, DW_AT_decl_column(0x06)
    1404                    .dwattr $C$DW$90, DW_AT_TI_max_frame_size(0x08)
    1405                    .dwpsn  file "../driverlib/MSP430FR2xx_4xx/eusci_a_uart.c",line 233,column 1,is_stmt,address E
    1406            
    1407                    .dwfde $C$DW$CIE, EUSCI_A_UART_remapPins
    1408            $C$DW$91        .dwtag  DW_TAG_formal_parameter
    1409                    .dwattr $C$DW$91, DW_AT_name("baseAddress")
    1410                    .dwattr $C$DW$91, DW_AT_TI_symbol_name("baseAddress")
    1411                    .dwattr $C$DW$91, DW_AT_type(*$C$DW$T$25)
    1412                    .dwattr $C$DW$91, DW_AT_location[DW_OP_reg12]
    1413            
    1414            $C$DW$92        .dwtag  DW_TAG_formal_parameter
    1415                    .dwattr $C$DW$92, DW_AT_name("pinsSelect")
    1416                    .dwattr $C$DW$92, DW_AT_TI_symbol_name("pinsSelect")
    1417                    .dwattr $C$DW$92, DW_AT_type(*$C$DW$T$23)
    1418                    .dwattr $C$DW$92, DW_AT_location[DW_OP_reg13]
    1419            
    1420            
    1421            ;*****************************************************************************
    1422            ;* FUNCTION NAME: EUSCI_A_UART_remapPins                                     *
    1423            ;*                                                                           *
    1424            ;*   Regs Modified     : SP,SR                                               *
    1425            ;*   Regs Used         : SP,SR,r12,r13                                       *
    1426            ;*   Local Frame Size  : 0 Args + 4 Auto + 0 Save = 4 byte                   *
    1427            ;*****************************************************************************
    1428 000000       EUSCI_A_UART_remapPins:
    1429            ;* --------------------------------------------------------------------------*
    1430                    .dwcfi  cfa_offset, 4
    1431                    .dwcfi  save_reg_to_mem, 16, -4
    1432 000000 8221          SUB.W     #4,SP                 ; [] 
    1433                    .dwcfi  cfa_offset, 8
    1434            $C$DW$93        .dwtag  DW_TAG_variable
    1435                    .dwattr $C$DW$93, DW_AT_name("baseAddress")
    1436                    .dwattr $C$DW$93, DW_AT_TI_symbol_name("baseAddress")
    1437                    .dwattr $C$DW$93, DW_AT_type(*$C$DW$T$25)
    1438                    .dwattr $C$DW$93, DW_AT_location[DW_OP_breg1 0]
    1439            
    1440            $C$DW$94        .dwtag  DW_TAG_variable
    1441                    .dwattr $C$DW$94, DW_AT_name("pinsSelect")
    1442                    .dwattr $C$DW$94, DW_AT_TI_symbol_name("pinsSelect")
    1443                    .dwattr $C$DW$94, DW_AT_type(*$C$DW$T$23)
    1444                    .dwattr $C$DW$94, DW_AT_location[DW_OP_breg1 2]
    1445            
    1446 000002 4DC1          MOV.B     r13,2(SP)             ; [] |233| 
         000004 0002 
    1447 000006 4C81          MOV.W     r12,0(SP)             ; [] |233| 
         000008 0000 
    1448                    .dwpsn  file "../driverlib/MSP430FR2xx_4xx/eusci_a_uart.c",line 241,column 1,is_stmt,isa 0
    1449 00000a 5221          ADD.W     #4,SP                 ; [] 
    1450                    .dwcfi  cfa_offset, 4
    1451            $C$DW$95        .dwtag  DW_TAG_TI_branch
MSP430 Assembler PC v21.6.1 Wed Nov 30 16:35:38 2022

Copyright (c) 2003-2018 Texas Instruments Incorporated
eusci_a_uart.asm                                                     PAGE   29

    1452                    .dwattr $C$DW$95, DW_AT_low_pc(0x00)
    1453                    .dwattr $C$DW$95, DW_AT_TI_return
    1454            
    1455 00000c 0110          RETA      ; [] 
    1456                    ; [] 
    1457                    .dwattr $C$DW$90, DW_AT_TI_end_file("../driverlib/MSP430FR2xx_4xx/eusci_a_uart.c")
    1458                    .dwattr $C$DW$90, DW_AT_TI_end_line(0xf1)
    1459                    .dwattr $C$DW$90, DW_AT_TI_end_column(0x01)
    1460                    .dwendentry
    1461                    .dwendtag $C$DW$90
    1462            
    1463            
    1464            ;******************************************************************************
    1465            ;* BUILD ATTRIBUTES                                                           *
    1466            ;******************************************************************************
    1467                    .battr "TI", Tag_File, 1, Tag_LOCKIO_INFO(1)
    1468                    .battr "TI", Tag_File, 1, Tag_WAITSTATE_INFO(2)
    1469                    .battr "TI", Tag_File, 1, Tag_HW_MPY_ISR_INFO(1)
    1470                    .battr "TI", Tag_File, 1, Tag_HW_MPY_INLINE_INFO(1)
    1471                    .battr "mspabi", Tag_File, 1, Tag_enum_size(3)
    1472            
    1473            ;******************************************************************************
    1474            ;* TYPE INFORMATION                                                           *
    1475            ;******************************************************************************
    1476            
    1477            $C$DW$T$21      .dwtag  DW_TAG_structure_type
    1478                    .dwattr $C$DW$T$21, DW_AT_byte_size(0x10)
    1479            $C$DW$96        .dwtag  DW_TAG_member
    1480                    .dwattr $C$DW$96, DW_AT_type(*$C$DW$T$14)
    1481                    .dwattr $C$DW$96, DW_AT_name("__max_align1")
    1482                    .dwattr $C$DW$96, DW_AT_TI_symbol_name("__max_align1")
    1483                    .dwattr $C$DW$96, DW_AT_data_member_location[DW_OP_plus_uconst 0x0]
    1484                    .dwattr $C$DW$96, DW_AT_accessibility(DW_ACCESS_public)
    1485                    .dwattr $C$DW$96, DW_AT_decl_file("C:/ti/ccs1110/ccs/tools/compiler/ti-cgt-msp430_21.6.1.LTS/i
    1486                    .dwattr $C$DW$96, DW_AT_decl_line(0x7b)
    1487                    .dwattr $C$DW$96, DW_AT_decl_column(0x0c)
    1488            
    1489            $C$DW$97        .dwtag  DW_TAG_member
    1490                    .dwattr $C$DW$97, DW_AT_type(*$C$DW$T$18)
    1491                    .dwattr $C$DW$97, DW_AT_name("__max_align2")
    1492                    .dwattr $C$DW$97, DW_AT_TI_symbol_name("__max_align2")
    1493                    .dwattr $C$DW$97, DW_AT_data_member_location[DW_OP_plus_uconst 0x8]
    1494                    .dwattr $C$DW$97, DW_AT_accessibility(DW_ACCESS_public)
    1495                    .dwattr $C$DW$97, DW_AT_decl_file("C:/ti/ccs1110/ccs/tools/compiler/ti-cgt-msp430_21.6.1.LTS/i
    1496                    .dwattr $C$DW$97, DW_AT_decl_line(0x7c)
    1497                    .dwattr $C$DW$97, DW_AT_decl_column(0x0e)
    1498            
    1499                    .dwattr $C$DW$T$21, DW_AT_decl_file("C:/ti/ccs1110/ccs/tools/compiler/ti-cgt-msp430_21.6.1.LTS
    1500                    .dwattr $C$DW$T$21, DW_AT_decl_line(0x7a)
    1501                    .dwattr $C$DW$T$21, DW_AT_decl_column(0x10)
    1502                    .dwendtag $C$DW$T$21
    1503            
    1504            $C$DW$T$27      .dwtag  DW_TAG_typedef
    1505                    .dwattr $C$DW$T$27, DW_AT_name("__max_align_t")
    1506                    .dwattr $C$DW$T$27, DW_AT_type(*$C$DW$T$21)
MSP430 Assembler PC v21.6.1 Wed Nov 30 16:35:38 2022

Copyright (c) 2003-2018 Texas Instruments Incorporated
eusci_a_uart.asm                                                     PAGE   30

    1507                    .dwattr $C$DW$T$27, DW_AT_language(DW_LANG_C)
    1508                    .dwattr $C$DW$T$27, DW_AT_decl_file("C:/ti/ccs1110/ccs/tools/compiler/ti-cgt-msp430_21.6.1.LTS
    1509                    .dwattr $C$DW$T$27, DW_AT_decl_line(0x7d)
    1510                    .dwattr $C$DW$T$27, DW_AT_decl_column(0x03)
    1511            
    1512            
    1513            $C$DW$T$26      .dwtag  DW_TAG_structure_type
    1514                    .dwattr $C$DW$T$26, DW_AT_name("EUSCI_A_UART_initParam")
    1515                    .dwattr $C$DW$T$26, DW_AT_byte_size(0x10)
    1516            $C$DW$98        .dwtag  DW_TAG_member
    1517                    .dwattr $C$DW$98, DW_AT_type(*$C$DW$T$23)
    1518                    .dwattr $C$DW$98, DW_AT_name("selectClockSource")
    1519                    .dwattr $C$DW$98, DW_AT_TI_symbol_name("selectClockSource")
    1520                    .dwattr $C$DW$98, DW_AT_data_member_location[DW_OP_plus_uconst 0x0]
    1521                    .dwattr $C$DW$98, DW_AT_accessibility(DW_ACCESS_public)
    1522                    .dwattr $C$DW$98, DW_AT_decl_file("..\driverlib\MSP430FR2xx_4xx\eusci_a_uart.h")
    1523                    .dwattr $C$DW$98, DW_AT_decl_line(0x2f)
    1524                    .dwattr $C$DW$98, DW_AT_decl_column(0x0d)
    1525            
    1526            $C$DW$99        .dwtag  DW_TAG_member
    1527                    .dwattr $C$DW$99, DW_AT_type(*$C$DW$T$25)
    1528                    .dwattr $C$DW$99, DW_AT_name("clockPrescalar")
    1529                    .dwattr $C$DW$99, DW_AT_TI_symbol_name("clockPrescalar")
    1530                    .dwattr $C$DW$99, DW_AT_data_member_location[DW_OP_plus_uconst 0x2]
    1531                    .dwattr $C$DW$99, DW_AT_accessibility(DW_ACCESS_public)
    1532                    .dwattr $C$DW$99, DW_AT_decl_file("..\driverlib\MSP430FR2xx_4xx\eusci_a_uart.h")
    1533                    .dwattr $C$DW$99, DW_AT_decl_line(0x31)
    1534                    .dwattr $C$DW$99, DW_AT_decl_column(0x0e)
    1535            
    1536            $C$DW$100       .dwtag  DW_TAG_member
    1537                    .dwattr $C$DW$100, DW_AT_type(*$C$DW$T$23)
    1538                    .dwattr $C$DW$100, DW_AT_name("firstModReg")
    1539                    .dwattr $C$DW$100, DW_AT_TI_symbol_name("firstModReg")
    1540                    .dwattr $C$DW$100, DW_AT_data_member_location[DW_OP_plus_uconst 0x4]
    1541                    .dwattr $C$DW$100, DW_AT_accessibility(DW_ACCESS_public)
    1542                    .dwattr $C$DW$100, DW_AT_decl_file("..\driverlib\MSP430FR2xx_4xx\eusci_a_uart.h")
    1543                    .dwattr $C$DW$100, DW_AT_decl_line(0x35)
    1544                    .dwattr $C$DW$100, DW_AT_decl_column(0x0d)
    1545            
    1546            $C$DW$101       .dwtag  DW_TAG_member
    1547                    .dwattr $C$DW$101, DW_AT_type(*$C$DW$T$23)
    1548                    .dwattr $C$DW$101, DW_AT_name("secondModReg")
    1549                    .dwattr $C$DW$101, DW_AT_TI_symbol_name("secondModReg")
    1550                    .dwattr $C$DW$101, DW_AT_data_member_location[DW_OP_plus_uconst 0x5]
    1551                    .dwattr $C$DW$101, DW_AT_accessibility(DW_ACCESS_public)
    1552                    .dwattr $C$DW$101, DW_AT_decl_file("..\driverlib\MSP430FR2xx_4xx\eusci_a_uart.h")
    1553                    .dwattr $C$DW$101, DW_AT_decl_line(0x39)
    1554                    .dwattr $C$DW$101, DW_AT_decl_column(0x0d)
    1555            
    1556            $C$DW$102       .dwtag  DW_TAG_member
    1557                    .dwattr $C$DW$102, DW_AT_type(*$C$DW$T$23)
    1558                    .dwattr $C$DW$102, DW_AT_name("parity")
    1559                    .dwattr $C$DW$102, DW_AT_TI_symbol_name("parity")
    1560                    .dwattr $C$DW$102, DW_AT_data_member_location[DW_OP_plus_uconst 0x6]
    1561                    .dwattr $C$DW$102, DW_AT_accessibility(DW_ACCESS_public)
MSP430 Assembler PC v21.6.1 Wed Nov 30 16:35:38 2022

Copyright (c) 2003-2018 Texas Instruments Incorporated
eusci_a_uart.asm                                                     PAGE   31

    1562                    .dwattr $C$DW$102, DW_AT_decl_file("..\driverlib\MSP430FR2xx_4xx\eusci_a_uart.h")
    1563                    .dwattr $C$DW$102, DW_AT_decl_line(0x3f)
    1564                    .dwattr $C$DW$102, DW_AT_decl_column(0x0d)
    1565            
    1566            $C$DW$103       .dwtag  DW_TAG_member
    1567                    .dwattr $C$DW$103, DW_AT_type(*$C$DW$T$25)
    1568                    .dwattr $C$DW$103, DW_AT_name("msborLsbFirst")
    1569                    .dwattr $C$DW$103, DW_AT_TI_symbol_name("msborLsbFirst")
    1570                    .dwattr $C$DW$103, DW_AT_data_member_location[DW_OP_plus_uconst 0x8]
    1571                    .dwattr $C$DW$103, DW_AT_accessibility(DW_ACCESS_public)
    1572                    .dwattr $C$DW$103, DW_AT_decl_file("..\driverlib\MSP430FR2xx_4xx\eusci_a_uart.h")
    1573                    .dwattr $C$DW$103, DW_AT_decl_line(0x44)
    1574                    .dwattr $C$DW$103, DW_AT_decl_column(0x0e)
    1575            
    1576            $C$DW$104       .dwtag  DW_TAG_member
    1577                    .dwattr $C$DW$104, DW_AT_type(*$C$DW$T$25)
    1578                    .dwattr $C$DW$104, DW_AT_name("numberofStopBits")
    1579                    .dwattr $C$DW$104, DW_AT_TI_symbol_name("numberofStopBits")
    1580                    .dwattr $C$DW$104, DW_AT_data_member_location[DW_OP_plus_uconst 0xa]
    1581                    .dwattr $C$DW$104, DW_AT_accessibility(DW_ACCESS_public)
    1582                    .dwattr $C$DW$104, DW_AT_decl_file("..\driverlib\MSP430FR2xx_4xx\eusci_a_uart.h")
    1583                    .dwattr $C$DW$104, DW_AT_decl_line(0x49)
    1584                    .dwattr $C$DW$104, DW_AT_decl_column(0x0e)
    1585            
    1586            $C$DW$105       .dwtag  DW_TAG_member
    1587                    .dwattr $C$DW$105, DW_AT_type(*$C$DW$T$25)
    1588                    .dwattr $C$DW$105, DW_AT_name("uartMode")
    1589                    .dwattr $C$DW$105, DW_AT_TI_symbol_name("uartMode")
    1590                    .dwattr $C$DW$105, DW_AT_data_member_location[DW_OP_plus_uconst 0xc]
    1591                    .dwattr $C$DW$105, DW_AT_accessibility(DW_ACCESS_public)
    1592                    .dwattr $C$DW$105, DW_AT_decl_file("..\driverlib\MSP430FR2xx_4xx\eusci_a_uart.h")
    1593                    .dwattr $C$DW$105, DW_AT_decl_line(0x50)
    1594                    .dwattr $C$DW$105, DW_AT_decl_column(0x0e)
    1595            
    1596            $C$DW$106       .dwtag  DW_TAG_member
    1597                    .dwattr $C$DW$106, DW_AT_type(*$C$DW$T$23)
    1598                    .dwattr $C$DW$106, DW_AT_name("overSampling")
    1599                    .dwattr $C$DW$106, DW_AT_TI_symbol_name("overSampling")
    1600                    .dwattr $C$DW$106, DW_AT_data_member_location[DW_OP_plus_uconst 0xe]
    1601                    .dwattr $C$DW$106, DW_AT_accessibility(DW_ACCESS_public)
    1602                    .dwattr $C$DW$106, DW_AT_decl_file("..\driverlib\MSP430FR2xx_4xx\eusci_a_uart.h")
    1603                    .dwattr $C$DW$106, DW_AT_decl_line(0x55)
    1604                    .dwattr $C$DW$106, DW_AT_decl_column(0x0d)
    1605            
    1606                    .dwattr $C$DW$T$26, DW_AT_decl_file("..\driverlib\MSP430FR2xx_4xx\eusci_a_uart.h")
    1607                    .dwattr $C$DW$T$26, DW_AT_decl_line(0x27)
    1608                    .dwattr $C$DW$T$26, DW_AT_decl_column(0x10)
    1609                    .dwendtag $C$DW$T$26
    1610            
    1611            $C$DW$T$28      .dwtag  DW_TAG_typedef
    1612                    .dwattr $C$DW$T$28, DW_AT_name("EUSCI_A_UART_initParam")
    1613                    .dwattr $C$DW$T$28, DW_AT_type(*$C$DW$T$26)
    1614                    .dwattr $C$DW$T$28, DW_AT_language(DW_LANG_C)
    1615                    .dwattr $C$DW$T$28, DW_AT_decl_file("..\driverlib\MSP430FR2xx_4xx\eusci_a_uart.h")
    1616                    .dwattr $C$DW$T$28, DW_AT_decl_line(0x56)
MSP430 Assembler PC v21.6.1 Wed Nov 30 16:35:38 2022

Copyright (c) 2003-2018 Texas Instruments Incorporated
eusci_a_uart.asm                                                     PAGE   32

    1617                    .dwattr $C$DW$T$28, DW_AT_decl_column(0x03)
    1618            
    1619            $C$DW$T$29      .dwtag  DW_TAG_pointer_type
    1620                    .dwattr $C$DW$T$29, DW_AT_type(*$C$DW$T$28)
    1621                    .dwattr $C$DW$T$29, DW_AT_address_class(0x10)
    1622            
    1623            $C$DW$T$2       .dwtag  DW_TAG_unspecified_type
    1624                    .dwattr $C$DW$T$2, DW_AT_name("void")
    1625            
    1626            
    1627            $C$DW$T$33      .dwtag  DW_TAG_subroutine_type
    1628                    .dwattr $C$DW$T$33, DW_AT_language(DW_LANG_C)
    1629                    .dwendtag $C$DW$T$33
    1630            
    1631            $C$DW$T$34      .dwtag  DW_TAG_pointer_type
    1632                    .dwattr $C$DW$T$34, DW_AT_type(*$C$DW$T$33)
    1633                    .dwattr $C$DW$T$34, DW_AT_address_class(0x14)
    1634            
    1635            $C$DW$T$35      .dwtag  DW_TAG_typedef
    1636                    .dwattr $C$DW$T$35, DW_AT_name("__SFR_FARPTR")
    1637                    .dwattr $C$DW$T$35, DW_AT_type(*$C$DW$T$34)
    1638                    .dwattr $C$DW$T$35, DW_AT_language(DW_LANG_C)
    1639                    .dwattr $C$DW$T$35, DW_AT_decl_file("C:\ti\ccs1110\ccs\ccs_base\msp430\include\msp430fr4133.h"
    1640                    .dwattr $C$DW$T$35, DW_AT_decl_line(0x46)
    1641                    .dwattr $C$DW$T$35, DW_AT_decl_column(0x11)
    1642            
    1643            $C$DW$T$4       .dwtag  DW_TAG_base_type
    1644                    .dwattr $C$DW$T$4, DW_AT_encoding(DW_ATE_boolean)
    1645                    .dwattr $C$DW$T$4, DW_AT_name("bool")
    1646                    .dwattr $C$DW$T$4, DW_AT_byte_size(0x01)
    1647            
    1648            $C$DW$T$5       .dwtag  DW_TAG_base_type
    1649                    .dwattr $C$DW$T$5, DW_AT_encoding(DW_ATE_signed_char)
    1650                    .dwattr $C$DW$T$5, DW_AT_name("signed char")
    1651                    .dwattr $C$DW$T$5, DW_AT_byte_size(0x01)
    1652            
    1653            $C$DW$T$36      .dwtag  DW_TAG_typedef
    1654                    .dwattr $C$DW$T$36, DW_AT_name("__int8_t")
    1655                    .dwattr $C$DW$T$36, DW_AT_type(*$C$DW$T$5)
    1656                    .dwattr $C$DW$T$36, DW_AT_language(DW_LANG_C)
    1657                    .dwattr $C$DW$T$36, DW_AT_decl_file("C:/ti/ccs1110/ccs/tools/compiler/ti-cgt-msp430_21.6.1.LTS
    1658                    .dwattr $C$DW$T$36, DW_AT_decl_line(0x36)
    1659                    .dwattr $C$DW$T$36, DW_AT_decl_column(0x16)
    1660            
    1661            $C$DW$T$37      .dwtag  DW_TAG_typedef
    1662                    .dwattr $C$DW$T$37, DW_AT_name("__int_least8_t")
    1663                    .dwattr $C$DW$T$37, DW_AT_type(*$C$DW$T$36)
    1664                    .dwattr $C$DW$T$37, DW_AT_language(DW_LANG_C)
    1665                    .dwattr $C$DW$T$37, DW_AT_decl_file("C:/ti/ccs1110/ccs/tools/compiler/ti-cgt-msp430_21.6.1.LTS
    1666                    .dwattr $C$DW$T$37, DW_AT_decl_line(0x5a)
    1667                    .dwattr $C$DW$T$37, DW_AT_decl_column(0x12)
    1668            
    1669            $C$DW$T$38      .dwtag  DW_TAG_typedef
    1670                    .dwattr $C$DW$T$38, DW_AT_name("int_least8_t")
    1671                    .dwattr $C$DW$T$38, DW_AT_type(*$C$DW$T$37)
MSP430 Assembler PC v21.6.1 Wed Nov 30 16:35:38 2022

Copyright (c) 2003-2018 Texas Instruments Incorporated
eusci_a_uart.asm                                                     PAGE   33

    1672                    .dwattr $C$DW$T$38, DW_AT_language(DW_LANG_C)
    1673                    .dwattr $C$DW$T$38, DW_AT_decl_file("C:/ti/ccs1110/ccs/tools/compiler/ti-cgt-msp430_21.6.1.LTS
    1674                    .dwattr $C$DW$T$38, DW_AT_decl_line(0x2a)
    1675                    .dwattr $C$DW$T$38, DW_AT_decl_column(0x19)
    1676            
    1677            $C$DW$T$39      .dwtag  DW_TAG_typedef
    1678                    .dwattr $C$DW$T$39, DW_AT_name("int8_t")
    1679                    .dwattr $C$DW$T$39, DW_AT_type(*$C$DW$T$36)
    1680                    .dwattr $C$DW$T$39, DW_AT_language(DW_LANG_C)
    1681                    .dwattr $C$DW$T$39, DW_AT_decl_file("C:/ti/ccs1110/ccs/tools/compiler/ti-cgt-msp430_21.6.1.LTS
    1682                    .dwattr $C$DW$T$39, DW_AT_decl_line(0x25)
    1683                    .dwattr $C$DW$T$39, DW_AT_decl_column(0x13)
    1684            
    1685            $C$DW$T$6       .dwtag  DW_TAG_base_type
    1686                    .dwattr $C$DW$T$6, DW_AT_encoding(DW_ATE_unsigned_char)
    1687                    .dwattr $C$DW$T$6, DW_AT_name("unsigned char")
    1688                    .dwattr $C$DW$T$6, DW_AT_byte_size(0x01)
    1689            
    1690            $C$DW$T$22      .dwtag  DW_TAG_typedef
    1691                    .dwattr $C$DW$T$22, DW_AT_name("__uint8_t")
    1692                    .dwattr $C$DW$T$22, DW_AT_type(*$C$DW$T$6)
    1693                    .dwattr $C$DW$T$22, DW_AT_language(DW_LANG_C)
    1694                    .dwattr $C$DW$T$22, DW_AT_decl_file("C:/ti/ccs1110/ccs/tools/compiler/ti-cgt-msp430_21.6.1.LTS
    1695                    .dwattr $C$DW$T$22, DW_AT_decl_line(0x37)
    1696                    .dwattr $C$DW$T$22, DW_AT_decl_column(0x18)
    1697            
    1698            $C$DW$T$40      .dwtag  DW_TAG_typedef
    1699                    .dwattr $C$DW$T$40, DW_AT_name("__sa_family_t")
    1700                    .dwattr $C$DW$T$40, DW_AT_type(*$C$DW$T$22)
    1701                    .dwattr $C$DW$T$40, DW_AT_language(DW_LANG_C)
    1702                    .dwattr $C$DW$T$40, DW_AT_decl_file("C:/ti/ccs1110/ccs/tools/compiler/ti-cgt-msp430_21.6.1.LTS
    1703                    .dwattr $C$DW$T$40, DW_AT_decl_line(0x47)
    1704                    .dwattr $C$DW$T$40, DW_AT_decl_column(0x13)
    1705            
    1706            $C$DW$T$41      .dwtag  DW_TAG_typedef
    1707                    .dwattr $C$DW$T$41, DW_AT_name("__uint_least8_t")
    1708                    .dwattr $C$DW$T$41, DW_AT_type(*$C$DW$T$22)
    1709                    .dwattr $C$DW$T$41, DW_AT_language(DW_LANG_C)
    1710                    .dwattr $C$DW$T$41, DW_AT_decl_file("C:/ti/ccs1110/ccs/tools/compiler/ti-cgt-msp430_21.6.1.LTS
    1711                    .dwattr $C$DW$T$41, DW_AT_decl_line(0x74)
    1712                    .dwattr $C$DW$T$41, DW_AT_decl_column(0x13)
    1713            
    1714            $C$DW$T$42      .dwtag  DW_TAG_typedef
    1715                    .dwattr $C$DW$T$42, DW_AT_name("uint_least8_t")
    1716                    .dwattr $C$DW$T$42, DW_AT_type(*$C$DW$T$41)
    1717                    .dwattr $C$DW$T$42, DW_AT_language(DW_LANG_C)
    1718                    .dwattr $C$DW$T$42, DW_AT_decl_file("C:/ti/ccs1110/ccs/tools/compiler/ti-cgt-msp430_21.6.1.LTS
    1719                    .dwattr $C$DW$T$42, DW_AT_decl_line(0x2f)
    1720                    .dwattr $C$DW$T$42, DW_AT_decl_column(0x1a)
    1721            
    1722            $C$DW$T$23      .dwtag  DW_TAG_typedef
    1723                    .dwattr $C$DW$T$23, DW_AT_name("uint8_t")
    1724                    .dwattr $C$DW$T$23, DW_AT_type(*$C$DW$T$22)
    1725                    .dwattr $C$DW$T$23, DW_AT_language(DW_LANG_C)
    1726                    .dwattr $C$DW$T$23, DW_AT_decl_file("C:/ti/ccs1110/ccs/tools/compiler/ti-cgt-msp430_21.6.1.LTS
MSP430 Assembler PC v21.6.1 Wed Nov 30 16:35:38 2022

Copyright (c) 2003-2018 Texas Instruments Incorporated
eusci_a_uart.asm                                                     PAGE   34

    1727                    .dwattr $C$DW$T$23, DW_AT_decl_line(0x3b)
    1728                    .dwattr $C$DW$T$23, DW_AT_decl_column(0x14)
    1729            
    1730            $C$DW$T$7       .dwtag  DW_TAG_base_type
    1731                    .dwattr $C$DW$T$7, DW_AT_encoding(DW_ATE_signed_char)
    1732                    .dwattr $C$DW$T$7, DW_AT_name("wchar_t")
    1733                    .dwattr $C$DW$T$7, DW_AT_byte_size(0x02)
    1734            
    1735            $C$DW$T$8       .dwtag  DW_TAG_base_type
    1736                    .dwattr $C$DW$T$8, DW_AT_encoding(DW_ATE_signed)
    1737                    .dwattr $C$DW$T$8, DW_AT_name("short")
    1738                    .dwattr $C$DW$T$8, DW_AT_byte_size(0x02)
    1739            
    1740            $C$DW$T$9       .dwtag  DW_TAG_base_type
    1741                    .dwattr $C$DW$T$9, DW_AT_encoding(DW_ATE_unsigned)
    1742                    .dwattr $C$DW$T$9, DW_AT_name("unsigned short")
    1743                    .dwattr $C$DW$T$9, DW_AT_byte_size(0x02)
    1744            
    1745            $C$DW$T$10      .dwtag  DW_TAG_base_type
    1746                    .dwattr $C$DW$T$10, DW_AT_encoding(DW_ATE_signed)
    1747                    .dwattr $C$DW$T$10, DW_AT_name("int")
    1748                    .dwattr $C$DW$T$10, DW_AT_byte_size(0x02)
    1749            
    1750            $C$DW$T$45      .dwtag  DW_TAG_typedef
    1751                    .dwattr $C$DW$T$45, DW_AT_name("_Mbstatet")
    1752                    .dwattr $C$DW$T$45, DW_AT_type(*$C$DW$T$10)
    1753                    .dwattr $C$DW$T$45, DW_AT_language(DW_LANG_C)
    1754                    .dwattr $C$DW$T$45, DW_AT_decl_file("C:/ti/ccs1110/ccs/tools/compiler/ti-cgt-msp430_21.6.1.LTS
    1755                    .dwattr $C$DW$T$45, DW_AT_decl_line(0x8f)
    1756                    .dwattr $C$DW$T$45, DW_AT_decl_column(0x0d)
    1757            
    1758            $C$DW$T$46      .dwtag  DW_TAG_typedef
    1759                    .dwattr $C$DW$T$46, DW_AT_name("__mbstate_t")
    1760                    .dwattr $C$DW$T$46, DW_AT_type(*$C$DW$T$45)
    1761                    .dwattr $C$DW$T$46, DW_AT_language(DW_LANG_C)
    1762                    .dwattr $C$DW$T$46, DW_AT_decl_file("C:/ti/ccs1110/ccs/tools/compiler/ti-cgt-msp430_21.6.1.LTS
    1763                    .dwattr $C$DW$T$46, DW_AT_decl_line(0x92)
    1764                    .dwattr $C$DW$T$46, DW_AT_decl_column(0x13)
    1765            
    1766            $C$DW$T$47      .dwtag  DW_TAG_typedef
    1767                    .dwattr $C$DW$T$47, DW_AT_name("__accmode_t")
    1768                    .dwattr $C$DW$T$47, DW_AT_type(*$C$DW$T$10)
    1769                    .dwattr $C$DW$T$47, DW_AT_language(DW_LANG_C)
    1770                    .dwattr $C$DW$T$47, DW_AT_decl_file("C:/ti/ccs1110/ccs/tools/compiler/ti-cgt-msp430_21.6.1.LTS
    1771                    .dwattr $C$DW$T$47, DW_AT_decl_line(0x3b)
    1772                    .dwattr $C$DW$T$47, DW_AT_decl_column(0x0e)
    1773            
    1774            $C$DW$T$48      .dwtag  DW_TAG_typedef
    1775                    .dwattr $C$DW$T$48, DW_AT_name("__cpulevel_t")
    1776                    .dwattr $C$DW$T$48, DW_AT_type(*$C$DW$T$10)
    1777                    .dwattr $C$DW$T$48, DW_AT_language(DW_LANG_C)
    1778                    .dwattr $C$DW$T$48, DW_AT_decl_file("C:/ti/ccs1110/ccs/tools/compiler/ti-cgt-msp430_21.6.1.LTS
    1779                    .dwattr $C$DW$T$48, DW_AT_decl_line(0x50)
    1780                    .dwattr $C$DW$T$48, DW_AT_decl_column(0x0e)
    1781            
MSP430 Assembler PC v21.6.1 Wed Nov 30 16:35:38 2022

Copyright (c) 2003-2018 Texas Instruments Incorporated
eusci_a_uart.asm                                                     PAGE   35

    1782            $C$DW$T$49      .dwtag  DW_TAG_typedef
    1783                    .dwattr $C$DW$T$49, DW_AT_name("__cpusetid_t")
    1784                    .dwattr $C$DW$T$49, DW_AT_type(*$C$DW$T$10)
    1785                    .dwattr $C$DW$T$49, DW_AT_language(DW_LANG_C)
    1786                    .dwattr $C$DW$T$49, DW_AT_decl_file("C:/ti/ccs1110/ccs/tools/compiler/ti-cgt-msp430_21.6.1.LTS
    1787                    .dwattr $C$DW$T$49, DW_AT_decl_line(0x51)
    1788                    .dwattr $C$DW$T$49, DW_AT_decl_column(0x0e)
    1789            
    1790            $C$DW$T$50      .dwtag  DW_TAG_typedef
    1791                    .dwattr $C$DW$T$50, DW_AT_name("__cpuwhich_t")
    1792                    .dwattr $C$DW$T$50, DW_AT_type(*$C$DW$T$10)
    1793                    .dwattr $C$DW$T$50, DW_AT_language(DW_LANG_C)
    1794                    .dwattr $C$DW$T$50, DW_AT_decl_file("C:/ti/ccs1110/ccs/tools/compiler/ti-cgt-msp430_21.6.1.LTS
    1795                    .dwattr $C$DW$T$50, DW_AT_decl_line(0x4f)
    1796                    .dwattr $C$DW$T$50, DW_AT_decl_column(0x0e)
    1797            
    1798            $C$DW$T$51      .dwtag  DW_TAG_typedef
    1799                    .dwattr $C$DW$T$51, DW_AT_name("__ct_rune_t")
    1800                    .dwattr $C$DW$T$51, DW_AT_type(*$C$DW$T$10)
    1801                    .dwattr $C$DW$T$51, DW_AT_language(DW_LANG_C)
    1802                    .dwattr $C$DW$T$51, DW_AT_decl_file("C:/ti/ccs1110/ccs/tools/compiler/ti-cgt-msp430_21.6.1.LTS
    1803                    .dwattr $C$DW$T$51, DW_AT_decl_line(0x69)
    1804                    .dwattr $C$DW$T$51, DW_AT_decl_column(0x0e)
    1805            
    1806            $C$DW$T$52      .dwtag  DW_TAG_typedef
    1807                    .dwattr $C$DW$T$52, DW_AT_name("__rune_t")
    1808                    .dwattr $C$DW$T$52, DW_AT_type(*$C$DW$T$51)
    1809                    .dwattr $C$DW$T$52, DW_AT_language(DW_LANG_C)
    1810                    .dwattr $C$DW$T$52, DW_AT_decl_file("C:/ti/ccs1110/ccs/tools/compiler/ti-cgt-msp430_21.6.1.LTS
    1811                    .dwattr $C$DW$T$52, DW_AT_decl_line(0x6c)
    1812                    .dwattr $C$DW$T$52, DW_AT_decl_column(0x15)
    1813            
    1814            $C$DW$T$53      .dwtag  DW_TAG_typedef
    1815                    .dwattr $C$DW$T$53, DW_AT_name("__wint_t")
    1816                    .dwattr $C$DW$T$53, DW_AT_type(*$C$DW$T$51)
    1817                    .dwattr $C$DW$T$53, DW_AT_language(DW_LANG_C)
    1818                    .dwattr $C$DW$T$53, DW_AT_decl_file("C:/ti/ccs1110/ccs/tools/compiler/ti-cgt-msp430_21.6.1.LTS
    1819                    .dwattr $C$DW$T$53, DW_AT_decl_line(0x6d)
    1820                    .dwattr $C$DW$T$53, DW_AT_decl_column(0x15)
    1821            
    1822            $C$DW$T$54      .dwtag  DW_TAG_typedef
    1823                    .dwattr $C$DW$T$54, DW_AT_name("__int16_t")
    1824                    .dwattr $C$DW$T$54, DW_AT_type(*$C$DW$T$10)
    1825                    .dwattr $C$DW$T$54, DW_AT_language(DW_LANG_C)
    1826                    .dwattr $C$DW$T$54, DW_AT_decl_file("C:/ti/ccs1110/ccs/tools/compiler/ti-cgt-msp430_21.6.1.LTS
    1827                    .dwattr $C$DW$T$54, DW_AT_decl_line(0x38)
    1828                    .dwattr $C$DW$T$54, DW_AT_decl_column(0x0f)
    1829            
    1830            $C$DW$T$55      .dwtag  DW_TAG_typedef
    1831                    .dwattr $C$DW$T$55, DW_AT_name("__int_fast16_t")
    1832                    .dwattr $C$DW$T$55, DW_AT_type(*$C$DW$T$54)
    1833                    .dwattr $C$DW$T$55, DW_AT_language(DW_LANG_C)
    1834                    .dwattr $C$DW$T$55, DW_AT_decl_file("C:/ti/ccs1110/ccs/tools/compiler/ti-cgt-msp430_21.6.1.LTS
    1835                    .dwattr $C$DW$T$55, DW_AT_decl_line(0x57)
    1836                    .dwattr $C$DW$T$55, DW_AT_decl_column(0x13)
MSP430 Assembler PC v21.6.1 Wed Nov 30 16:35:38 2022

Copyright (c) 2003-2018 Texas Instruments Incorporated
eusci_a_uart.asm                                                     PAGE   36

    1837            
    1838            $C$DW$T$56      .dwtag  DW_TAG_typedef
    1839                    .dwattr $C$DW$T$56, DW_AT_name("int_fast16_t")
    1840                    .dwattr $C$DW$T$56, DW_AT_type(*$C$DW$T$55)
    1841                    .dwattr $C$DW$T$56, DW_AT_language(DW_LANG_C)
    1842                    .dwattr $C$DW$T$56, DW_AT_decl_file("C:/ti/ccs1110/ccs/tools/compiler/ti-cgt-msp430_21.6.1.LTS
    1843                    .dwattr $C$DW$T$56, DW_AT_decl_line(0x35)
    1844                    .dwattr $C$DW$T$56, DW_AT_decl_column(0x19)
    1845            
    1846            $C$DW$T$57      .dwtag  DW_TAG_typedef
    1847                    .dwattr $C$DW$T$57, DW_AT_name("__int_fast8_t")
    1848                    .dwattr $C$DW$T$57, DW_AT_type(*$C$DW$T$54)
    1849                    .dwattr $C$DW$T$57, DW_AT_language(DW_LANG_C)
    1850                    .dwattr $C$DW$T$57, DW_AT_decl_file("C:/ti/ccs1110/ccs/tools/compiler/ti-cgt-msp430_21.6.1.LTS
    1851                    .dwattr $C$DW$T$57, DW_AT_decl_line(0x56)
    1852                    .dwattr $C$DW$T$57, DW_AT_decl_column(0x13)
    1853            
    1854            $C$DW$T$58      .dwtag  DW_TAG_typedef
    1855                    .dwattr $C$DW$T$58, DW_AT_name("int_fast8_t")
    1856                    .dwattr $C$DW$T$58, DW_AT_type(*$C$DW$T$57)
    1857                    .dwattr $C$DW$T$58, DW_AT_language(DW_LANG_C)
    1858                    .dwattr $C$DW$T$58, DW_AT_decl_file("C:/ti/ccs1110/ccs/tools/compiler/ti-cgt-msp430_21.6.1.LTS
    1859                    .dwattr $C$DW$T$58, DW_AT_decl_line(0x34)
    1860                    .dwattr $C$DW$T$58, DW_AT_decl_column(0x18)
    1861            
    1862            $C$DW$T$59      .dwtag  DW_TAG_typedef
    1863                    .dwattr $C$DW$T$59, DW_AT_name("__int_least16_t")
    1864                    .dwattr $C$DW$T$59, DW_AT_type(*$C$DW$T$54)
    1865                    .dwattr $C$DW$T$59, DW_AT_language(DW_LANG_C)
    1866                    .dwattr $C$DW$T$59, DW_AT_decl_file("C:/ti/ccs1110/ccs/tools/compiler/ti-cgt-msp430_21.6.1.LTS
    1867                    .dwattr $C$DW$T$59, DW_AT_decl_line(0x5b)
    1868                    .dwattr $C$DW$T$59, DW_AT_decl_column(0x13)
    1869            
    1870            $C$DW$T$60      .dwtag  DW_TAG_typedef
    1871                    .dwattr $C$DW$T$60, DW_AT_name("int_least16_t")
    1872                    .dwattr $C$DW$T$60, DW_AT_type(*$C$DW$T$59)
    1873                    .dwattr $C$DW$T$60, DW_AT_language(DW_LANG_C)
    1874                    .dwattr $C$DW$T$60, DW_AT_decl_file("C:/ti/ccs1110/ccs/tools/compiler/ti-cgt-msp430_21.6.1.LTS
    1875                    .dwattr $C$DW$T$60, DW_AT_decl_line(0x2b)
    1876                    .dwattr $C$DW$T$60, DW_AT_decl_column(0x1a)
    1877            
    1878            $C$DW$T$61      .dwtag  DW_TAG_typedef
    1879                    .dwattr $C$DW$T$61, DW_AT_name("__register_t")
    1880                    .dwattr $C$DW$T$61, DW_AT_type(*$C$DW$T$54)
    1881                    .dwattr $C$DW$T$61, DW_AT_language(DW_LANG_C)
    1882                    .dwattr $C$DW$T$61, DW_AT_decl_file("C:/ti/ccs1110/ccs/tools/compiler/ti-cgt-msp430_21.6.1.LTS
    1883                    .dwattr $C$DW$T$61, DW_AT_decl_line(0x5f)
    1884                    .dwattr $C$DW$T$61, DW_AT_decl_column(0x13)
    1885            
    1886            $C$DW$T$62      .dwtag  DW_TAG_typedef
    1887                    .dwattr $C$DW$T$62, DW_AT_name("int16_t")
    1888                    .dwattr $C$DW$T$62, DW_AT_type(*$C$DW$T$54)
    1889                    .dwattr $C$DW$T$62, DW_AT_language(DW_LANG_C)
    1890                    .dwattr $C$DW$T$62, DW_AT_decl_file("C:/ti/ccs1110/ccs/tools/compiler/ti-cgt-msp430_21.6.1.LTS
    1891                    .dwattr $C$DW$T$62, DW_AT_decl_line(0x2b)
MSP430 Assembler PC v21.6.1 Wed Nov 30 16:35:38 2022

Copyright (c) 2003-2018 Texas Instruments Incorporated
eusci_a_uart.asm                                                     PAGE   37

    1892                    .dwattr $C$DW$T$62, DW_AT_decl_column(0x14)
    1893            
    1894            $C$DW$T$63      .dwtag  DW_TAG_typedef
    1895                    .dwattr $C$DW$T$63, DW_AT_name("__nl_item")
    1896                    .dwattr $C$DW$T$63, DW_AT_type(*$C$DW$T$10)
    1897                    .dwattr $C$DW$T$63, DW_AT_language(DW_LANG_C)
    1898                    .dwattr $C$DW$T$63, DW_AT_decl_file("C:/ti/ccs1110/ccs/tools/compiler/ti-cgt-msp430_21.6.1.LTS
    1899                    .dwattr $C$DW$T$63, DW_AT_decl_line(0x3c)
    1900                    .dwattr $C$DW$T$63, DW_AT_decl_column(0x0e)
    1901            
    1902            $C$DW$T$64      .dwtag  DW_TAG_typedef
    1903                    .dwattr $C$DW$T$64, DW_AT_name("__ptrdiff_t")
    1904                    .dwattr $C$DW$T$64, DW_AT_type(*$C$DW$T$10)
    1905                    .dwattr $C$DW$T$64, DW_AT_language(DW_LANG_C)
    1906                    .dwattr $C$DW$T$64, DW_AT_decl_file("C:/ti/ccs1110/ccs/tools/compiler/ti-cgt-msp430_21.6.1.LTS
    1907                    .dwattr $C$DW$T$64, DW_AT_decl_line(0x5e)
    1908                    .dwattr $C$DW$T$64, DW_AT_decl_column(0x1c)
    1909            
    1910            $C$DW$T$11      .dwtag  DW_TAG_base_type
    1911                    .dwattr $C$DW$T$11, DW_AT_encoding(DW_ATE_unsigned)
    1912                    .dwattr $C$DW$T$11, DW_AT_name("unsigned int")
    1913                    .dwattr $C$DW$T$11, DW_AT_byte_size(0x02)
    1914            
    1915            $C$DW$T$65      .dwtag  DW_TAG_typedef
    1916                    .dwattr $C$DW$T$65, DW_AT_name("___wchar_t")
    1917                    .dwattr $C$DW$T$65, DW_AT_type(*$C$DW$T$11)
    1918                    .dwattr $C$DW$T$65, DW_AT_language(DW_LANG_C)
    1919                    .dwattr $C$DW$T$65, DW_AT_decl_file("C:/ti/ccs1110/ccs/tools/compiler/ti-cgt-msp430_21.6.1.LTS
    1920                    .dwattr $C$DW$T$65, DW_AT_decl_line(0x7d)
    1921                    .dwattr $C$DW$T$65, DW_AT_decl_column(0x1a)
    1922            
    1923            $C$DW$T$66      .dwtag  DW_TAG_typedef
    1924                    .dwattr $C$DW$T$66, DW_AT_name("__size_t")
    1925                    .dwattr $C$DW$T$66, DW_AT_type(*$C$DW$T$11)
    1926                    .dwattr $C$DW$T$66, DW_AT_language(DW_LANG_C)
    1927                    .dwattr $C$DW$T$66, DW_AT_decl_file("C:/ti/ccs1110/ccs/tools/compiler/ti-cgt-msp430_21.6.1.LTS
    1928                    .dwattr $C$DW$T$66, DW_AT_decl_line(0x61)
    1929                    .dwattr $C$DW$T$66, DW_AT_decl_column(0x19)
    1930            
    1931            $C$DW$T$24      .dwtag  DW_TAG_typedef
    1932                    .dwattr $C$DW$T$24, DW_AT_name("__uint16_t")
    1933                    .dwattr $C$DW$T$24, DW_AT_type(*$C$DW$T$11)
    1934                    .dwattr $C$DW$T$24, DW_AT_language(DW_LANG_C)
    1935                    .dwattr $C$DW$T$24, DW_AT_decl_file("C:/ti/ccs1110/ccs/tools/compiler/ti-cgt-msp430_21.6.1.LTS
    1936                    .dwattr $C$DW$T$24, DW_AT_decl_line(0x39)
    1937                    .dwattr $C$DW$T$24, DW_AT_decl_column(0x17)
    1938            
    1939            $C$DW$T$67      .dwtag  DW_TAG_typedef
    1940                    .dwattr $C$DW$T$67, DW_AT_name("__mode_t")
    1941                    .dwattr $C$DW$T$67, DW_AT_type(*$C$DW$T$24)
    1942                    .dwattr $C$DW$T$67, DW_AT_language(DW_LANG_C)
    1943                    .dwattr $C$DW$T$67, DW_AT_decl_file("C:/ti/ccs1110/ccs/tools/compiler/ti-cgt-msp430_21.6.1.LTS
    1944                    .dwattr $C$DW$T$67, DW_AT_decl_line(0x3a)
    1945                    .dwattr $C$DW$T$67, DW_AT_decl_column(0x14)
    1946            
MSP430 Assembler PC v21.6.1 Wed Nov 30 16:35:38 2022

Copyright (c) 2003-2018 Texas Instruments Incorporated
eusci_a_uart.asm                                                     PAGE   38

    1947            $C$DW$T$68      .dwtag  DW_TAG_typedef
    1948                    .dwattr $C$DW$T$68, DW_AT_name("__u_register_t")
    1949                    .dwattr $C$DW$T$68, DW_AT_type(*$C$DW$T$24)
    1950                    .dwattr $C$DW$T$68, DW_AT_language(DW_LANG_C)
    1951                    .dwattr $C$DW$T$68, DW_AT_decl_file("C:/ti/ccs1110/ccs/tools/compiler/ti-cgt-msp430_21.6.1.LTS
    1952                    .dwattr $C$DW$T$68, DW_AT_decl_line(0x78)
    1953                    .dwattr $C$DW$T$68, DW_AT_decl_column(0x14)
    1954            
    1955            $C$DW$T$69      .dwtag  DW_TAG_typedef
    1956                    .dwattr $C$DW$T$69, DW_AT_name("__uint_fast16_t")
    1957                    .dwattr $C$DW$T$69, DW_AT_type(*$C$DW$T$24)
    1958                    .dwattr $C$DW$T$69, DW_AT_language(DW_LANG_C)
    1959                    .dwattr $C$DW$T$69, DW_AT_decl_file("C:/ti/ccs1110/ccs/tools/compiler/ti-cgt-msp430_21.6.1.LTS
    1960                    .dwattr $C$DW$T$69, DW_AT_decl_line(0x71)
    1961                    .dwattr $C$DW$T$69, DW_AT_decl_column(0x14)
    1962            
    1963            $C$DW$T$70      .dwtag  DW_TAG_typedef
    1964                    .dwattr $C$DW$T$70, DW_AT_name("uint_fast16_t")
    1965                    .dwattr $C$DW$T$70, DW_AT_type(*$C$DW$T$69)
    1966                    .dwattr $C$DW$T$70, DW_AT_language(DW_LANG_C)
    1967                    .dwattr $C$DW$T$70, DW_AT_decl_file("C:/ti/ccs1110/ccs/tools/compiler/ti-cgt-msp430_21.6.1.LTS
    1968                    .dwattr $C$DW$T$70, DW_AT_decl_line(0x3a)
    1969                    .dwattr $C$DW$T$70, DW_AT_decl_column(0x1a)
    1970            
    1971            $C$DW$T$71      .dwtag  DW_TAG_typedef
    1972                    .dwattr $C$DW$T$71, DW_AT_name("__uint_fast8_t")
    1973                    .dwattr $C$DW$T$71, DW_AT_type(*$C$DW$T$24)
    1974                    .dwattr $C$DW$T$71, DW_AT_language(DW_LANG_C)
    1975                    .dwattr $C$DW$T$71, DW_AT_decl_file("C:/ti/ccs1110/ccs/tools/compiler/ti-cgt-msp430_21.6.1.LTS
    1976                    .dwattr $C$DW$T$71, DW_AT_decl_line(0x70)
    1977                    .dwattr $C$DW$T$71, DW_AT_decl_column(0x14)
    1978            
    1979            $C$DW$T$72      .dwtag  DW_TAG_typedef
    1980                    .dwattr $C$DW$T$72, DW_AT_name("uint_fast8_t")
    1981                    .dwattr $C$DW$T$72, DW_AT_type(*$C$DW$T$71)
    1982                    .dwattr $C$DW$T$72, DW_AT_language(DW_LANG_C)
    1983                    .dwattr $C$DW$T$72, DW_AT_decl_file("C:/ti/ccs1110/ccs/tools/compiler/ti-cgt-msp430_21.6.1.LTS
    1984                    .dwattr $C$DW$T$72, DW_AT_decl_line(0x39)
    1985                    .dwattr $C$DW$T$72, DW_AT_decl_column(0x19)
    1986            
    1987            $C$DW$T$73      .dwtag  DW_TAG_typedef
    1988                    .dwattr $C$DW$T$73, DW_AT_name("__uint_least16_t")
    1989                    .dwattr $C$DW$T$73, DW_AT_type(*$C$DW$T$24)
    1990                    .dwattr $C$DW$T$73, DW_AT_language(DW_LANG_C)
    1991                    .dwattr $C$DW$T$73, DW_AT_decl_file("C:/ti/ccs1110/ccs/tools/compiler/ti-cgt-msp430_21.6.1.LTS
    1992                    .dwattr $C$DW$T$73, DW_AT_decl_line(0x75)
    1993                    .dwattr $C$DW$T$73, DW_AT_decl_column(0x14)
    1994            
    1995            $C$DW$T$74      .dwtag  DW_TAG_typedef
    1996                    .dwattr $C$DW$T$74, DW_AT_name("__char16_t")
    1997                    .dwattr $C$DW$T$74, DW_AT_type(*$C$DW$T$73)
    1998                    .dwattr $C$DW$T$74, DW_AT_language(DW_LANG_C)
    1999                    .dwattr $C$DW$T$74, DW_AT_decl_file("C:/ti/ccs1110/ccs/tools/compiler/ti-cgt-msp430_21.6.1.LTS
    2000                    .dwattr $C$DW$T$74, DW_AT_decl_line(0x71)
    2001                    .dwattr $C$DW$T$74, DW_AT_decl_column(0x1a)
MSP430 Assembler PC v21.6.1 Wed Nov 30 16:35:38 2022

Copyright (c) 2003-2018 Texas Instruments Incorporated
eusci_a_uart.asm                                                     PAGE   39

    2002            
    2003            $C$DW$T$75      .dwtag  DW_TAG_typedef
    2004                    .dwattr $C$DW$T$75, DW_AT_name("uint_least16_t")
    2005                    .dwattr $C$DW$T$75, DW_AT_type(*$C$DW$T$73)
    2006                    .dwattr $C$DW$T$75, DW_AT_language(DW_LANG_C)
    2007                    .dwattr $C$DW$T$75, DW_AT_decl_file("C:/ti/ccs1110/ccs/tools/compiler/ti-cgt-msp430_21.6.1.LTS
    2008                    .dwattr $C$DW$T$75, DW_AT_decl_line(0x30)
    2009                    .dwattr $C$DW$T$75, DW_AT_decl_column(0x1a)
    2010            
    2011            $C$DW$T$25      .dwtag  DW_TAG_typedef
    2012                    .dwattr $C$DW$T$25, DW_AT_name("uint16_t")
    2013                    .dwattr $C$DW$T$25, DW_AT_type(*$C$DW$T$24)
    2014                    .dwattr $C$DW$T$25, DW_AT_language(DW_LANG_C)
    2015                    .dwattr $C$DW$T$25, DW_AT_decl_file("C:/ti/ccs1110/ccs/tools/compiler/ti-cgt-msp430_21.6.1.LTS
    2016                    .dwattr $C$DW$T$25, DW_AT_decl_line(0x41)
    2017                    .dwattr $C$DW$T$25, DW_AT_decl_column(0x15)
    2018            
    2019            $C$DW$T$78      .dwtag  DW_TAG_typedef
    2020                    .dwattr $C$DW$T$78, DW_AT_name("__useconds_t")
    2021                    .dwattr $C$DW$T$78, DW_AT_type(*$C$DW$T$11)
    2022                    .dwattr $C$DW$T$78, DW_AT_language(DW_LANG_C)
    2023                    .dwattr $C$DW$T$78, DW_AT_decl_file("C:/ti/ccs1110/ccs/tools/compiler/ti-cgt-msp430_21.6.1.LTS
    2024                    .dwattr $C$DW$T$78, DW_AT_decl_line(0x4e)
    2025                    .dwattr $C$DW$T$78, DW_AT_decl_column(0x16)
    2026            
    2027            $C$DW$T$12      .dwtag  DW_TAG_base_type
    2028                    .dwattr $C$DW$T$12, DW_AT_encoding(DW_ATE_signed)
    2029                    .dwattr $C$DW$T$12, DW_AT_name("long")
    2030                    .dwattr $C$DW$T$12, DW_AT_byte_size(0x04)
    2031            
    2032            $C$DW$T$79      .dwtag  DW_TAG_typedef
    2033                    .dwattr $C$DW$T$79, DW_AT_name("__int32_t")
    2034                    .dwattr $C$DW$T$79, DW_AT_type(*$C$DW$T$12)
    2035                    .dwattr $C$DW$T$79, DW_AT_language(DW_LANG_C)
    2036                    .dwattr $C$DW$T$79, DW_AT_decl_file("C:/ti/ccs1110/ccs/tools/compiler/ti-cgt-msp430_21.6.1.LTS
    2037                    .dwattr $C$DW$T$79, DW_AT_decl_line(0x3a)
    2038                    .dwattr $C$DW$T$79, DW_AT_decl_column(0x10)
    2039            
    2040            $C$DW$T$80      .dwtag  DW_TAG_typedef
    2041                    .dwattr $C$DW$T$80, DW_AT_name("__blksize_t")
    2042                    .dwattr $C$DW$T$80, DW_AT_type(*$C$DW$T$79)
    2043                    .dwattr $C$DW$T$80, DW_AT_language(DW_LANG_C)
    2044                    .dwattr $C$DW$T$80, DW_AT_decl_file("C:/ti/ccs1110/ccs/tools/compiler/ti-cgt-msp430_21.6.1.LTS
    2045                    .dwattr $C$DW$T$80, DW_AT_decl_line(0x2f)
    2046                    .dwattr $C$DW$T$80, DW_AT_decl_column(0x13)
    2047            
    2048            $C$DW$T$81      .dwtag  DW_TAG_typedef
    2049                    .dwattr $C$DW$T$81, DW_AT_name("__clockid_t")
    2050                    .dwattr $C$DW$T$81, DW_AT_type(*$C$DW$T$79)
    2051                    .dwattr $C$DW$T$81, DW_AT_language(DW_LANG_C)
    2052                    .dwattr $C$DW$T$81, DW_AT_decl_file("C:/ti/ccs1110/ccs/tools/compiler/ti-cgt-msp430_21.6.1.LTS
    2053                    .dwattr $C$DW$T$81, DW_AT_decl_line(0x31)
    2054                    .dwattr $C$DW$T$81, DW_AT_decl_column(0x13)
    2055            
    2056            $C$DW$T$82      .dwtag  DW_TAG_typedef
MSP430 Assembler PC v21.6.1 Wed Nov 30 16:35:38 2022

Copyright (c) 2003-2018 Texas Instruments Incorporated
eusci_a_uart.asm                                                     PAGE   40

    2057                    .dwattr $C$DW$T$82, DW_AT_name("__critical_t")
    2058                    .dwattr $C$DW$T$82, DW_AT_type(*$C$DW$T$79)
    2059                    .dwattr $C$DW$T$82, DW_AT_language(DW_LANG_C)
    2060                    .dwattr $C$DW$T$82, DW_AT_decl_file("C:/ti/ccs1110/ccs/tools/compiler/ti-cgt-msp430_21.6.1.LTS
    2061                    .dwattr $C$DW$T$82, DW_AT_decl_line(0x4b)
    2062                    .dwattr $C$DW$T$82, DW_AT_decl_column(0x13)
    2063            
    2064            $C$DW$T$83      .dwtag  DW_TAG_typedef
    2065                    .dwattr $C$DW$T$83, DW_AT_name("__int_fast32_t")
    2066                    .dwattr $C$DW$T$83, DW_AT_type(*$C$DW$T$79)
    2067                    .dwattr $C$DW$T$83, DW_AT_language(DW_LANG_C)
    2068                    .dwattr $C$DW$T$83, DW_AT_decl_file("C:/ti/ccs1110/ccs/tools/compiler/ti-cgt-msp430_21.6.1.LTS
    2069                    .dwattr $C$DW$T$83, DW_AT_decl_line(0x58)
    2070                    .dwattr $C$DW$T$83, DW_AT_decl_column(0x13)
    2071            
    2072            $C$DW$T$84      .dwtag  DW_TAG_typedef
    2073                    .dwattr $C$DW$T$84, DW_AT_name("int_fast32_t")
    2074                    .dwattr $C$DW$T$84, DW_AT_type(*$C$DW$T$83)
    2075                    .dwattr $C$DW$T$84, DW_AT_language(DW_LANG_C)
    2076                    .dwattr $C$DW$T$84, DW_AT_decl_file("C:/ti/ccs1110/ccs/tools/compiler/ti-cgt-msp430_21.6.1.LTS
    2077                    .dwattr $C$DW$T$84, DW_AT_decl_line(0x36)
    2078                    .dwattr $C$DW$T$84, DW_AT_decl_column(0x19)
    2079            
    2080            $C$DW$T$85      .dwtag  DW_TAG_typedef
    2081                    .dwattr $C$DW$T$85, DW_AT_name("__int_least32_t")
    2082                    .dwattr $C$DW$T$85, DW_AT_type(*$C$DW$T$79)
    2083                    .dwattr $C$DW$T$85, DW_AT_language(DW_LANG_C)
    2084                    .dwattr $C$DW$T$85, DW_AT_decl_file("C:/ti/ccs1110/ccs/tools/compiler/ti-cgt-msp430_21.6.1.LTS
    2085                    .dwattr $C$DW$T$85, DW_AT_decl_line(0x5c)
    2086                    .dwattr $C$DW$T$85, DW_AT_decl_column(0x13)
    2087            
    2088            $C$DW$T$86      .dwtag  DW_TAG_typedef
    2089                    .dwattr $C$DW$T$86, DW_AT_name("int_least32_t")
    2090                    .dwattr $C$DW$T$86, DW_AT_type(*$C$DW$T$85)
    2091                    .dwattr $C$DW$T$86, DW_AT_language(DW_LANG_C)
    2092                    .dwattr $C$DW$T$86, DW_AT_decl_file("C:/ti/ccs1110/ccs/tools/compiler/ti-cgt-msp430_21.6.1.LTS
    2093                    .dwattr $C$DW$T$86, DW_AT_decl_line(0x2c)
    2094                    .dwattr $C$DW$T$86, DW_AT_decl_column(0x1a)
    2095            
    2096            $C$DW$T$87      .dwtag  DW_TAG_typedef
    2097                    .dwattr $C$DW$T$87, DW_AT_name("__intfptr_t")
    2098                    .dwattr $C$DW$T$87, DW_AT_type(*$C$DW$T$79)
    2099                    .dwattr $C$DW$T$87, DW_AT_language(DW_LANG_C)
    2100                    .dwattr $C$DW$T$87, DW_AT_decl_file("C:/ti/ccs1110/ccs/tools/compiler/ti-cgt-msp430_21.6.1.LTS
    2101                    .dwattr $C$DW$T$87, DW_AT_decl_line(0x4e)
    2102                    .dwattr $C$DW$T$87, DW_AT_decl_column(0x13)
    2103            
    2104            $C$DW$T$88      .dwtag  DW_TAG_typedef
    2105                    .dwattr $C$DW$T$88, DW_AT_name("__intptr_t")
    2106                    .dwattr $C$DW$T$88, DW_AT_type(*$C$DW$T$79)
    2107                    .dwattr $C$DW$T$88, DW_AT_language(DW_LANG_C)
    2108                    .dwattr $C$DW$T$88, DW_AT_decl_file("C:/ti/ccs1110/ccs/tools/compiler/ti-cgt-msp430_21.6.1.LTS
    2109                    .dwattr $C$DW$T$88, DW_AT_decl_line(0x51)
    2110                    .dwattr $C$DW$T$88, DW_AT_decl_column(0x13)
    2111            
MSP430 Assembler PC v21.6.1 Wed Nov 30 16:35:38 2022

Copyright (c) 2003-2018 Texas Instruments Incorporated
eusci_a_uart.asm                                                     PAGE   41

    2112            $C$DW$T$89      .dwtag  DW_TAG_typedef
    2113                    .dwattr $C$DW$T$89, DW_AT_name("intptr_t")
    2114                    .dwattr $C$DW$T$89, DW_AT_type(*$C$DW$T$88)
    2115                    .dwattr $C$DW$T$89, DW_AT_language(DW_LANG_C)
    2116                    .dwattr $C$DW$T$89, DW_AT_decl_file("C:/ti/ccs1110/ccs/tools/compiler/ti-cgt-msp430_21.6.1.LTS
    2117                    .dwattr $C$DW$T$89, DW_AT_decl_line(0x50)
    2118                    .dwattr $C$DW$T$89, DW_AT_decl_column(0x15)
    2119            
    2120            $C$DW$T$90      .dwtag  DW_TAG_typedef
    2121                    .dwattr $C$DW$T$90, DW_AT_name("__lwpid_t")
    2122                    .dwattr $C$DW$T$90, DW_AT_type(*$C$DW$T$79)
    2123                    .dwattr $C$DW$T$90, DW_AT_language(DW_LANG_C)
    2124                    .dwattr $C$DW$T$90, DW_AT_decl_file("C:/ti/ccs1110/ccs/tools/compiler/ti-cgt-msp430_21.6.1.LTS
    2125                    .dwattr $C$DW$T$90, DW_AT_decl_line(0x39)
    2126                    .dwattr $C$DW$T$90, DW_AT_decl_column(0x13)
    2127            
    2128            $C$DW$T$91      .dwtag  DW_TAG_typedef
    2129                    .dwattr $C$DW$T$91, DW_AT_name("__pid_t")
    2130                    .dwattr $C$DW$T$91, DW_AT_type(*$C$DW$T$79)
    2131                    .dwattr $C$DW$T$91, DW_AT_language(DW_LANG_C)
    2132                    .dwattr $C$DW$T$91, DW_AT_decl_file("C:/ti/ccs1110/ccs/tools/compiler/ti-cgt-msp430_21.6.1.LTS
    2133                    .dwattr $C$DW$T$91, DW_AT_decl_line(0x40)
    2134                    .dwattr $C$DW$T$91, DW_AT_decl_column(0x13)
    2135            
    2136            $C$DW$T$92      .dwtag  DW_TAG_typedef
    2137                    .dwattr $C$DW$T$92, DW_AT_name("__segsz_t")
    2138                    .dwattr $C$DW$T$92, DW_AT_type(*$C$DW$T$79)
    2139                    .dwattr $C$DW$T$92, DW_AT_language(DW_LANG_C)
    2140                    .dwattr $C$DW$T$92, DW_AT_decl_file("C:/ti/ccs1110/ccs/tools/compiler/ti-cgt-msp430_21.6.1.LTS
    2141                    .dwattr $C$DW$T$92, DW_AT_decl_line(0x60)
    2142                    .dwattr $C$DW$T$92, DW_AT_decl_column(0x13)
    2143            
    2144            $C$DW$T$93      .dwtag  DW_TAG_typedef
    2145                    .dwattr $C$DW$T$93, DW_AT_name("__ssize_t")
    2146                    .dwattr $C$DW$T$93, DW_AT_type(*$C$DW$T$79)
    2147                    .dwattr $C$DW$T$93, DW_AT_language(DW_LANG_C)
    2148                    .dwattr $C$DW$T$93, DW_AT_decl_file("C:/ti/ccs1110/ccs/tools/compiler/ti-cgt-msp430_21.6.1.LTS
    2149                    .dwattr $C$DW$T$93, DW_AT_decl_line(0x62)
    2150                    .dwattr $C$DW$T$93, DW_AT_decl_column(0x13)
    2151            
    2152            $C$DW$T$94      .dwtag  DW_TAG_typedef
    2153                    .dwattr $C$DW$T$94, DW_AT_name("int32_t")
    2154                    .dwattr $C$DW$T$94, DW_AT_type(*$C$DW$T$79)
    2155                    .dwattr $C$DW$T$94, DW_AT_language(DW_LANG_C)
    2156                    .dwattr $C$DW$T$94, DW_AT_decl_file("C:/ti/ccs1110/ccs/tools/compiler/ti-cgt-msp430_21.6.1.LTS
    2157                    .dwattr $C$DW$T$94, DW_AT_decl_line(0x30)
    2158                    .dwattr $C$DW$T$94, DW_AT_decl_column(0x14)
    2159            
    2160            $C$DW$T$95      .dwtag  DW_TAG_typedef
    2161                    .dwattr $C$DW$T$95, DW_AT_name("__key_t")
    2162                    .dwattr $C$DW$T$95, DW_AT_type(*$C$DW$T$12)
    2163                    .dwattr $C$DW$T$95, DW_AT_language(DW_LANG_C)
    2164                    .dwattr $C$DW$T$95, DW_AT_decl_file("C:/ti/ccs1110/ccs/tools/compiler/ti-cgt-msp430_21.6.1.LTS
    2165                    .dwattr $C$DW$T$95, DW_AT_decl_line(0x38)
    2166                    .dwattr $C$DW$T$95, DW_AT_decl_column(0x0f)
MSP430 Assembler PC v21.6.1 Wed Nov 30 16:35:38 2022

Copyright (c) 2003-2018 Texas Instruments Incorporated
eusci_a_uart.asm                                                     PAGE   42

    2167            
    2168            $C$DW$T$96      .dwtag  DW_TAG_typedef
    2169                    .dwattr $C$DW$T$96, DW_AT_name("__suseconds_t")
    2170                    .dwattr $C$DW$T$96, DW_AT_type(*$C$DW$T$12)
    2171                    .dwattr $C$DW$T$96, DW_AT_language(DW_LANG_C)
    2172                    .dwattr $C$DW$T$96, DW_AT_decl_file("C:/ti/ccs1110/ccs/tools/compiler/ti-cgt-msp430_21.6.1.LTS
    2173                    .dwattr $C$DW$T$96, DW_AT_decl_line(0x4a)
    2174                    .dwattr $C$DW$T$96, DW_AT_decl_column(0x0f)
    2175            
    2176            $C$DW$T$97      .dwtag  DW_TAG_typedef
    2177                    .dwattr $C$DW$T$97, DW_AT_name("_off_t")
    2178                    .dwattr $C$DW$T$97, DW_AT_type(*$C$DW$T$12)
    2179                    .dwattr $C$DW$T$97, DW_AT_language(DW_LANG_C)
    2180                    .dwattr $C$DW$T$97, DW_AT_decl_file("C:/ti/ccs1110/ccs/tools/compiler/ti-cgt-msp430_21.6.1.LTS
    2181                    .dwattr $C$DW$T$97, DW_AT_decl_line(0x8d)
    2182                    .dwattr $C$DW$T$97, DW_AT_decl_column(0x12)
    2183            
    2184            $C$DW$T$98      .dwtag  DW_TAG_typedef
    2185                    .dwattr $C$DW$T$98, DW_AT_name("__off_t")
    2186                    .dwattr $C$DW$T$98, DW_AT_type(*$C$DW$T$97)
    2187                    .dwattr $C$DW$T$98, DW_AT_language(DW_LANG_C)
    2188                    .dwattr $C$DW$T$98, DW_AT_decl_file("C:/ti/ccs1110/ccs/tools/compiler/ti-cgt-msp430_21.6.1.LTS
    2189                    .dwattr $C$DW$T$98, DW_AT_decl_line(0x3e)
    2190                    .dwattr $C$DW$T$98, DW_AT_decl_column(0x18)
    2191            
    2192            $C$DW$T$13      .dwtag  DW_TAG_base_type
    2193                    .dwattr $C$DW$T$13, DW_AT_encoding(DW_ATE_unsigned)
    2194                    .dwattr $C$DW$T$13, DW_AT_name("unsigned long")
    2195                    .dwattr $C$DW$T$13, DW_AT_byte_size(0x04)
    2196            
    2197            $C$DW$T$99      .dwtag  DW_TAG_typedef
    2198                    .dwattr $C$DW$T$99, DW_AT_name("__uint32_t")
    2199                    .dwattr $C$DW$T$99, DW_AT_type(*$C$DW$T$13)
    2200                    .dwattr $C$DW$T$99, DW_AT_language(DW_LANG_C)
    2201                    .dwattr $C$DW$T$99, DW_AT_decl_file("C:/ti/ccs1110/ccs/tools/compiler/ti-cgt-msp430_21.6.1.LTS
    2202                    .dwattr $C$DW$T$99, DW_AT_decl_line(0x3b)
    2203                    .dwattr $C$DW$T$99, DW_AT_decl_column(0x18)
    2204            
    2205            $C$DW$T$100     .dwtag  DW_TAG_typedef
    2206                    .dwattr $C$DW$T$100, DW_AT_name("__clock_t")
    2207                    .dwattr $C$DW$T$100, DW_AT_type(*$C$DW$T$99)
    2208                    .dwattr $C$DW$T$100, DW_AT_language(DW_LANG_C)
    2209                    .dwattr $C$DW$T$100, DW_AT_decl_file("C:/ti/ccs1110/ccs/tools/compiler/ti-cgt-msp430_21.6.1.LT
    2210                    .dwattr $C$DW$T$100, DW_AT_decl_line(0x4a)
    2211                    .dwattr $C$DW$T$100, DW_AT_decl_column(0x14)
    2212            
    2213            $C$DW$T$101     .dwtag  DW_TAG_typedef
    2214                    .dwattr $C$DW$T$101, DW_AT_name("__fflags_t")
    2215                    .dwattr $C$DW$T$101, DW_AT_type(*$C$DW$T$99)
    2216                    .dwattr $C$DW$T$101, DW_AT_language(DW_LANG_C)
    2217                    .dwattr $C$DW$T$101, DW_AT_decl_file("C:/ti/ccs1110/ccs/tools/compiler/ti-cgt-msp430_21.6.1.LT
    2218                    .dwattr $C$DW$T$101, DW_AT_decl_line(0x32)
    2219                    .dwattr $C$DW$T$101, DW_AT_decl_column(0x14)
    2220            
    2221            $C$DW$T$102     .dwtag  DW_TAG_typedef
MSP430 Assembler PC v21.6.1 Wed Nov 30 16:35:38 2022

Copyright (c) 2003-2018 Texas Instruments Incorporated
eusci_a_uart.asm                                                     PAGE   43

    2222                    .dwattr $C$DW$T$102, DW_AT_name("__fixpt_t")
    2223                    .dwattr $C$DW$T$102, DW_AT_type(*$C$DW$T$99)
    2224                    .dwattr $C$DW$T$102, DW_AT_language(DW_LANG_C)
    2225                    .dwattr $C$DW$T$102, DW_AT_decl_file("C:/ti/ccs1110/ccs/tools/compiler/ti-cgt-msp430_21.6.1.LT
    2226                    .dwattr $C$DW$T$102, DW_AT_decl_line(0x81)
    2227                    .dwattr $C$DW$T$102, DW_AT_decl_column(0x14)
    2228            
    2229            $C$DW$T$103     .dwtag  DW_TAG_typedef
    2230                    .dwattr $C$DW$T$103, DW_AT_name("__gid_t")
    2231                    .dwattr $C$DW$T$103, DW_AT_type(*$C$DW$T$99)
    2232                    .dwattr $C$DW$T$103, DW_AT_language(DW_LANG_C)
    2233                    .dwattr $C$DW$T$103, DW_AT_decl_file("C:/ti/ccs1110/ccs/tools/compiler/ti-cgt-msp430_21.6.1.LT
    2234                    .dwattr $C$DW$T$103, DW_AT_decl_line(0x35)
    2235                    .dwattr $C$DW$T$103, DW_AT_decl_column(0x14)
    2236            
    2237            $C$DW$T$104     .dwtag  DW_TAG_typedef
    2238                    .dwattr $C$DW$T$104, DW_AT_name("__socklen_t")
    2239                    .dwattr $C$DW$T$104, DW_AT_type(*$C$DW$T$99)
    2240                    .dwattr $C$DW$T$104, DW_AT_language(DW_LANG_C)
    2241                    .dwattr $C$DW$T$104, DW_AT_decl_file("C:/ti/ccs1110/ccs/tools/compiler/ti-cgt-msp430_21.6.1.LT
    2242                    .dwattr $C$DW$T$104, DW_AT_decl_line(0x49)
    2243                    .dwattr $C$DW$T$104, DW_AT_decl_column(0x14)
    2244            
    2245            $C$DW$T$105     .dwtag  DW_TAG_typedef
    2246                    .dwattr $C$DW$T$105, DW_AT_name("__time_t")
    2247                    .dwattr $C$DW$T$105, DW_AT_type(*$C$DW$T$99)
    2248                    .dwattr $C$DW$T$105, DW_AT_language(DW_LANG_C)
    2249                    .dwattr $C$DW$T$105, DW_AT_decl_file("C:/ti/ccs1110/ccs/tools/compiler/ti-cgt-msp430_21.6.1.LT
    2250                    .dwattr $C$DW$T$105, DW_AT_decl_line(0x66)
    2251                    .dwattr $C$DW$T$105, DW_AT_decl_column(0x19)
    2252            
    2253            $C$DW$T$106     .dwtag  DW_TAG_typedef
    2254                    .dwattr $C$DW$T$106, DW_AT_name("__uid_t")
    2255                    .dwattr $C$DW$T$106, DW_AT_type(*$C$DW$T$99)
    2256                    .dwattr $C$DW$T$106, DW_AT_language(DW_LANG_C)
    2257                    .dwattr $C$DW$T$106, DW_AT_decl_file("C:/ti/ccs1110/ccs/tools/compiler/ti-cgt-msp430_21.6.1.LT
    2258                    .dwattr $C$DW$T$106, DW_AT_decl_line(0x4d)
    2259                    .dwattr $C$DW$T$106, DW_AT_decl_column(0x14)
    2260            
    2261            $C$DW$T$107     .dwtag  DW_TAG_typedef
    2262                    .dwattr $C$DW$T$107, DW_AT_name("__uint_fast32_t")
    2263                    .dwattr $C$DW$T$107, DW_AT_type(*$C$DW$T$99)
    2264                    .dwattr $C$DW$T$107, DW_AT_language(DW_LANG_C)
    2265                    .dwattr $C$DW$T$107, DW_AT_decl_file("C:/ti/ccs1110/ccs/tools/compiler/ti-cgt-msp430_21.6.1.LT
    2266                    .dwattr $C$DW$T$107, DW_AT_decl_line(0x72)
    2267                    .dwattr $C$DW$T$107, DW_AT_decl_column(0x14)
    2268            
    2269            $C$DW$T$108     .dwtag  DW_TAG_typedef
    2270                    .dwattr $C$DW$T$108, DW_AT_name("uint_fast32_t")
    2271                    .dwattr $C$DW$T$108, DW_AT_type(*$C$DW$T$107)
    2272                    .dwattr $C$DW$T$108, DW_AT_language(DW_LANG_C)
    2273                    .dwattr $C$DW$T$108, DW_AT_decl_file("C:/ti/ccs1110/ccs/tools/compiler/ti-cgt-msp430_21.6.1.LT
    2274                    .dwattr $C$DW$T$108, DW_AT_decl_line(0x3b)
    2275                    .dwattr $C$DW$T$108, DW_AT_decl_column(0x1a)
    2276            
MSP430 Assembler PC v21.6.1 Wed Nov 30 16:35:38 2022

Copyright (c) 2003-2018 Texas Instruments Incorporated
eusci_a_uart.asm                                                     PAGE   44

    2277            $C$DW$T$109     .dwtag  DW_TAG_typedef
    2278                    .dwattr $C$DW$T$109, DW_AT_name("__uint_least32_t")
    2279                    .dwattr $C$DW$T$109, DW_AT_type(*$C$DW$T$99)
    2280                    .dwattr $C$DW$T$109, DW_AT_language(DW_LANG_C)
    2281                    .dwattr $C$DW$T$109, DW_AT_decl_file("C:/ti/ccs1110/ccs/tools/compiler/ti-cgt-msp430_21.6.1.LT
    2282                    .dwattr $C$DW$T$109, DW_AT_decl_line(0x76)
    2283                    .dwattr $C$DW$T$109, DW_AT_decl_column(0x14)
    2284            
    2285            $C$DW$T$110     .dwtag  DW_TAG_typedef
    2286                    .dwattr $C$DW$T$110, DW_AT_name("__char32_t")
    2287                    .dwattr $C$DW$T$110, DW_AT_type(*$C$DW$T$109)
    2288                    .dwattr $C$DW$T$110, DW_AT_language(DW_LANG_C)
    2289                    .dwattr $C$DW$T$110, DW_AT_decl_file("C:/ti/ccs1110/ccs/tools/compiler/ti-cgt-msp430_21.6.1.LT
    2290                    .dwattr $C$DW$T$110, DW_AT_decl_line(0x72)
    2291                    .dwattr $C$DW$T$110, DW_AT_decl_column(0x1a)
    2292            
    2293            $C$DW$T$111     .dwtag  DW_TAG_typedef
    2294                    .dwattr $C$DW$T$111, DW_AT_name("uint_least32_t")
    2295                    .dwattr $C$DW$T$111, DW_AT_type(*$C$DW$T$109)
    2296                    .dwattr $C$DW$T$111, DW_AT_language(DW_LANG_C)
    2297                    .dwattr $C$DW$T$111, DW_AT_decl_file("C:/ti/ccs1110/ccs/tools/compiler/ti-cgt-msp430_21.6.1.LT
    2298                    .dwattr $C$DW$T$111, DW_AT_decl_line(0x31)
    2299                    .dwattr $C$DW$T$111, DW_AT_decl_column(0x1a)
    2300            
    2301            $C$DW$T$112     .dwtag  DW_TAG_typedef
    2302                    .dwattr $C$DW$T$112, DW_AT_name("__uintfptr_t")
    2303                    .dwattr $C$DW$T$112, DW_AT_type(*$C$DW$T$99)
    2304                    .dwattr $C$DW$T$112, DW_AT_language(DW_LANG_C)
    2305                    .dwattr $C$DW$T$112, DW_AT_decl_file("C:/ti/ccs1110/ccs/tools/compiler/ti-cgt-msp430_21.6.1.LT
    2306                    .dwattr $C$DW$T$112, DW_AT_decl_line(0x68)
    2307                    .dwattr $C$DW$T$112, DW_AT_decl_column(0x14)
    2308            
    2309            $C$DW$T$113     .dwtag  DW_TAG_typedef
    2310                    .dwattr $C$DW$T$113, DW_AT_name("__uintptr_t")
    2311                    .dwattr $C$DW$T$113, DW_AT_type(*$C$DW$T$99)
    2312                    .dwattr $C$DW$T$113, DW_AT_language(DW_LANG_C)
    2313                    .dwattr $C$DW$T$113, DW_AT_decl_file("C:/ti/ccs1110/ccs/tools/compiler/ti-cgt-msp430_21.6.1.LT
    2314                    .dwattr $C$DW$T$113, DW_AT_decl_line(0x6b)
    2315                    .dwattr $C$DW$T$113, DW_AT_decl_column(0x14)
    2316            
    2317            $C$DW$T$114     .dwtag  DW_TAG_typedef
    2318                    .dwattr $C$DW$T$114, DW_AT_name("uintptr_t")
    2319                    .dwattr $C$DW$T$114, DW_AT_type(*$C$DW$T$113)
    2320                    .dwattr $C$DW$T$114, DW_AT_language(DW_LANG_C)
    2321                    .dwattr $C$DW$T$114, DW_AT_decl_file("C:/ti/ccs1110/ccs/tools/compiler/ti-cgt-msp430_21.6.1.LT
    2322                    .dwattr $C$DW$T$114, DW_AT_decl_line(0x54)
    2323                    .dwattr $C$DW$T$114, DW_AT_decl_column(0x16)
    2324            
    2325            $C$DW$T$115     .dwtag  DW_TAG_typedef
    2326                    .dwattr $C$DW$T$115, DW_AT_name("__vm_offset_t")
    2327                    .dwattr $C$DW$T$115, DW_AT_type(*$C$DW$T$99)
    2328                    .dwattr $C$DW$T$115, DW_AT_language(DW_LANG_C)
    2329                    .dwattr $C$DW$T$115, DW_AT_decl_file("C:/ti/ccs1110/ccs/tools/compiler/ti-cgt-msp430_21.6.1.LT
    2330                    .dwattr $C$DW$T$115, DW_AT_decl_line(0x79)
    2331                    .dwattr $C$DW$T$115, DW_AT_decl_column(0x14)
MSP430 Assembler PC v21.6.1 Wed Nov 30 16:35:38 2022

Copyright (c) 2003-2018 Texas Instruments Incorporated
eusci_a_uart.asm                                                     PAGE   45

    2332            
    2333            $C$DW$T$116     .dwtag  DW_TAG_typedef
    2334                    .dwattr $C$DW$T$116, DW_AT_name("__vm_paddr_t")
    2335                    .dwattr $C$DW$T$116, DW_AT_type(*$C$DW$T$99)
    2336                    .dwattr $C$DW$T$116, DW_AT_language(DW_LANG_C)
    2337                    .dwattr $C$DW$T$116, DW_AT_decl_file("C:/ti/ccs1110/ccs/tools/compiler/ti-cgt-msp430_21.6.1.LT
    2338                    .dwattr $C$DW$T$116, DW_AT_decl_line(0x7a)
    2339                    .dwattr $C$DW$T$116, DW_AT_decl_column(0x14)
    2340            
    2341            $C$DW$T$117     .dwtag  DW_TAG_typedef
    2342                    .dwattr $C$DW$T$117, DW_AT_name("__vm_size_t")
    2343                    .dwattr $C$DW$T$117, DW_AT_type(*$C$DW$T$99)
    2344                    .dwattr $C$DW$T$117, DW_AT_language(DW_LANG_C)
    2345                    .dwattr $C$DW$T$117, DW_AT_decl_file("C:/ti/ccs1110/ccs/tools/compiler/ti-cgt-msp430_21.6.1.LT
    2346                    .dwattr $C$DW$T$117, DW_AT_decl_line(0x7b)
    2347                    .dwattr $C$DW$T$117, DW_AT_decl_column(0x14)
    2348            
    2349            $C$DW$T$118     .dwtag  DW_TAG_typedef
    2350                    .dwattr $C$DW$T$118, DW_AT_name("uint32_t")
    2351                    .dwattr $C$DW$T$118, DW_AT_type(*$C$DW$T$99)
    2352                    .dwattr $C$DW$T$118, DW_AT_language(DW_LANG_C)
    2353                    .dwattr $C$DW$T$118, DW_AT_decl_file("C:/ti/ccs1110/ccs/tools/compiler/ti-cgt-msp430_21.6.1.LT
    2354                    .dwattr $C$DW$T$118, DW_AT_decl_line(0x46)
    2355                    .dwattr $C$DW$T$118, DW_AT_decl_column(0x15)
    2356            
    2357            $C$DW$T$14      .dwtag  DW_TAG_base_type
    2358                    .dwattr $C$DW$T$14, DW_AT_encoding(DW_ATE_signed)
    2359                    .dwattr $C$DW$T$14, DW_AT_name("long long")
    2360                    .dwattr $C$DW$T$14, DW_AT_byte_size(0x08)
    2361            
    2362            $C$DW$T$120     .dwtag  DW_TAG_typedef
    2363                    .dwattr $C$DW$T$120, DW_AT_name("__int64_t")
    2364                    .dwattr $C$DW$T$120, DW_AT_type(*$C$DW$T$14)
    2365                    .dwattr $C$DW$T$120, DW_AT_language(DW_LANG_C)
    2366                    .dwattr $C$DW$T$120, DW_AT_decl_file("C:/ti/ccs1110/ccs/tools/compiler/ti-cgt-msp430_21.6.1.LT
    2367                    .dwattr $C$DW$T$120, DW_AT_decl_line(0x40)
    2368                    .dwattr $C$DW$T$120, DW_AT_decl_column(0x14)
    2369            
    2370            $C$DW$T$121     .dwtag  DW_TAG_typedef
    2371                    .dwattr $C$DW$T$121, DW_AT_name("__blkcnt_t")
    2372                    .dwattr $C$DW$T$121, DW_AT_type(*$C$DW$T$120)
    2373                    .dwattr $C$DW$T$121, DW_AT_language(DW_LANG_C)
    2374                    .dwattr $C$DW$T$121, DW_AT_decl_file("C:/ti/ccs1110/ccs/tools/compiler/ti-cgt-msp430_21.6.1.LT
    2375                    .dwattr $C$DW$T$121, DW_AT_decl_line(0x30)
    2376                    .dwattr $C$DW$T$121, DW_AT_decl_column(0x13)
    2377            
    2378            $C$DW$T$122     .dwtag  DW_TAG_typedef
    2379                    .dwattr $C$DW$T$122, DW_AT_name("__id_t")
    2380                    .dwattr $C$DW$T$122, DW_AT_type(*$C$DW$T$120)
    2381                    .dwattr $C$DW$T$122, DW_AT_language(DW_LANG_C)
    2382                    .dwattr $C$DW$T$122, DW_AT_decl_file("C:/ti/ccs1110/ccs/tools/compiler/ti-cgt-msp430_21.6.1.LT
    2383                    .dwattr $C$DW$T$122, DW_AT_decl_line(0x36)
    2384                    .dwattr $C$DW$T$122, DW_AT_decl_column(0x13)
    2385            
    2386            $C$DW$T$123     .dwtag  DW_TAG_typedef
MSP430 Assembler PC v21.6.1 Wed Nov 30 16:35:38 2022

Copyright (c) 2003-2018 Texas Instruments Incorporated
eusci_a_uart.asm                                                     PAGE   46

    2387                    .dwattr $C$DW$T$123, DW_AT_name("__int_fast64_t")
    2388                    .dwattr $C$DW$T$123, DW_AT_type(*$C$DW$T$120)
    2389                    .dwattr $C$DW$T$123, DW_AT_language(DW_LANG_C)
    2390                    .dwattr $C$DW$T$123, DW_AT_decl_file("C:/ti/ccs1110/ccs/tools/compiler/ti-cgt-msp430_21.6.1.LT
    2391                    .dwattr $C$DW$T$123, DW_AT_decl_line(0x59)
    2392                    .dwattr $C$DW$T$123, DW_AT_decl_column(0x13)
    2393            
    2394            $C$DW$T$124     .dwtag  DW_TAG_typedef
    2395                    .dwattr $C$DW$T$124, DW_AT_name("int_fast64_t")
    2396                    .dwattr $C$DW$T$124, DW_AT_type(*$C$DW$T$123)
    2397                    .dwattr $C$DW$T$124, DW_AT_language(DW_LANG_C)
    2398                    .dwattr $C$DW$T$124, DW_AT_decl_file("C:/ti/ccs1110/ccs/tools/compiler/ti-cgt-msp430_21.6.1.LT
    2399                    .dwattr $C$DW$T$124, DW_AT_decl_line(0x37)
    2400                    .dwattr $C$DW$T$124, DW_AT_decl_column(0x19)
    2401            
    2402            $C$DW$T$125     .dwtag  DW_TAG_typedef
    2403                    .dwattr $C$DW$T$125, DW_AT_name("__int_least64_t")
    2404                    .dwattr $C$DW$T$125, DW_AT_type(*$C$DW$T$120)
    2405                    .dwattr $C$DW$T$125, DW_AT_language(DW_LANG_C)
    2406                    .dwattr $C$DW$T$125, DW_AT_decl_file("C:/ti/ccs1110/ccs/tools/compiler/ti-cgt-msp430_21.6.1.LT
    2407                    .dwattr $C$DW$T$125, DW_AT_decl_line(0x5d)
    2408                    .dwattr $C$DW$T$125, DW_AT_decl_column(0x13)
    2409            
    2410            $C$DW$T$126     .dwtag  DW_TAG_typedef
    2411                    .dwattr $C$DW$T$126, DW_AT_name("int_least64_t")
    2412                    .dwattr $C$DW$T$126, DW_AT_type(*$C$DW$T$125)
    2413                    .dwattr $C$DW$T$126, DW_AT_language(DW_LANG_C)
    2414                    .dwattr $C$DW$T$126, DW_AT_decl_file("C:/ti/ccs1110/ccs/tools/compiler/ti-cgt-msp430_21.6.1.LT
    2415                    .dwattr $C$DW$T$126, DW_AT_decl_line(0x2d)
    2416                    .dwattr $C$DW$T$126, DW_AT_decl_column(0x1a)
    2417            
    2418            $C$DW$T$127     .dwtag  DW_TAG_typedef
    2419                    .dwattr $C$DW$T$127, DW_AT_name("__intmax_t")
    2420                    .dwattr $C$DW$T$127, DW_AT_type(*$C$DW$T$120)
    2421                    .dwattr $C$DW$T$127, DW_AT_language(DW_LANG_C)
    2422                    .dwattr $C$DW$T$127, DW_AT_decl_file("C:/ti/ccs1110/ccs/tools/compiler/ti-cgt-msp430_21.6.1.LT
    2423                    .dwattr $C$DW$T$127, DW_AT_decl_line(0x4f)
    2424                    .dwattr $C$DW$T$127, DW_AT_decl_column(0x13)
    2425            
    2426            $C$DW$T$128     .dwtag  DW_TAG_typedef
    2427                    .dwattr $C$DW$T$128, DW_AT_name("intmax_t")
    2428                    .dwattr $C$DW$T$128, DW_AT_type(*$C$DW$T$127)
    2429                    .dwattr $C$DW$T$128, DW_AT_language(DW_LANG_C)
    2430                    .dwattr $C$DW$T$128, DW_AT_decl_file("C:/ti/ccs1110/ccs/tools/compiler/ti-cgt-msp430_21.6.1.LT
    2431                    .dwattr $C$DW$T$128, DW_AT_decl_line(0x58)
    2432                    .dwattr $C$DW$T$128, DW_AT_decl_column(0x15)
    2433            
    2434            $C$DW$T$129     .dwtag  DW_TAG_typedef
    2435                    .dwattr $C$DW$T$129, DW_AT_name("__off64_t")
    2436                    .dwattr $C$DW$T$129, DW_AT_type(*$C$DW$T$120)
    2437                    .dwattr $C$DW$T$129, DW_AT_language(DW_LANG_C)
    2438                    .dwattr $C$DW$T$129, DW_AT_decl_file("C:/ti/ccs1110/ccs/tools/compiler/ti-cgt-msp430_21.6.1.LT
    2439                    .dwattr $C$DW$T$129, DW_AT_decl_line(0x3f)
    2440                    .dwattr $C$DW$T$129, DW_AT_decl_column(0x13)
    2441            
MSP430 Assembler PC v21.6.1 Wed Nov 30 16:35:38 2022

Copyright (c) 2003-2018 Texas Instruments Incorporated
eusci_a_uart.asm                                                     PAGE   47

    2442            $C$DW$T$130     .dwtag  DW_TAG_typedef
    2443                    .dwattr $C$DW$T$130, DW_AT_name("__rlim_t")
    2444                    .dwattr $C$DW$T$130, DW_AT_type(*$C$DW$T$120)
    2445                    .dwattr $C$DW$T$130, DW_AT_language(DW_LANG_C)
    2446                    .dwattr $C$DW$T$130, DW_AT_decl_file("C:/ti/ccs1110/ccs/tools/compiler/ti-cgt-msp430_21.6.1.LT
    2447                    .dwattr $C$DW$T$130, DW_AT_decl_line(0x41)
    2448                    .dwattr $C$DW$T$130, DW_AT_decl_column(0x13)
    2449            
    2450            $C$DW$T$131     .dwtag  DW_TAG_typedef
    2451                    .dwattr $C$DW$T$131, DW_AT_name("int64_t")
    2452                    .dwattr $C$DW$T$131, DW_AT_type(*$C$DW$T$120)
    2453                    .dwattr $C$DW$T$131, DW_AT_language(DW_LANG_C)
    2454                    .dwattr $C$DW$T$131, DW_AT_decl_file("C:/ti/ccs1110/ccs/tools/compiler/ti-cgt-msp430_21.6.1.LT
    2455                    .dwattr $C$DW$T$131, DW_AT_decl_line(0x35)
    2456                    .dwattr $C$DW$T$131, DW_AT_decl_column(0x14)
    2457            
    2458            $C$DW$T$15      .dwtag  DW_TAG_base_type
    2459                    .dwattr $C$DW$T$15, DW_AT_encoding(DW_ATE_unsigned)
    2460                    .dwattr $C$DW$T$15, DW_AT_name("unsigned long long")
    2461                    .dwattr $C$DW$T$15, DW_AT_byte_size(0x08)
    2462            
    2463            $C$DW$T$132     .dwtag  DW_TAG_typedef
    2464                    .dwattr $C$DW$T$132, DW_AT_name("__uint64_t")
    2465                    .dwattr $C$DW$T$132, DW_AT_type(*$C$DW$T$15)
    2466                    .dwattr $C$DW$T$132, DW_AT_language(DW_LANG_C)
    2467                    .dwattr $C$DW$T$132, DW_AT_decl_file("C:/ti/ccs1110/ccs/tools/compiler/ti-cgt-msp430_21.6.1.LT
    2468                    .dwattr $C$DW$T$132, DW_AT_decl_line(0x45)
    2469                    .dwattr $C$DW$T$132, DW_AT_decl_column(0x1c)
    2470            
    2471            $C$DW$T$133     .dwtag  DW_TAG_typedef
    2472                    .dwattr $C$DW$T$133, DW_AT_name("__dev_t")
    2473                    .dwattr $C$DW$T$133, DW_AT_type(*$C$DW$T$132)
    2474                    .dwattr $C$DW$T$133, DW_AT_language(DW_LANG_C)
    2475                    .dwattr $C$DW$T$133, DW_AT_decl_file("C:/ti/ccs1110/ccs/tools/compiler/ti-cgt-msp430_21.6.1.LT
    2476                    .dwattr $C$DW$T$133, DW_AT_decl_line(0x7f)
    2477                    .dwattr $C$DW$T$133, DW_AT_decl_column(0x14)
    2478            
    2479            $C$DW$T$134     .dwtag  DW_TAG_typedef
    2480                    .dwattr $C$DW$T$134, DW_AT_name("__fsblkcnt_t")
    2481                    .dwattr $C$DW$T$134, DW_AT_type(*$C$DW$T$132)
    2482                    .dwattr $C$DW$T$134, DW_AT_language(DW_LANG_C)
    2483                    .dwattr $C$DW$T$134, DW_AT_decl_file("C:/ti/ccs1110/ccs/tools/compiler/ti-cgt-msp430_21.6.1.LT
    2484                    .dwattr $C$DW$T$134, DW_AT_decl_line(0x33)
    2485                    .dwattr $C$DW$T$134, DW_AT_decl_column(0x14)
    2486            
    2487            $C$DW$T$135     .dwtag  DW_TAG_typedef
    2488                    .dwattr $C$DW$T$135, DW_AT_name("__fsfilcnt_t")
    2489                    .dwattr $C$DW$T$135, DW_AT_type(*$C$DW$T$132)
    2490                    .dwattr $C$DW$T$135, DW_AT_language(DW_LANG_C)
    2491                    .dwattr $C$DW$T$135, DW_AT_decl_file("C:/ti/ccs1110/ccs/tools/compiler/ti-cgt-msp430_21.6.1.LT
    2492                    .dwattr $C$DW$T$135, DW_AT_decl_line(0x34)
    2493                    .dwattr $C$DW$T$135, DW_AT_decl_column(0x14)
    2494            
    2495            $C$DW$T$136     .dwtag  DW_TAG_typedef
    2496                    .dwattr $C$DW$T$136, DW_AT_name("__ino_t")
MSP430 Assembler PC v21.6.1 Wed Nov 30 16:35:38 2022

Copyright (c) 2003-2018 Texas Instruments Incorporated
eusci_a_uart.asm                                                     PAGE   48

    2497                    .dwattr $C$DW$T$136, DW_AT_type(*$C$DW$T$132)
    2498                    .dwattr $C$DW$T$136, DW_AT_language(DW_LANG_C)
    2499                    .dwattr $C$DW$T$136, DW_AT_decl_file("C:/ti/ccs1110/ccs/tools/compiler/ti-cgt-msp430_21.6.1.LT
    2500                    .dwattr $C$DW$T$136, DW_AT_decl_line(0x37)
    2501                    .dwattr $C$DW$T$136, DW_AT_decl_column(0x14)
    2502            
    2503            $C$DW$T$137     .dwtag  DW_TAG_typedef
    2504                    .dwattr $C$DW$T$137, DW_AT_name("__nlink_t")
    2505                    .dwattr $C$DW$T$137, DW_AT_type(*$C$DW$T$132)
    2506                    .dwattr $C$DW$T$137, DW_AT_language(DW_LANG_C)
    2507                    .dwattr $C$DW$T$137, DW_AT_decl_file("C:/ti/ccs1110/ccs/tools/compiler/ti-cgt-msp430_21.6.1.LT
    2508                    .dwattr $C$DW$T$137, DW_AT_decl_line(0x3d)
    2509                    .dwattr $C$DW$T$137, DW_AT_decl_column(0x14)
    2510            
    2511            $C$DW$T$138     .dwtag  DW_TAG_typedef
    2512                    .dwattr $C$DW$T$138, DW_AT_name("__uint_fast64_t")
    2513                    .dwattr $C$DW$T$138, DW_AT_type(*$C$DW$T$132)
    2514                    .dwattr $C$DW$T$138, DW_AT_language(DW_LANG_C)
    2515                    .dwattr $C$DW$T$138, DW_AT_decl_file("C:/ti/ccs1110/ccs/tools/compiler/ti-cgt-msp430_21.6.1.LT
    2516                    .dwattr $C$DW$T$138, DW_AT_decl_line(0x73)
    2517                    .dwattr $C$DW$T$138, DW_AT_decl_column(0x14)
    2518            
    2519            $C$DW$T$139     .dwtag  DW_TAG_typedef
    2520                    .dwattr $C$DW$T$139, DW_AT_name("uint_fast64_t")
    2521                    .dwattr $C$DW$T$139, DW_AT_type(*$C$DW$T$138)
    2522                    .dwattr $C$DW$T$139, DW_AT_language(DW_LANG_C)
    2523                    .dwattr $C$DW$T$139, DW_AT_decl_file("C:/ti/ccs1110/ccs/tools/compiler/ti-cgt-msp430_21.6.1.LT
    2524                    .dwattr $C$DW$T$139, DW_AT_decl_line(0x3c)
    2525                    .dwattr $C$DW$T$139, DW_AT_decl_column(0x1a)
    2526            
    2527            $C$DW$T$140     .dwtag  DW_TAG_typedef
    2528                    .dwattr $C$DW$T$140, DW_AT_name("__uint_least64_t")
    2529                    .dwattr $C$DW$T$140, DW_AT_type(*$C$DW$T$132)
    2530                    .dwattr $C$DW$T$140, DW_AT_language(DW_LANG_C)
    2531                    .dwattr $C$DW$T$140, DW_AT_decl_file("C:/ti/ccs1110/ccs/tools/compiler/ti-cgt-msp430_21.6.1.LT
    2532                    .dwattr $C$DW$T$140, DW_AT_decl_line(0x77)
    2533                    .dwattr $C$DW$T$140, DW_AT_decl_column(0x14)
    2534            
    2535            $C$DW$T$141     .dwtag  DW_TAG_typedef
    2536                    .dwattr $C$DW$T$141, DW_AT_name("uint_least64_t")
    2537                    .dwattr $C$DW$T$141, DW_AT_type(*$C$DW$T$140)
    2538                    .dwattr $C$DW$T$141, DW_AT_language(DW_LANG_C)
    2539                    .dwattr $C$DW$T$141, DW_AT_decl_file("C:/ti/ccs1110/ccs/tools/compiler/ti-cgt-msp430_21.6.1.LT
    2540                    .dwattr $C$DW$T$141, DW_AT_decl_line(0x32)
    2541                    .dwattr $C$DW$T$141, DW_AT_decl_column(0x1a)
    2542            
    2543            $C$DW$T$142     .dwtag  DW_TAG_typedef
    2544                    .dwattr $C$DW$T$142, DW_AT_name("__uintmax_t")
    2545                    .dwattr $C$DW$T$142, DW_AT_type(*$C$DW$T$132)
    2546                    .dwattr $C$DW$T$142, DW_AT_language(DW_LANG_C)
    2547                    .dwattr $C$DW$T$142, DW_AT_decl_file("C:/ti/ccs1110/ccs/tools/compiler/ti-cgt-msp430_21.6.1.LT
    2548                    .dwattr $C$DW$T$142, DW_AT_decl_line(0x69)
    2549                    .dwattr $C$DW$T$142, DW_AT_decl_column(0x14)
    2550            
    2551            $C$DW$T$143     .dwtag  DW_TAG_typedef
MSP430 Assembler PC v21.6.1 Wed Nov 30 16:35:38 2022

Copyright (c) 2003-2018 Texas Instruments Incorporated
eusci_a_uart.asm                                                     PAGE   49

    2552                    .dwattr $C$DW$T$143, DW_AT_name("__rman_res_t")
    2553                    .dwattr $C$DW$T$143, DW_AT_type(*$C$DW$T$142)
    2554                    .dwattr $C$DW$T$143, DW_AT_language(DW_LANG_C)
    2555                    .dwattr $C$DW$T$143, DW_AT_decl_file("C:/ti/ccs1110/ccs/tools/compiler/ti-cgt-msp430_21.6.1.LT
    2556                    .dwattr $C$DW$T$143, DW_AT_decl_line(0x9a)
    2557                    .dwattr $C$DW$T$143, DW_AT_decl_column(0x19)
    2558            
    2559            $C$DW$T$144     .dwtag  DW_TAG_typedef
    2560                    .dwattr $C$DW$T$144, DW_AT_name("uintmax_t")
    2561                    .dwattr $C$DW$T$144, DW_AT_type(*$C$DW$T$142)
    2562                    .dwattr $C$DW$T$144, DW_AT_language(DW_LANG_C)
    2563                    .dwattr $C$DW$T$144, DW_AT_decl_file("C:/ti/ccs1110/ccs/tools/compiler/ti-cgt-msp430_21.6.1.LT
    2564                    .dwattr $C$DW$T$144, DW_AT_decl_line(0x5c)
    2565                    .dwattr $C$DW$T$144, DW_AT_decl_column(0x16)
    2566            
    2567            $C$DW$T$145     .dwtag  DW_TAG_typedef
    2568                    .dwattr $C$DW$T$145, DW_AT_name("uint64_t")
    2569                    .dwattr $C$DW$T$145, DW_AT_type(*$C$DW$T$132)
    2570                    .dwattr $C$DW$T$145, DW_AT_language(DW_LANG_C)
    2571                    .dwattr $C$DW$T$145, DW_AT_decl_file("C:/ti/ccs1110/ccs/tools/compiler/ti-cgt-msp430_21.6.1.LT
    2572                    .dwattr $C$DW$T$145, DW_AT_decl_line(0x4b)
    2573                    .dwattr $C$DW$T$145, DW_AT_decl_column(0x15)
    2574            
    2575            $C$DW$T$16      .dwtag  DW_TAG_base_type
    2576                    .dwattr $C$DW$T$16, DW_AT_encoding(DW_ATE_float)
    2577                    .dwattr $C$DW$T$16, DW_AT_name("float")
    2578                    .dwattr $C$DW$T$16, DW_AT_byte_size(0x04)
    2579            
    2580            $C$DW$T$146     .dwtag  DW_TAG_typedef
    2581                    .dwattr $C$DW$T$146, DW_AT_name("__float_t")
    2582                    .dwattr $C$DW$T$146, DW_AT_type(*$C$DW$T$16)
    2583                    .dwattr $C$DW$T$146, DW_AT_language(DW_LANG_C)
    2584                    .dwattr $C$DW$T$146, DW_AT_decl_file("C:/ti/ccs1110/ccs/tools/compiler/ti-cgt-msp430_21.6.1.LT
    2585                    .dwattr $C$DW$T$146, DW_AT_decl_line(0x4d)
    2586                    .dwattr $C$DW$T$146, DW_AT_decl_column(0x10)
    2587            
    2588            $C$DW$T$17      .dwtag  DW_TAG_base_type
    2589                    .dwattr $C$DW$T$17, DW_AT_encoding(DW_ATE_float)
    2590                    .dwattr $C$DW$T$17, DW_AT_name("double")
    2591                    .dwattr $C$DW$T$17, DW_AT_byte_size(0x08)
    2592            
    2593            $C$DW$T$147     .dwtag  DW_TAG_typedef
    2594                    .dwattr $C$DW$T$147, DW_AT_name("__double_t")
    2595                    .dwattr $C$DW$T$147, DW_AT_type(*$C$DW$T$17)
    2596                    .dwattr $C$DW$T$147, DW_AT_language(DW_LANG_C)
    2597                    .dwattr $C$DW$T$147, DW_AT_decl_file("C:/ti/ccs1110/ccs/tools/compiler/ti-cgt-msp430_21.6.1.LT
    2598                    .dwattr $C$DW$T$147, DW_AT_decl_line(0x4c)
    2599                    .dwattr $C$DW$T$147, DW_AT_decl_column(0x11)
    2600            
    2601            $C$DW$T$18      .dwtag  DW_TAG_base_type
    2602                    .dwattr $C$DW$T$18, DW_AT_encoding(DW_ATE_float)
    2603                    .dwattr $C$DW$T$18, DW_AT_name("long double")
    2604                    .dwattr $C$DW$T$18, DW_AT_byte_size(0x08)
    2605            
    2606            $C$DW$T$148     .dwtag  DW_TAG_base_type
MSP430 Assembler PC v21.6.1 Wed Nov 30 16:35:38 2022

Copyright (c) 2003-2018 Texas Instruments Incorporated
eusci_a_uart.asm                                                     PAGE   50

    2607                    .dwattr $C$DW$T$148, DW_AT_encoding(DW_ATE_unsigned_char)
    2608                    .dwattr $C$DW$T$148, DW_AT_name("unsigned char")
    2609                    .dwattr $C$DW$T$148, DW_AT_byte_size(0x01)
    2610            
    2611            $C$DW$T$151     .dwtag  DW_TAG_pointer_type
    2612                    .dwattr $C$DW$T$151, DW_AT_type(*$C$DW$T$6)
    2613                    .dwattr $C$DW$T$151, DW_AT_address_class(0x10)
    2614            
    2615            $C$DW$T$152     .dwtag  DW_TAG_typedef
    2616                    .dwattr $C$DW$T$152, DW_AT_name("__va_list")
    2617                    .dwattr $C$DW$T$152, DW_AT_type(*$C$DW$T$151)
    2618                    .dwattr $C$DW$T$152, DW_AT_language(DW_LANG_C)
    2619                    .dwattr $C$DW$T$152, DW_AT_decl_file("C:/ti/ccs1110/ccs/tools/compiler/ti-cgt-msp430_21.6.1.LT
    2620                    .dwattr $C$DW$T$152, DW_AT_decl_line(0x92)
    2621                    .dwattr $C$DW$T$152, DW_AT_decl_column(0x0f)
    2622            
    2623            
    2624            $C$DW$T$19      .dwtag  DW_TAG_structure_type
    2625                    .dwattr $C$DW$T$19, DW_AT_name("__mq")
    2626                    .dwattr $C$DW$T$19, DW_AT_declaration
    2627                    .dwattr $C$DW$T$19, DW_AT_decl_file("C:/ti/ccs1110/ccs/tools/compiler/ti-cgt-msp430_21.6.1.LTS
    2628                    .dwattr $C$DW$T$19, DW_AT_decl_line(0x4c)
    2629                    .dwattr $C$DW$T$19, DW_AT_decl_column(0x10)
    2630                    .dwendtag $C$DW$T$19
    2631            
    2632            $C$DW$T$153     .dwtag  DW_TAG_pointer_type
    2633                    .dwattr $C$DW$T$153, DW_AT_type(*$C$DW$T$19)
    2634                    .dwattr $C$DW$T$153, DW_AT_address_class(0x10)
    2635            
    2636            $C$DW$T$154     .dwtag  DW_TAG_typedef
    2637                    .dwattr $C$DW$T$154, DW_AT_name("__mqd_t")
    2638                    .dwattr $C$DW$T$154, DW_AT_type(*$C$DW$T$153)
    2639                    .dwattr $C$DW$T$154, DW_AT_language(DW_LANG_C)
    2640                    .dwattr $C$DW$T$154, DW_AT_decl_file("C:/ti/ccs1110/ccs/tools/compiler/ti-cgt-msp430_21.6.1.LT
    2641                    .dwattr $C$DW$T$154, DW_AT_decl_line(0x4c)
    2642                    .dwattr $C$DW$T$154, DW_AT_decl_column(0x16)
    2643            
    2644            
    2645            $C$DW$T$20      .dwtag  DW_TAG_structure_type
    2646                    .dwattr $C$DW$T$20, DW_AT_name("__timer")
    2647                    .dwattr $C$DW$T$20, DW_AT_declaration
    2648                    .dwattr $C$DW$T$20, DW_AT_decl_file("C:/ti/ccs1110/ccs/tools/compiler/ti-cgt-msp430_21.6.1.LTS
    2649                    .dwattr $C$DW$T$20, DW_AT_decl_line(0x4b)
    2650                    .dwattr $C$DW$T$20, DW_AT_decl_column(0x10)
    2651                    .dwendtag $C$DW$T$20
    2652            
    2653            $C$DW$T$155     .dwtag  DW_TAG_pointer_type
    2654                    .dwattr $C$DW$T$155, DW_AT_type(*$C$DW$T$20)
    2655                    .dwattr $C$DW$T$155, DW_AT_address_class(0x10)
    2656            
    2657            $C$DW$T$156     .dwtag  DW_TAG_typedef
    2658                    .dwattr $C$DW$T$156, DW_AT_name("__timer_t")
    2659                    .dwattr $C$DW$T$156, DW_AT_type(*$C$DW$T$155)
    2660                    .dwattr $C$DW$T$156, DW_AT_language(DW_LANG_C)
    2661                    .dwattr $C$DW$T$156, DW_AT_decl_file("C:/ti/ccs1110/ccs/tools/compiler/ti-cgt-msp430_21.6.1.LT
MSP430 Assembler PC v21.6.1 Wed Nov 30 16:35:38 2022

Copyright (c) 2003-2018 Texas Instruments Incorporated
eusci_a_uart.asm                                                     PAGE   51

    2662                    .dwattr $C$DW$T$156, DW_AT_decl_line(0x4b)
    2663                    .dwattr $C$DW$T$156, DW_AT_decl_column(0x19)
    2664            
    2665                    .dwattr $C$DW$CU, DW_AT_language(DW_LANG_C)
    2666            
    2667            ;***************************************************************
    2668            ;* DWARF CIE ENTRIES                                           *
    2669            ;***************************************************************
    2670            
    2671            $C$DW$CIE       .dwcie 16
    2672                    .dwcfi  cfa_register, 1
    2673                    .dwcfi  cfa_offset, 0
    2674                    .dwcfi  same_value, 0
    2675                    .dwcfi  same_value, 1
    2676                    .dwcfi  same_value, 3
    2677                    .dwcfi  same_value, 4
    2678                    .dwcfi  same_value, 5
    2679                    .dwcfi  same_value, 6
    2680                    .dwcfi  same_value, 7
    2681                    .dwcfi  same_value, 8
    2682                    .dwcfi  same_value, 9
    2683                    .dwcfi  same_value, 10
    2684                    .dwendentry
    2685            
    2686            ;***************************************************************
    2687            ;* DWARF REGISTER MAP                                          *
    2688            ;***************************************************************
    2689            
    2690            $C$DW$107       .dwtag  DW_TAG_TI_assign_register
    2691                    .dwattr $C$DW$107, DW_AT_name("PC")
    2692                    .dwattr $C$DW$107, DW_AT_location[DW_OP_reg0]
    2693            
    2694            $C$DW$108       .dwtag  DW_TAG_TI_assign_register
    2695                    .dwattr $C$DW$108, DW_AT_name("SP")
    2696                    .dwattr $C$DW$108, DW_AT_location[DW_OP_reg1]
    2697            
    2698            $C$DW$109       .dwtag  DW_TAG_TI_assign_register
    2699                    .dwattr $C$DW$109, DW_AT_name("SR")
    2700                    .dwattr $C$DW$109, DW_AT_location[DW_OP_reg2]
    2701            
    2702            $C$DW$110       .dwtag  DW_TAG_TI_assign_register
    2703                    .dwattr $C$DW$110, DW_AT_name("CG")
    2704                    .dwattr $C$DW$110, DW_AT_location[DW_OP_reg3]
    2705            
    2706            $C$DW$111       .dwtag  DW_TAG_TI_assign_register
    2707                    .dwattr $C$DW$111, DW_AT_name("r4")
    2708                    .dwattr $C$DW$111, DW_AT_location[DW_OP_reg4]
    2709            
    2710            $C$DW$112       .dwtag  DW_TAG_TI_assign_register
    2711                    .dwattr $C$DW$112, DW_AT_name("r5")
    2712                    .dwattr $C$DW$112, DW_AT_location[DW_OP_reg5]
    2713            
    2714            $C$DW$113       .dwtag  DW_TAG_TI_assign_register
    2715                    .dwattr $C$DW$113, DW_AT_name("r6")
    2716                    .dwattr $C$DW$113, DW_AT_location[DW_OP_reg6]
MSP430 Assembler PC v21.6.1 Wed Nov 30 16:35:38 2022

Copyright (c) 2003-2018 Texas Instruments Incorporated
eusci_a_uart.asm                                                     PAGE   52

    2717            
    2718            $C$DW$114       .dwtag  DW_TAG_TI_assign_register
    2719                    .dwattr $C$DW$114, DW_AT_name("r7")
    2720                    .dwattr $C$DW$114, DW_AT_location[DW_OP_reg7]
    2721            
    2722            $C$DW$115       .dwtag  DW_TAG_TI_assign_register
    2723                    .dwattr $C$DW$115, DW_AT_name("r8")
    2724                    .dwattr $C$DW$115, DW_AT_location[DW_OP_reg8]
    2725            
    2726            $C$DW$116       .dwtag  DW_TAG_TI_assign_register
    2727                    .dwattr $C$DW$116, DW_AT_name("r9")
    2728                    .dwattr $C$DW$116, DW_AT_location[DW_OP_reg9]
    2729            
    2730            $C$DW$117       .dwtag  DW_TAG_TI_assign_register
    2731                    .dwattr $C$DW$117, DW_AT_name("r10")
    2732                    .dwattr $C$DW$117, DW_AT_location[DW_OP_reg10]
    2733            
    2734            $C$DW$118       .dwtag  DW_TAG_TI_assign_register
    2735                    .dwattr $C$DW$118, DW_AT_name("r11")
    2736                    .dwattr $C$DW$118, DW_AT_location[DW_OP_reg11]
    2737            
    2738            $C$DW$119       .dwtag  DW_TAG_TI_assign_register
    2739                    .dwattr $C$DW$119, DW_AT_name("r12")
    2740                    .dwattr $C$DW$119, DW_AT_location[DW_OP_reg12]
    2741            
    2742            $C$DW$120       .dwtag  DW_TAG_TI_assign_register
    2743                    .dwattr $C$DW$120, DW_AT_name("r13")
    2744                    .dwattr $C$DW$120, DW_AT_location[DW_OP_reg13]
    2745            
    2746            $C$DW$121       .dwtag  DW_TAG_TI_assign_register
    2747                    .dwattr $C$DW$121, DW_AT_name("r14")
    2748                    .dwattr $C$DW$121, DW_AT_location[DW_OP_reg14]
    2749            
    2750            $C$DW$122       .dwtag  DW_TAG_TI_assign_register
    2751                    .dwattr $C$DW$122, DW_AT_name("r15")
    2752                    .dwattr $C$DW$122, DW_AT_location[DW_OP_reg15]
    2753            
    2754            $C$DW$123       .dwtag  DW_TAG_TI_assign_register
    2755                    .dwattr $C$DW$123, DW_AT_name("CIE_RETA")
    2756                    .dwattr $C$DW$123, DW_AT_location[DW_OP_reg16]
    2757            
    2758                    .dwendtag $C$DW$CU
    2759            

No Assembly Errors, No Assembly Warnings
