MSP430 Assembler PC v21.6.1 Wed Nov 30 16:35:38 2022

Copyright (c) 2003-2018 Texas Instruments Incorporated
eusci_b_i2c.asm                                                      PAGE    1

       1            ;******************************************************************************
       2            ;* MSP430 G3 C/C++ Codegen                                              PC v21.6.1.LTS *
       3            ;* Date/Time created: Wed Nov 30 16:35:35 2022                                *
       4            ;******************************************************************************
       5                    .compiler_opts --abi=eabi --diag_wrap=off --hll_source=on --mem_model:code=large --mem_model:d
       6            
       7            $C$DW$CU        .dwtag  DW_TAG_compile_unit
       8                    .dwattr $C$DW$CU, DW_AT_name("../driverlib/MSP430FR2xx_4xx/eusci_b_i2c.c")
       9                    .dwattr $C$DW$CU, DW_AT_producer("TI MSP430 G3 C/C++ Codegen PC v21.6.1.LTS Copyright (c) 2003
      10                    .dwattr $C$DW$CU, DW_AT_TI_version(0x01)
      11                    .dwattr $C$DW$CU, DW_AT_comp_dir("C:\ccs_challengespace\MSP430_LCD_display\Debug")
      12            ;       C:\ti\ccs1110\ccs\tools\compiler\ti-cgt-msp430_21.6.1.LTS\bin\acpia430.exe -@C:\\Users\\DAVID~
      13 000000               .sect   ".text:EUSCI_B_I2C_initMaster"
      14                    .clink
      15                    .global EUSCI_B_I2C_initMaster
      16            
      17            $C$DW$1 .dwtag  DW_TAG_subprogram
      18                    .dwattr $C$DW$1, DW_AT_name("EUSCI_B_I2C_initMaster")
      19                    .dwattr $C$DW$1, DW_AT_low_pc(EUSCI_B_I2C_initMaster)
      20                    .dwattr $C$DW$1, DW_AT_high_pc(0x00)
      21                    .dwattr $C$DW$1, DW_AT_TI_symbol_name("EUSCI_B_I2C_initMaster")
      22                    .dwattr $C$DW$1, DW_AT_external
      23                    .dwattr $C$DW$1, DW_AT_TI_begin_file("../driverlib/MSP430FR2xx_4xx/eusci_b_i2c.c")
      24                    .dwattr $C$DW$1, DW_AT_TI_begin_line(0x15)
      25                    .dwattr $C$DW$1, DW_AT_TI_begin_column(0x06)
      26                    .dwattr $C$DW$1, DW_AT_decl_file("../driverlib/MSP430FR2xx_4xx/eusci_b_i2c.c")
      27                    .dwattr $C$DW$1, DW_AT_decl_line(0x15)
      28                    .dwattr $C$DW$1, DW_AT_decl_column(0x06)
      29                    .dwattr $C$DW$1, DW_AT_TI_max_frame_size(0x0a)
      30                    .dwpsn  file "../driverlib/MSP430FR2xx_4xx/eusci_b_i2c.c",line 24,column 1,is_stmt,address EUS
      31            
      32                    .dwfde $C$DW$CIE, EUSCI_B_I2C_initMaster
      33            $C$DW$2 .dwtag  DW_TAG_formal_parameter
      34                    .dwattr $C$DW$2, DW_AT_name("baseAddress")
      35                    .dwattr $C$DW$2, DW_AT_TI_symbol_name("baseAddress")
      36                    .dwattr $C$DW$2, DW_AT_type(*$C$DW$T$34)
      37                    .dwattr $C$DW$2, DW_AT_location[DW_OP_reg12]
      38            
      39            $C$DW$3 .dwtag  DW_TAG_formal_parameter
      40                    .dwattr $C$DW$3, DW_AT_name("param")
      41                    .dwattr $C$DW$3, DW_AT_TI_symbol_name("param")
      42                    .dwattr $C$DW$3, DW_AT_type(*$C$DW$T$30)
      43                    .dwattr $C$DW$3, DW_AT_location[DW_OP_reg13]
      44            
      45            
      46            ;*****************************************************************************
      47            ;* FUNCTION NAME: EUSCI_B_I2C_initMaster                                     *
      48            ;*                                                                           *
      49            ;*   Regs Modified     : SP,SR,r11,r12,r13,r14,r15                           *
      50            ;*   Regs Used         : SP,SR,r11,r12,r13,r14,r15                           *
      51            ;*   Local Frame Size  : 0 Args + 6 Auto + 0 Save = 6 byte                   *
      52            ;*****************************************************************************
      53 000000       EUSCI_B_I2C_initMaster:
      54            ;* --------------------------------------------------------------------------*
      55                    .dwcfi  cfa_offset, 4
MSP430 Assembler PC v21.6.1 Wed Nov 30 16:35:38 2022

Copyright (c) 2003-2018 Texas Instruments Incorporated
eusci_b_i2c.asm                                                      PAGE    2

      56                    .dwcfi  save_reg_to_mem, 16, -4
      57 000000 8031          SUB.W     #6,SP                 ; [] 
         000002 0006 
      58                    .dwcfi  cfa_offset, 10
      59            $C$DW$4 .dwtag  DW_TAG_variable
      60                    .dwattr $C$DW$4, DW_AT_name("baseAddress")
      61                    .dwattr $C$DW$4, DW_AT_TI_symbol_name("baseAddress")
      62                    .dwattr $C$DW$4, DW_AT_type(*$C$DW$T$34)
      63                    .dwattr $C$DW$4, DW_AT_location[DW_OP_breg1 0]
      64            
      65            $C$DW$5 .dwtag  DW_TAG_variable
      66                    .dwattr $C$DW$5, DW_AT_name("param")
      67                    .dwattr $C$DW$5, DW_AT_TI_symbol_name("param")
      68                    .dwattr $C$DW$5, DW_AT_type(*$C$DW$T$30)
      69                    .dwattr $C$DW$5, DW_AT_location[DW_OP_breg1 2]
      70            
      71            $C$DW$6 .dwtag  DW_TAG_variable
      72                    .dwattr $C$DW$6, DW_AT_name("preScalarValue")
      73                    .dwattr $C$DW$6, DW_AT_TI_symbol_name("preScalarValue")
      74                    .dwattr $C$DW$6, DW_AT_type(*$C$DW$T$34)
      75                    .dwattr $C$DW$6, DW_AT_location[DW_OP_breg1 4]
      76            
      77 000004 4D81          MOV.W     r13,2(SP)             ; [] |24| 
         000006 0002 
      78 000008 4C81          MOV.W     r12,0(SP)             ; [] |24| 
         00000a 0000 
      79                    .dwpsn  file "../driverlib/MSP430FR2xx_4xx/eusci_b_i2c.c",line 28,column 5,is_stmt,isa 0
      80 00000c 412F          MOV.W     0(SP),r15             ; [] |28| 
      81 00000e 439F          MOV.W     #1,0(r15)             ; [] |28| 
         000010 0000 
      82                    .dwpsn  file "../driverlib/MSP430FR2xx_4xx/eusci_b_i2c.c",line 31,column 5,is_stmt,isa 0
      83 000012 432F          MOV.W     #2,r15                ; [] |31| 
      84 000014 512F          ADD.W     0(SP),r15             ; [] |31| 
      85 000016 F0BF          AND.W     #65523,0(r15)         ; [] |31| 
         000018 FFF3 
         00001a 0000 
      86                    .dwpsn  file "../driverlib/MSP430FR2xx_4xx/eusci_b_i2c.c",line 32,column 5,is_stmt,isa 0
      87 00001c 432F          MOV.W     #2,r15                ; [] |32| 
      88 00001e 512F          ADD.W     0(SP),r15             ; [] |32| 
      89 000020 411E          MOV.W     2(SP),r14             ; [] |32| 
         000022 0002 
      90 000024 4E5E          MOV.B     11(r14),r14           ; [] |32| 
         000026 000B 
      91 000028 DE8F          OR.W      r14,0(r15)            ; [] |32| 
         00002a 0000 
      92                    .dwpsn  file "../driverlib/MSP430FR2xx_4xx/eusci_b_i2c.c",line 35,column 5,is_stmt,isa 0
      93 00002c 411F          MOV.W     2(SP),r15             ; [] |35| 
         00002e 0002 
      94 000030 4F5F          MOV.B     10(r15),r15           ; [] |35| 
         000032 000A 
      95 000034 412E          MOV.W     0(SP),r14             ; [] |35| 
      96 000036 4F8E          MOV.W     r15,10(r14)           ; [] |35| 
         000038 000A 
      97                    .dwpsn  file "../driverlib/MSP430FR2xx_4xx/eusci_b_i2c.c",line 42,column 5,is_stmt,isa 0
      98 00003a 412F          MOV.W     0(SP),r15             ; [] |42| 
MSP430 Assembler PC v21.6.1 Wed Nov 30 16:35:38 2022

Copyright (c) 2003-2018 Texas Instruments Incorporated
eusci_b_i2c.asm                                                      PAGE    3

      99 00003c D0BF          OR.W      #3840,0(r15)          ; [] |42| 
         00003e 0F00 
         000040 0000 
     100                    .dwpsn  file "../driverlib/MSP430FR2xx_4xx/eusci_b_i2c.c",line 45,column 5,is_stmt,isa 0
     101 000042 412E          MOV.W     0(SP),r14             ; [] |45| 
     102 000044 411F          MOV.W     2(SP),r15             ; [] |45| 
         000046 0002 
     103 000048 4F6F          MOV.B     @r15,r15              ; [] |45| 
     104 00004a 531F          ADD.W     #1,r15                ; [] |45| 
     105 00004c DF8E          OR.W      r15,0(r14)            ; [] |45| 
         00004e 0000 
     106                    .dwpsn  file "../driverlib/MSP430FR2xx_4xx/eusci_b_i2c.c",line 53,column 5,is_stmt,isa 0
     107 000050 411F          MOV.W     2(SP),r15             ; [] |53| 
         000052 0002 
     108 000054 4F1C          MOV.W     2(r15),r12            ; [] |53| 
         000056 0002 
     109 000058 4F1D          MOV.W     4(r15),r13            ; [] |53| 
         00005a 0004 
     110 00005c 4F1E          MOV.W     6(r15),r14            ; [] |53| 
         00005e 0006 
     111 000060 4F1F          MOV.W     8(r15),r15            ; [] |53| 
         000062 0008 
     112            $C$DW$7 .dwtag  DW_TAG_TI_branch
     113                    .dwattr $C$DW$7, DW_AT_low_pc(0x00)
     114                    .dwattr $C$DW$7, DW_AT_name("__mspabi_divul")
     115                    .dwattr $C$DW$7, DW_AT_TI_call
     116            
     117 000064 13B0!         CALLA     #__mspabi_divul       ; [] |53| 
         000066 0000 
     118                                                      ; [] |53| 
     119 000068 4C81          MOV.W     r12,4(SP)             ; [] |53| 
         00006a 0004 
     120                    .dwpsn  file "../driverlib/MSP430FR2xx_4xx/eusci_b_i2c.c",line 54,column 5,is_stmt,isa 0
     121 00006c 412F          MOV.W     0(SP),r15             ; [] |54| 
     122 00006e 419F          MOV.W     4(SP),6(r15)          ; [] |54| 
         000070 0004 
         000072 0006 
     123                    .dwpsn  file "../driverlib/MSP430FR2xx_4xx/eusci_b_i2c.c",line 55,column 1,is_stmt,isa 0
     124 000074 5031          ADD.W     #6,SP                 ; [] 
         000076 0006 
     125                    .dwcfi  cfa_offset, 4
     126            $C$DW$8 .dwtag  DW_TAG_TI_branch
     127                    .dwattr $C$DW$8, DW_AT_low_pc(0x00)
     128                    .dwattr $C$DW$8, DW_AT_TI_return
     129            
     130 000078 0110          RETA      ; [] 
     131                    ; [] 
     132                    .dwattr $C$DW$1, DW_AT_TI_end_file("../driverlib/MSP430FR2xx_4xx/eusci_b_i2c.c")
     133                    .dwattr $C$DW$1, DW_AT_TI_end_line(0x37)
     134                    .dwattr $C$DW$1, DW_AT_TI_end_column(0x01)
     135                    .dwendentry
     136                    .dwendtag $C$DW$1
     137            
     138 000000               .sect   ".text:EUSCI_B_I2C_initSlave"
     139                    .clink
MSP430 Assembler PC v21.6.1 Wed Nov 30 16:35:38 2022

Copyright (c) 2003-2018 Texas Instruments Incorporated
eusci_b_i2c.asm                                                      PAGE    4

     140                    .global EUSCI_B_I2C_initSlave
     141            
     142            $C$DW$9 .dwtag  DW_TAG_subprogram
     143                    .dwattr $C$DW$9, DW_AT_name("EUSCI_B_I2C_initSlave")
     144                    .dwattr $C$DW$9, DW_AT_low_pc(EUSCI_B_I2C_initSlave)
     145                    .dwattr $C$DW$9, DW_AT_high_pc(0x00)
     146                    .dwattr $C$DW$9, DW_AT_TI_symbol_name("EUSCI_B_I2C_initSlave")
     147                    .dwattr $C$DW$9, DW_AT_external
     148                    .dwattr $C$DW$9, DW_AT_TI_begin_file("../driverlib/MSP430FR2xx_4xx/eusci_b_i2c.c")
     149                    .dwattr $C$DW$9, DW_AT_TI_begin_line(0x39)
     150                    .dwattr $C$DW$9, DW_AT_TI_begin_column(0x06)
     151                    .dwattr $C$DW$9, DW_AT_decl_file("../driverlib/MSP430FR2xx_4xx/eusci_b_i2c.c")
     152                    .dwattr $C$DW$9, DW_AT_decl_line(0x39)
     153                    .dwattr $C$DW$9, DW_AT_decl_column(0x06)
     154                    .dwattr $C$DW$9, DW_AT_TI_max_frame_size(0x08)
     155                    .dwpsn  file "../driverlib/MSP430FR2xx_4xx/eusci_b_i2c.c",line 60,column 1,is_stmt,address EUS
     156            
     157                    .dwfde $C$DW$CIE, EUSCI_B_I2C_initSlave
     158            $C$DW$10        .dwtag  DW_TAG_formal_parameter
     159                    .dwattr $C$DW$10, DW_AT_name("baseAddress")
     160                    .dwattr $C$DW$10, DW_AT_TI_symbol_name("baseAddress")
     161                    .dwattr $C$DW$10, DW_AT_type(*$C$DW$T$34)
     162                    .dwattr $C$DW$10, DW_AT_location[DW_OP_reg12]
     163            
     164            $C$DW$11        .dwtag  DW_TAG_formal_parameter
     165                    .dwattr $C$DW$11, DW_AT_name("param")
     166                    .dwattr $C$DW$11, DW_AT_TI_symbol_name("param")
     167                    .dwattr $C$DW$11, DW_AT_type(*$C$DW$T$32)
     168                    .dwattr $C$DW$11, DW_AT_location[DW_OP_reg13]
     169            
     170            
     171            ;*****************************************************************************
     172            ;* FUNCTION NAME: EUSCI_B_I2C_initSlave                                      *
     173            ;*                                                                           *
     174            ;*   Regs Modified     : SP,SR,r14,r15                                       *
     175            ;*   Regs Used         : SP,SR,r12,r13,r14,r15                               *
     176            ;*   Local Frame Size  : 0 Args + 4 Auto + 0 Save = 4 byte                   *
     177            ;*****************************************************************************
     178 000000       EUSCI_B_I2C_initSlave:
     179            ;* --------------------------------------------------------------------------*
     180                    .dwcfi  cfa_offset, 4
     181                    .dwcfi  save_reg_to_mem, 16, -4
     182 000000 8221          SUB.W     #4,SP                 ; [] 
     183                    .dwcfi  cfa_offset, 8
     184            $C$DW$12        .dwtag  DW_TAG_variable
     185                    .dwattr $C$DW$12, DW_AT_name("baseAddress")
     186                    .dwattr $C$DW$12, DW_AT_TI_symbol_name("baseAddress")
     187                    .dwattr $C$DW$12, DW_AT_type(*$C$DW$T$34)
     188                    .dwattr $C$DW$12, DW_AT_location[DW_OP_breg1 0]
     189            
     190            $C$DW$13        .dwtag  DW_TAG_variable
     191                    .dwattr $C$DW$13, DW_AT_name("param")
     192                    .dwattr $C$DW$13, DW_AT_TI_symbol_name("param")
     193                    .dwattr $C$DW$13, DW_AT_type(*$C$DW$T$32)
     194                    .dwattr $C$DW$13, DW_AT_location[DW_OP_breg1 2]
MSP430 Assembler PC v21.6.1 Wed Nov 30 16:35:38 2022

Copyright (c) 2003-2018 Texas Instruments Incorporated
eusci_b_i2c.asm                                                      PAGE    5

     195            
     196 000002 4D81          MOV.W     r13,2(SP)             ; [] |60| 
         000004 0002 
     197 000006 4C81          MOV.W     r12,0(SP)             ; [] |60| 
         000008 0000 
     198                    .dwpsn  file "../driverlib/MSP430FR2xx_4xx/eusci_b_i2c.c",line 62,column 5,is_stmt,isa 0
     199 00000a 412F          MOV.W     0(SP),r15             ; [] |62| 
     200 00000c D39F          OR.W      #1,0(r15)             ; [] |62| 
         00000e 0000 
     201                    .dwpsn  file "../driverlib/MSP430FR2xx_4xx/eusci_b_i2c.c",line 65,column 5,is_stmt,isa 0
     202 000010 412F          MOV.W     0(SP),r15             ; [] |65| 
     203 000012 F0BF          AND.W     #63487,0(r15)         ; [] |65| 
         000014 F7FF 
         000016 0000 
     204                    .dwpsn  file "../driverlib/MSP430FR2xx_4xx/eusci_b_i2c.c",line 68,column 5,is_stmt,isa 0
     205 000018 412F          MOV.W     0(SP),r15             ; [] |68| 
     206 00001a D0BF          OR.W      #1792,0(r15)          ; [] |68| 
         00001c 0700 
         00001e 0000 
     207                    .dwpsn  file "../driverlib/MSP430FR2xx_4xx/eusci_b_i2c.c",line 71,column 5,is_stmt,isa 0
     208 000020 411F          MOV.W     2(SP),r15             ; [] |71| 
         000022 0002 
     209 000024 4F6E          MOV.B     @r15,r14              ; [] |71| 
     210 000026 5F1E          ADD.W     2(r15),r14            ; [] |71| 
         000028 0002 
     211 00002a 4F5F          MOV.B     1(r15),r15            ; [] |71| 
         00002c 0001 
     212 00002e 512F          ADD.W     0(SP),r15             ; [] |71| 
     213 000030 4E8F          MOV.W     r14,20(r15)           ; [] |71| 
         000032 0014 
     214                    .dwpsn  file "../driverlib/MSP430FR2xx_4xx/eusci_b_i2c.c",line 73,column 1,is_stmt,isa 0
     215 000034 5221          ADD.W     #4,SP                 ; [] 
     216                    .dwcfi  cfa_offset, 4
     217            $C$DW$14        .dwtag  DW_TAG_TI_branch
     218                    .dwattr $C$DW$14, DW_AT_low_pc(0x00)
     219                    .dwattr $C$DW$14, DW_AT_TI_return
     220            
     221 000036 0110          RETA      ; [] 
     222                    ; [] 
     223                    .dwattr $C$DW$9, DW_AT_TI_end_file("../driverlib/MSP430FR2xx_4xx/eusci_b_i2c.c")
     224                    .dwattr $C$DW$9, DW_AT_TI_end_line(0x49)
     225                    .dwattr $C$DW$9, DW_AT_TI_end_column(0x01)
     226                    .dwendentry
     227                    .dwendtag $C$DW$9
     228            
     229 000000               .sect   ".text:EUSCI_B_I2C_enable"
     230                    .clink
     231                    .global EUSCI_B_I2C_enable
     232            
     233            $C$DW$15        .dwtag  DW_TAG_subprogram
     234                    .dwattr $C$DW$15, DW_AT_name("EUSCI_B_I2C_enable")
     235                    .dwattr $C$DW$15, DW_AT_low_pc(EUSCI_B_I2C_enable)
     236                    .dwattr $C$DW$15, DW_AT_high_pc(0x00)
     237                    .dwattr $C$DW$15, DW_AT_TI_symbol_name("EUSCI_B_I2C_enable")
     238                    .dwattr $C$DW$15, DW_AT_external
MSP430 Assembler PC v21.6.1 Wed Nov 30 16:35:38 2022

Copyright (c) 2003-2018 Texas Instruments Incorporated
eusci_b_i2c.asm                                                      PAGE    6

     239                    .dwattr $C$DW$15, DW_AT_TI_begin_file("../driverlib/MSP430FR2xx_4xx/eusci_b_i2c.c")
     240                    .dwattr $C$DW$15, DW_AT_TI_begin_line(0x4b)
     241                    .dwattr $C$DW$15, DW_AT_TI_begin_column(0x06)
     242                    .dwattr $C$DW$15, DW_AT_decl_file("../driverlib/MSP430FR2xx_4xx/eusci_b_i2c.c")
     243                    .dwattr $C$DW$15, DW_AT_decl_line(0x4b)
     244                    .dwattr $C$DW$15, DW_AT_decl_column(0x06)
     245                    .dwattr $C$DW$15, DW_AT_TI_max_frame_size(0x06)
     246                    .dwpsn  file "../driverlib/MSP430FR2xx_4xx/eusci_b_i2c.c",line 76,column 1,is_stmt,address EUS
     247            
     248                    .dwfde $C$DW$CIE, EUSCI_B_I2C_enable
     249            $C$DW$16        .dwtag  DW_TAG_formal_parameter
     250                    .dwattr $C$DW$16, DW_AT_name("baseAddress")
     251                    .dwattr $C$DW$16, DW_AT_TI_symbol_name("baseAddress")
     252                    .dwattr $C$DW$16, DW_AT_type(*$C$DW$T$34)
     253                    .dwattr $C$DW$16, DW_AT_location[DW_OP_reg12]
     254            
     255            
     256            ;*****************************************************************************
     257            ;* FUNCTION NAME: EUSCI_B_I2C_enable                                         *
     258            ;*                                                                           *
     259            ;*   Regs Modified     : SP,SR,r15                                           *
     260            ;*   Regs Used         : SP,SR,r12,r15                                       *
     261            ;*   Local Frame Size  : 0 Args + 2 Auto + 0 Save = 2 byte                   *
     262            ;*****************************************************************************
     263 000000       EUSCI_B_I2C_enable:
     264            ;* --------------------------------------------------------------------------*
     265                    .dwcfi  cfa_offset, 4
     266                    .dwcfi  save_reg_to_mem, 16, -4
     267 000000 8321          SUB.W     #2,SP                 ; [] 
     268                    .dwcfi  cfa_offset, 6
     269            $C$DW$17        .dwtag  DW_TAG_variable
     270                    .dwattr $C$DW$17, DW_AT_name("baseAddress")
     271                    .dwattr $C$DW$17, DW_AT_TI_symbol_name("baseAddress")
     272                    .dwattr $C$DW$17, DW_AT_type(*$C$DW$T$34)
     273                    .dwattr $C$DW$17, DW_AT_location[DW_OP_breg1 0]
     274            
     275 000002 4C81          MOV.W     r12,0(SP)             ; [] |76| 
         000004 0000 
     276                    .dwpsn  file "../driverlib/MSP430FR2xx_4xx/eusci_b_i2c.c",line 78,column 5,is_stmt,isa 0
     277 000006 412F          MOV.W     0(SP),r15             ; [] |78| 
     278 000008 C39F          BIC.W     #1,0(r15)             ; [] |78| 
         00000a 0000 
     279                    .dwpsn  file "../driverlib/MSP430FR2xx_4xx/eusci_b_i2c.c",line 79,column 1,is_stmt,isa 0
     280 00000c 5321          ADD.W     #2,SP                 ; [] 
     281                    .dwcfi  cfa_offset, 4
     282            $C$DW$18        .dwtag  DW_TAG_TI_branch
     283                    .dwattr $C$DW$18, DW_AT_low_pc(0x00)
     284                    .dwattr $C$DW$18, DW_AT_TI_return
     285            
     286 00000e 0110          RETA      ; [] 
     287                    ; [] 
     288                    .dwattr $C$DW$15, DW_AT_TI_end_file("../driverlib/MSP430FR2xx_4xx/eusci_b_i2c.c")
     289                    .dwattr $C$DW$15, DW_AT_TI_end_line(0x4f)
     290                    .dwattr $C$DW$15, DW_AT_TI_end_column(0x01)
     291                    .dwendentry
MSP430 Assembler PC v21.6.1 Wed Nov 30 16:35:38 2022

Copyright (c) 2003-2018 Texas Instruments Incorporated
eusci_b_i2c.asm                                                      PAGE    7

     292                    .dwendtag $C$DW$15
     293            
     294 000000               .sect   ".text:EUSCI_B_I2C_disable"
     295                    .clink
     296                    .global EUSCI_B_I2C_disable
     297            
     298            $C$DW$19        .dwtag  DW_TAG_subprogram
     299                    .dwattr $C$DW$19, DW_AT_name("EUSCI_B_I2C_disable")
     300                    .dwattr $C$DW$19, DW_AT_low_pc(EUSCI_B_I2C_disable)
     301                    .dwattr $C$DW$19, DW_AT_high_pc(0x00)
     302                    .dwattr $C$DW$19, DW_AT_TI_symbol_name("EUSCI_B_I2C_disable")
     303                    .dwattr $C$DW$19, DW_AT_external
     304                    .dwattr $C$DW$19, DW_AT_TI_begin_file("../driverlib/MSP430FR2xx_4xx/eusci_b_i2c.c")
     305                    .dwattr $C$DW$19, DW_AT_TI_begin_line(0x51)
     306                    .dwattr $C$DW$19, DW_AT_TI_begin_column(0x06)
     307                    .dwattr $C$DW$19, DW_AT_decl_file("../driverlib/MSP430FR2xx_4xx/eusci_b_i2c.c")
     308                    .dwattr $C$DW$19, DW_AT_decl_line(0x51)
     309                    .dwattr $C$DW$19, DW_AT_decl_column(0x06)
     310                    .dwattr $C$DW$19, DW_AT_TI_max_frame_size(0x06)
     311                    .dwpsn  file "../driverlib/MSP430FR2xx_4xx/eusci_b_i2c.c",line 82,column 1,is_stmt,address EUS
     312            
     313                    .dwfde $C$DW$CIE, EUSCI_B_I2C_disable
     314            $C$DW$20        .dwtag  DW_TAG_formal_parameter
     315                    .dwattr $C$DW$20, DW_AT_name("baseAddress")
     316                    .dwattr $C$DW$20, DW_AT_TI_symbol_name("baseAddress")
     317                    .dwattr $C$DW$20, DW_AT_type(*$C$DW$T$34)
     318                    .dwattr $C$DW$20, DW_AT_location[DW_OP_reg12]
     319            
     320            
     321            ;*****************************************************************************
     322            ;* FUNCTION NAME: EUSCI_B_I2C_disable                                        *
     323            ;*                                                                           *
     324            ;*   Regs Modified     : SP,SR,r15                                           *
     325            ;*   Regs Used         : SP,SR,r12,r15                                       *
     326            ;*   Local Frame Size  : 0 Args + 2 Auto + 0 Save = 2 byte                   *
     327            ;*****************************************************************************
     328 000000       EUSCI_B_I2C_disable:
     329            ;* --------------------------------------------------------------------------*
     330                    .dwcfi  cfa_offset, 4
     331                    .dwcfi  save_reg_to_mem, 16, -4
     332 000000 8321          SUB.W     #2,SP                 ; [] 
     333                    .dwcfi  cfa_offset, 6
     334            $C$DW$21        .dwtag  DW_TAG_variable
     335                    .dwattr $C$DW$21, DW_AT_name("baseAddress")
     336                    .dwattr $C$DW$21, DW_AT_TI_symbol_name("baseAddress")
     337                    .dwattr $C$DW$21, DW_AT_type(*$C$DW$T$34)
     338                    .dwattr $C$DW$21, DW_AT_location[DW_OP_breg1 0]
     339            
     340 000002 4C81          MOV.W     r12,0(SP)             ; [] |82| 
         000004 0000 
     341                    .dwpsn  file "../driverlib/MSP430FR2xx_4xx/eusci_b_i2c.c",line 84,column 5,is_stmt,isa 0
     342 000006 412F          MOV.W     0(SP),r15             ; [] |84| 
     343 000008 D39F          OR.W      #1,0(r15)             ; [] |84| 
         00000a 0000 
     344                    .dwpsn  file "../driverlib/MSP430FR2xx_4xx/eusci_b_i2c.c",line 85,column 1,is_stmt,isa 0
MSP430 Assembler PC v21.6.1 Wed Nov 30 16:35:38 2022

Copyright (c) 2003-2018 Texas Instruments Incorporated
eusci_b_i2c.asm                                                      PAGE    8

     345 00000c 5321          ADD.W     #2,SP                 ; [] 
     346                    .dwcfi  cfa_offset, 4
     347            $C$DW$22        .dwtag  DW_TAG_TI_branch
     348                    .dwattr $C$DW$22, DW_AT_low_pc(0x00)
     349                    .dwattr $C$DW$22, DW_AT_TI_return
     350            
     351 00000e 0110          RETA      ; [] 
     352                    ; [] 
     353                    .dwattr $C$DW$19, DW_AT_TI_end_file("../driverlib/MSP430FR2xx_4xx/eusci_b_i2c.c")
     354                    .dwattr $C$DW$19, DW_AT_TI_end_line(0x55)
     355                    .dwattr $C$DW$19, DW_AT_TI_end_column(0x01)
     356                    .dwendentry
     357                    .dwendtag $C$DW$19
     358            
     359 000000               .sect   ".text:EUSCI_B_I2C_setSlaveAddress"
     360                    .clink
     361                    .global EUSCI_B_I2C_setSlaveAddress
     362            
     363            $C$DW$23        .dwtag  DW_TAG_subprogram
     364                    .dwattr $C$DW$23, DW_AT_name("EUSCI_B_I2C_setSlaveAddress")
     365                    .dwattr $C$DW$23, DW_AT_low_pc(EUSCI_B_I2C_setSlaveAddress)
     366                    .dwattr $C$DW$23, DW_AT_high_pc(0x00)
     367                    .dwattr $C$DW$23, DW_AT_TI_symbol_name("EUSCI_B_I2C_setSlaveAddress")
     368                    .dwattr $C$DW$23, DW_AT_external
     369                    .dwattr $C$DW$23, DW_AT_TI_begin_file("../driverlib/MSP430FR2xx_4xx/eusci_b_i2c.c")
     370                    .dwattr $C$DW$23, DW_AT_TI_begin_line(0x57)
     371                    .dwattr $C$DW$23, DW_AT_TI_begin_column(0x06)
     372                    .dwattr $C$DW$23, DW_AT_decl_file("../driverlib/MSP430FR2xx_4xx/eusci_b_i2c.c")
     373                    .dwattr $C$DW$23, DW_AT_decl_line(0x57)
     374                    .dwattr $C$DW$23, DW_AT_decl_column(0x06)
     375                    .dwattr $C$DW$23, DW_AT_TI_max_frame_size(0x08)
     376                    .dwpsn  file "../driverlib/MSP430FR2xx_4xx/eusci_b_i2c.c",line 90,column 1,is_stmt,address EUS
     377            
     378                    .dwfde $C$DW$CIE, EUSCI_B_I2C_setSlaveAddress
     379            $C$DW$24        .dwtag  DW_TAG_formal_parameter
     380                    .dwattr $C$DW$24, DW_AT_name("baseAddress")
     381                    .dwattr $C$DW$24, DW_AT_TI_symbol_name("baseAddress")
     382                    .dwattr $C$DW$24, DW_AT_type(*$C$DW$T$34)
     383                    .dwattr $C$DW$24, DW_AT_location[DW_OP_reg12]
     384            
     385            $C$DW$25        .dwtag  DW_TAG_formal_parameter
     386                    .dwattr $C$DW$25, DW_AT_name("slaveAddress")
     387                    .dwattr $C$DW$25, DW_AT_TI_symbol_name("slaveAddress")
     388                    .dwattr $C$DW$25, DW_AT_type(*$C$DW$T$23)
     389                    .dwattr $C$DW$25, DW_AT_location[DW_OP_reg13]
     390            
     391            
     392            ;*****************************************************************************
     393            ;* FUNCTION NAME: EUSCI_B_I2C_setSlaveAddress                                *
     394            ;*                                                                           *
     395            ;*   Regs Modified     : SP,SR,r15                                           *
     396            ;*   Regs Used         : SP,SR,r12,r13,r15                                   *
     397            ;*   Local Frame Size  : 0 Args + 4 Auto + 0 Save = 4 byte                   *
     398            ;*****************************************************************************
     399 000000       EUSCI_B_I2C_setSlaveAddress:
MSP430 Assembler PC v21.6.1 Wed Nov 30 16:35:38 2022

Copyright (c) 2003-2018 Texas Instruments Incorporated
eusci_b_i2c.asm                                                      PAGE    9

     400            ;* --------------------------------------------------------------------------*
     401                    .dwcfi  cfa_offset, 4
     402                    .dwcfi  save_reg_to_mem, 16, -4
     403 000000 8221          SUB.W     #4,SP                 ; [] 
     404                    .dwcfi  cfa_offset, 8
     405            $C$DW$26        .dwtag  DW_TAG_variable
     406                    .dwattr $C$DW$26, DW_AT_name("baseAddress")
     407                    .dwattr $C$DW$26, DW_AT_TI_symbol_name("baseAddress")
     408                    .dwattr $C$DW$26, DW_AT_type(*$C$DW$T$34)
     409                    .dwattr $C$DW$26, DW_AT_location[DW_OP_breg1 0]
     410            
     411            $C$DW$27        .dwtag  DW_TAG_variable
     412                    .dwattr $C$DW$27, DW_AT_name("slaveAddress")
     413                    .dwattr $C$DW$27, DW_AT_TI_symbol_name("slaveAddress")
     414                    .dwattr $C$DW$27, DW_AT_type(*$C$DW$T$23)
     415                    .dwattr $C$DW$27, DW_AT_location[DW_OP_breg1 2]
     416            
     417 000002 4DC1          MOV.B     r13,2(SP)             ; [] |90| 
         000004 0002 
     418 000006 4C81          MOV.W     r12,0(SP)             ; [] |90| 
         000008 0000 
     419                    .dwpsn  file "../driverlib/MSP430FR2xx_4xx/eusci_b_i2c.c",line 92,column 5,is_stmt,isa 0
     420 00000a 415F          MOV.B     2(SP),r15             ; [] |92| 
         00000c 0002 
     421 00000e 4F8C          MOV.W     r15,32(r12)           ; [] |92| 
         000010 0020 
     422                    .dwpsn  file "../driverlib/MSP430FR2xx_4xx/eusci_b_i2c.c",line 93,column 1,is_stmt,isa 0
     423 000012 5221          ADD.W     #4,SP                 ; [] 
     424                    .dwcfi  cfa_offset, 4
     425            $C$DW$28        .dwtag  DW_TAG_TI_branch
     426                    .dwattr $C$DW$28, DW_AT_low_pc(0x00)
     427                    .dwattr $C$DW$28, DW_AT_TI_return
     428            
     429 000014 0110          RETA      ; [] 
     430                    ; [] 
     431                    .dwattr $C$DW$23, DW_AT_TI_end_file("../driverlib/MSP430FR2xx_4xx/eusci_b_i2c.c")
     432                    .dwattr $C$DW$23, DW_AT_TI_end_line(0x5d)
     433                    .dwattr $C$DW$23, DW_AT_TI_end_column(0x01)
     434                    .dwendentry
     435                    .dwendtag $C$DW$23
     436            
     437 000000               .sect   ".text:EUSCI_B_I2C_setMode"
     438                    .clink
     439                    .global EUSCI_B_I2C_setMode
     440            
     441            $C$DW$29        .dwtag  DW_TAG_subprogram
     442                    .dwattr $C$DW$29, DW_AT_name("EUSCI_B_I2C_setMode")
     443                    .dwattr $C$DW$29, DW_AT_low_pc(EUSCI_B_I2C_setMode)
     444                    .dwattr $C$DW$29, DW_AT_high_pc(0x00)
     445                    .dwattr $C$DW$29, DW_AT_TI_symbol_name("EUSCI_B_I2C_setMode")
     446                    .dwattr $C$DW$29, DW_AT_external
     447                    .dwattr $C$DW$29, DW_AT_TI_begin_file("../driverlib/MSP430FR2xx_4xx/eusci_b_i2c.c")
     448                    .dwattr $C$DW$29, DW_AT_TI_begin_line(0x5f)
     449                    .dwattr $C$DW$29, DW_AT_TI_begin_column(0x06)
     450                    .dwattr $C$DW$29, DW_AT_decl_file("../driverlib/MSP430FR2xx_4xx/eusci_b_i2c.c")
MSP430 Assembler PC v21.6.1 Wed Nov 30 16:35:38 2022

Copyright (c) 2003-2018 Texas Instruments Incorporated
eusci_b_i2c.asm                                                      PAGE   10

     451                    .dwattr $C$DW$29, DW_AT_decl_line(0x5f)
     452                    .dwattr $C$DW$29, DW_AT_decl_column(0x06)
     453                    .dwattr $C$DW$29, DW_AT_TI_max_frame_size(0x08)
     454                    .dwpsn  file "../driverlib/MSP430FR2xx_4xx/eusci_b_i2c.c",line 98,column 1,is_stmt,address EUS
     455            
     456                    .dwfde $C$DW$CIE, EUSCI_B_I2C_setMode
     457            $C$DW$30        .dwtag  DW_TAG_formal_parameter
     458                    .dwattr $C$DW$30, DW_AT_name("baseAddress")
     459                    .dwattr $C$DW$30, DW_AT_TI_symbol_name("baseAddress")
     460                    .dwattr $C$DW$30, DW_AT_type(*$C$DW$T$34)
     461                    .dwattr $C$DW$30, DW_AT_location[DW_OP_reg12]
     462            
     463            $C$DW$31        .dwtag  DW_TAG_formal_parameter
     464                    .dwattr $C$DW$31, DW_AT_name("mode")
     465                    .dwattr $C$DW$31, DW_AT_TI_symbol_name("mode")
     466                    .dwattr $C$DW$31, DW_AT_type(*$C$DW$T$34)
     467                    .dwattr $C$DW$31, DW_AT_location[DW_OP_reg13]
     468            
     469            
     470            ;*****************************************************************************
     471            ;* FUNCTION NAME: EUSCI_B_I2C_setMode                                        *
     472            ;*                                                                           *
     473            ;*   Regs Modified     : SP,SR,r15                                           *
     474            ;*   Regs Used         : SP,SR,r12,r13,r15                                   *
     475            ;*   Local Frame Size  : 0 Args + 4 Auto + 0 Save = 4 byte                   *
     476            ;*****************************************************************************
     477 000000       EUSCI_B_I2C_setMode:
     478            ;* --------------------------------------------------------------------------*
     479                    .dwcfi  cfa_offset, 4
     480                    .dwcfi  save_reg_to_mem, 16, -4
     481 000000 8221          SUB.W     #4,SP                 ; [] 
     482                    .dwcfi  cfa_offset, 8
     483            $C$DW$32        .dwtag  DW_TAG_variable
     484                    .dwattr $C$DW$32, DW_AT_name("baseAddress")
     485                    .dwattr $C$DW$32, DW_AT_TI_symbol_name("baseAddress")
     486                    .dwattr $C$DW$32, DW_AT_type(*$C$DW$T$34)
     487                    .dwattr $C$DW$32, DW_AT_location[DW_OP_breg1 0]
     488            
     489            $C$DW$33        .dwtag  DW_TAG_variable
     490                    .dwattr $C$DW$33, DW_AT_name("mode")
     491                    .dwattr $C$DW$33, DW_AT_TI_symbol_name("mode")
     492                    .dwattr $C$DW$33, DW_AT_type(*$C$DW$T$34)
     493                    .dwattr $C$DW$33, DW_AT_location[DW_OP_breg1 2]
     494            
     495 000002 4D81          MOV.W     r13,2(SP)             ; [] |98| 
         000004 0002 
     496 000006 4C81          MOV.W     r12,0(SP)             ; [] |98| 
         000008 0000 
     497                    .dwpsn  file "../driverlib/MSP430FR2xx_4xx/eusci_b_i2c.c",line 99,column 5,is_stmt,isa 0
     498 00000a 412F          MOV.W     0(SP),r15             ; [] |99| 
     499 00000c F0BF          AND.W     #65519,0(r15)         ; [] |99| 
         00000e FFEF 
         000010 0000 
     500                    .dwpsn  file "../driverlib/MSP430FR2xx_4xx/eusci_b_i2c.c",line 100,column 5,is_stmt,isa 0
     501 000012 412F          MOV.W     0(SP),r15             ; [] |100| 
MSP430 Assembler PC v21.6.1 Wed Nov 30 16:35:38 2022

Copyright (c) 2003-2018 Texas Instruments Incorporated
eusci_b_i2c.asm                                                      PAGE   11

     502 000014 D19F          OR.W      2(SP),0(r15)          ; [] |100| 
         000016 0002 
         000018 0000 
     503                    .dwpsn  file "../driverlib/MSP430FR2xx_4xx/eusci_b_i2c.c",line 101,column 1,is_stmt,isa 0
     504 00001a 5221          ADD.W     #4,SP                 ; [] 
     505                    .dwcfi  cfa_offset, 4
     506            $C$DW$34        .dwtag  DW_TAG_TI_branch
     507                    .dwattr $C$DW$34, DW_AT_low_pc(0x00)
     508                    .dwattr $C$DW$34, DW_AT_TI_return
     509            
     510 00001c 0110          RETA      ; [] 
     511                    ; [] 
     512                    .dwattr $C$DW$29, DW_AT_TI_end_file("../driverlib/MSP430FR2xx_4xx/eusci_b_i2c.c")
     513                    .dwattr $C$DW$29, DW_AT_TI_end_line(0x65)
     514                    .dwattr $C$DW$29, DW_AT_TI_end_column(0x01)
     515                    .dwendentry
     516                    .dwendtag $C$DW$29
     517            
     518 000000               .sect   ".text:EUSCI_B_I2C_getMode"
     519                    .clink
     520                    .global EUSCI_B_I2C_getMode
     521            
     522            $C$DW$35        .dwtag  DW_TAG_subprogram
     523                    .dwattr $C$DW$35, DW_AT_name("EUSCI_B_I2C_getMode")
     524                    .dwattr $C$DW$35, DW_AT_low_pc(EUSCI_B_I2C_getMode)
     525                    .dwattr $C$DW$35, DW_AT_high_pc(0x00)
     526                    .dwattr $C$DW$35, DW_AT_TI_symbol_name("EUSCI_B_I2C_getMode")
     527                    .dwattr $C$DW$35, DW_AT_external
     528                    .dwattr $C$DW$35, DW_AT_type(*$C$DW$T$23)
     529                    .dwattr $C$DW$35, DW_AT_TI_begin_file("../driverlib/MSP430FR2xx_4xx/eusci_b_i2c.c")
     530                    .dwattr $C$DW$35, DW_AT_TI_begin_line(0x67)
     531                    .dwattr $C$DW$35, DW_AT_TI_begin_column(0x09)
     532                    .dwattr $C$DW$35, DW_AT_decl_file("../driverlib/MSP430FR2xx_4xx/eusci_b_i2c.c")
     533                    .dwattr $C$DW$35, DW_AT_decl_line(0x67)
     534                    .dwattr $C$DW$35, DW_AT_decl_column(0x09)
     535                    .dwattr $C$DW$35, DW_AT_TI_max_frame_size(0x06)
     536                    .dwpsn  file "../driverlib/MSP430FR2xx_4xx/eusci_b_i2c.c",line 104,column 1,is_stmt,address EU
     537            
     538                    .dwfde $C$DW$CIE, EUSCI_B_I2C_getMode
     539            $C$DW$36        .dwtag  DW_TAG_formal_parameter
     540                    .dwattr $C$DW$36, DW_AT_name("baseAddress")
     541                    .dwattr $C$DW$36, DW_AT_TI_symbol_name("baseAddress")
     542                    .dwattr $C$DW$36, DW_AT_type(*$C$DW$T$34)
     543                    .dwattr $C$DW$36, DW_AT_location[DW_OP_reg12]
     544            
     545            
     546            ;*****************************************************************************
     547            ;* FUNCTION NAME: EUSCI_B_I2C_getMode                                        *
     548            ;*                                                                           *
     549            ;*   Regs Modified     : SP,SR,r12,r15                                       *
     550            ;*   Regs Used         : SP,SR,r12,r15                                       *
     551            ;*   Local Frame Size  : 0 Args + 2 Auto + 0 Save = 2 byte                   *
     552            ;*****************************************************************************
     553 000000       EUSCI_B_I2C_getMode:
     554            ;* --------------------------------------------------------------------------*
MSP430 Assembler PC v21.6.1 Wed Nov 30 16:35:38 2022

Copyright (c) 2003-2018 Texas Instruments Incorporated
eusci_b_i2c.asm                                                      PAGE   12

     555                    .dwcfi  cfa_offset, 4
     556                    .dwcfi  save_reg_to_mem, 16, -4
     557 000000 8321          SUB.W     #2,SP                 ; [] 
     558                    .dwcfi  cfa_offset, 6
     559            $C$DW$37        .dwtag  DW_TAG_variable
     560                    .dwattr $C$DW$37, DW_AT_name("baseAddress")
     561                    .dwattr $C$DW$37, DW_AT_TI_symbol_name("baseAddress")
     562                    .dwattr $C$DW$37, DW_AT_type(*$C$DW$T$34)
     563                    .dwattr $C$DW$37, DW_AT_location[DW_OP_breg1 0]
     564            
     565 000002 4C81          MOV.W     r12,0(SP)             ; [] |104| 
         000004 0000 
     566                    .dwpsn  file "../driverlib/MSP430FR2xx_4xx/eusci_b_i2c.c",line 106,column 5,is_stmt,isa 0
     567 000006 412F          MOV.W     0(SP),r15             ; [] |106| 
     568 000008 4F2C          MOV.W     @r15,r12              ; [] |106| 
     569 00000a F07C          AND.B     #16,r12               ; [] |106| 
         00000c 0010 
     570                    .dwpsn  file "../driverlib/MSP430FR2xx_4xx/eusci_b_i2c.c",line 108,column 1,is_stmt,isa 0
     571 00000e 5321          ADD.W     #2,SP                 ; [] 
     572                    .dwcfi  cfa_offset, 4
     573            $C$DW$38        .dwtag  DW_TAG_TI_branch
     574                    .dwattr $C$DW$38, DW_AT_low_pc(0x00)
     575                    .dwattr $C$DW$38, DW_AT_TI_return
     576            
     577 000010 0110          RETA      ; [] 
     578                    ; [] 
     579                    .dwattr $C$DW$35, DW_AT_TI_end_file("../driverlib/MSP430FR2xx_4xx/eusci_b_i2c.c")
     580                    .dwattr $C$DW$35, DW_AT_TI_end_line(0x6c)
     581                    .dwattr $C$DW$35, DW_AT_TI_end_column(0x01)
     582                    .dwendentry
     583                    .dwendtag $C$DW$35
     584            
     585 000000               .sect   ".text:EUSCI_B_I2C_slavePutData"
     586                    .clink
     587                    .global EUSCI_B_I2C_slavePutData
     588            
     589            $C$DW$39        .dwtag  DW_TAG_subprogram
     590                    .dwattr $C$DW$39, DW_AT_name("EUSCI_B_I2C_slavePutData")
     591                    .dwattr $C$DW$39, DW_AT_low_pc(EUSCI_B_I2C_slavePutData)
     592                    .dwattr $C$DW$39, DW_AT_high_pc(0x00)
     593                    .dwattr $C$DW$39, DW_AT_TI_symbol_name("EUSCI_B_I2C_slavePutData")
     594                    .dwattr $C$DW$39, DW_AT_external
     595                    .dwattr $C$DW$39, DW_AT_TI_begin_file("../driverlib/MSP430FR2xx_4xx/eusci_b_i2c.c")
     596                    .dwattr $C$DW$39, DW_AT_TI_begin_line(0x6e)
     597                    .dwattr $C$DW$39, DW_AT_TI_begin_column(0x06)
     598                    .dwattr $C$DW$39, DW_AT_decl_file("../driverlib/MSP430FR2xx_4xx/eusci_b_i2c.c")
     599                    .dwattr $C$DW$39, DW_AT_decl_line(0x6e)
     600                    .dwattr $C$DW$39, DW_AT_decl_column(0x06)
     601                    .dwattr $C$DW$39, DW_AT_TI_max_frame_size(0x08)
     602                    .dwpsn  file "../driverlib/MSP430FR2xx_4xx/eusci_b_i2c.c",line 113,column 1,is_stmt,address EU
     603            
     604                    .dwfde $C$DW$CIE, EUSCI_B_I2C_slavePutData
     605            $C$DW$40        .dwtag  DW_TAG_formal_parameter
     606                    .dwattr $C$DW$40, DW_AT_name("baseAddress")
     607                    .dwattr $C$DW$40, DW_AT_TI_symbol_name("baseAddress")
MSP430 Assembler PC v21.6.1 Wed Nov 30 16:35:38 2022

Copyright (c) 2003-2018 Texas Instruments Incorporated
eusci_b_i2c.asm                                                      PAGE   13

     608                    .dwattr $C$DW$40, DW_AT_type(*$C$DW$T$34)
     609                    .dwattr $C$DW$40, DW_AT_location[DW_OP_reg12]
     610            
     611            $C$DW$41        .dwtag  DW_TAG_formal_parameter
     612                    .dwattr $C$DW$41, DW_AT_name("transmitData")
     613                    .dwattr $C$DW$41, DW_AT_TI_symbol_name("transmitData")
     614                    .dwattr $C$DW$41, DW_AT_type(*$C$DW$T$23)
     615                    .dwattr $C$DW$41, DW_AT_location[DW_OP_reg13]
     616            
     617            
     618            ;*****************************************************************************
     619            ;* FUNCTION NAME: EUSCI_B_I2C_slavePutData                                   *
     620            ;*                                                                           *
     621            ;*   Regs Modified     : SP,SR,r15                                           *
     622            ;*   Regs Used         : SP,SR,r12,r13,r15                                   *
     623            ;*   Local Frame Size  : 0 Args + 4 Auto + 0 Save = 4 byte                   *
     624            ;*****************************************************************************
     625 000000       EUSCI_B_I2C_slavePutData:
     626            ;* --------------------------------------------------------------------------*
     627                    .dwcfi  cfa_offset, 4
     628                    .dwcfi  save_reg_to_mem, 16, -4
     629 000000 8221          SUB.W     #4,SP                 ; [] 
     630                    .dwcfi  cfa_offset, 8
     631            $C$DW$42        .dwtag  DW_TAG_variable
     632                    .dwattr $C$DW$42, DW_AT_name("baseAddress")
     633                    .dwattr $C$DW$42, DW_AT_TI_symbol_name("baseAddress")
     634                    .dwattr $C$DW$42, DW_AT_type(*$C$DW$T$34)
     635                    .dwattr $C$DW$42, DW_AT_location[DW_OP_breg1 0]
     636            
     637            $C$DW$43        .dwtag  DW_TAG_variable
     638                    .dwattr $C$DW$43, DW_AT_name("transmitData")
     639                    .dwattr $C$DW$43, DW_AT_TI_symbol_name("transmitData")
     640                    .dwattr $C$DW$43, DW_AT_type(*$C$DW$T$23)
     641                    .dwattr $C$DW$43, DW_AT_location[DW_OP_breg1 2]
     642            
     643 000002 4DC1          MOV.B     r13,2(SP)             ; [] |113| 
         000004 0002 
     644 000006 4C81          MOV.W     r12,0(SP)             ; [] |113| 
         000008 0000 
     645                    .dwpsn  file "../driverlib/MSP430FR2xx_4xx/eusci_b_i2c.c",line 115,column 5,is_stmt,isa 0
     646 00000a 415F          MOV.B     2(SP),r15             ; [] |115| 
         00000c 0002 
     647 00000e 4F8C          MOV.W     r15,14(r12)           ; [] |115| 
         000010 000E 
     648                    .dwpsn  file "../driverlib/MSP430FR2xx_4xx/eusci_b_i2c.c",line 116,column 1,is_stmt,isa 0
     649 000012 5221          ADD.W     #4,SP                 ; [] 
     650                    .dwcfi  cfa_offset, 4
     651            $C$DW$44        .dwtag  DW_TAG_TI_branch
     652                    .dwattr $C$DW$44, DW_AT_low_pc(0x00)
     653                    .dwattr $C$DW$44, DW_AT_TI_return
     654            
     655 000014 0110          RETA      ; [] 
     656                    ; [] 
     657                    .dwattr $C$DW$39, DW_AT_TI_end_file("../driverlib/MSP430FR2xx_4xx/eusci_b_i2c.c")
     658                    .dwattr $C$DW$39, DW_AT_TI_end_line(0x74)
MSP430 Assembler PC v21.6.1 Wed Nov 30 16:35:38 2022

Copyright (c) 2003-2018 Texas Instruments Incorporated
eusci_b_i2c.asm                                                      PAGE   14

     659                    .dwattr $C$DW$39, DW_AT_TI_end_column(0x01)
     660                    .dwendentry
     661                    .dwendtag $C$DW$39
     662            
     663 000000               .sect   ".text:EUSCI_B_I2C_slaveGetData"
     664                    .clink
     665                    .global EUSCI_B_I2C_slaveGetData
     666            
     667            $C$DW$45        .dwtag  DW_TAG_subprogram
     668                    .dwattr $C$DW$45, DW_AT_name("EUSCI_B_I2C_slaveGetData")
     669                    .dwattr $C$DW$45, DW_AT_low_pc(EUSCI_B_I2C_slaveGetData)
     670                    .dwattr $C$DW$45, DW_AT_high_pc(0x00)
     671                    .dwattr $C$DW$45, DW_AT_TI_symbol_name("EUSCI_B_I2C_slaveGetData")
     672                    .dwattr $C$DW$45, DW_AT_external
     673                    .dwattr $C$DW$45, DW_AT_type(*$C$DW$T$23)
     674                    .dwattr $C$DW$45, DW_AT_TI_begin_file("../driverlib/MSP430FR2xx_4xx/eusci_b_i2c.c")
     675                    .dwattr $C$DW$45, DW_AT_TI_begin_line(0x76)
     676                    .dwattr $C$DW$45, DW_AT_TI_begin_column(0x09)
     677                    .dwattr $C$DW$45, DW_AT_decl_file("../driverlib/MSP430FR2xx_4xx/eusci_b_i2c.c")
     678                    .dwattr $C$DW$45, DW_AT_decl_line(0x76)
     679                    .dwattr $C$DW$45, DW_AT_decl_column(0x09)
     680                    .dwattr $C$DW$45, DW_AT_TI_max_frame_size(0x06)
     681                    .dwpsn  file "../driverlib/MSP430FR2xx_4xx/eusci_b_i2c.c",line 119,column 1,is_stmt,address EU
     682            
     683                    .dwfde $C$DW$CIE, EUSCI_B_I2C_slaveGetData
     684            $C$DW$46        .dwtag  DW_TAG_formal_parameter
     685                    .dwattr $C$DW$46, DW_AT_name("baseAddress")
     686                    .dwattr $C$DW$46, DW_AT_TI_symbol_name("baseAddress")
     687                    .dwattr $C$DW$46, DW_AT_type(*$C$DW$T$34)
     688                    .dwattr $C$DW$46, DW_AT_location[DW_OP_reg12]
     689            
     690            
     691            ;*****************************************************************************
     692            ;* FUNCTION NAME: EUSCI_B_I2C_slaveGetData                                   *
     693            ;*                                                                           *
     694            ;*   Regs Modified     : SP,SR,r12                                           *
     695            ;*   Regs Used         : SP,SR,r12                                           *
     696            ;*   Local Frame Size  : 0 Args + 2 Auto + 0 Save = 2 byte                   *
     697            ;*****************************************************************************
     698 000000       EUSCI_B_I2C_slaveGetData:
     699            ;* --------------------------------------------------------------------------*
     700                    .dwcfi  cfa_offset, 4
     701                    .dwcfi  save_reg_to_mem, 16, -4
     702 000000 8321          SUB.W     #2,SP                 ; [] 
     703                    .dwcfi  cfa_offset, 6
     704            $C$DW$47        .dwtag  DW_TAG_variable
     705                    .dwattr $C$DW$47, DW_AT_name("baseAddress")
     706                    .dwattr $C$DW$47, DW_AT_TI_symbol_name("baseAddress")
     707                    .dwattr $C$DW$47, DW_AT_type(*$C$DW$T$34)
     708                    .dwattr $C$DW$47, DW_AT_location[DW_OP_breg1 0]
     709            
     710 000002 4C81          MOV.W     r12,0(SP)             ; [] |119| 
         000004 0000 
     711                    .dwpsn  file "../driverlib/MSP430FR2xx_4xx/eusci_b_i2c.c",line 121,column 5,is_stmt,isa 0
     712 000006 4C1C          MOV.W     12(r12),r12           ; [] |121| 
MSP430 Assembler PC v21.6.1 Wed Nov 30 16:35:38 2022

Copyright (c) 2003-2018 Texas Instruments Incorporated
eusci_b_i2c.asm                                                      PAGE   15

         000008 000C 
     713 00000a 4C4C          MOV.B     r12,r12               ; [] |121| 
     714                    .dwpsn  file "../driverlib/MSP430FR2xx_4xx/eusci_b_i2c.c",line 122,column 1,is_stmt,isa 0
     715 00000c 5321          ADD.W     #2,SP                 ; [] 
     716                    .dwcfi  cfa_offset, 4
     717            $C$DW$48        .dwtag  DW_TAG_TI_branch
     718                    .dwattr $C$DW$48, DW_AT_low_pc(0x00)
     719                    .dwattr $C$DW$48, DW_AT_TI_return
     720            
     721 00000e 0110          RETA      ; [] 
     722                    ; [] 
     723                    .dwattr $C$DW$45, DW_AT_TI_end_file("../driverlib/MSP430FR2xx_4xx/eusci_b_i2c.c")
     724                    .dwattr $C$DW$45, DW_AT_TI_end_line(0x7a)
     725                    .dwattr $C$DW$45, DW_AT_TI_end_column(0x01)
     726                    .dwendentry
     727                    .dwendtag $C$DW$45
     728            
     729 000000               .sect   ".text:EUSCI_B_I2C_isBusBusy"
     730                    .clink
     731                    .global EUSCI_B_I2C_isBusBusy
     732            
     733            $C$DW$49        .dwtag  DW_TAG_subprogram
     734                    .dwattr $C$DW$49, DW_AT_name("EUSCI_B_I2C_isBusBusy")
     735                    .dwattr $C$DW$49, DW_AT_low_pc(EUSCI_B_I2C_isBusBusy)
     736                    .dwattr $C$DW$49, DW_AT_high_pc(0x00)
     737                    .dwattr $C$DW$49, DW_AT_TI_symbol_name("EUSCI_B_I2C_isBusBusy")
     738                    .dwattr $C$DW$49, DW_AT_external
     739                    .dwattr $C$DW$49, DW_AT_type(*$C$DW$T$34)
     740                    .dwattr $C$DW$49, DW_AT_TI_begin_file("../driverlib/MSP430FR2xx_4xx/eusci_b_i2c.c")
     741                    .dwattr $C$DW$49, DW_AT_TI_begin_line(0x7c)
     742                    .dwattr $C$DW$49, DW_AT_TI_begin_column(0x0a)
     743                    .dwattr $C$DW$49, DW_AT_decl_file("../driverlib/MSP430FR2xx_4xx/eusci_b_i2c.c")
     744                    .dwattr $C$DW$49, DW_AT_decl_line(0x7c)
     745                    .dwattr $C$DW$49, DW_AT_decl_column(0x0a)
     746                    .dwattr $C$DW$49, DW_AT_TI_max_frame_size(0x06)
     747                    .dwpsn  file "../driverlib/MSP430FR2xx_4xx/eusci_b_i2c.c",line 125,column 1,is_stmt,address EU
     748            
     749                    .dwfde $C$DW$CIE, EUSCI_B_I2C_isBusBusy
     750            $C$DW$50        .dwtag  DW_TAG_formal_parameter
     751                    .dwattr $C$DW$50, DW_AT_name("baseAddress")
     752                    .dwattr $C$DW$50, DW_AT_TI_symbol_name("baseAddress")
     753                    .dwattr $C$DW$50, DW_AT_type(*$C$DW$T$34)
     754                    .dwattr $C$DW$50, DW_AT_location[DW_OP_reg12]
     755            
     756            
     757            ;*****************************************************************************
     758            ;* FUNCTION NAME: EUSCI_B_I2C_isBusBusy                                      *
     759            ;*                                                                           *
     760            ;*   Regs Modified     : SP,SR,r12,r15                                       *
     761            ;*   Regs Used         : SP,SR,r12,r15                                       *
     762            ;*   Local Frame Size  : 0 Args + 2 Auto + 0 Save = 2 byte                   *
     763            ;*****************************************************************************
     764 000000       EUSCI_B_I2C_isBusBusy:
     765            ;* --------------------------------------------------------------------------*
     766                    .dwcfi  cfa_offset, 4
MSP430 Assembler PC v21.6.1 Wed Nov 30 16:35:38 2022

Copyright (c) 2003-2018 Texas Instruments Incorporated
eusci_b_i2c.asm                                                      PAGE   16

     767                    .dwcfi  save_reg_to_mem, 16, -4
     768 000000 8321          SUB.W     #2,SP                 ; [] 
     769                    .dwcfi  cfa_offset, 6
     770            $C$DW$51        .dwtag  DW_TAG_variable
     771                    .dwattr $C$DW$51, DW_AT_name("baseAddress")
     772                    .dwattr $C$DW$51, DW_AT_TI_symbol_name("baseAddress")
     773                    .dwattr $C$DW$51, DW_AT_type(*$C$DW$T$34)
     774                    .dwattr $C$DW$51, DW_AT_location[DW_OP_breg1 0]
     775            
     776 000002 4C81          MOV.W     r12,0(SP)             ; [] |125| 
         000004 0000 
     777                    .dwpsn  file "../driverlib/MSP430FR2xx_4xx/eusci_b_i2c.c",line 127,column 5,is_stmt,isa 0
     778 000006 403F          MOV.W     #16,r15               ; [] |127| 
         000008 0010 
     779 00000a FC1F          AND.W     8(r12),r15            ; [] |127| 
         00000c 0008 
     780 00000e 0FCC          MOVA      r15,r12               ; [] |127| 
     781                    .dwpsn  file "../driverlib/MSP430FR2xx_4xx/eusci_b_i2c.c",line 128,column 1,is_stmt,isa 0
     782 000010 5321          ADD.W     #2,SP                 ; [] 
     783                    .dwcfi  cfa_offset, 4
     784            $C$DW$52        .dwtag  DW_TAG_TI_branch
     785                    .dwattr $C$DW$52, DW_AT_low_pc(0x00)
     786                    .dwattr $C$DW$52, DW_AT_TI_return
     787            
     788 000012 0110          RETA      ; [] 
     789                    ; [] 
     790                    .dwattr $C$DW$49, DW_AT_TI_end_file("../driverlib/MSP430FR2xx_4xx/eusci_b_i2c.c")
     791                    .dwattr $C$DW$49, DW_AT_TI_end_line(0x80)
     792                    .dwattr $C$DW$49, DW_AT_TI_end_column(0x01)
     793                    .dwendentry
     794                    .dwendtag $C$DW$49
     795            
     796 000000               .sect   ".text:EUSCI_B_I2C_masterIsStopSent"
     797                    .clink
     798                    .global EUSCI_B_I2C_masterIsStopSent
     799            
     800            $C$DW$53        .dwtag  DW_TAG_subprogram
     801                    .dwattr $C$DW$53, DW_AT_name("EUSCI_B_I2C_masterIsStopSent")
     802                    .dwattr $C$DW$53, DW_AT_low_pc(EUSCI_B_I2C_masterIsStopSent)
     803                    .dwattr $C$DW$53, DW_AT_high_pc(0x00)
     804                    .dwattr $C$DW$53, DW_AT_TI_symbol_name("EUSCI_B_I2C_masterIsStopSent")
     805                    .dwattr $C$DW$53, DW_AT_external
     806                    .dwattr $C$DW$53, DW_AT_type(*$C$DW$T$34)
     807                    .dwattr $C$DW$53, DW_AT_TI_begin_file("../driverlib/MSP430FR2xx_4xx/eusci_b_i2c.c")
     808                    .dwattr $C$DW$53, DW_AT_TI_begin_line(0x82)
     809                    .dwattr $C$DW$53, DW_AT_TI_begin_column(0x0a)
     810                    .dwattr $C$DW$53, DW_AT_decl_file("../driverlib/MSP430FR2xx_4xx/eusci_b_i2c.c")
     811                    .dwattr $C$DW$53, DW_AT_decl_line(0x82)
     812                    .dwattr $C$DW$53, DW_AT_decl_column(0x0a)
     813                    .dwattr $C$DW$53, DW_AT_TI_max_frame_size(0x06)
     814                    .dwpsn  file "../driverlib/MSP430FR2xx_4xx/eusci_b_i2c.c",line 131,column 1,is_stmt,address EU
     815            
     816                    .dwfde $C$DW$CIE, EUSCI_B_I2C_masterIsStopSent
     817            $C$DW$54        .dwtag  DW_TAG_formal_parameter
     818                    .dwattr $C$DW$54, DW_AT_name("baseAddress")
MSP430 Assembler PC v21.6.1 Wed Nov 30 16:35:38 2022

Copyright (c) 2003-2018 Texas Instruments Incorporated
eusci_b_i2c.asm                                                      PAGE   17

     819                    .dwattr $C$DW$54, DW_AT_TI_symbol_name("baseAddress")
     820                    .dwattr $C$DW$54, DW_AT_type(*$C$DW$T$34)
     821                    .dwattr $C$DW$54, DW_AT_location[DW_OP_reg12]
     822            
     823            
     824            ;*****************************************************************************
     825            ;* FUNCTION NAME: EUSCI_B_I2C_masterIsStopSent                               *
     826            ;*                                                                           *
     827            ;*   Regs Modified     : SP,SR,r12,r15                                       *
     828            ;*   Regs Used         : SP,SR,r12,r15                                       *
     829            ;*   Local Frame Size  : 0 Args + 2 Auto + 0 Save = 2 byte                   *
     830            ;*****************************************************************************
     831 000000       EUSCI_B_I2C_masterIsStopSent:
     832            ;* --------------------------------------------------------------------------*
     833                    .dwcfi  cfa_offset, 4
     834                    .dwcfi  save_reg_to_mem, 16, -4
     835 000000 8321          SUB.W     #2,SP                 ; [] 
     836                    .dwcfi  cfa_offset, 6
     837            $C$DW$55        .dwtag  DW_TAG_variable
     838                    .dwattr $C$DW$55, DW_AT_name("baseAddress")
     839                    .dwattr $C$DW$55, DW_AT_TI_symbol_name("baseAddress")
     840                    .dwattr $C$DW$55, DW_AT_type(*$C$DW$T$34)
     841                    .dwattr $C$DW$55, DW_AT_location[DW_OP_breg1 0]
     842            
     843 000002 4C81          MOV.W     r12,0(SP)             ; [] |131| 
         000004 0000 
     844                    .dwpsn  file "../driverlib/MSP430FR2xx_4xx/eusci_b_i2c.c",line 132,column 5,is_stmt,isa 0
     845 000006 412F          MOV.W     0(SP),r15             ; [] |132| 
     846 000008 422C          MOV.W     #4,r12                ; [] |132| 
     847 00000a FF2C          AND.W     @r15,r12              ; [] |132| 
     848                    .dwpsn  file "../driverlib/MSP430FR2xx_4xx/eusci_b_i2c.c",line 133,column 1,is_stmt,isa 0
     849 00000c 5321          ADD.W     #2,SP                 ; [] 
     850                    .dwcfi  cfa_offset, 4
     851            $C$DW$56        .dwtag  DW_TAG_TI_branch
     852                    .dwattr $C$DW$56, DW_AT_low_pc(0x00)
     853                    .dwattr $C$DW$56, DW_AT_TI_return
     854            
     855 00000e 0110          RETA      ; [] 
     856                    ; [] 
     857                    .dwattr $C$DW$53, DW_AT_TI_end_file("../driverlib/MSP430FR2xx_4xx/eusci_b_i2c.c")
     858                    .dwattr $C$DW$53, DW_AT_TI_end_line(0x85)
     859                    .dwattr $C$DW$53, DW_AT_TI_end_column(0x01)
     860                    .dwendentry
     861                    .dwendtag $C$DW$53
     862            
     863 000000               .sect   ".text:EUSCI_B_I2C_masterIsStartSent"
     864                    .clink
     865                    .global EUSCI_B_I2C_masterIsStartSent
     866            
     867            $C$DW$57        .dwtag  DW_TAG_subprogram
     868                    .dwattr $C$DW$57, DW_AT_name("EUSCI_B_I2C_masterIsStartSent")
     869                    .dwattr $C$DW$57, DW_AT_low_pc(EUSCI_B_I2C_masterIsStartSent)
     870                    .dwattr $C$DW$57, DW_AT_high_pc(0x00)
     871                    .dwattr $C$DW$57, DW_AT_TI_symbol_name("EUSCI_B_I2C_masterIsStartSent")
     872                    .dwattr $C$DW$57, DW_AT_external
MSP430 Assembler PC v21.6.1 Wed Nov 30 16:35:38 2022

Copyright (c) 2003-2018 Texas Instruments Incorporated
eusci_b_i2c.asm                                                      PAGE   18

     873                    .dwattr $C$DW$57, DW_AT_type(*$C$DW$T$34)
     874                    .dwattr $C$DW$57, DW_AT_TI_begin_file("../driverlib/MSP430FR2xx_4xx/eusci_b_i2c.c")
     875                    .dwattr $C$DW$57, DW_AT_TI_begin_line(0x87)
     876                    .dwattr $C$DW$57, DW_AT_TI_begin_column(0x0a)
     877                    .dwattr $C$DW$57, DW_AT_decl_file("../driverlib/MSP430FR2xx_4xx/eusci_b_i2c.c")
     878                    .dwattr $C$DW$57, DW_AT_decl_line(0x87)
     879                    .dwattr $C$DW$57, DW_AT_decl_column(0x0a)
     880                    .dwattr $C$DW$57, DW_AT_TI_max_frame_size(0x06)
     881                    .dwpsn  file "../driverlib/MSP430FR2xx_4xx/eusci_b_i2c.c",line 136,column 1,is_stmt,address EU
     882            
     883                    .dwfde $C$DW$CIE, EUSCI_B_I2C_masterIsStartSent
     884            $C$DW$58        .dwtag  DW_TAG_formal_parameter
     885                    .dwattr $C$DW$58, DW_AT_name("baseAddress")
     886                    .dwattr $C$DW$58, DW_AT_TI_symbol_name("baseAddress")
     887                    .dwattr $C$DW$58, DW_AT_type(*$C$DW$T$34)
     888                    .dwattr $C$DW$58, DW_AT_location[DW_OP_reg12]
     889            
     890            
     891            ;*****************************************************************************
     892            ;* FUNCTION NAME: EUSCI_B_I2C_masterIsStartSent                              *
     893            ;*                                                                           *
     894            ;*   Regs Modified     : SP,SR,r12,r15                                       *
     895            ;*   Regs Used         : SP,SR,r12,r15                                       *
     896            ;*   Local Frame Size  : 0 Args + 2 Auto + 0 Save = 2 byte                   *
     897            ;*****************************************************************************
     898 000000       EUSCI_B_I2C_masterIsStartSent:
     899            ;* --------------------------------------------------------------------------*
     900                    .dwcfi  cfa_offset, 4
     901                    .dwcfi  save_reg_to_mem, 16, -4
     902 000000 8321          SUB.W     #2,SP                 ; [] 
     903                    .dwcfi  cfa_offset, 6
     904            $C$DW$59        .dwtag  DW_TAG_variable
     905                    .dwattr $C$DW$59, DW_AT_name("baseAddress")
     906                    .dwattr $C$DW$59, DW_AT_TI_symbol_name("baseAddress")
     907                    .dwattr $C$DW$59, DW_AT_type(*$C$DW$T$34)
     908                    .dwattr $C$DW$59, DW_AT_location[DW_OP_breg1 0]
     909            
     910 000002 4C81          MOV.W     r12,0(SP)             ; [] |136| 
         000004 0000 
     911                    .dwpsn  file "../driverlib/MSP430FR2xx_4xx/eusci_b_i2c.c",line 137,column 5,is_stmt,isa 0
     912 000006 412F          MOV.W     0(SP),r15             ; [] |137| 
     913 000008 432C          MOV.W     #2,r12                ; [] |137| 
     914 00000a FF2C          AND.W     @r15,r12              ; [] |137| 
     915                    .dwpsn  file "../driverlib/MSP430FR2xx_4xx/eusci_b_i2c.c",line 138,column 1,is_stmt,isa 0
     916 00000c 5321          ADD.W     #2,SP                 ; [] 
     917                    .dwcfi  cfa_offset, 4
     918            $C$DW$60        .dwtag  DW_TAG_TI_branch
     919                    .dwattr $C$DW$60, DW_AT_low_pc(0x00)
     920                    .dwattr $C$DW$60, DW_AT_TI_return
     921            
     922 00000e 0110          RETA      ; [] 
     923                    ; [] 
     924                    .dwattr $C$DW$57, DW_AT_TI_end_file("../driverlib/MSP430FR2xx_4xx/eusci_b_i2c.c")
     925                    .dwattr $C$DW$57, DW_AT_TI_end_line(0x8a)
     926                    .dwattr $C$DW$57, DW_AT_TI_end_column(0x01)
MSP430 Assembler PC v21.6.1 Wed Nov 30 16:35:38 2022

Copyright (c) 2003-2018 Texas Instruments Incorporated
eusci_b_i2c.asm                                                      PAGE   19

     927                    .dwendentry
     928                    .dwendtag $C$DW$57
     929            
     930 000000               .sect   ".text:EUSCI_B_I2C_enableInterrupt"
     931                    .clink
     932                    .global EUSCI_B_I2C_enableInterrupt
     933            
     934            $C$DW$61        .dwtag  DW_TAG_subprogram
     935                    .dwattr $C$DW$61, DW_AT_name("EUSCI_B_I2C_enableInterrupt")
     936                    .dwattr $C$DW$61, DW_AT_low_pc(EUSCI_B_I2C_enableInterrupt)
     937                    .dwattr $C$DW$61, DW_AT_high_pc(0x00)
     938                    .dwattr $C$DW$61, DW_AT_TI_symbol_name("EUSCI_B_I2C_enableInterrupt")
     939                    .dwattr $C$DW$61, DW_AT_external
     940                    .dwattr $C$DW$61, DW_AT_TI_begin_file("../driverlib/MSP430FR2xx_4xx/eusci_b_i2c.c")
     941                    .dwattr $C$DW$61, DW_AT_TI_begin_line(0x8c)
     942                    .dwattr $C$DW$61, DW_AT_TI_begin_column(0x06)
     943                    .dwattr $C$DW$61, DW_AT_decl_file("../driverlib/MSP430FR2xx_4xx/eusci_b_i2c.c")
     944                    .dwattr $C$DW$61, DW_AT_decl_line(0x8c)
     945                    .dwattr $C$DW$61, DW_AT_decl_column(0x06)
     946                    .dwattr $C$DW$61, DW_AT_TI_max_frame_size(0x08)
     947                    .dwpsn  file "../driverlib/MSP430FR2xx_4xx/eusci_b_i2c.c",line 143,column 1,is_stmt,address EU
     948            
     949                    .dwfde $C$DW$CIE, EUSCI_B_I2C_enableInterrupt
     950            $C$DW$62        .dwtag  DW_TAG_formal_parameter
     951                    .dwattr $C$DW$62, DW_AT_name("baseAddress")
     952                    .dwattr $C$DW$62, DW_AT_TI_symbol_name("baseAddress")
     953                    .dwattr $C$DW$62, DW_AT_type(*$C$DW$T$34)
     954                    .dwattr $C$DW$62, DW_AT_location[DW_OP_reg12]
     955            
     956            $C$DW$63        .dwtag  DW_TAG_formal_parameter
     957                    .dwattr $C$DW$63, DW_AT_name("mask")
     958                    .dwattr $C$DW$63, DW_AT_TI_symbol_name("mask")
     959                    .dwattr $C$DW$63, DW_AT_type(*$C$DW$T$34)
     960                    .dwattr $C$DW$63, DW_AT_location[DW_OP_reg13]
     961            
     962            
     963            ;*****************************************************************************
     964            ;* FUNCTION NAME: EUSCI_B_I2C_enableInterrupt                                *
     965            ;*                                                                           *
     966            ;*   Regs Modified     : SP,SR,r15                                           *
     967            ;*   Regs Used         : SP,SR,r12,r13,r15                                   *
     968            ;*   Local Frame Size  : 0 Args + 4 Auto + 0 Save = 4 byte                   *
     969            ;*****************************************************************************
     970 000000       EUSCI_B_I2C_enableInterrupt:
     971            ;* --------------------------------------------------------------------------*
     972                    .dwcfi  cfa_offset, 4
     973                    .dwcfi  save_reg_to_mem, 16, -4
     974 000000 8221          SUB.W     #4,SP                 ; [] 
     975                    .dwcfi  cfa_offset, 8
     976            $C$DW$64        .dwtag  DW_TAG_variable
     977                    .dwattr $C$DW$64, DW_AT_name("baseAddress")
     978                    .dwattr $C$DW$64, DW_AT_TI_symbol_name("baseAddress")
     979                    .dwattr $C$DW$64, DW_AT_type(*$C$DW$T$34)
     980                    .dwattr $C$DW$64, DW_AT_location[DW_OP_breg1 0]
     981            
MSP430 Assembler PC v21.6.1 Wed Nov 30 16:35:38 2022

Copyright (c) 2003-2018 Texas Instruments Incorporated
eusci_b_i2c.asm                                                      PAGE   20

     982            $C$DW$65        .dwtag  DW_TAG_variable
     983                    .dwattr $C$DW$65, DW_AT_name("mask")
     984                    .dwattr $C$DW$65, DW_AT_TI_symbol_name("mask")
     985                    .dwattr $C$DW$65, DW_AT_type(*$C$DW$T$34)
     986                    .dwattr $C$DW$65, DW_AT_location[DW_OP_breg1 2]
     987            
     988 000002 4D81          MOV.W     r13,2(SP)             ; [] |143| 
         000004 0002 
     989 000006 4C81          MOV.W     r12,0(SP)             ; [] |143| 
         000008 0000 
     990                    .dwpsn  file "../driverlib/MSP430FR2xx_4xx/eusci_b_i2c.c",line 145,column 5,is_stmt,isa 0
     991 00000a 403F          MOV.W     #42,r15               ; [] |145| 
         00000c 002A 
     992 00000e 512F          ADD.W     0(SP),r15             ; [] |145| 
     993 000010 D19F          OR.W      2(SP),0(r15)          ; [] |145| 
         000012 0002 
         000014 0000 
     994                    .dwpsn  file "../driverlib/MSP430FR2xx_4xx/eusci_b_i2c.c",line 146,column 1,is_stmt,isa 0
     995 000016 5221          ADD.W     #4,SP                 ; [] 
     996                    .dwcfi  cfa_offset, 4
     997            $C$DW$66        .dwtag  DW_TAG_TI_branch
     998                    .dwattr $C$DW$66, DW_AT_low_pc(0x00)
     999                    .dwattr $C$DW$66, DW_AT_TI_return
    1000            
    1001 000018 0110          RETA      ; [] 
    1002                    ; [] 
    1003                    .dwattr $C$DW$61, DW_AT_TI_end_file("../driverlib/MSP430FR2xx_4xx/eusci_b_i2c.c")
    1004                    .dwattr $C$DW$61, DW_AT_TI_end_line(0x92)
    1005                    .dwattr $C$DW$61, DW_AT_TI_end_column(0x01)
    1006                    .dwendentry
    1007                    .dwendtag $C$DW$61
    1008            
    1009 000000               .sect   ".text:EUSCI_B_I2C_disableInterrupt"
    1010                    .clink
    1011                    .global EUSCI_B_I2C_disableInterrupt
    1012            
    1013            $C$DW$67        .dwtag  DW_TAG_subprogram
    1014                    .dwattr $C$DW$67, DW_AT_name("EUSCI_B_I2C_disableInterrupt")
    1015                    .dwattr $C$DW$67, DW_AT_low_pc(EUSCI_B_I2C_disableInterrupt)
    1016                    .dwattr $C$DW$67, DW_AT_high_pc(0x00)
    1017                    .dwattr $C$DW$67, DW_AT_TI_symbol_name("EUSCI_B_I2C_disableInterrupt")
    1018                    .dwattr $C$DW$67, DW_AT_external
    1019                    .dwattr $C$DW$67, DW_AT_TI_begin_file("../driverlib/MSP430FR2xx_4xx/eusci_b_i2c.c")
    1020                    .dwattr $C$DW$67, DW_AT_TI_begin_line(0x94)
    1021                    .dwattr $C$DW$67, DW_AT_TI_begin_column(0x06)
    1022                    .dwattr $C$DW$67, DW_AT_decl_file("../driverlib/MSP430FR2xx_4xx/eusci_b_i2c.c")
    1023                    .dwattr $C$DW$67, DW_AT_decl_line(0x94)
    1024                    .dwattr $C$DW$67, DW_AT_decl_column(0x06)
    1025                    .dwattr $C$DW$67, DW_AT_TI_max_frame_size(0x08)
    1026                    .dwpsn  file "../driverlib/MSP430FR2xx_4xx/eusci_b_i2c.c",line 151,column 1,is_stmt,address EU
    1027            
    1028                    .dwfde $C$DW$CIE, EUSCI_B_I2C_disableInterrupt
    1029            $C$DW$68        .dwtag  DW_TAG_formal_parameter
    1030                    .dwattr $C$DW$68, DW_AT_name("baseAddress")
    1031                    .dwattr $C$DW$68, DW_AT_TI_symbol_name("baseAddress")
MSP430 Assembler PC v21.6.1 Wed Nov 30 16:35:38 2022

Copyright (c) 2003-2018 Texas Instruments Incorporated
eusci_b_i2c.asm                                                      PAGE   21

    1032                    .dwattr $C$DW$68, DW_AT_type(*$C$DW$T$34)
    1033                    .dwattr $C$DW$68, DW_AT_location[DW_OP_reg12]
    1034            
    1035            $C$DW$69        .dwtag  DW_TAG_formal_parameter
    1036                    .dwattr $C$DW$69, DW_AT_name("mask")
    1037                    .dwattr $C$DW$69, DW_AT_TI_symbol_name("mask")
    1038                    .dwattr $C$DW$69, DW_AT_type(*$C$DW$T$34)
    1039                    .dwattr $C$DW$69, DW_AT_location[DW_OP_reg13]
    1040            
    1041            
    1042            ;*****************************************************************************
    1043            ;* FUNCTION NAME: EUSCI_B_I2C_disableInterrupt                               *
    1044            ;*                                                                           *
    1045            ;*   Regs Modified     : SP,SR,r15                                           *
    1046            ;*   Regs Used         : SP,SR,r12,r13,r15                                   *
    1047            ;*   Local Frame Size  : 0 Args + 4 Auto + 0 Save = 4 byte                   *
    1048            ;*****************************************************************************
    1049 000000       EUSCI_B_I2C_disableInterrupt:
    1050            ;* --------------------------------------------------------------------------*
    1051                    .dwcfi  cfa_offset, 4
    1052                    .dwcfi  save_reg_to_mem, 16, -4
    1053 000000 8221          SUB.W     #4,SP                 ; [] 
    1054                    .dwcfi  cfa_offset, 8
    1055            $C$DW$70        .dwtag  DW_TAG_variable
    1056                    .dwattr $C$DW$70, DW_AT_name("baseAddress")
    1057                    .dwattr $C$DW$70, DW_AT_TI_symbol_name("baseAddress")
    1058                    .dwattr $C$DW$70, DW_AT_type(*$C$DW$T$34)
    1059                    .dwattr $C$DW$70, DW_AT_location[DW_OP_breg1 0]
    1060            
    1061            $C$DW$71        .dwtag  DW_TAG_variable
    1062                    .dwattr $C$DW$71, DW_AT_name("mask")
    1063                    .dwattr $C$DW$71, DW_AT_TI_symbol_name("mask")
    1064                    .dwattr $C$DW$71, DW_AT_type(*$C$DW$T$34)
    1065                    .dwattr $C$DW$71, DW_AT_location[DW_OP_breg1 2]
    1066            
    1067 000002 4D81          MOV.W     r13,2(SP)             ; [] |151| 
         000004 0002 
    1068 000006 4C81          MOV.W     r12,0(SP)             ; [] |151| 
         000008 0000 
    1069                    .dwpsn  file "../driverlib/MSP430FR2xx_4xx/eusci_b_i2c.c",line 153,column 5,is_stmt,isa 0
    1070 00000a 403F          MOV.W     #42,r15               ; [] |153| 
         00000c 002A 
    1071 00000e 512F          ADD.W     0(SP),r15             ; [] |153| 
    1072 000010 C19F          BIC.W     2(SP),0(r15)          ; [] |153| 
         000012 0002 
         000014 0000 
    1073                    .dwpsn  file "../driverlib/MSP430FR2xx_4xx/eusci_b_i2c.c",line 154,column 1,is_stmt,isa 0
    1074 000016 5221          ADD.W     #4,SP                 ; [] 
    1075                    .dwcfi  cfa_offset, 4
    1076            $C$DW$72        .dwtag  DW_TAG_TI_branch
    1077                    .dwattr $C$DW$72, DW_AT_low_pc(0x00)
    1078                    .dwattr $C$DW$72, DW_AT_TI_return
    1079            
    1080 000018 0110          RETA      ; [] 
    1081                    ; [] 
MSP430 Assembler PC v21.6.1 Wed Nov 30 16:35:38 2022

Copyright (c) 2003-2018 Texas Instruments Incorporated
eusci_b_i2c.asm                                                      PAGE   22

    1082                    .dwattr $C$DW$67, DW_AT_TI_end_file("../driverlib/MSP430FR2xx_4xx/eusci_b_i2c.c")
    1083                    .dwattr $C$DW$67, DW_AT_TI_end_line(0x9a)
    1084                    .dwattr $C$DW$67, DW_AT_TI_end_column(0x01)
    1085                    .dwendentry
    1086                    .dwendtag $C$DW$67
    1087            
    1088 000000               .sect   ".text:EUSCI_B_I2C_clearInterrupt"
    1089                    .clink
    1090                    .global EUSCI_B_I2C_clearInterrupt
    1091            
    1092            $C$DW$73        .dwtag  DW_TAG_subprogram
    1093                    .dwattr $C$DW$73, DW_AT_name("EUSCI_B_I2C_clearInterrupt")
    1094                    .dwattr $C$DW$73, DW_AT_low_pc(EUSCI_B_I2C_clearInterrupt)
    1095                    .dwattr $C$DW$73, DW_AT_high_pc(0x00)
    1096                    .dwattr $C$DW$73, DW_AT_TI_symbol_name("EUSCI_B_I2C_clearInterrupt")
    1097                    .dwattr $C$DW$73, DW_AT_external
    1098                    .dwattr $C$DW$73, DW_AT_TI_begin_file("../driverlib/MSP430FR2xx_4xx/eusci_b_i2c.c")
    1099                    .dwattr $C$DW$73, DW_AT_TI_begin_line(0x9c)
    1100                    .dwattr $C$DW$73, DW_AT_TI_begin_column(0x06)
    1101                    .dwattr $C$DW$73, DW_AT_decl_file("../driverlib/MSP430FR2xx_4xx/eusci_b_i2c.c")
    1102                    .dwattr $C$DW$73, DW_AT_decl_line(0x9c)
    1103                    .dwattr $C$DW$73, DW_AT_decl_column(0x06)
    1104                    .dwattr $C$DW$73, DW_AT_TI_max_frame_size(0x08)
    1105                    .dwpsn  file "../driverlib/MSP430FR2xx_4xx/eusci_b_i2c.c",line 159,column 1,is_stmt,address EU
    1106            
    1107                    .dwfde $C$DW$CIE, EUSCI_B_I2C_clearInterrupt
    1108            $C$DW$74        .dwtag  DW_TAG_formal_parameter
    1109                    .dwattr $C$DW$74, DW_AT_name("baseAddress")
    1110                    .dwattr $C$DW$74, DW_AT_TI_symbol_name("baseAddress")
    1111                    .dwattr $C$DW$74, DW_AT_type(*$C$DW$T$34)
    1112                    .dwattr $C$DW$74, DW_AT_location[DW_OP_reg12]
    1113            
    1114            $C$DW$75        .dwtag  DW_TAG_formal_parameter
    1115                    .dwattr $C$DW$75, DW_AT_name("mask")
    1116                    .dwattr $C$DW$75, DW_AT_TI_symbol_name("mask")
    1117                    .dwattr $C$DW$75, DW_AT_type(*$C$DW$T$34)
    1118                    .dwattr $C$DW$75, DW_AT_location[DW_OP_reg13]
    1119            
    1120            
    1121            ;*****************************************************************************
    1122            ;* FUNCTION NAME: EUSCI_B_I2C_clearInterrupt                                 *
    1123            ;*                                                                           *
    1124            ;*   Regs Modified     : SP,SR,r15                                           *
    1125            ;*   Regs Used         : SP,SR,r12,r13,r15                                   *
    1126            ;*   Local Frame Size  : 0 Args + 4 Auto + 0 Save = 4 byte                   *
    1127            ;*****************************************************************************
    1128 000000       EUSCI_B_I2C_clearInterrupt:
    1129            ;* --------------------------------------------------------------------------*
    1130                    .dwcfi  cfa_offset, 4
    1131                    .dwcfi  save_reg_to_mem, 16, -4
    1132 000000 8221          SUB.W     #4,SP                 ; [] 
    1133                    .dwcfi  cfa_offset, 8
    1134            $C$DW$76        .dwtag  DW_TAG_variable
    1135                    .dwattr $C$DW$76, DW_AT_name("baseAddress")
    1136                    .dwattr $C$DW$76, DW_AT_TI_symbol_name("baseAddress")
MSP430 Assembler PC v21.6.1 Wed Nov 30 16:35:38 2022

Copyright (c) 2003-2018 Texas Instruments Incorporated
eusci_b_i2c.asm                                                      PAGE   23

    1137                    .dwattr $C$DW$76, DW_AT_type(*$C$DW$T$34)
    1138                    .dwattr $C$DW$76, DW_AT_location[DW_OP_breg1 0]
    1139            
    1140            $C$DW$77        .dwtag  DW_TAG_variable
    1141                    .dwattr $C$DW$77, DW_AT_name("mask")
    1142                    .dwattr $C$DW$77, DW_AT_TI_symbol_name("mask")
    1143                    .dwattr $C$DW$77, DW_AT_type(*$C$DW$T$34)
    1144                    .dwattr $C$DW$77, DW_AT_location[DW_OP_breg1 2]
    1145            
    1146 000002 4D81          MOV.W     r13,2(SP)             ; [] |159| 
         000004 0002 
    1147 000006 4C81          MOV.W     r12,0(SP)             ; [] |159| 
         000008 0000 
    1148                    .dwpsn  file "../driverlib/MSP430FR2xx_4xx/eusci_b_i2c.c",line 161,column 5,is_stmt,isa 0
    1149 00000a 403F          MOV.W     #44,r15               ; [] |161| 
         00000c 002C 
    1150 00000e 512F          ADD.W     0(SP),r15             ; [] |161| 
    1151 000010 C19F          BIC.W     2(SP),0(r15)          ; [] |161| 
         000012 0002 
         000014 0000 
    1152                    .dwpsn  file "../driverlib/MSP430FR2xx_4xx/eusci_b_i2c.c",line 162,column 1,is_stmt,isa 0
    1153 000016 5221          ADD.W     #4,SP                 ; [] 
    1154                    .dwcfi  cfa_offset, 4
    1155            $C$DW$78        .dwtag  DW_TAG_TI_branch
    1156                    .dwattr $C$DW$78, DW_AT_low_pc(0x00)
    1157                    .dwattr $C$DW$78, DW_AT_TI_return
    1158            
    1159 000018 0110          RETA      ; [] 
    1160                    ; [] 
    1161                    .dwattr $C$DW$73, DW_AT_TI_end_file("../driverlib/MSP430FR2xx_4xx/eusci_b_i2c.c")
    1162                    .dwattr $C$DW$73, DW_AT_TI_end_line(0xa2)
    1163                    .dwattr $C$DW$73, DW_AT_TI_end_column(0x01)
    1164                    .dwendentry
    1165                    .dwendtag $C$DW$73
    1166            
    1167 000000               .sect   ".text:EUSCI_B_I2C_getInterruptStatus"
    1168                    .clink
    1169                    .global EUSCI_B_I2C_getInterruptStatus
    1170            
    1171            $C$DW$79        .dwtag  DW_TAG_subprogram
    1172                    .dwattr $C$DW$79, DW_AT_name("EUSCI_B_I2C_getInterruptStatus")
    1173                    .dwattr $C$DW$79, DW_AT_low_pc(EUSCI_B_I2C_getInterruptStatus)
    1174                    .dwattr $C$DW$79, DW_AT_high_pc(0x00)
    1175                    .dwattr $C$DW$79, DW_AT_TI_symbol_name("EUSCI_B_I2C_getInterruptStatus")
    1176                    .dwattr $C$DW$79, DW_AT_external
    1177                    .dwattr $C$DW$79, DW_AT_type(*$C$DW$T$34)
    1178                    .dwattr $C$DW$79, DW_AT_TI_begin_file("../driverlib/MSP430FR2xx_4xx/eusci_b_i2c.c")
    1179                    .dwattr $C$DW$79, DW_AT_TI_begin_line(0xa4)
    1180                    .dwattr $C$DW$79, DW_AT_TI_begin_column(0x0a)
    1181                    .dwattr $C$DW$79, DW_AT_decl_file("../driverlib/MSP430FR2xx_4xx/eusci_b_i2c.c")
    1182                    .dwattr $C$DW$79, DW_AT_decl_line(0xa4)
    1183                    .dwattr $C$DW$79, DW_AT_decl_column(0x0a)
    1184                    .dwattr $C$DW$79, DW_AT_TI_max_frame_size(0x08)
    1185                    .dwpsn  file "../driverlib/MSP430FR2xx_4xx/eusci_b_i2c.c",line 167,column 1,is_stmt,address EU
    1186            
MSP430 Assembler PC v21.6.1 Wed Nov 30 16:35:38 2022

Copyright (c) 2003-2018 Texas Instruments Incorporated
eusci_b_i2c.asm                                                      PAGE   24

    1187                    .dwfde $C$DW$CIE, EUSCI_B_I2C_getInterruptStatus
    1188            $C$DW$80        .dwtag  DW_TAG_formal_parameter
    1189                    .dwattr $C$DW$80, DW_AT_name("baseAddress")
    1190                    .dwattr $C$DW$80, DW_AT_TI_symbol_name("baseAddress")
    1191                    .dwattr $C$DW$80, DW_AT_type(*$C$DW$T$34)
    1192                    .dwattr $C$DW$80, DW_AT_location[DW_OP_reg12]
    1193            
    1194            $C$DW$81        .dwtag  DW_TAG_formal_parameter
    1195                    .dwattr $C$DW$81, DW_AT_name("mask")
    1196                    .dwattr $C$DW$81, DW_AT_TI_symbol_name("mask")
    1197                    .dwattr $C$DW$81, DW_AT_type(*$C$DW$T$34)
    1198                    .dwattr $C$DW$81, DW_AT_location[DW_OP_reg13]
    1199            
    1200            
    1201            ;*****************************************************************************
    1202            ;* FUNCTION NAME: EUSCI_B_I2C_getInterruptStatus                             *
    1203            ;*                                                                           *
    1204            ;*   Regs Modified     : SP,SR,r12,r13                                       *
    1205            ;*   Regs Used         : SP,SR,r12,r13                                       *
    1206            ;*   Local Frame Size  : 0 Args + 4 Auto + 0 Save = 4 byte                   *
    1207            ;*****************************************************************************
    1208 000000       EUSCI_B_I2C_getInterruptStatus:
    1209            ;* --------------------------------------------------------------------------*
    1210                    .dwcfi  cfa_offset, 4
    1211                    .dwcfi  save_reg_to_mem, 16, -4
    1212 000000 8221          SUB.W     #4,SP                 ; [] 
    1213                    .dwcfi  cfa_offset, 8
    1214            $C$DW$82        .dwtag  DW_TAG_variable
    1215                    .dwattr $C$DW$82, DW_AT_name("baseAddress")
    1216                    .dwattr $C$DW$82, DW_AT_TI_symbol_name("baseAddress")
    1217                    .dwattr $C$DW$82, DW_AT_type(*$C$DW$T$34)
    1218                    .dwattr $C$DW$82, DW_AT_location[DW_OP_breg1 0]
    1219            
    1220            $C$DW$83        .dwtag  DW_TAG_variable
    1221                    .dwattr $C$DW$83, DW_AT_name("mask")
    1222                    .dwattr $C$DW$83, DW_AT_TI_symbol_name("mask")
    1223                    .dwattr $C$DW$83, DW_AT_type(*$C$DW$T$34)
    1224                    .dwattr $C$DW$83, DW_AT_location[DW_OP_breg1 2]
    1225            
    1226 000002 4D81          MOV.W     r13,2(SP)             ; [] |167| 
         000004 0002 
    1227 000006 4C81          MOV.W     r12,0(SP)             ; [] |167| 
         000008 0000 
    1228                    .dwpsn  file "../driverlib/MSP430FR2xx_4xx/eusci_b_i2c.c",line 169,column 5,is_stmt,isa 0
    1229 00000a FC1D          AND.W     44(r12),r13           ; [] |169| 
         00000c 002C 
    1230 00000e 0DCC          MOVA      r13,r12               ; [] |169| 
    1231                    .dwpsn  file "../driverlib/MSP430FR2xx_4xx/eusci_b_i2c.c",line 170,column 1,is_stmt,isa 0
    1232 000010 5221          ADD.W     #4,SP                 ; [] 
    1233                    .dwcfi  cfa_offset, 4
    1234            $C$DW$84        .dwtag  DW_TAG_TI_branch
    1235                    .dwattr $C$DW$84, DW_AT_low_pc(0x00)
    1236                    .dwattr $C$DW$84, DW_AT_TI_return
    1237            
    1238 000012 0110          RETA      ; [] 
MSP430 Assembler PC v21.6.1 Wed Nov 30 16:35:38 2022

Copyright (c) 2003-2018 Texas Instruments Incorporated
eusci_b_i2c.asm                                                      PAGE   25

    1239                    ; [] 
    1240                    .dwattr $C$DW$79, DW_AT_TI_end_file("../driverlib/MSP430FR2xx_4xx/eusci_b_i2c.c")
    1241                    .dwattr $C$DW$79, DW_AT_TI_end_line(0xaa)
    1242                    .dwattr $C$DW$79, DW_AT_TI_end_column(0x01)
    1243                    .dwendentry
    1244                    .dwendtag $C$DW$79
    1245            
    1246 000000               .sect   ".text:EUSCI_B_I2C_masterSendSingleByte"
    1247                    .clink
    1248                    .global EUSCI_B_I2C_masterSendSingleByte
    1249            
    1250            $C$DW$85        .dwtag  DW_TAG_subprogram
    1251                    .dwattr $C$DW$85, DW_AT_name("EUSCI_B_I2C_masterSendSingleByte")
    1252                    .dwattr $C$DW$85, DW_AT_low_pc(EUSCI_B_I2C_masterSendSingleByte)
    1253                    .dwattr $C$DW$85, DW_AT_high_pc(0x00)
    1254                    .dwattr $C$DW$85, DW_AT_TI_symbol_name("EUSCI_B_I2C_masterSendSingleByte")
    1255                    .dwattr $C$DW$85, DW_AT_external
    1256                    .dwattr $C$DW$85, DW_AT_TI_begin_file("../driverlib/MSP430FR2xx_4xx/eusci_b_i2c.c")
    1257                    .dwattr $C$DW$85, DW_AT_TI_begin_line(0xac)
    1258                    .dwattr $C$DW$85, DW_AT_TI_begin_column(0x06)
    1259                    .dwattr $C$DW$85, DW_AT_decl_file("../driverlib/MSP430FR2xx_4xx/eusci_b_i2c.c")
    1260                    .dwattr $C$DW$85, DW_AT_decl_line(0xac)
    1261                    .dwattr $C$DW$85, DW_AT_decl_column(0x06)
    1262                    .dwattr $C$DW$85, DW_AT_TI_max_frame_size(0x0a)
    1263                    .dwpsn  file "../driverlib/MSP430FR2xx_4xx/eusci_b_i2c.c",line 175,column 1,is_stmt,address EU
    1264            
    1265                    .dwfde $C$DW$CIE, EUSCI_B_I2C_masterSendSingleByte
    1266            $C$DW$86        .dwtag  DW_TAG_formal_parameter
    1267                    .dwattr $C$DW$86, DW_AT_name("baseAddress")
    1268                    .dwattr $C$DW$86, DW_AT_TI_symbol_name("baseAddress")
    1269                    .dwattr $C$DW$86, DW_AT_type(*$C$DW$T$34)
    1270                    .dwattr $C$DW$86, DW_AT_location[DW_OP_reg12]
    1271            
    1272            $C$DW$87        .dwtag  DW_TAG_formal_parameter
    1273                    .dwattr $C$DW$87, DW_AT_name("txData")
    1274                    .dwattr $C$DW$87, DW_AT_TI_symbol_name("txData")
    1275                    .dwattr $C$DW$87, DW_AT_type(*$C$DW$T$23)
    1276                    .dwattr $C$DW$87, DW_AT_location[DW_OP_reg13]
    1277            
    1278            
    1279            ;*****************************************************************************
    1280            ;* FUNCTION NAME: EUSCI_B_I2C_masterSendSingleByte                           *
    1281            ;*                                                                           *
    1282            ;*   Regs Modified     : SP,SR,r14,r15                                       *
    1283            ;*   Regs Used         : SP,SR,r12,r13,r14,r15                               *
    1284            ;*   Local Frame Size  : 0 Args + 6 Auto + 0 Save = 6 byte                   *
    1285            ;*****************************************************************************
    1286 000000       EUSCI_B_I2C_masterSendSingleByte:
    1287            ;* --------------------------------------------------------------------------*
    1288                    .dwcfi  cfa_offset, 4
    1289                    .dwcfi  save_reg_to_mem, 16, -4
    1290 000000 8031          SUB.W     #6,SP                 ; [] 
         000002 0006 
    1291                    .dwcfi  cfa_offset, 10
    1292            $C$DW$88        .dwtag  DW_TAG_variable
MSP430 Assembler PC v21.6.1 Wed Nov 30 16:35:38 2022

Copyright (c) 2003-2018 Texas Instruments Incorporated
eusci_b_i2c.asm                                                      PAGE   26

    1293                    .dwattr $C$DW$88, DW_AT_name("baseAddress")
    1294                    .dwattr $C$DW$88, DW_AT_TI_symbol_name("baseAddress")
    1295                    .dwattr $C$DW$88, DW_AT_type(*$C$DW$T$34)
    1296                    .dwattr $C$DW$88, DW_AT_location[DW_OP_breg1 0]
    1297            
    1298            $C$DW$89        .dwtag  DW_TAG_variable
    1299                    .dwattr $C$DW$89, DW_AT_name("txieStatus")
    1300                    .dwattr $C$DW$89, DW_AT_TI_symbol_name("txieStatus")
    1301                    .dwattr $C$DW$89, DW_AT_type(*$C$DW$T$34)
    1302                    .dwattr $C$DW$89, DW_AT_location[DW_OP_breg1 2]
    1303            
    1304            $C$DW$90        .dwtag  DW_TAG_variable
    1305                    .dwattr $C$DW$90, DW_AT_name("txData")
    1306                    .dwattr $C$DW$90, DW_AT_TI_symbol_name("txData")
    1307                    .dwattr $C$DW$90, DW_AT_type(*$C$DW$T$23)
    1308                    .dwattr $C$DW$90, DW_AT_location[DW_OP_breg1 4]
    1309            
    1310 000004 4DC1          MOV.B     r13,4(SP)             ; [] |175| 
         000006 0004 
    1311 000008 4C81          MOV.W     r12,0(SP)             ; [] |175| 
         00000a 0000 
    1312                    .dwpsn  file "../driverlib/MSP430FR2xx_4xx/eusci_b_i2c.c",line 177,column 25,is_stmt,isa 0
    1313 00000c 432F          MOV.W     #2,r15                ; [] |177| 
    1314 00000e FC1F          AND.W     42(r12),r15           ; [] |177| 
         000010 002A 
    1315 000012 4F81          MOV.W     r15,2(SP)             ; [] |177| 
         000014 0002 
    1316                    .dwpsn  file "../driverlib/MSP430FR2xx_4xx/eusci_b_i2c.c",line 180,column 5,is_stmt,isa 0
    1317 000016 403F          MOV.W     #42,r15               ; [] |180| 
         000018 002A 
    1318 00001a 512F          ADD.W     0(SP),r15             ; [] |180| 
    1319 00001c C3AF          BIC.W     #2,0(r15)             ; [] |180| 
         00001e 0000 
    1320                    .dwpsn  file "../driverlib/MSP430FR2xx_4xx/eusci_b_i2c.c",line 183,column 5,is_stmt,isa 0
    1321 000020 412F          MOV.W     0(SP),r15             ; [] |183| 
    1322 000022 D0BF          OR.W      #18,0(r15)            ; [] |183| 
         000024 0012 
         000026 0000 
    1323                    .dwpsn  file "../driverlib/MSP430FR2xx_4xx/eusci_b_i2c.c",line 186,column 5,is_stmt,isa 0
    1324            ;* --------------------------------------------------------------------------*
    1325            ;*   BEGIN LOOP $C$L1
    1326            ;*
    1327            ;*   Loop source line                : 186
    1328            ;*   Loop closing brace source line  : 186
    1329            ;*   Known Minimum Trip Count        : 1
    1330            ;*   Known Maximum Trip Count        : 4294967295
    1331            ;*   Known Max Trip Count Factor     : 1
    1332            ;* --------------------------------------------------------------------------*
    1333 000028       $C$L1:    
    1334                    .dwpsn  file "../driverlib/MSP430FR2xx_4xx/eusci_b_i2c.c",line 186,column 12,is_stmt,isa 0
    1335 000028 412F          MOV.W     0(SP),r15             ; [] |186| 
    1336 00002a B3AF          BIT.W     #2,44(r15)            ; [] |186| 
         00002c 002C 
    1337 00002e 27FC          JEQ       $C$L1                 ; [] |186| 
    1338                                                      ; [] |186| 
MSP430 Assembler PC v21.6.1 Wed Nov 30 16:35:38 2022

Copyright (c) 2003-2018 Texas Instruments Incorporated
eusci_b_i2c.asm                                                      PAGE   27

    1339            ;* --------------------------------------------------------------------------*
    1340                    .dwpsn  file "../driverlib/MSP430FR2xx_4xx/eusci_b_i2c.c",line 189,column 5,is_stmt,isa 0
    1341 000030 415E          MOV.B     4(SP),r14             ; [] |189| 
         000032 0004 
    1342 000034 4E8F          MOV.W     r14,14(r15)           ; [] |189| 
         000036 000E 
    1343                    .dwpsn  file "../driverlib/MSP430FR2xx_4xx/eusci_b_i2c.c",line 192,column 5,is_stmt,isa 0
    1344            ;* --------------------------------------------------------------------------*
    1345            ;*   BEGIN LOOP $C$L2
    1346            ;*
    1347            ;*   Loop source line                : 192
    1348            ;*   Loop closing brace source line  : 192
    1349            ;*   Known Minimum Trip Count        : 1
    1350            ;*   Known Maximum Trip Count        : 4294967295
    1351            ;*   Known Max Trip Count Factor     : 1
    1352            ;* --------------------------------------------------------------------------*
    1353 000038       $C$L2:    
    1354                    .dwpsn  file "../driverlib/MSP430FR2xx_4xx/eusci_b_i2c.c",line 192,column 12,is_stmt,isa 0
    1355 000038 412F          MOV.W     0(SP),r15             ; [] |192| 
    1356 00003a B3AF          BIT.W     #2,44(r15)            ; [] |192| 
         00003c 002C 
    1357 00003e 27FC          JEQ       $C$L2                 ; [] |192| 
    1358                                                      ; [] |192| 
    1359            ;* --------------------------------------------------------------------------*
    1360                    .dwpsn  file "../driverlib/MSP430FR2xx_4xx/eusci_b_i2c.c",line 195,column 5,is_stmt,isa 0
    1361 000040 412F          MOV.W     0(SP),r15             ; [] |195| 
    1362 000042 D2AF          OR.W      #4,0(r15)             ; [] |195| 
         000044 0000 
    1363                    .dwpsn  file "../driverlib/MSP430FR2xx_4xx/eusci_b_i2c.c",line 198,column 5,is_stmt,isa 0
    1364 000046 403F          MOV.W     #44,r15               ; [] |198| 
         000048 002C 
    1365 00004a 512F          ADD.W     0(SP),r15             ; [] |198| 
    1366 00004c C3AF          BIC.W     #2,0(r15)             ; [] |198| 
         00004e 0000 
    1367                    .dwpsn  file "../driverlib/MSP430FR2xx_4xx/eusci_b_i2c.c",line 201,column 5,is_stmt,isa 0
    1368 000050 403F          MOV.W     #42,r15               ; [] |201| 
         000052 002A 
    1369 000054 512F          ADD.W     0(SP),r15             ; [] |201| 
    1370 000056 D19F          OR.W      2(SP),0(r15)          ; [] |201| 
         000058 0002 
         00005a 0000 
    1371                    .dwpsn  file "../driverlib/MSP430FR2xx_4xx/eusci_b_i2c.c",line 202,column 1,is_stmt,isa 0
    1372 00005c 5031          ADD.W     #6,SP                 ; [] 
         00005e 0006 
    1373                    .dwcfi  cfa_offset, 4
    1374            $C$DW$91        .dwtag  DW_TAG_TI_branch
    1375                    .dwattr $C$DW$91, DW_AT_low_pc(0x00)
    1376                    .dwattr $C$DW$91, DW_AT_TI_return
    1377            
    1378 000060 0110          RETA      ; [] 
    1379                    ; [] 
    1380                    .dwattr $C$DW$85, DW_AT_TI_end_file("../driverlib/MSP430FR2xx_4xx/eusci_b_i2c.c")
    1381                    .dwattr $C$DW$85, DW_AT_TI_end_line(0xca)
    1382                    .dwattr $C$DW$85, DW_AT_TI_end_column(0x01)
    1383                    .dwendentry
MSP430 Assembler PC v21.6.1 Wed Nov 30 16:35:38 2022

Copyright (c) 2003-2018 Texas Instruments Incorporated
eusci_b_i2c.asm                                                      PAGE   28

    1384                    .dwendtag $C$DW$85
    1385            
    1386 000000               .sect   ".text:EUSCI_B_I2C_masterReceiveSingleByte"
    1387                    .clink
    1388                    .global EUSCI_B_I2C_masterReceiveSingleByte
    1389            
    1390            $C$DW$92        .dwtag  DW_TAG_subprogram
    1391                    .dwattr $C$DW$92, DW_AT_name("EUSCI_B_I2C_masterReceiveSingleByte")
    1392                    .dwattr $C$DW$92, DW_AT_low_pc(EUSCI_B_I2C_masterReceiveSingleByte)
    1393                    .dwattr $C$DW$92, DW_AT_high_pc(0x00)
    1394                    .dwattr $C$DW$92, DW_AT_TI_symbol_name("EUSCI_B_I2C_masterReceiveSingleByte")
    1395                    .dwattr $C$DW$92, DW_AT_external
    1396                    .dwattr $C$DW$92, DW_AT_type(*$C$DW$T$23)
    1397                    .dwattr $C$DW$92, DW_AT_TI_begin_file("../driverlib/MSP430FR2xx_4xx/eusci_b_i2c.c")
    1398                    .dwattr $C$DW$92, DW_AT_TI_begin_line(0xcc)
    1399                    .dwattr $C$DW$92, DW_AT_TI_begin_column(0x09)
    1400                    .dwattr $C$DW$92, DW_AT_decl_file("../driverlib/MSP430FR2xx_4xx/eusci_b_i2c.c")
    1401                    .dwattr $C$DW$92, DW_AT_decl_line(0xcc)
    1402                    .dwattr $C$DW$92, DW_AT_decl_column(0x09)
    1403                    .dwattr $C$DW$92, DW_AT_TI_max_frame_size(0x06)
    1404                    .dwpsn  file "../driverlib/MSP430FR2xx_4xx/eusci_b_i2c.c",line 205,column 1,is_stmt,address EU
    1405            
    1406                    .dwfde $C$DW$CIE, EUSCI_B_I2C_masterReceiveSingleByte
    1407            $C$DW$93        .dwtag  DW_TAG_formal_parameter
    1408                    .dwattr $C$DW$93, DW_AT_name("baseAddress")
    1409                    .dwattr $C$DW$93, DW_AT_TI_symbol_name("baseAddress")
    1410                    .dwattr $C$DW$93, DW_AT_type(*$C$DW$T$34)
    1411                    .dwattr $C$DW$93, DW_AT_location[DW_OP_reg12]
    1412            
    1413            
    1414            ;*****************************************************************************
    1415            ;* FUNCTION NAME: EUSCI_B_I2C_masterReceiveSingleByte                        *
    1416            ;*                                                                           *
    1417            ;*   Regs Modified     : SP,SR,r12,r14,r15                                   *
    1418            ;*   Regs Used         : SP,SR,r12,r14,r15                                   *
    1419            ;*   Local Frame Size  : 0 Args + 2 Auto + 0 Save = 2 byte                   *
    1420            ;*****************************************************************************
    1421 000000       EUSCI_B_I2C_masterReceiveSingleByte:
    1422            ;* --------------------------------------------------------------------------*
    1423                    .dwcfi  cfa_offset, 4
    1424                    .dwcfi  save_reg_to_mem, 16, -4
    1425 000000 8321          SUB.W     #2,SP                 ; [] 
    1426                    .dwcfi  cfa_offset, 6
    1427            $C$DW$94        .dwtag  DW_TAG_variable
    1428                    .dwattr $C$DW$94, DW_AT_name("baseAddress")
    1429                    .dwattr $C$DW$94, DW_AT_TI_symbol_name("baseAddress")
    1430                    .dwattr $C$DW$94, DW_AT_type(*$C$DW$T$34)
    1431                    .dwattr $C$DW$94, DW_AT_location[DW_OP_breg1 0]
    1432            
    1433 000002 4C81          MOV.W     r12,0(SP)             ; [] |205| 
         000004 0000 
    1434                    .dwpsn  file "../driverlib/MSP430FR2xx_4xx/eusci_b_i2c.c",line 207,column 5,is_stmt,isa 0
    1435 000006 412F          MOV.W     0(SP),r15             ; [] |207| 
    1436 000008 F0BF          AND.W     #65519,0(r15)         ; [] |207| 
         00000a FFEF 
MSP430 Assembler PC v21.6.1 Wed Nov 30 16:35:38 2022

Copyright (c) 2003-2018 Texas Instruments Incorporated
eusci_b_i2c.asm                                                      PAGE   29

         00000c 0000 
    1437                    .dwpsn  file "../driverlib/MSP430FR2xx_4xx/eusci_b_i2c.c",line 210,column 5,is_stmt,isa 0
    1438 00000e 412F          MOV.W     0(SP),r15             ; [] |210| 
    1439 000010 D3AF          OR.W      #2,0(r15)             ; [] |210| 
         000012 0000 
    1440                    .dwpsn  file "../driverlib/MSP430FR2xx_4xx/eusci_b_i2c.c",line 213,column 5,is_stmt,isa 0
    1441 000014 432E          MOV.W     #2,r14                ; [] |213| 
    1442            ;* --------------------------------------------------------------------------*
    1443            ;*   BEGIN LOOP $C$L3
    1444            ;*
    1445            ;*   Loop source line                : 213
    1446            ;*   Loop closing brace source line  : 213
    1447            ;*   Known Minimum Trip Count        : 1
    1448            ;*   Known Maximum Trip Count        : 4294967295
    1449            ;*   Known Max Trip Count Factor     : 1
    1450            ;* --------------------------------------------------------------------------*
    1451 000016       $C$L3:    
    1452 000016 412F          MOV.W     0(SP),r15             ; [] |213| 
    1453 000018 BF2E          BIT.W     @r15,r14              ; [] |213| 
    1454 00001a 23FD          JNE       $C$L3                 ; [] |213| 
    1455                                                      ; [] |213| 
    1456            ;* --------------------------------------------------------------------------*
    1457                    .dwpsn  file "../driverlib/MSP430FR2xx_4xx/eusci_b_i2c.c",line 216,column 5,is_stmt,isa 0
    1458 00001c D2AF          OR.W      #4,0(r15)             ; [] |216| 
         00001e 0000 
    1459                    .dwpsn  file "../driverlib/MSP430FR2xx_4xx/eusci_b_i2c.c",line 219,column 5,is_stmt,isa 0
    1460            ;* --------------------------------------------------------------------------*
    1461            ;*   BEGIN LOOP $C$L4
    1462            ;*
    1463            ;*   Loop source line                : 219
    1464            ;*   Loop closing brace source line  : 219
    1465            ;*   Known Minimum Trip Count        : 1
    1466            ;*   Known Maximum Trip Count        : 4294967295
    1467            ;*   Known Max Trip Count Factor     : 1
    1468            ;* --------------------------------------------------------------------------*
    1469 000020       $C$L4:    
    1470                    .dwpsn  file "../driverlib/MSP430FR2xx_4xx/eusci_b_i2c.c",line 219,column 12,is_stmt,isa 0
    1471 000020 412F          MOV.W     0(SP),r15             ; [] |219| 
    1472 000022 B39F          BIT.W     #1,44(r15)            ; [] |219| 
         000024 002C 
    1473 000026 27FC          JEQ       $C$L4                 ; [] |219| 
    1474                                                      ; [] |219| 
    1475            ;* --------------------------------------------------------------------------*
    1476                    .dwpsn  file "../driverlib/MSP430FR2xx_4xx/eusci_b_i2c.c",line 222,column 5,is_stmt,isa 0
    1477 000028 4F1C          MOV.W     12(r15),r12           ; [] |222| 
         00002a 000C 
    1478 00002c 4C4C          MOV.B     r12,r12               ; [] |222| 
    1479                    .dwpsn  file "../driverlib/MSP430FR2xx_4xx/eusci_b_i2c.c",line 223,column 1,is_stmt,isa 0
    1480 00002e 5321          ADD.W     #2,SP                 ; [] 
    1481                    .dwcfi  cfa_offset, 4
    1482            $C$DW$95        .dwtag  DW_TAG_TI_branch
    1483                    .dwattr $C$DW$95, DW_AT_low_pc(0x00)
    1484                    .dwattr $C$DW$95, DW_AT_TI_return
    1485            
    1486 000030 0110          RETA      ; [] 
MSP430 Assembler PC v21.6.1 Wed Nov 30 16:35:38 2022

Copyright (c) 2003-2018 Texas Instruments Incorporated
eusci_b_i2c.asm                                                      PAGE   30

    1487                    ; [] 
    1488                    .dwattr $C$DW$92, DW_AT_TI_end_file("../driverlib/MSP430FR2xx_4xx/eusci_b_i2c.c")
    1489                    .dwattr $C$DW$92, DW_AT_TI_end_line(0xdf)
    1490                    .dwattr $C$DW$92, DW_AT_TI_end_column(0x01)
    1491                    .dwendentry
    1492                    .dwendtag $C$DW$92
    1493            
    1494 000000               .sect   ".text:EUSCI_B_I2C_masterSendSingleByteWithTimeout"
    1495                    .clink
    1496                    .global EUSCI_B_I2C_masterSendSingleByteWithTimeout
    1497            
    1498            $C$DW$96        .dwtag  DW_TAG_subprogram
    1499                    .dwattr $C$DW$96, DW_AT_name("EUSCI_B_I2C_masterSendSingleByteWithTimeout")
    1500                    .dwattr $C$DW$96, DW_AT_low_pc(EUSCI_B_I2C_masterSendSingleByteWithTimeout)
    1501                    .dwattr $C$DW$96, DW_AT_high_pc(0x00)
    1502                    .dwattr $C$DW$96, DW_AT_TI_symbol_name("EUSCI_B_I2C_masterSendSingleByteWithTimeout")
    1503                    .dwattr $C$DW$96, DW_AT_external
    1504                    .dwattr $C$DW$96, DW_AT_type(*$C$DW$T$157)
    1505                    .dwattr $C$DW$96, DW_AT_TI_begin_file("../driverlib/MSP430FR2xx_4xx/eusci_b_i2c.c")
    1506                    .dwattr $C$DW$96, DW_AT_TI_begin_line(0xe1)
    1507                    .dwattr $C$DW$96, DW_AT_TI_begin_column(0x06)
    1508                    .dwattr $C$DW$96, DW_AT_decl_file("../driverlib/MSP430FR2xx_4xx/eusci_b_i2c.c")
    1509                    .dwattr $C$DW$96, DW_AT_decl_line(0xe1)
    1510                    .dwattr $C$DW$96, DW_AT_decl_column(0x06)
    1511                    .dwattr $C$DW$96, DW_AT_TI_max_frame_size(0x12)
    1512                    .dwpsn  file "../driverlib/MSP430FR2xx_4xx/eusci_b_i2c.c",line 229,column 1,is_stmt,address EU
    1513            
    1514                    .dwfde $C$DW$CIE, EUSCI_B_I2C_masterSendSingleByteWithTimeout
    1515            $C$DW$97        .dwtag  DW_TAG_formal_parameter
    1516                    .dwattr $C$DW$97, DW_AT_name("baseAddress")
    1517                    .dwattr $C$DW$97, DW_AT_TI_symbol_name("baseAddress")
    1518                    .dwattr $C$DW$97, DW_AT_type(*$C$DW$T$34)
    1519                    .dwattr $C$DW$97, DW_AT_location[DW_OP_reg12]
    1520            
    1521            $C$DW$98        .dwtag  DW_TAG_formal_parameter
    1522                    .dwattr $C$DW$98, DW_AT_name("txData")
    1523                    .dwattr $C$DW$98, DW_AT_TI_symbol_name("txData")
    1524                    .dwattr $C$DW$98, DW_AT_type(*$C$DW$T$23)
    1525                    .dwattr $C$DW$98, DW_AT_location[DW_OP_reg13]
    1526            
    1527            $C$DW$99        .dwtag  DW_TAG_formal_parameter
    1528                    .dwattr $C$DW$99, DW_AT_name("timeout")
    1529                    .dwattr $C$DW$99, DW_AT_TI_symbol_name("timeout")
    1530                    .dwattr $C$DW$99, DW_AT_type(*$C$DW$T$25)
    1531                    .dwattr $C$DW$99, DW_AT_location[DW_OP_reg14 DW_OP_piece 2 DW_OP_reg15 DW_OP_piece 2]
    1532            
    1533            
    1534            ;*****************************************************************************
    1535            ;* FUNCTION NAME: EUSCI_B_I2C_masterSendSingleByteWithTimeout                *
    1536            ;*                                                                           *
    1537            ;*   Regs Modified     : SP,SR,r12,r14,r15                                   *
    1538            ;*   Regs Used         : SP,SR,r12,r13,r14,r15                               *
    1539            ;*   Local Frame Size  : 0 Args + 14 Auto + 0 Save = 14 byte                 *
    1540            ;*****************************************************************************
    1541 000000       EUSCI_B_I2C_masterSendSingleByteWithTimeout:
MSP430 Assembler PC v21.6.1 Wed Nov 30 16:35:38 2022

Copyright (c) 2003-2018 Texas Instruments Incorporated
eusci_b_i2c.asm                                                      PAGE   31

    1542            ;* --------------------------------------------------------------------------*
    1543                    .dwcfi  cfa_offset, 4
    1544                    .dwcfi  save_reg_to_mem, 16, -4
    1545 000000 8031          SUB.W     #14,SP                ; [] 
         000002 000E 
    1546                    .dwcfi  cfa_offset, 18
    1547            $C$DW$100       .dwtag  DW_TAG_variable
    1548                    .dwattr $C$DW$100, DW_AT_name("timeout")
    1549                    .dwattr $C$DW$100, DW_AT_TI_symbol_name("timeout")
    1550                    .dwattr $C$DW$100, DW_AT_type(*$C$DW$T$25)
    1551                    .dwattr $C$DW$100, DW_AT_location[DW_OP_breg1 0]
    1552            
    1553            $C$DW$101       .dwtag  DW_TAG_variable
    1554                    .dwattr $C$DW$101, DW_AT_name("timeout2")
    1555                    .dwattr $C$DW$101, DW_AT_TI_symbol_name("timeout2")
    1556                    .dwattr $C$DW$101, DW_AT_type(*$C$DW$T$25)
    1557                    .dwattr $C$DW$101, DW_AT_location[DW_OP_breg1 4]
    1558            
    1559            $C$DW$102       .dwtag  DW_TAG_variable
    1560                    .dwattr $C$DW$102, DW_AT_name("baseAddress")
    1561                    .dwattr $C$DW$102, DW_AT_TI_symbol_name("baseAddress")
    1562                    .dwattr $C$DW$102, DW_AT_type(*$C$DW$T$34)
    1563                    .dwattr $C$DW$102, DW_AT_location[DW_OP_breg1 8]
    1564            
    1565            $C$DW$103       .dwtag  DW_TAG_variable
    1566                    .dwattr $C$DW$103, DW_AT_name("txieStatus")
    1567                    .dwattr $C$DW$103, DW_AT_TI_symbol_name("txieStatus")
    1568                    .dwattr $C$DW$103, DW_AT_type(*$C$DW$T$34)
    1569                    .dwattr $C$DW$103, DW_AT_location[DW_OP_breg1 10]
    1570            
    1571            $C$DW$104       .dwtag  DW_TAG_variable
    1572                    .dwattr $C$DW$104, DW_AT_name("txData")
    1573                    .dwattr $C$DW$104, DW_AT_TI_symbol_name("txData")
    1574                    .dwattr $C$DW$104, DW_AT_type(*$C$DW$T$23)
    1575                    .dwattr $C$DW$104, DW_AT_location[DW_OP_breg1 12]
    1576            
    1577 000004 4E81          MOV.W     r14,0(SP)             ; [] |229| 
         000006 0000 
    1578 000008 4F81          MOV.W     r15,2(SP)             ; [] |229| 
         00000a 0002 
    1579 00000c 4DC1          MOV.B     r13,12(SP)            ; [] |229| 
         00000e 000C 
    1580 000010 4C81          MOV.W     r12,8(SP)             ; [] |229| 
         000012 0008 
    1581                    .dwpsn  file "../driverlib/MSP430FR2xx_4xx/eusci_b_i2c.c",line 231,column 23,is_stmt,isa 0
    1582 000014 41A1          MOV.W     0(SP),4(SP)           ; [] |231| 
         000016 0004 
    1583 000018 4191          MOV.W     2(SP),6(SP)           ; [] |231| 
         00001a 0002 
         00001c 0006 
    1584                    .dwpsn  file "../driverlib/MSP430FR2xx_4xx/eusci_b_i2c.c",line 234,column 25,is_stmt,isa 0
    1585 00001e 432F          MOV.W     #2,r15                ; [] |234| 
    1586 000020 FC1F          AND.W     42(r12),r15           ; [] |234| 
         000022 002A 
    1587 000024 4F81          MOV.W     r15,10(SP)            ; [] |234| 
MSP430 Assembler PC v21.6.1 Wed Nov 30 16:35:38 2022

Copyright (c) 2003-2018 Texas Instruments Incorporated
eusci_b_i2c.asm                                                      PAGE   32

         000026 000A 
    1588                    .dwpsn  file "../driverlib/MSP430FR2xx_4xx/eusci_b_i2c.c",line 237,column 5,is_stmt,isa 0
    1589 000028 403F          MOV.W     #42,r15               ; [] |237| 
         00002a 002A 
    1590 00002c 511F          ADD.W     8(SP),r15             ; [] |237| 
         00002e 0008 
    1591 000030 C3AF          BIC.W     #2,0(r15)             ; [] |237| 
         000032 0000 
    1592                    .dwpsn  file "../driverlib/MSP430FR2xx_4xx/eusci_b_i2c.c",line 240,column 5,is_stmt,isa 0
    1593 000034 411F          MOV.W     8(SP),r15             ; [] |240| 
         000036 0008 
    1594 000038 D0BF          OR.W      #18,0(r15)            ; [] |240| 
         00003a 0012 
         00003c 0000 
    1595                    .dwpsn  file "../driverlib/MSP430FR2xx_4xx/eusci_b_i2c.c",line 243,column 5,is_stmt,isa 0
    1596            ;* --------------------------------------------------------------------------*
    1597            ;*   BEGIN LOOP $C$L5
    1598            ;*
    1599            ;*   Loop source line                : 243
    1600            ;*   Loop closing brace source line  : 243
    1601            ;*   Known Minimum Trip Count        : 1
    1602            ;*   Known Maximum Trip Count        : 4294967295
    1603            ;*   Known Max Trip Count Factor     : 1
    1604            ;* --------------------------------------------------------------------------*
    1605 00003e       $C$L5:    
    1606                    .dwpsn  file "../driverlib/MSP430FR2xx_4xx/eusci_b_i2c.c",line 243,column 12,is_stmt,isa 0
    1607 00003e 411F          MOV.W     8(SP),r15             ; [] |243| 
         000040 0008 
    1608 000042 B3AF          BIT.W     #2,44(r15)            ; [] |243| 
         000044 002C 
    1609 000046 2008          JNE       $C$L6                 ; [] |243| 
    1610                                                      ; [] |243| 
    1611            ;* --------------------------------------------------------------------------*
    1612 000048 8391          SUB.W     #1,0(SP)              ; [] |243| 
         00004a 0000 
    1613 00004c 7381          SUBC.W    #0,2(SP)              ; [] |243| 
         00004e 0002 
    1614 000050 23F6          JNE       $C$L5                 ; [] |243| 
    1615                                                      ; [] |243| 
    1616            ;* --------------------------------------------------------------------------*
    1617 000052 9381          TST.W     0(SP)                 ; [] |243| 
         000054 0000 
    1618 000056 23F3          JNE       $C$L5                 ; [] |243| 
    1619                                                      ; [] |243| 
    1620            ;* --------------------------------------------------------------------------*
    1621 000058       $C$L6:    
    1622                    .dwpsn  file "../driverlib/MSP430FR2xx_4xx/eusci_b_i2c.c",line 246,column 5,is_stmt,isa 0
    1623 000058 9381          TST.W     2(SP)                 ; [] |246| 
         00005a 0002 
    1624 00005c 2005          JNE       $C$L7                 ; [] |246| 
    1625                                                      ; [] |246| 
    1626            ;* --------------------------------------------------------------------------*
    1627 00005e 9381          TST.W     0(SP)                 ; [] |246| 
         000060 0000 
    1628 000062 2002          JNE       $C$L7                 ; [] |246| 
MSP430 Assembler PC v21.6.1 Wed Nov 30 16:35:38 2022

Copyright (c) 2003-2018 Texas Instruments Incorporated
eusci_b_i2c.asm                                                      PAGE   33

    1629                                                      ; [] |246| 
    1630            ;* --------------------------------------------------------------------------*
    1631                    .dwpsn  file "../driverlib/MSP430FR2xx_4xx/eusci_b_i2c.c",line 247,column 9,is_stmt,isa 0
    1632 000064 434C          MOV.B     #0,r12                ; [] |247| 
    1633 000066 3C2B          JMP       $C$L11                ; [] |247| 
    1634                                                      ; [] |247| 
    1635            ;* --------------------------------------------------------------------------*
    1636 000068       $C$L7:    
    1637                    .dwpsn  file "../driverlib/MSP430FR2xx_4xx/eusci_b_i2c.c",line 251,column 5,is_stmt,isa 0
    1638 000068 415E          MOV.B     12(SP),r14            ; [] |251| 
         00006a 000C 
    1639 00006c 4E8F          MOV.W     r14,14(r15)           ; [] |251| 
         00006e 000E 
    1640                    .dwpsn  file "../driverlib/MSP430FR2xx_4xx/eusci_b_i2c.c",line 254,column 5,is_stmt,isa 0
    1641            ;* --------------------------------------------------------------------------*
    1642            ;*   BEGIN LOOP $C$L8
    1643            ;*
    1644            ;*   Loop source line                : 254
    1645            ;*   Loop closing brace source line  : 254
    1646            ;*   Known Minimum Trip Count        : 1
    1647            ;*   Known Maximum Trip Count        : 4294967295
    1648            ;*   Known Max Trip Count Factor     : 1
    1649            ;* --------------------------------------------------------------------------*
    1650 000070       $C$L8:    
    1651                    .dwpsn  file "../driverlib/MSP430FR2xx_4xx/eusci_b_i2c.c",line 254,column 12,is_stmt,isa 0
    1652 000070 411F          MOV.W     8(SP),r15             ; [] |254| 
         000072 0008 
    1653 000074 B3AF          BIT.W     #2,44(r15)            ; [] |254| 
         000076 002C 
    1654 000078 2008          JNE       $C$L9                 ; [] |254| 
    1655                                                      ; [] |254| 
    1656            ;* --------------------------------------------------------------------------*
    1657 00007a 8391          SUB.W     #1,4(SP)              ; [] |254| 
         00007c 0004 
    1658 00007e 7381          SUBC.W    #0,6(SP)              ; [] |254| 
         000080 0006 
    1659 000082 23F6          JNE       $C$L8                 ; [] |254| 
    1660                                                      ; [] |254| 
    1661            ;* --------------------------------------------------------------------------*
    1662 000084 9381          TST.W     4(SP)                 ; [] |254| 
         000086 0004 
    1663 000088 23F3          JNE       $C$L8                 ; [] |254| 
    1664                                                      ; [] |254| 
    1665            ;* --------------------------------------------------------------------------*
    1666 00008a       $C$L9:    
    1667                    .dwpsn  file "../driverlib/MSP430FR2xx_4xx/eusci_b_i2c.c",line 257,column 5,is_stmt,isa 0
    1668 00008a 9381          TST.W     6(SP)                 ; [] |257| 
         00008c 0006 
    1669 00008e 2005          JNE       $C$L10                ; [] |257| 
    1670                                                      ; [] |257| 
    1671            ;* --------------------------------------------------------------------------*
    1672 000090 9381          TST.W     4(SP)                 ; [] |257| 
         000092 0004 
    1673 000094 2002          JNE       $C$L10                ; [] |257| 
    1674                                                      ; [] |257| 
MSP430 Assembler PC v21.6.1 Wed Nov 30 16:35:38 2022

Copyright (c) 2003-2018 Texas Instruments Incorporated
eusci_b_i2c.asm                                                      PAGE   34

    1675            ;* --------------------------------------------------------------------------*
    1676                    .dwpsn  file "../driverlib/MSP430FR2xx_4xx/eusci_b_i2c.c",line 258,column 9,is_stmt,isa 0
    1677 000096 434C          MOV.B     #0,r12                ; [] |258| 
    1678 000098 3C12          JMP       $C$L11                ; [] |258| 
    1679                                                      ; [] |258| 
    1680            ;* --------------------------------------------------------------------------*
    1681 00009a       $C$L10:    
    1682                    .dwpsn  file "../driverlib/MSP430FR2xx_4xx/eusci_b_i2c.c",line 262,column 5,is_stmt,isa 0
    1683 00009a 411F          MOV.W     8(SP),r15             ; [] |262| 
         00009c 0008 
    1684 00009e D2AF          OR.W      #4,0(r15)             ; [] |262| 
         0000a0 0000 
    1685                    .dwpsn  file "../driverlib/MSP430FR2xx_4xx/eusci_b_i2c.c",line 265,column 5,is_stmt,isa 0
    1686 0000a2 403F          MOV.W     #44,r15               ; [] |265| 
         0000a4 002C 
    1687 0000a6 511F          ADD.W     8(SP),r15             ; [] |265| 
         0000a8 0008 
    1688 0000aa C3AF          BIC.W     #2,0(r15)             ; [] |265| 
         0000ac 0000 
    1689                    .dwpsn  file "../driverlib/MSP430FR2xx_4xx/eusci_b_i2c.c",line 268,column 5,is_stmt,isa 0
    1690 0000ae 403F          MOV.W     #42,r15               ; [] |268| 
         0000b0 002A 
    1691 0000b2 511F          ADD.W     8(SP),r15             ; [] |268| 
         0000b4 0008 
    1692 0000b6 D19F          OR.W      10(SP),0(r15)         ; [] |268| 
         0000b8 000A 
         0000ba 0000 
    1693                    .dwpsn  file "../driverlib/MSP430FR2xx_4xx/eusci_b_i2c.c",line 270,column 5,is_stmt,isa 0
    1694 0000bc 435C          MOV.B     #1,r12                ; [] |270| 
    1695            ;* --------------------------------------------------------------------------*
    1696 0000be       $C$L11:    
    1697                    .dwpsn  file "../driverlib/MSP430FR2xx_4xx/eusci_b_i2c.c",line 271,column 1,is_stmt,isa 0
    1698 0000be 5031          ADD.W     #14,SP                ; [] 
         0000c0 000E 
    1699                    .dwcfi  cfa_offset, 4
    1700            $C$DW$105       .dwtag  DW_TAG_TI_branch
    1701                    .dwattr $C$DW$105, DW_AT_low_pc(0x00)
    1702                    .dwattr $C$DW$105, DW_AT_TI_return
    1703            
    1704 0000c2 0110          RETA      ; [] 
    1705                    ; [] 
    1706                    .dwattr $C$DW$96, DW_AT_TI_end_file("../driverlib/MSP430FR2xx_4xx/eusci_b_i2c.c")
    1707                    .dwattr $C$DW$96, DW_AT_TI_end_line(0x10f)
    1708                    .dwattr $C$DW$96, DW_AT_TI_end_column(0x01)
    1709                    .dwendentry
    1710                    .dwendtag $C$DW$96
    1711            
    1712 000000               .sect   ".text:EUSCI_B_I2C_masterSendMultiByteStart"
    1713                    .clink
    1714                    .global EUSCI_B_I2C_masterSendMultiByteStart
    1715            
    1716            $C$DW$106       .dwtag  DW_TAG_subprogram
    1717                    .dwattr $C$DW$106, DW_AT_name("EUSCI_B_I2C_masterSendMultiByteStart")
    1718                    .dwattr $C$DW$106, DW_AT_low_pc(EUSCI_B_I2C_masterSendMultiByteStart)
    1719                    .dwattr $C$DW$106, DW_AT_high_pc(0x00)
MSP430 Assembler PC v21.6.1 Wed Nov 30 16:35:38 2022

Copyright (c) 2003-2018 Texas Instruments Incorporated
eusci_b_i2c.asm                                                      PAGE   35

    1720                    .dwattr $C$DW$106, DW_AT_TI_symbol_name("EUSCI_B_I2C_masterSendMultiByteStart")
    1721                    .dwattr $C$DW$106, DW_AT_external
    1722                    .dwattr $C$DW$106, DW_AT_TI_begin_file("../driverlib/MSP430FR2xx_4xx/eusci_b_i2c.c")
    1723                    .dwattr $C$DW$106, DW_AT_TI_begin_line(0x111)
    1724                    .dwattr $C$DW$106, DW_AT_TI_begin_column(0x06)
    1725                    .dwattr $C$DW$106, DW_AT_decl_file("../driverlib/MSP430FR2xx_4xx/eusci_b_i2c.c")
    1726                    .dwattr $C$DW$106, DW_AT_decl_line(0x111)
    1727                    .dwattr $C$DW$106, DW_AT_decl_column(0x06)
    1728                    .dwattr $C$DW$106, DW_AT_TI_max_frame_size(0x0a)
    1729                    .dwpsn  file "../driverlib/MSP430FR2xx_4xx/eusci_b_i2c.c",line 276,column 1,is_stmt,address EU
    1730            
    1731                    .dwfde $C$DW$CIE, EUSCI_B_I2C_masterSendMultiByteStart
    1732            $C$DW$107       .dwtag  DW_TAG_formal_parameter
    1733                    .dwattr $C$DW$107, DW_AT_name("baseAddress")
    1734                    .dwattr $C$DW$107, DW_AT_TI_symbol_name("baseAddress")
    1735                    .dwattr $C$DW$107, DW_AT_type(*$C$DW$T$34)
    1736                    .dwattr $C$DW$107, DW_AT_location[DW_OP_reg12]
    1737            
    1738            $C$DW$108       .dwtag  DW_TAG_formal_parameter
    1739                    .dwattr $C$DW$108, DW_AT_name("txData")
    1740                    .dwattr $C$DW$108, DW_AT_TI_symbol_name("txData")
    1741                    .dwattr $C$DW$108, DW_AT_type(*$C$DW$T$23)
    1742                    .dwattr $C$DW$108, DW_AT_location[DW_OP_reg13]
    1743            
    1744            
    1745            ;*****************************************************************************
    1746            ;* FUNCTION NAME: EUSCI_B_I2C_masterSendMultiByteStart                       *
    1747            ;*                                                                           *
    1748            ;*   Regs Modified     : SP,SR,r14,r15                                       *
    1749            ;*   Regs Used         : SP,SR,r12,r13,r14,r15                               *
    1750            ;*   Local Frame Size  : 0 Args + 6 Auto + 0 Save = 6 byte                   *
    1751            ;*****************************************************************************
    1752 000000       EUSCI_B_I2C_masterSendMultiByteStart:
    1753            ;* --------------------------------------------------------------------------*
    1754                    .dwcfi  cfa_offset, 4
    1755                    .dwcfi  save_reg_to_mem, 16, -4
    1756 000000 8031          SUB.W     #6,SP                 ; [] 
         000002 0006 
    1757                    .dwcfi  cfa_offset, 10
    1758            $C$DW$109       .dwtag  DW_TAG_variable
    1759                    .dwattr $C$DW$109, DW_AT_name("baseAddress")
    1760                    .dwattr $C$DW$109, DW_AT_TI_symbol_name("baseAddress")
    1761                    .dwattr $C$DW$109, DW_AT_type(*$C$DW$T$34)
    1762                    .dwattr $C$DW$109, DW_AT_location[DW_OP_breg1 0]
    1763            
    1764            $C$DW$110       .dwtag  DW_TAG_variable
    1765                    .dwattr $C$DW$110, DW_AT_name("txieStatus")
    1766                    .dwattr $C$DW$110, DW_AT_TI_symbol_name("txieStatus")
    1767                    .dwattr $C$DW$110, DW_AT_type(*$C$DW$T$34)
    1768                    .dwattr $C$DW$110, DW_AT_location[DW_OP_breg1 2]
    1769            
    1770            $C$DW$111       .dwtag  DW_TAG_variable
    1771                    .dwattr $C$DW$111, DW_AT_name("txData")
    1772                    .dwattr $C$DW$111, DW_AT_TI_symbol_name("txData")
    1773                    .dwattr $C$DW$111, DW_AT_type(*$C$DW$T$23)
MSP430 Assembler PC v21.6.1 Wed Nov 30 16:35:38 2022

Copyright (c) 2003-2018 Texas Instruments Incorporated
eusci_b_i2c.asm                                                      PAGE   36

    1774                    .dwattr $C$DW$111, DW_AT_location[DW_OP_breg1 4]
    1775            
    1776 000004 4DC1          MOV.B     r13,4(SP)             ; [] |276| 
         000006 0004 
    1777 000008 4C81          MOV.W     r12,0(SP)             ; [] |276| 
         00000a 0000 
    1778                    .dwpsn  file "../driverlib/MSP430FR2xx_4xx/eusci_b_i2c.c",line 278,column 25,is_stmt,isa 0
    1779 00000c 432F          MOV.W     #2,r15                ; [] |278| 
    1780 00000e FC1F          AND.W     42(r12),r15           ; [] |278| 
         000010 002A 
    1781 000012 4F81          MOV.W     r15,2(SP)             ; [] |278| 
         000014 0002 
    1782                    .dwpsn  file "../driverlib/MSP430FR2xx_4xx/eusci_b_i2c.c",line 281,column 5,is_stmt,isa 0
    1783 000016 403F          MOV.W     #42,r15               ; [] |281| 
         000018 002A 
    1784 00001a 512F          ADD.W     0(SP),r15             ; [] |281| 
    1785 00001c C3AF          BIC.W     #2,0(r15)             ; [] |281| 
         00001e 0000 
    1786                    .dwpsn  file "../driverlib/MSP430FR2xx_4xx/eusci_b_i2c.c",line 284,column 5,is_stmt,isa 0
    1787 000020 412F          MOV.W     0(SP),r15             ; [] |284| 
    1788 000022 D0BF          OR.W      #18,0(r15)            ; [] |284| 
         000024 0012 
         000026 0000 
    1789                    .dwpsn  file "../driverlib/MSP430FR2xx_4xx/eusci_b_i2c.c",line 287,column 5,is_stmt,isa 0
    1790            ;* --------------------------------------------------------------------------*
    1791            ;*   BEGIN LOOP $C$L12
    1792            ;*
    1793            ;*   Loop source line                : 287
    1794            ;*   Loop closing brace source line  : 287
    1795            ;*   Known Minimum Trip Count        : 1
    1796            ;*   Known Maximum Trip Count        : 4294967295
    1797            ;*   Known Max Trip Count Factor     : 1
    1798            ;* --------------------------------------------------------------------------*
    1799 000028       $C$L12:    
    1800                    .dwpsn  file "../driverlib/MSP430FR2xx_4xx/eusci_b_i2c.c",line 287,column 12,is_stmt,isa 0
    1801 000028 412F          MOV.W     0(SP),r15             ; [] |287| 
    1802 00002a B3AF          BIT.W     #2,44(r15)            ; [] |287| 
         00002c 002C 
    1803 00002e 27FC          JEQ       $C$L12                ; [] |287| 
    1804                                                      ; [] |287| 
    1805            ;* --------------------------------------------------------------------------*
    1806                    .dwpsn  file "../driverlib/MSP430FR2xx_4xx/eusci_b_i2c.c",line 290,column 5,is_stmt,isa 0
    1807 000030 415E          MOV.B     4(SP),r14             ; [] |290| 
         000032 0004 
    1808 000034 4E8F          MOV.W     r14,14(r15)           ; [] |290| 
         000036 000E 
    1809                    .dwpsn  file "../driverlib/MSP430FR2xx_4xx/eusci_b_i2c.c",line 293,column 5,is_stmt,isa 0
    1810 000038 403F          MOV.W     #42,r15               ; [] |293| 
         00003a 002A 
    1811 00003c 512F          ADD.W     0(SP),r15             ; [] |293| 
    1812 00003e D19F          OR.W      2(SP),0(r15)          ; [] |293| 
         000040 0002 
         000042 0000 
    1813                    .dwpsn  file "../driverlib/MSP430FR2xx_4xx/eusci_b_i2c.c",line 294,column 1,is_stmt,isa 0
    1814 000044 5031          ADD.W     #6,SP                 ; [] 
MSP430 Assembler PC v21.6.1 Wed Nov 30 16:35:38 2022

Copyright (c) 2003-2018 Texas Instruments Incorporated
eusci_b_i2c.asm                                                      PAGE   37

         000046 0006 
    1815                    .dwcfi  cfa_offset, 4
    1816            $C$DW$112       .dwtag  DW_TAG_TI_branch
    1817                    .dwattr $C$DW$112, DW_AT_low_pc(0x00)
    1818                    .dwattr $C$DW$112, DW_AT_TI_return
    1819            
    1820 000048 0110          RETA      ; [] 
    1821                    ; [] 
    1822                    .dwattr $C$DW$106, DW_AT_TI_end_file("../driverlib/MSP430FR2xx_4xx/eusci_b_i2c.c")
    1823                    .dwattr $C$DW$106, DW_AT_TI_end_line(0x126)
    1824                    .dwattr $C$DW$106, DW_AT_TI_end_column(0x01)
    1825                    .dwendentry
    1826                    .dwendtag $C$DW$106
    1827            
    1828 000000               .sect   ".text:EUSCI_B_I2C_masterSendMultiByteStartWithTimeout"
    1829                    .clink
    1830                    .global EUSCI_B_I2C_masterSendMultiByteStartWithTimeout
    1831            
    1832            $C$DW$113       .dwtag  DW_TAG_subprogram
    1833                    .dwattr $C$DW$113, DW_AT_name("EUSCI_B_I2C_masterSendMultiByteStartWithTimeout")
    1834                    .dwattr $C$DW$113, DW_AT_low_pc(EUSCI_B_I2C_masterSendMultiByteStartWithTimeout)
    1835                    .dwattr $C$DW$113, DW_AT_high_pc(0x00)
    1836                    .dwattr $C$DW$113, DW_AT_TI_symbol_name("EUSCI_B_I2C_masterSendMultiByteStartWithTimeout")
    1837                    .dwattr $C$DW$113, DW_AT_external
    1838                    .dwattr $C$DW$113, DW_AT_type(*$C$DW$T$157)
    1839                    .dwattr $C$DW$113, DW_AT_TI_begin_file("../driverlib/MSP430FR2xx_4xx/eusci_b_i2c.c")
    1840                    .dwattr $C$DW$113, DW_AT_TI_begin_line(0x128)
    1841                    .dwattr $C$DW$113, DW_AT_TI_begin_column(0x06)
    1842                    .dwattr $C$DW$113, DW_AT_decl_file("../driverlib/MSP430FR2xx_4xx/eusci_b_i2c.c")
    1843                    .dwattr $C$DW$113, DW_AT_decl_line(0x128)
    1844                    .dwattr $C$DW$113, DW_AT_decl_column(0x06)
    1845                    .dwattr $C$DW$113, DW_AT_TI_max_frame_size(0x0e)
    1846                    .dwpsn  file "../driverlib/MSP430FR2xx_4xx/eusci_b_i2c.c",line 300,column 1,is_stmt,address EU
    1847            
    1848                    .dwfde $C$DW$CIE, EUSCI_B_I2C_masterSendMultiByteStartWithTimeout
    1849            $C$DW$114       .dwtag  DW_TAG_formal_parameter
    1850                    .dwattr $C$DW$114, DW_AT_name("baseAddress")
    1851                    .dwattr $C$DW$114, DW_AT_TI_symbol_name("baseAddress")
    1852                    .dwattr $C$DW$114, DW_AT_type(*$C$DW$T$34)
    1853                    .dwattr $C$DW$114, DW_AT_location[DW_OP_reg12]
    1854            
    1855            $C$DW$115       .dwtag  DW_TAG_formal_parameter
    1856                    .dwattr $C$DW$115, DW_AT_name("txData")
    1857                    .dwattr $C$DW$115, DW_AT_TI_symbol_name("txData")
    1858                    .dwattr $C$DW$115, DW_AT_type(*$C$DW$T$23)
    1859                    .dwattr $C$DW$115, DW_AT_location[DW_OP_reg13]
    1860            
    1861            $C$DW$116       .dwtag  DW_TAG_formal_parameter
    1862                    .dwattr $C$DW$116, DW_AT_name("timeout")
    1863                    .dwattr $C$DW$116, DW_AT_TI_symbol_name("timeout")
    1864                    .dwattr $C$DW$116, DW_AT_type(*$C$DW$T$25)
    1865                    .dwattr $C$DW$116, DW_AT_location[DW_OP_reg14 DW_OP_piece 2 DW_OP_reg15 DW_OP_piece 2]
    1866            
    1867            
    1868            ;*****************************************************************************
MSP430 Assembler PC v21.6.1 Wed Nov 30 16:35:38 2022

Copyright (c) 2003-2018 Texas Instruments Incorporated
eusci_b_i2c.asm                                                      PAGE   38

    1869            ;* FUNCTION NAME: EUSCI_B_I2C_masterSendMultiByteStartWithTimeout            *
    1870            ;*                                                                           *
    1871            ;*   Regs Modified     : SP,SR,r12,r14,r15                                   *
    1872            ;*   Regs Used         : SP,SR,r12,r13,r14,r15                               *
    1873            ;*   Local Frame Size  : 0 Args + 10 Auto + 0 Save = 10 byte                 *
    1874            ;*****************************************************************************
    1875 000000       EUSCI_B_I2C_masterSendMultiByteStartWithTimeout:
    1876            ;* --------------------------------------------------------------------------*
    1877                    .dwcfi  cfa_offset, 4
    1878                    .dwcfi  save_reg_to_mem, 16, -4
    1879 000000 8031          SUB.W     #10,SP                ; [] 
         000002 000A 
    1880                    .dwcfi  cfa_offset, 14
    1881            $C$DW$117       .dwtag  DW_TAG_variable
    1882                    .dwattr $C$DW$117, DW_AT_name("timeout")
    1883                    .dwattr $C$DW$117, DW_AT_TI_symbol_name("timeout")
    1884                    .dwattr $C$DW$117, DW_AT_type(*$C$DW$T$25)
    1885                    .dwattr $C$DW$117, DW_AT_location[DW_OP_breg1 0]
    1886            
    1887            $C$DW$118       .dwtag  DW_TAG_variable
    1888                    .dwattr $C$DW$118, DW_AT_name("baseAddress")
    1889                    .dwattr $C$DW$118, DW_AT_TI_symbol_name("baseAddress")
    1890                    .dwattr $C$DW$118, DW_AT_type(*$C$DW$T$34)
    1891                    .dwattr $C$DW$118, DW_AT_location[DW_OP_breg1 4]
    1892            
    1893            $C$DW$119       .dwtag  DW_TAG_variable
    1894                    .dwattr $C$DW$119, DW_AT_name("txieStatus")
    1895                    .dwattr $C$DW$119, DW_AT_TI_symbol_name("txieStatus")
    1896                    .dwattr $C$DW$119, DW_AT_type(*$C$DW$T$34)
    1897                    .dwattr $C$DW$119, DW_AT_location[DW_OP_breg1 6]
    1898            
    1899            $C$DW$120       .dwtag  DW_TAG_variable
    1900                    .dwattr $C$DW$120, DW_AT_name("txData")
    1901                    .dwattr $C$DW$120, DW_AT_TI_symbol_name("txData")
    1902                    .dwattr $C$DW$120, DW_AT_type(*$C$DW$T$23)
    1903                    .dwattr $C$DW$120, DW_AT_location[DW_OP_breg1 8]
    1904            
    1905 000004 4E81          MOV.W     r14,0(SP)             ; [] |300| 
         000006 0000 
    1906 000008 4F81          MOV.W     r15,2(SP)             ; [] |300| 
         00000a 0002 
    1907 00000c 4DC1          MOV.B     r13,8(SP)             ; [] |300| 
         00000e 0008 
    1908 000010 4C81          MOV.W     r12,4(SP)             ; [] |300| 
         000012 0004 
    1909                    .dwpsn  file "../driverlib/MSP430FR2xx_4xx/eusci_b_i2c.c",line 302,column 25,is_stmt,isa 0
    1910 000014 432F          MOV.W     #2,r15                ; [] |302| 
    1911 000016 FC1F          AND.W     42(r12),r15           ; [] |302| 
         000018 002A 
    1912 00001a 4F81          MOV.W     r15,6(SP)             ; [] |302| 
         00001c 0006 
    1913                    .dwpsn  file "../driverlib/MSP430FR2xx_4xx/eusci_b_i2c.c",line 305,column 5,is_stmt,isa 0
    1914 00001e 403F          MOV.W     #42,r15               ; [] |305| 
         000020 002A 
    1915 000022 511F          ADD.W     4(SP),r15             ; [] |305| 
MSP430 Assembler PC v21.6.1 Wed Nov 30 16:35:38 2022

Copyright (c) 2003-2018 Texas Instruments Incorporated
eusci_b_i2c.asm                                                      PAGE   39

         000024 0004 
    1916 000026 C3AF          BIC.W     #2,0(r15)             ; [] |305| 
         000028 0000 
    1917                    .dwpsn  file "../driverlib/MSP430FR2xx_4xx/eusci_b_i2c.c",line 308,column 5,is_stmt,isa 0
    1918 00002a 411F          MOV.W     4(SP),r15             ; [] |308| 
         00002c 0004 
    1919 00002e D0BF          OR.W      #18,0(r15)            ; [] |308| 
         000030 0012 
         000032 0000 
    1920                    .dwpsn  file "../driverlib/MSP430FR2xx_4xx/eusci_b_i2c.c",line 311,column 5,is_stmt,isa 0
    1921            ;* --------------------------------------------------------------------------*
    1922            ;*   BEGIN LOOP $C$L13
    1923            ;*
    1924            ;*   Loop source line                : 311
    1925            ;*   Loop closing brace source line  : 311
    1926            ;*   Known Minimum Trip Count        : 1
    1927            ;*   Known Maximum Trip Count        : 4294967295
    1928            ;*   Known Max Trip Count Factor     : 1
    1929            ;* --------------------------------------------------------------------------*
    1930 000034       $C$L13:    
    1931                    .dwpsn  file "../driverlib/MSP430FR2xx_4xx/eusci_b_i2c.c",line 311,column 12,is_stmt,isa 0
    1932 000034 411F          MOV.W     4(SP),r15             ; [] |311| 
         000036 0004 
    1933 000038 B3AF          BIT.W     #2,44(r15)            ; [] |311| 
         00003a 002C 
    1934 00003c 2008          JNE       $C$L14                ; [] |311| 
    1935                                                      ; [] |311| 
    1936            ;* --------------------------------------------------------------------------*
    1937 00003e 8391          SUB.W     #1,0(SP)              ; [] |311| 
         000040 0000 
    1938 000042 7381          SUBC.W    #0,2(SP)              ; [] |311| 
         000044 0002 
    1939 000046 23F6          JNE       $C$L13                ; [] |311| 
    1940                                                      ; [] |311| 
    1941            ;* --------------------------------------------------------------------------*
    1942 000048 9381          TST.W     0(SP)                 ; [] |311| 
         00004a 0000 
    1943 00004c 23F3          JNE       $C$L13                ; [] |311| 
    1944                                                      ; [] |311| 
    1945            ;* --------------------------------------------------------------------------*
    1946 00004e       $C$L14:    
    1947                    .dwpsn  file "../driverlib/MSP430FR2xx_4xx/eusci_b_i2c.c",line 314,column 5,is_stmt,isa 0
    1948 00004e 9381          TST.W     2(SP)                 ; [] |314| 
         000050 0002 
    1949 000052 2005          JNE       $C$L15                ; [] |314| 
    1950                                                      ; [] |314| 
    1951            ;* --------------------------------------------------------------------------*
    1952 000054 9381          TST.W     0(SP)                 ; [] |314| 
         000056 0000 
    1953 000058 2002          JNE       $C$L15                ; [] |314| 
    1954                                                      ; [] |314| 
    1955            ;* --------------------------------------------------------------------------*
    1956                    .dwpsn  file "../driverlib/MSP430FR2xx_4xx/eusci_b_i2c.c",line 315,column 9,is_stmt,isa 0
    1957 00005a 434C          MOV.B     #0,r12                ; [] |315| 
    1958 00005c 3C0C          JMP       $C$L16                ; [] |315| 
MSP430 Assembler PC v21.6.1 Wed Nov 30 16:35:38 2022

Copyright (c) 2003-2018 Texas Instruments Incorporated
eusci_b_i2c.asm                                                      PAGE   40

    1959                                                      ; [] |315| 
    1960            ;* --------------------------------------------------------------------------*
    1961 00005e       $C$L15:    
    1962                    .dwpsn  file "../driverlib/MSP430FR2xx_4xx/eusci_b_i2c.c",line 319,column 5,is_stmt,isa 0
    1963 00005e 415E          MOV.B     8(SP),r14             ; [] |319| 
         000060 0008 
    1964 000062 4E8F          MOV.W     r14,14(r15)           ; [] |319| 
         000064 000E 
    1965                    .dwpsn  file "../driverlib/MSP430FR2xx_4xx/eusci_b_i2c.c",line 322,column 5,is_stmt,isa 0
    1966 000066 403F          MOV.W     #42,r15               ; [] |322| 
         000068 002A 
    1967 00006a 511F          ADD.W     4(SP),r15             ; [] |322| 
         00006c 0004 
    1968 00006e D19F          OR.W      6(SP),0(r15)          ; [] |322| 
         000070 0006 
         000072 0000 
    1969                    .dwpsn  file "../driverlib/MSP430FR2xx_4xx/eusci_b_i2c.c",line 324,column 5,is_stmt,isa 0
    1970 000074 435C          MOV.B     #1,r12                ; [] |324| 
    1971            ;* --------------------------------------------------------------------------*
    1972 000076       $C$L16:    
    1973                    .dwpsn  file "../driverlib/MSP430FR2xx_4xx/eusci_b_i2c.c",line 325,column 1,is_stmt,isa 0
    1974 000076 5031          ADD.W     #10,SP                ; [] 
         000078 000A 
    1975                    .dwcfi  cfa_offset, 4
    1976            $C$DW$121       .dwtag  DW_TAG_TI_branch
    1977                    .dwattr $C$DW$121, DW_AT_low_pc(0x00)
    1978                    .dwattr $C$DW$121, DW_AT_TI_return
    1979            
    1980 00007a 0110          RETA      ; [] 
    1981                    ; [] 
    1982                    .dwattr $C$DW$113, DW_AT_TI_end_file("../driverlib/MSP430FR2xx_4xx/eusci_b_i2c.c")
    1983                    .dwattr $C$DW$113, DW_AT_TI_end_line(0x145)
    1984                    .dwattr $C$DW$113, DW_AT_TI_end_column(0x01)
    1985                    .dwendentry
    1986                    .dwendtag $C$DW$113
    1987            
    1988 000000               .sect   ".text:EUSCI_B_I2C_masterSendMultiByteNext"
    1989                    .clink
    1990                    .global EUSCI_B_I2C_masterSendMultiByteNext
    1991            
    1992            $C$DW$122       .dwtag  DW_TAG_subprogram
    1993                    .dwattr $C$DW$122, DW_AT_name("EUSCI_B_I2C_masterSendMultiByteNext")
    1994                    .dwattr $C$DW$122, DW_AT_low_pc(EUSCI_B_I2C_masterSendMultiByteNext)
    1995                    .dwattr $C$DW$122, DW_AT_high_pc(0x00)
    1996                    .dwattr $C$DW$122, DW_AT_TI_symbol_name("EUSCI_B_I2C_masterSendMultiByteNext")
    1997                    .dwattr $C$DW$122, DW_AT_external
    1998                    .dwattr $C$DW$122, DW_AT_TI_begin_file("../driverlib/MSP430FR2xx_4xx/eusci_b_i2c.c")
    1999                    .dwattr $C$DW$122, DW_AT_TI_begin_line(0x147)
    2000                    .dwattr $C$DW$122, DW_AT_TI_begin_column(0x06)
    2001                    .dwattr $C$DW$122, DW_AT_decl_file("../driverlib/MSP430FR2xx_4xx/eusci_b_i2c.c")
    2002                    .dwattr $C$DW$122, DW_AT_decl_line(0x147)
    2003                    .dwattr $C$DW$122, DW_AT_decl_column(0x06)
    2004                    .dwattr $C$DW$122, DW_AT_TI_max_frame_size(0x08)
    2005                    .dwpsn  file "../driverlib/MSP430FR2xx_4xx/eusci_b_i2c.c",line 330,column 1,is_stmt,address EU
    2006            
MSP430 Assembler PC v21.6.1 Wed Nov 30 16:35:38 2022

Copyright (c) 2003-2018 Texas Instruments Incorporated
eusci_b_i2c.asm                                                      PAGE   41

    2007                    .dwfde $C$DW$CIE, EUSCI_B_I2C_masterSendMultiByteNext
    2008            $C$DW$123       .dwtag  DW_TAG_formal_parameter
    2009                    .dwattr $C$DW$123, DW_AT_name("baseAddress")
    2010                    .dwattr $C$DW$123, DW_AT_TI_symbol_name("baseAddress")
    2011                    .dwattr $C$DW$123, DW_AT_type(*$C$DW$T$34)
    2012                    .dwattr $C$DW$123, DW_AT_location[DW_OP_reg12]
    2013            
    2014            $C$DW$124       .dwtag  DW_TAG_formal_parameter
    2015                    .dwattr $C$DW$124, DW_AT_name("txData")
    2016                    .dwattr $C$DW$124, DW_AT_TI_symbol_name("txData")
    2017                    .dwattr $C$DW$124, DW_AT_type(*$C$DW$T$23)
    2018                    .dwattr $C$DW$124, DW_AT_location[DW_OP_reg13]
    2019            
    2020            
    2021            ;*****************************************************************************
    2022            ;* FUNCTION NAME: EUSCI_B_I2C_masterSendMultiByteNext                        *
    2023            ;*                                                                           *
    2024            ;*   Regs Modified     : SP,SR,r15                                           *
    2025            ;*   Regs Used         : SP,SR,r12,r13,r15                                   *
    2026            ;*   Local Frame Size  : 0 Args + 4 Auto + 0 Save = 4 byte                   *
    2027            ;*****************************************************************************
    2028 000000       EUSCI_B_I2C_masterSendMultiByteNext:
    2029            ;* --------------------------------------------------------------------------*
    2030                    .dwcfi  cfa_offset, 4
    2031                    .dwcfi  save_reg_to_mem, 16, -4
    2032 000000 8221          SUB.W     #4,SP                 ; [] 
    2033                    .dwcfi  cfa_offset, 8
    2034            $C$DW$125       .dwtag  DW_TAG_variable
    2035                    .dwattr $C$DW$125, DW_AT_name("baseAddress")
    2036                    .dwattr $C$DW$125, DW_AT_TI_symbol_name("baseAddress")
    2037                    .dwattr $C$DW$125, DW_AT_type(*$C$DW$T$34)
    2038                    .dwattr $C$DW$125, DW_AT_location[DW_OP_breg1 0]
    2039            
    2040            $C$DW$126       .dwtag  DW_TAG_variable
    2041                    .dwattr $C$DW$126, DW_AT_name("txData")
    2042                    .dwattr $C$DW$126, DW_AT_TI_symbol_name("txData")
    2043                    .dwattr $C$DW$126, DW_AT_type(*$C$DW$T$23)
    2044                    .dwattr $C$DW$126, DW_AT_location[DW_OP_breg1 2]
    2045            
    2046 000002 4DC1          MOV.B     r13,2(SP)             ; [] |330| 
         000004 0002 
    2047 000006 4C81          MOV.W     r12,0(SP)             ; [] |330| 
         000008 0000 
    2048                    .dwpsn  file "../driverlib/MSP430FR2xx_4xx/eusci_b_i2c.c",line 332,column 5,is_stmt,isa 0
    2049 00000a B3AC          BIT.W     #2,42(r12)            ; [] |332| 
         00000c 002A 
    2050 00000e 2003          JNE       $C$L18                ; [] |332| 
    2051                                                      ; [] |332| 
    2052            ;* --------------------------------------------------------------------------*
    2053                    .dwpsn  file "../driverlib/MSP430FR2xx_4xx/eusci_b_i2c.c",line 334,column 9,is_stmt,isa 0
    2054            ;* --------------------------------------------------------------------------*
    2055            ;*   BEGIN LOOP $C$L17
    2056            ;*
    2057            ;*   Loop source line                : 334
    2058            ;*   Loop closing brace source line  : 334
MSP430 Assembler PC v21.6.1 Wed Nov 30 16:35:38 2022

Copyright (c) 2003-2018 Texas Instruments Incorporated
eusci_b_i2c.asm                                                      PAGE   42

    2059            ;*   Known Minimum Trip Count        : 1
    2060            ;*   Known Maximum Trip Count        : 4294967295
    2061            ;*   Known Max Trip Count Factor     : 1
    2062            ;* --------------------------------------------------------------------------*
    2063 000010       $C$L17:    
    2064                    .dwpsn  file "../driverlib/MSP430FR2xx_4xx/eusci_b_i2c.c",line 334,column 16,is_stmt,isa 0
    2065 000010 B3AC          BIT.W     #2,44(r12)            ; [] |334| 
         000012 002C 
    2066 000014 27FD          JEQ       $C$L17                ; [] |334| 
    2067                                                      ; [] |334| 
    2068            ;* --------------------------------------------------------------------------*
    2069 000016       $C$L18:    
    2070                    .dwpsn  file "../driverlib/MSP430FR2xx_4xx/eusci_b_i2c.c",line 338,column 5,is_stmt,isa 0
    2071 000016 415F          MOV.B     2(SP),r15             ; [] |338| 
         000018 0002 
    2072 00001a 4F8C          MOV.W     r15,14(r12)           ; [] |338| 
         00001c 000E 
    2073                    .dwpsn  file "../driverlib/MSP430FR2xx_4xx/eusci_b_i2c.c",line 339,column 1,is_stmt,isa 0
    2074 00001e 5221          ADD.W     #4,SP                 ; [] 
    2075                    .dwcfi  cfa_offset, 4
    2076            $C$DW$127       .dwtag  DW_TAG_TI_branch
    2077                    .dwattr $C$DW$127, DW_AT_low_pc(0x00)
    2078                    .dwattr $C$DW$127, DW_AT_TI_return
    2079            
    2080 000020 0110          RETA      ; [] 
    2081                    ; [] 
    2082                    .dwattr $C$DW$122, DW_AT_TI_end_file("../driverlib/MSP430FR2xx_4xx/eusci_b_i2c.c")
    2083                    .dwattr $C$DW$122, DW_AT_TI_end_line(0x153)
    2084                    .dwattr $C$DW$122, DW_AT_TI_end_column(0x01)
    2085                    .dwendentry
    2086                    .dwendtag $C$DW$122
    2087            
    2088 000000               .sect   ".text:EUSCI_B_I2C_masterSendMultiByteNextWithTimeout"
    2089                    .clink
    2090                    .global EUSCI_B_I2C_masterSendMultiByteNextWithTimeout
    2091            
    2092            $C$DW$128       .dwtag  DW_TAG_subprogram
    2093                    .dwattr $C$DW$128, DW_AT_name("EUSCI_B_I2C_masterSendMultiByteNextWithTimeout")
    2094                    .dwattr $C$DW$128, DW_AT_low_pc(EUSCI_B_I2C_masterSendMultiByteNextWithTimeout)
    2095                    .dwattr $C$DW$128, DW_AT_high_pc(0x00)
    2096                    .dwattr $C$DW$128, DW_AT_TI_symbol_name("EUSCI_B_I2C_masterSendMultiByteNextWithTimeout")
    2097                    .dwattr $C$DW$128, DW_AT_external
    2098                    .dwattr $C$DW$128, DW_AT_type(*$C$DW$T$157)
    2099                    .dwattr $C$DW$128, DW_AT_TI_begin_file("../driverlib/MSP430FR2xx_4xx/eusci_b_i2c.c")
    2100                    .dwattr $C$DW$128, DW_AT_TI_begin_line(0x155)
    2101                    .dwattr $C$DW$128, DW_AT_TI_begin_column(0x06)
    2102                    .dwattr $C$DW$128, DW_AT_decl_file("../driverlib/MSP430FR2xx_4xx/eusci_b_i2c.c")
    2103                    .dwattr $C$DW$128, DW_AT_decl_line(0x155)
    2104                    .dwattr $C$DW$128, DW_AT_decl_column(0x06)
    2105                    .dwattr $C$DW$128, DW_AT_TI_max_frame_size(0x0c)
    2106                    .dwpsn  file "../driverlib/MSP430FR2xx_4xx/eusci_b_i2c.c",line 345,column 1,is_stmt,address EU
    2107            
    2108                    .dwfde $C$DW$CIE, EUSCI_B_I2C_masterSendMultiByteNextWithTimeout
    2109            $C$DW$129       .dwtag  DW_TAG_formal_parameter
    2110                    .dwattr $C$DW$129, DW_AT_name("baseAddress")
MSP430 Assembler PC v21.6.1 Wed Nov 30 16:35:38 2022

Copyright (c) 2003-2018 Texas Instruments Incorporated
eusci_b_i2c.asm                                                      PAGE   43

    2111                    .dwattr $C$DW$129, DW_AT_TI_symbol_name("baseAddress")
    2112                    .dwattr $C$DW$129, DW_AT_type(*$C$DW$T$34)
    2113                    .dwattr $C$DW$129, DW_AT_location[DW_OP_reg12]
    2114            
    2115            $C$DW$130       .dwtag  DW_TAG_formal_parameter
    2116                    .dwattr $C$DW$130, DW_AT_name("txData")
    2117                    .dwattr $C$DW$130, DW_AT_TI_symbol_name("txData")
    2118                    .dwattr $C$DW$130, DW_AT_type(*$C$DW$T$23)
    2119                    .dwattr $C$DW$130, DW_AT_location[DW_OP_reg13]
    2120            
    2121            $C$DW$131       .dwtag  DW_TAG_formal_parameter
    2122                    .dwattr $C$DW$131, DW_AT_name("timeout")
    2123                    .dwattr $C$DW$131, DW_AT_TI_symbol_name("timeout")
    2124                    .dwattr $C$DW$131, DW_AT_type(*$C$DW$T$25)
    2125                    .dwattr $C$DW$131, DW_AT_location[DW_OP_reg14 DW_OP_piece 2 DW_OP_reg15 DW_OP_piece 2]
    2126            
    2127            
    2128            ;*****************************************************************************
    2129            ;* FUNCTION NAME: EUSCI_B_I2C_masterSendMultiByteNextWithTimeout             *
    2130            ;*                                                                           *
    2131            ;*   Regs Modified     : SP,SR,r12,r15                                       *
    2132            ;*   Regs Used         : SP,SR,r12,r13,r14,r15                               *
    2133            ;*   Local Frame Size  : 0 Args + 8 Auto + 0 Save = 8 byte                   *
    2134            ;*****************************************************************************
    2135 000000       EUSCI_B_I2C_masterSendMultiByteNextWithTimeout:
    2136            ;* --------------------------------------------------------------------------*
    2137                    .dwcfi  cfa_offset, 4
    2138                    .dwcfi  save_reg_to_mem, 16, -4
    2139 000000 8231          SUB.W     #8,SP                 ; [] 
    2140                    .dwcfi  cfa_offset, 12
    2141            $C$DW$132       .dwtag  DW_TAG_variable
    2142                    .dwattr $C$DW$132, DW_AT_name("timeout")
    2143                    .dwattr $C$DW$132, DW_AT_TI_symbol_name("timeout")
    2144                    .dwattr $C$DW$132, DW_AT_type(*$C$DW$T$25)
    2145                    .dwattr $C$DW$132, DW_AT_location[DW_OP_breg1 0]
    2146            
    2147            $C$DW$133       .dwtag  DW_TAG_variable
    2148                    .dwattr $C$DW$133, DW_AT_name("baseAddress")
    2149                    .dwattr $C$DW$133, DW_AT_TI_symbol_name("baseAddress")
    2150                    .dwattr $C$DW$133, DW_AT_type(*$C$DW$T$34)
    2151                    .dwattr $C$DW$133, DW_AT_location[DW_OP_breg1 4]
    2152            
    2153            $C$DW$134       .dwtag  DW_TAG_variable
    2154                    .dwattr $C$DW$134, DW_AT_name("txData")
    2155                    .dwattr $C$DW$134, DW_AT_TI_symbol_name("txData")
    2156                    .dwattr $C$DW$134, DW_AT_type(*$C$DW$T$23)
    2157                    .dwattr $C$DW$134, DW_AT_location[DW_OP_breg1 6]
    2158            
    2159 000002 4E81          MOV.W     r14,0(SP)             ; [] |345| 
         000004 0000 
    2160 000006 4F81          MOV.W     r15,2(SP)             ; [] |345| 
         000008 0002 
    2161 00000a 4DC1          MOV.B     r13,6(SP)             ; [] |345| 
         00000c 0006 
    2162 00000e 4C81          MOV.W     r12,4(SP)             ; [] |345| 
MSP430 Assembler PC v21.6.1 Wed Nov 30 16:35:38 2022

Copyright (c) 2003-2018 Texas Instruments Incorporated
eusci_b_i2c.asm                                                      PAGE   44

         000010 0004 
    2163                    .dwpsn  file "../driverlib/MSP430FR2xx_4xx/eusci_b_i2c.c",line 347,column 5,is_stmt,isa 0
    2164 000012 B3AC          BIT.W     #2,42(r12)            ; [] |347| 
         000014 002A 
    2165 000016 2013          JNE       $C$L21                ; [] |347| 
    2166                                                      ; [] |347| 
    2167            ;* --------------------------------------------------------------------------*
    2168                    .dwpsn  file "../driverlib/MSP430FR2xx_4xx/eusci_b_i2c.c",line 349,column 9,is_stmt,isa 0
    2169            ;* --------------------------------------------------------------------------*
    2170            ;*   BEGIN LOOP $C$L19
    2171            ;*
    2172            ;*   Loop source line                : 349
    2173            ;*   Loop closing brace source line  : 349
    2174            ;*   Known Minimum Trip Count        : 1
    2175            ;*   Known Maximum Trip Count        : 4294967295
    2176            ;*   Known Max Trip Count Factor     : 1
    2177            ;* --------------------------------------------------------------------------*
    2178 000018       $C$L19:    
    2179                    .dwpsn  file "../driverlib/MSP430FR2xx_4xx/eusci_b_i2c.c",line 349,column 16,is_stmt,isa 0
    2180 000018 B3AC          BIT.W     #2,44(r12)            ; [] |349| 
         00001a 002C 
    2181 00001c 2008          JNE       $C$L20                ; [] |349| 
    2182                                                      ; [] |349| 
    2183            ;* --------------------------------------------------------------------------*
    2184 00001e 8391          SUB.W     #1,0(SP)              ; [] |349| 
         000020 0000 
    2185 000022 7381          SUBC.W    #0,2(SP)              ; [] |349| 
         000024 0002 
    2186 000026 23F8          JNE       $C$L19                ; [] |349| 
    2187                                                      ; [] |349| 
    2188            ;* --------------------------------------------------------------------------*
    2189 000028 9381          TST.W     0(SP)                 ; [] |349| 
         00002a 0000 
    2190 00002c 23F5          JNE       $C$L19                ; [] |349| 
    2191                                                      ; [] |349| 
    2192            ;* --------------------------------------------------------------------------*
    2193 00002e       $C$L20:    
    2194                    .dwpsn  file "../driverlib/MSP430FR2xx_4xx/eusci_b_i2c.c",line 352,column 9,is_stmt,isa 0
    2195 00002e 9381          TST.W     2(SP)                 ; [] |352| 
         000030 0002 
    2196 000032 2005          JNE       $C$L21                ; [] |352| 
    2197                                                      ; [] |352| 
    2198            ;* --------------------------------------------------------------------------*
    2199 000034 9381          TST.W     0(SP)                 ; [] |352| 
         000036 0000 
    2200 000038 2002          JNE       $C$L21                ; [] |352| 
    2201                                                      ; [] |352| 
    2202            ;* --------------------------------------------------------------------------*
    2203                    .dwpsn  file "../driverlib/MSP430FR2xx_4xx/eusci_b_i2c.c",line 353,column 13,is_stmt,isa 0
    2204 00003a 434C          MOV.B     #0,r12                ; [] |353| 
    2205 00003c 3C05          JMP       $C$L22                ; [] |353| 
    2206                                                      ; [] |353| 
    2207            ;* --------------------------------------------------------------------------*
    2208 00003e       $C$L21:    
    2209                    .dwpsn  file "../driverlib/MSP430FR2xx_4xx/eusci_b_i2c.c",line 358,column 5,is_stmt,isa 0
MSP430 Assembler PC v21.6.1 Wed Nov 30 16:35:38 2022

Copyright (c) 2003-2018 Texas Instruments Incorporated
eusci_b_i2c.asm                                                      PAGE   45

    2210 00003e 415F          MOV.B     6(SP),r15             ; [] |358| 
         000040 0006 
    2211 000042 4F8C          MOV.W     r15,14(r12)           ; [] |358| 
         000044 000E 
    2212                    .dwpsn  file "../driverlib/MSP430FR2xx_4xx/eusci_b_i2c.c",line 360,column 5,is_stmt,isa 0
    2213 000046 435C          MOV.B     #1,r12                ; [] |360| 
    2214            ;* --------------------------------------------------------------------------*
    2215 000048       $C$L22:    
    2216                    .dwpsn  file "../driverlib/MSP430FR2xx_4xx/eusci_b_i2c.c",line 361,column 1,is_stmt,isa 0
    2217 000048 5231          ADD.W     #8,SP                 ; [] 
    2218                    .dwcfi  cfa_offset, 4
    2219            $C$DW$135       .dwtag  DW_TAG_TI_branch
    2220                    .dwattr $C$DW$135, DW_AT_low_pc(0x00)
    2221                    .dwattr $C$DW$135, DW_AT_TI_return
    2222            
    2223 00004a 0110          RETA      ; [] 
    2224                    ; [] 
    2225                    .dwattr $C$DW$128, DW_AT_TI_end_file("../driverlib/MSP430FR2xx_4xx/eusci_b_i2c.c")
    2226                    .dwattr $C$DW$128, DW_AT_TI_end_line(0x169)
    2227                    .dwattr $C$DW$128, DW_AT_TI_end_column(0x01)
    2228                    .dwendentry
    2229                    .dwendtag $C$DW$128
    2230            
    2231 000000               .sect   ".text:EUSCI_B_I2C_masterSendMultiByteFinish"
    2232                    .clink
    2233                    .global EUSCI_B_I2C_masterSendMultiByteFinish
    2234            
    2235            $C$DW$136       .dwtag  DW_TAG_subprogram
    2236                    .dwattr $C$DW$136, DW_AT_name("EUSCI_B_I2C_masterSendMultiByteFinish")
    2237                    .dwattr $C$DW$136, DW_AT_low_pc(EUSCI_B_I2C_masterSendMultiByteFinish)
    2238                    .dwattr $C$DW$136, DW_AT_high_pc(0x00)
    2239                    .dwattr $C$DW$136, DW_AT_TI_symbol_name("EUSCI_B_I2C_masterSendMultiByteFinish")
    2240                    .dwattr $C$DW$136, DW_AT_external
    2241                    .dwattr $C$DW$136, DW_AT_TI_begin_file("../driverlib/MSP430FR2xx_4xx/eusci_b_i2c.c")
    2242                    .dwattr $C$DW$136, DW_AT_TI_begin_line(0x16b)
    2243                    .dwattr $C$DW$136, DW_AT_TI_begin_column(0x06)
    2244                    .dwattr $C$DW$136, DW_AT_decl_file("../driverlib/MSP430FR2xx_4xx/eusci_b_i2c.c")
    2245                    .dwattr $C$DW$136, DW_AT_decl_line(0x16b)
    2246                    .dwattr $C$DW$136, DW_AT_decl_column(0x06)
    2247                    .dwattr $C$DW$136, DW_AT_TI_max_frame_size(0x08)
    2248                    .dwpsn  file "../driverlib/MSP430FR2xx_4xx/eusci_b_i2c.c",line 366,column 1,is_stmt,address EU
    2249            
    2250                    .dwfde $C$DW$CIE, EUSCI_B_I2C_masterSendMultiByteFinish
    2251            $C$DW$137       .dwtag  DW_TAG_formal_parameter
    2252                    .dwattr $C$DW$137, DW_AT_name("baseAddress")
    2253                    .dwattr $C$DW$137, DW_AT_TI_symbol_name("baseAddress")
    2254                    .dwattr $C$DW$137, DW_AT_type(*$C$DW$T$34)
    2255                    .dwattr $C$DW$137, DW_AT_location[DW_OP_reg12]
    2256            
    2257            $C$DW$138       .dwtag  DW_TAG_formal_parameter
    2258                    .dwattr $C$DW$138, DW_AT_name("txData")
    2259                    .dwattr $C$DW$138, DW_AT_TI_symbol_name("txData")
    2260                    .dwattr $C$DW$138, DW_AT_type(*$C$DW$T$23)
    2261                    .dwattr $C$DW$138, DW_AT_location[DW_OP_reg13]
    2262            
MSP430 Assembler PC v21.6.1 Wed Nov 30 16:35:38 2022

Copyright (c) 2003-2018 Texas Instruments Incorporated
eusci_b_i2c.asm                                                      PAGE   46

    2263            
    2264            ;*****************************************************************************
    2265            ;* FUNCTION NAME: EUSCI_B_I2C_masterSendMultiByteFinish                      *
    2266            ;*                                                                           *
    2267            ;*   Regs Modified     : SP,SR,r15                                           *
    2268            ;*   Regs Used         : SP,SR,r12,r13,r15                                   *
    2269            ;*   Local Frame Size  : 0 Args + 4 Auto + 0 Save = 4 byte                   *
    2270            ;*****************************************************************************
    2271 000000       EUSCI_B_I2C_masterSendMultiByteFinish:
    2272            ;* --------------------------------------------------------------------------*
    2273                    .dwcfi  cfa_offset, 4
    2274                    .dwcfi  save_reg_to_mem, 16, -4
    2275 000000 8221          SUB.W     #4,SP                 ; [] 
    2276                    .dwcfi  cfa_offset, 8
    2277            $C$DW$139       .dwtag  DW_TAG_variable
    2278                    .dwattr $C$DW$139, DW_AT_name("baseAddress")
    2279                    .dwattr $C$DW$139, DW_AT_TI_symbol_name("baseAddress")
    2280                    .dwattr $C$DW$139, DW_AT_type(*$C$DW$T$34)
    2281                    .dwattr $C$DW$139, DW_AT_location[DW_OP_breg1 0]
    2282            
    2283            $C$DW$140       .dwtag  DW_TAG_variable
    2284                    .dwattr $C$DW$140, DW_AT_name("txData")
    2285                    .dwattr $C$DW$140, DW_AT_TI_symbol_name("txData")
    2286                    .dwattr $C$DW$140, DW_AT_type(*$C$DW$T$23)
    2287                    .dwattr $C$DW$140, DW_AT_location[DW_OP_breg1 2]
    2288            
    2289 000002 4DC1          MOV.B     r13,2(SP)             ; [] |366| 
         000004 0002 
    2290 000006 4C81          MOV.W     r12,0(SP)             ; [] |366| 
         000008 0000 
    2291                    .dwpsn  file "../driverlib/MSP430FR2xx_4xx/eusci_b_i2c.c",line 368,column 5,is_stmt,isa 0
    2292 00000a B3AC          BIT.W     #2,42(r12)            ; [] |368| 
         00000c 002A 
    2293 00000e 2003          JNE       $C$L24                ; [] |368| 
    2294                                                      ; [] |368| 
    2295            ;* --------------------------------------------------------------------------*
    2296                    .dwpsn  file "../driverlib/MSP430FR2xx_4xx/eusci_b_i2c.c",line 370,column 9,is_stmt,isa 0
    2297            ;* --------------------------------------------------------------------------*
    2298            ;*   BEGIN LOOP $C$L23
    2299            ;*
    2300            ;*   Loop source line                : 370
    2301            ;*   Loop closing brace source line  : 370
    2302            ;*   Known Minimum Trip Count        : 1
    2303            ;*   Known Maximum Trip Count        : 4294967295
    2304            ;*   Known Max Trip Count Factor     : 1
    2305            ;* --------------------------------------------------------------------------*
    2306 000010       $C$L23:    
    2307                    .dwpsn  file "../driverlib/MSP430FR2xx_4xx/eusci_b_i2c.c",line 370,column 16,is_stmt,isa 0
    2308 000010 B3AC          BIT.W     #2,44(r12)            ; [] |370| 
         000012 002C 
    2309 000014 27FD          JEQ       $C$L23                ; [] |370| 
    2310                                                      ; [] |370| 
    2311            ;* --------------------------------------------------------------------------*
    2312 000016       $C$L24:    
    2313                    .dwpsn  file "../driverlib/MSP430FR2xx_4xx/eusci_b_i2c.c",line 374,column 5,is_stmt,isa 0
MSP430 Assembler PC v21.6.1 Wed Nov 30 16:35:38 2022

Copyright (c) 2003-2018 Texas Instruments Incorporated
eusci_b_i2c.asm                                                      PAGE   47

    2314 000016 415F          MOV.B     2(SP),r15             ; [] |374| 
         000018 0002 
    2315 00001a 4F8C          MOV.W     r15,14(r12)           ; [] |374| 
         00001c 000E 
    2316                    .dwpsn  file "../driverlib/MSP430FR2xx_4xx/eusci_b_i2c.c",line 377,column 5,is_stmt,isa 0
    2317            ;* --------------------------------------------------------------------------*
    2318            ;*   BEGIN LOOP $C$L25
    2319            ;*
    2320            ;*   Loop source line                : 377
    2321            ;*   Loop closing brace source line  : 377
    2322            ;*   Known Minimum Trip Count        : 1
    2323            ;*   Known Maximum Trip Count        : 4294967295
    2324            ;*   Known Max Trip Count Factor     : 1
    2325            ;* --------------------------------------------------------------------------*
    2326 00001e       $C$L25:    
    2327                    .dwpsn  file "../driverlib/MSP430FR2xx_4xx/eusci_b_i2c.c",line 377,column 12,is_stmt,isa 0
    2328 00001e 412F          MOV.W     0(SP),r15             ; [] |377| 
    2329 000020 B3AF          BIT.W     #2,44(r15)            ; [] |377| 
         000022 002C 
    2330 000024 27FC          JEQ       $C$L25                ; [] |377| 
    2331                                                      ; [] |377| 
    2332            ;* --------------------------------------------------------------------------*
    2333                    .dwpsn  file "../driverlib/MSP430FR2xx_4xx/eusci_b_i2c.c",line 380,column 5,is_stmt,isa 0
    2334 000026 412F          MOV.W     0(SP),r15             ; [] |380| 
    2335 000028 D2AF          OR.W      #4,0(r15)             ; [] |380| 
         00002a 0000 
    2336                    .dwpsn  file "../driverlib/MSP430FR2xx_4xx/eusci_b_i2c.c",line 381,column 1,is_stmt,isa 0
    2337 00002c 5221          ADD.W     #4,SP                 ; [] 
    2338                    .dwcfi  cfa_offset, 4
    2339            $C$DW$141       .dwtag  DW_TAG_TI_branch
    2340                    .dwattr $C$DW$141, DW_AT_low_pc(0x00)
    2341                    .dwattr $C$DW$141, DW_AT_TI_return
    2342            
    2343 00002e 0110          RETA      ; [] 
    2344                    ; [] 
    2345                    .dwattr $C$DW$136, DW_AT_TI_end_file("../driverlib/MSP430FR2xx_4xx/eusci_b_i2c.c")
    2346                    .dwattr $C$DW$136, DW_AT_TI_end_line(0x17d)
    2347                    .dwattr $C$DW$136, DW_AT_TI_end_column(0x01)
    2348                    .dwendentry
    2349                    .dwendtag $C$DW$136
    2350            
    2351 000000               .sect   ".text:EUSCI_B_I2C_masterSendMultiByteFinishWithTimeout"
    2352                    .clink
    2353                    .global EUSCI_B_I2C_masterSendMultiByteFinishWithTimeout
    2354            
    2355            $C$DW$142       .dwtag  DW_TAG_subprogram
    2356                    .dwattr $C$DW$142, DW_AT_name("EUSCI_B_I2C_masterSendMultiByteFinishWithTimeout")
    2357                    .dwattr $C$DW$142, DW_AT_low_pc(EUSCI_B_I2C_masterSendMultiByteFinishWithTimeout)
    2358                    .dwattr $C$DW$142, DW_AT_high_pc(0x00)
    2359                    .dwattr $C$DW$142, DW_AT_TI_symbol_name("EUSCI_B_I2C_masterSendMultiByteFinishWithTimeout")
    2360                    .dwattr $C$DW$142, DW_AT_external
    2361                    .dwattr $C$DW$142, DW_AT_type(*$C$DW$T$157)
    2362                    .dwattr $C$DW$142, DW_AT_TI_begin_file("../driverlib/MSP430FR2xx_4xx/eusci_b_i2c.c")
    2363                    .dwattr $C$DW$142, DW_AT_TI_begin_line(0x17f)
    2364                    .dwattr $C$DW$142, DW_AT_TI_begin_column(0x06)
MSP430 Assembler PC v21.6.1 Wed Nov 30 16:35:38 2022

Copyright (c) 2003-2018 Texas Instruments Incorporated
eusci_b_i2c.asm                                                      PAGE   48

    2365                    .dwattr $C$DW$142, DW_AT_decl_file("../driverlib/MSP430FR2xx_4xx/eusci_b_i2c.c")
    2366                    .dwattr $C$DW$142, DW_AT_decl_line(0x17f)
    2367                    .dwattr $C$DW$142, DW_AT_decl_column(0x06)
    2368                    .dwattr $C$DW$142, DW_AT_TI_max_frame_size(0x10)
    2369                    .dwpsn  file "../driverlib/MSP430FR2xx_4xx/eusci_b_i2c.c",line 387,column 1,is_stmt,address EU
    2370            
    2371                    .dwfde $C$DW$CIE, EUSCI_B_I2C_masterSendMultiByteFinishWithTimeout
    2372            $C$DW$143       .dwtag  DW_TAG_formal_parameter
    2373                    .dwattr $C$DW$143, DW_AT_name("baseAddress")
    2374                    .dwattr $C$DW$143, DW_AT_TI_symbol_name("baseAddress")
    2375                    .dwattr $C$DW$143, DW_AT_type(*$C$DW$T$34)
    2376                    .dwattr $C$DW$143, DW_AT_location[DW_OP_reg12]
    2377            
    2378            $C$DW$144       .dwtag  DW_TAG_formal_parameter
    2379                    .dwattr $C$DW$144, DW_AT_name("txData")
    2380                    .dwattr $C$DW$144, DW_AT_TI_symbol_name("txData")
    2381                    .dwattr $C$DW$144, DW_AT_type(*$C$DW$T$23)
    2382                    .dwattr $C$DW$144, DW_AT_location[DW_OP_reg13]
    2383            
    2384            $C$DW$145       .dwtag  DW_TAG_formal_parameter
    2385                    .dwattr $C$DW$145, DW_AT_name("timeout")
    2386                    .dwattr $C$DW$145, DW_AT_TI_symbol_name("timeout")
    2387                    .dwattr $C$DW$145, DW_AT_type(*$C$DW$T$25)
    2388                    .dwattr $C$DW$145, DW_AT_location[DW_OP_reg14 DW_OP_piece 2 DW_OP_reg15 DW_OP_piece 2]
    2389            
    2390            
    2391            ;*****************************************************************************
    2392            ;* FUNCTION NAME: EUSCI_B_I2C_masterSendMultiByteFinishWithTimeout           *
    2393            ;*                                                                           *
    2394            ;*   Regs Modified     : SP,SR,r12,r15                                       *
    2395            ;*   Regs Used         : SP,SR,r12,r13,r14,r15                               *
    2396            ;*   Local Frame Size  : 0 Args + 12 Auto + 0 Save = 12 byte                 *
    2397            ;*****************************************************************************
    2398 000000       EUSCI_B_I2C_masterSendMultiByteFinishWithTimeout:
    2399            ;* --------------------------------------------------------------------------*
    2400                    .dwcfi  cfa_offset, 4
    2401                    .dwcfi  save_reg_to_mem, 16, -4
    2402 000000 8031          SUB.W     #12,SP                ; [] 
         000002 000C 
    2403                    .dwcfi  cfa_offset, 16
    2404            $C$DW$146       .dwtag  DW_TAG_variable
    2405                    .dwattr $C$DW$146, DW_AT_name("timeout")
    2406                    .dwattr $C$DW$146, DW_AT_TI_symbol_name("timeout")
    2407                    .dwattr $C$DW$146, DW_AT_type(*$C$DW$T$25)
    2408                    .dwattr $C$DW$146, DW_AT_location[DW_OP_breg1 0]
    2409            
    2410            $C$DW$147       .dwtag  DW_TAG_variable
    2411                    .dwattr $C$DW$147, DW_AT_name("timeout2")
    2412                    .dwattr $C$DW$147, DW_AT_TI_symbol_name("timeout2")
    2413                    .dwattr $C$DW$147, DW_AT_type(*$C$DW$T$25)
    2414                    .dwattr $C$DW$147, DW_AT_location[DW_OP_breg1 4]
    2415            
    2416            $C$DW$148       .dwtag  DW_TAG_variable
    2417                    .dwattr $C$DW$148, DW_AT_name("baseAddress")
    2418                    .dwattr $C$DW$148, DW_AT_TI_symbol_name("baseAddress")
MSP430 Assembler PC v21.6.1 Wed Nov 30 16:35:38 2022

Copyright (c) 2003-2018 Texas Instruments Incorporated
eusci_b_i2c.asm                                                      PAGE   49

    2419                    .dwattr $C$DW$148, DW_AT_type(*$C$DW$T$34)
    2420                    .dwattr $C$DW$148, DW_AT_location[DW_OP_breg1 8]
    2421            
    2422            $C$DW$149       .dwtag  DW_TAG_variable
    2423                    .dwattr $C$DW$149, DW_AT_name("txData")
    2424                    .dwattr $C$DW$149, DW_AT_TI_symbol_name("txData")
    2425                    .dwattr $C$DW$149, DW_AT_type(*$C$DW$T$23)
    2426                    .dwattr $C$DW$149, DW_AT_location[DW_OP_breg1 10]
    2427            
    2428 000004 4E81          MOV.W     r14,0(SP)             ; [] |387| 
         000006 0000 
    2429 000008 4F81          MOV.W     r15,2(SP)             ; [] |387| 
         00000a 0002 
    2430 00000c 4DC1          MOV.B     r13,10(SP)            ; [] |387| 
         00000e 000A 
    2431 000010 4C81          MOV.W     r12,8(SP)             ; [] |387| 
         000012 0008 
    2432                    .dwpsn  file "../driverlib/MSP430FR2xx_4xx/eusci_b_i2c.c",line 388,column 23,is_stmt,isa 0
    2433 000014 41A1          MOV.W     0(SP),4(SP)           ; [] |388| 
         000016 0004 
    2434 000018 4191          MOV.W     2(SP),6(SP)           ; [] |388| 
         00001a 0002 
         00001c 0006 
    2435                    .dwpsn  file "../driverlib/MSP430FR2xx_4xx/eusci_b_i2c.c",line 391,column 5,is_stmt,isa 0
    2436 00001e B3AC          BIT.W     #2,42(r12)            ; [] |391| 
         000020 002A 
    2437 000022 2013          JNE       $C$L28                ; [] |391| 
    2438                                                      ; [] |391| 
    2439            ;* --------------------------------------------------------------------------*
    2440                    .dwpsn  file "../driverlib/MSP430FR2xx_4xx/eusci_b_i2c.c",line 393,column 9,is_stmt,isa 0
    2441            ;* --------------------------------------------------------------------------*
    2442            ;*   BEGIN LOOP $C$L26
    2443            ;*
    2444            ;*   Loop source line                : 393
    2445            ;*   Loop closing brace source line  : 393
    2446            ;*   Known Minimum Trip Count        : 1
    2447            ;*   Known Maximum Trip Count        : 4294967295
    2448            ;*   Known Max Trip Count Factor     : 1
    2449            ;* --------------------------------------------------------------------------*
    2450 000024       $C$L26:    
    2451                    .dwpsn  file "../driverlib/MSP430FR2xx_4xx/eusci_b_i2c.c",line 393,column 16,is_stmt,isa 0
    2452 000024 B3AC          BIT.W     #2,44(r12)            ; [] |393| 
         000026 002C 
    2453 000028 2008          JNE       $C$L27                ; [] |393| 
    2454                                                      ; [] |393| 
    2455            ;* --------------------------------------------------------------------------*
    2456 00002a 8391          SUB.W     #1,0(SP)              ; [] |393| 
         00002c 0000 
    2457 00002e 7381          SUBC.W    #0,2(SP)              ; [] |393| 
         000030 0002 
    2458 000032 23F8          JNE       $C$L26                ; [] |393| 
    2459                                                      ; [] |393| 
    2460            ;* --------------------------------------------------------------------------*
    2461 000034 9381          TST.W     0(SP)                 ; [] |393| 
         000036 0000 
MSP430 Assembler PC v21.6.1 Wed Nov 30 16:35:38 2022

Copyright (c) 2003-2018 Texas Instruments Incorporated
eusci_b_i2c.asm                                                      PAGE   50

    2462 000038 23F5          JNE       $C$L26                ; [] |393| 
    2463                                                      ; [] |393| 
    2464            ;* --------------------------------------------------------------------------*
    2465 00003a       $C$L27:    
    2466                    .dwpsn  file "../driverlib/MSP430FR2xx_4xx/eusci_b_i2c.c",line 396,column 9,is_stmt,isa 0
    2467 00003a 9381          TST.W     2(SP)                 ; [] |396| 
         00003c 0002 
    2468 00003e 2005          JNE       $C$L28                ; [] |396| 
    2469                                                      ; [] |396| 
    2470            ;* --------------------------------------------------------------------------*
    2471 000040 9381          TST.W     0(SP)                 ; [] |396| 
         000042 0000 
    2472 000044 2002          JNE       $C$L28                ; [] |396| 
    2473                                                      ; [] |396| 
    2474            ;* --------------------------------------------------------------------------*
    2475                    .dwpsn  file "../driverlib/MSP430FR2xx_4xx/eusci_b_i2c.c",line 397,column 13,is_stmt,isa 0
    2476 000046 434C          MOV.B     #0,r12                ; [] |397| 
    2477 000048 3C1E          JMP       $C$L32                ; [] |397| 
    2478                                                      ; [] |397| 
    2479            ;* --------------------------------------------------------------------------*
    2480 00004a       $C$L28:    
    2481                    .dwpsn  file "../driverlib/MSP430FR2xx_4xx/eusci_b_i2c.c",line 402,column 5,is_stmt,isa 0
    2482 00004a 415F          MOV.B     10(SP),r15            ; [] |402| 
         00004c 000A 
    2483 00004e 4F8C          MOV.W     r15,14(r12)           ; [] |402| 
         000050 000E 
    2484                    .dwpsn  file "../driverlib/MSP430FR2xx_4xx/eusci_b_i2c.c",line 405,column 5,is_stmt,isa 0
    2485            ;* --------------------------------------------------------------------------*
    2486            ;*   BEGIN LOOP $C$L29
    2487            ;*
    2488            ;*   Loop source line                : 405
    2489            ;*   Loop closing brace source line  : 405
    2490            ;*   Known Minimum Trip Count        : 1
    2491            ;*   Known Maximum Trip Count        : 4294967295
    2492            ;*   Known Max Trip Count Factor     : 1
    2493            ;* --------------------------------------------------------------------------*
    2494 000052       $C$L29:    
    2495                    .dwpsn  file "../driverlib/MSP430FR2xx_4xx/eusci_b_i2c.c",line 405,column 12,is_stmt,isa 0
    2496 000052 411F          MOV.W     8(SP),r15             ; [] |405| 
         000054 0008 
    2497 000056 B3AF          BIT.W     #2,44(r15)            ; [] |405| 
         000058 002C 
    2498 00005a 2008          JNE       $C$L30                ; [] |405| 
    2499                                                      ; [] |405| 
    2500            ;* --------------------------------------------------------------------------*
    2501 00005c 8391          SUB.W     #1,4(SP)              ; [] |405| 
         00005e 0004 
    2502 000060 7381          SUBC.W    #0,6(SP)              ; [] |405| 
         000062 0006 
    2503 000064 23F6          JNE       $C$L29                ; [] |405| 
    2504                                                      ; [] |405| 
    2505            ;* --------------------------------------------------------------------------*
    2506 000066 9381          TST.W     4(SP)                 ; [] |405| 
         000068 0004 
    2507 00006a 23F3          JNE       $C$L29                ; [] |405| 
MSP430 Assembler PC v21.6.1 Wed Nov 30 16:35:38 2022

Copyright (c) 2003-2018 Texas Instruments Incorporated
eusci_b_i2c.asm                                                      PAGE   51

    2508                                                      ; [] |405| 
    2509            ;* --------------------------------------------------------------------------*
    2510 00006c       $C$L30:    
    2511                    .dwpsn  file "../driverlib/MSP430FR2xx_4xx/eusci_b_i2c.c",line 408,column 5,is_stmt,isa 0
    2512 00006c 9381          TST.W     6(SP)                 ; [] |408| 
         00006e 0006 
    2513 000070 2005          JNE       $C$L31                ; [] |408| 
    2514                                                      ; [] |408| 
    2515            ;* --------------------------------------------------------------------------*
    2516 000072 9381          TST.W     4(SP)                 ; [] |408| 
         000074 0004 
    2517 000076 2002          JNE       $C$L31                ; [] |408| 
    2518                                                      ; [] |408| 
    2519            ;* --------------------------------------------------------------------------*
    2520                    .dwpsn  file "../driverlib/MSP430FR2xx_4xx/eusci_b_i2c.c",line 409,column 9,is_stmt,isa 0
    2521 000078 434C          MOV.B     #0,r12                ; [] |409| 
    2522 00007a 3C05          JMP       $C$L32                ; [] |409| 
    2523                                                      ; [] |409| 
    2524            ;* --------------------------------------------------------------------------*
    2525 00007c       $C$L31:    
    2526                    .dwpsn  file "../driverlib/MSP430FR2xx_4xx/eusci_b_i2c.c",line 413,column 5,is_stmt,isa 0
    2527 00007c 411F          MOV.W     8(SP),r15             ; [] |413| 
         00007e 0008 
    2528 000080 D2AF          OR.W      #4,0(r15)             ; [] |413| 
         000082 0000 
    2529                    .dwpsn  file "../driverlib/MSP430FR2xx_4xx/eusci_b_i2c.c",line 415,column 5,is_stmt,isa 0
    2530 000084 435C          MOV.B     #1,r12                ; [] |415| 
    2531            ;* --------------------------------------------------------------------------*
    2532 000086       $C$L32:    
    2533                    .dwpsn  file "../driverlib/MSP430FR2xx_4xx/eusci_b_i2c.c",line 416,column 1,is_stmt,isa 0
    2534 000086 5031          ADD.W     #12,SP                ; [] 
         000088 000C 
    2535                    .dwcfi  cfa_offset, 4
    2536            $C$DW$150       .dwtag  DW_TAG_TI_branch
    2537                    .dwattr $C$DW$150, DW_AT_low_pc(0x00)
    2538                    .dwattr $C$DW$150, DW_AT_TI_return
    2539            
    2540 00008a 0110          RETA      ; [] 
    2541                    ; [] 
    2542                    .dwattr $C$DW$142, DW_AT_TI_end_file("../driverlib/MSP430FR2xx_4xx/eusci_b_i2c.c")
    2543                    .dwattr $C$DW$142, DW_AT_TI_end_line(0x1a0)
    2544                    .dwattr $C$DW$142, DW_AT_TI_end_column(0x01)
    2545                    .dwendentry
    2546                    .dwendtag $C$DW$142
    2547            
    2548 000000               .sect   ".text:EUSCI_B_I2C_masterSendStart"
    2549                    .clink
    2550                    .global EUSCI_B_I2C_masterSendStart
    2551            
    2552            $C$DW$151       .dwtag  DW_TAG_subprogram
    2553                    .dwattr $C$DW$151, DW_AT_name("EUSCI_B_I2C_masterSendStart")
    2554                    .dwattr $C$DW$151, DW_AT_low_pc(EUSCI_B_I2C_masterSendStart)
    2555                    .dwattr $C$DW$151, DW_AT_high_pc(0x00)
    2556                    .dwattr $C$DW$151, DW_AT_TI_symbol_name("EUSCI_B_I2C_masterSendStart")
    2557                    .dwattr $C$DW$151, DW_AT_external
MSP430 Assembler PC v21.6.1 Wed Nov 30 16:35:38 2022

Copyright (c) 2003-2018 Texas Instruments Incorporated
eusci_b_i2c.asm                                                      PAGE   52

    2558                    .dwattr $C$DW$151, DW_AT_TI_begin_file("../driverlib/MSP430FR2xx_4xx/eusci_b_i2c.c")
    2559                    .dwattr $C$DW$151, DW_AT_TI_begin_line(0x1a2)
    2560                    .dwattr $C$DW$151, DW_AT_TI_begin_column(0x06)
    2561                    .dwattr $C$DW$151, DW_AT_decl_file("../driverlib/MSP430FR2xx_4xx/eusci_b_i2c.c")
    2562                    .dwattr $C$DW$151, DW_AT_decl_line(0x1a2)
    2563                    .dwattr $C$DW$151, DW_AT_decl_column(0x06)
    2564                    .dwattr $C$DW$151, DW_AT_TI_max_frame_size(0x06)
    2565                    .dwpsn  file "../driverlib/MSP430FR2xx_4xx/eusci_b_i2c.c",line 419,column 1,is_stmt,address EU
    2566            
    2567                    .dwfde $C$DW$CIE, EUSCI_B_I2C_masterSendStart
    2568            $C$DW$152       .dwtag  DW_TAG_formal_parameter
    2569                    .dwattr $C$DW$152, DW_AT_name("baseAddress")
    2570                    .dwattr $C$DW$152, DW_AT_TI_symbol_name("baseAddress")
    2571                    .dwattr $C$DW$152, DW_AT_type(*$C$DW$T$34)
    2572                    .dwattr $C$DW$152, DW_AT_location[DW_OP_reg12]
    2573            
    2574            
    2575            ;*****************************************************************************
    2576            ;* FUNCTION NAME: EUSCI_B_I2C_masterSendStart                                *
    2577            ;*                                                                           *
    2578            ;*   Regs Modified     : SP,SR,r15                                           *
    2579            ;*   Regs Used         : SP,SR,r12,r15                                       *
    2580            ;*   Local Frame Size  : 0 Args + 2 Auto + 0 Save = 2 byte                   *
    2581            ;*****************************************************************************
    2582 000000       EUSCI_B_I2C_masterSendStart:
    2583            ;* --------------------------------------------------------------------------*
    2584                    .dwcfi  cfa_offset, 4
    2585                    .dwcfi  save_reg_to_mem, 16, -4
    2586 000000 8321          SUB.W     #2,SP                 ; [] 
    2587                    .dwcfi  cfa_offset, 6
    2588            $C$DW$153       .dwtag  DW_TAG_variable
    2589                    .dwattr $C$DW$153, DW_AT_name("baseAddress")
    2590                    .dwattr $C$DW$153, DW_AT_TI_symbol_name("baseAddress")
    2591                    .dwattr $C$DW$153, DW_AT_type(*$C$DW$T$34)
    2592                    .dwattr $C$DW$153, DW_AT_location[DW_OP_breg1 0]
    2593            
    2594 000002 4C81          MOV.W     r12,0(SP)             ; [] |419| 
         000004 0000 
    2595                    .dwpsn  file "../driverlib/MSP430FR2xx_4xx/eusci_b_i2c.c",line 420,column 5,is_stmt,isa 0
    2596 000006 412F          MOV.W     0(SP),r15             ; [] |420| 
    2597 000008 D3AF          OR.W      #2,0(r15)             ; [] |420| 
         00000a 0000 
    2598                    .dwpsn  file "../driverlib/MSP430FR2xx_4xx/eusci_b_i2c.c",line 421,column 1,is_stmt,isa 0
    2599 00000c 5321          ADD.W     #2,SP                 ; [] 
    2600                    .dwcfi  cfa_offset, 4
    2601            $C$DW$154       .dwtag  DW_TAG_TI_branch
    2602                    .dwattr $C$DW$154, DW_AT_low_pc(0x00)
    2603                    .dwattr $C$DW$154, DW_AT_TI_return
    2604            
    2605 00000e 0110          RETA      ; [] 
    2606                    ; [] 
    2607                    .dwattr $C$DW$151, DW_AT_TI_end_file("../driverlib/MSP430FR2xx_4xx/eusci_b_i2c.c")
    2608                    .dwattr $C$DW$151, DW_AT_TI_end_line(0x1a5)
    2609                    .dwattr $C$DW$151, DW_AT_TI_end_column(0x01)
    2610                    .dwendentry
MSP430 Assembler PC v21.6.1 Wed Nov 30 16:35:38 2022

Copyright (c) 2003-2018 Texas Instruments Incorporated
eusci_b_i2c.asm                                                      PAGE   53

    2611                    .dwendtag $C$DW$151
    2612            
    2613 000000               .sect   ".text:EUSCI_B_I2C_masterSendMultiByteStop"
    2614                    .clink
    2615                    .global EUSCI_B_I2C_masterSendMultiByteStop
    2616            
    2617            $C$DW$155       .dwtag  DW_TAG_subprogram
    2618                    .dwattr $C$DW$155, DW_AT_name("EUSCI_B_I2C_masterSendMultiByteStop")
    2619                    .dwattr $C$DW$155, DW_AT_low_pc(EUSCI_B_I2C_masterSendMultiByteStop)
    2620                    .dwattr $C$DW$155, DW_AT_high_pc(0x00)
    2621                    .dwattr $C$DW$155, DW_AT_TI_symbol_name("EUSCI_B_I2C_masterSendMultiByteStop")
    2622                    .dwattr $C$DW$155, DW_AT_external
    2623                    .dwattr $C$DW$155, DW_AT_TI_begin_file("../driverlib/MSP430FR2xx_4xx/eusci_b_i2c.c")
    2624                    .dwattr $C$DW$155, DW_AT_TI_begin_line(0x1a7)
    2625                    .dwattr $C$DW$155, DW_AT_TI_begin_column(0x06)
    2626                    .dwattr $C$DW$155, DW_AT_decl_file("../driverlib/MSP430FR2xx_4xx/eusci_b_i2c.c")
    2627                    .dwattr $C$DW$155, DW_AT_decl_line(0x1a7)
    2628                    .dwattr $C$DW$155, DW_AT_decl_column(0x06)
    2629                    .dwattr $C$DW$155, DW_AT_TI_max_frame_size(0x06)
    2630                    .dwpsn  file "../driverlib/MSP430FR2xx_4xx/eusci_b_i2c.c",line 424,column 1,is_stmt,address EU
    2631            
    2632                    .dwfde $C$DW$CIE, EUSCI_B_I2C_masterSendMultiByteStop
    2633            $C$DW$156       .dwtag  DW_TAG_formal_parameter
    2634                    .dwattr $C$DW$156, DW_AT_name("baseAddress")
    2635                    .dwattr $C$DW$156, DW_AT_TI_symbol_name("baseAddress")
    2636                    .dwattr $C$DW$156, DW_AT_type(*$C$DW$T$34)
    2637                    .dwattr $C$DW$156, DW_AT_location[DW_OP_reg12]
    2638            
    2639            
    2640            ;*****************************************************************************
    2641            ;* FUNCTION NAME: EUSCI_B_I2C_masterSendMultiByteStop                        *
    2642            ;*                                                                           *
    2643            ;*   Regs Modified     : SP,SR,r15                                           *
    2644            ;*   Regs Used         : SP,SR,r12,r15                                       *
    2645            ;*   Local Frame Size  : 0 Args + 2 Auto + 0 Save = 2 byte                   *
    2646            ;*****************************************************************************
    2647 000000       EUSCI_B_I2C_masterSendMultiByteStop:
    2648            ;* --------------------------------------------------------------------------*
    2649                    .dwcfi  cfa_offset, 4
    2650                    .dwcfi  save_reg_to_mem, 16, -4
    2651 000000 8321          SUB.W     #2,SP                 ; [] 
    2652                    .dwcfi  cfa_offset, 6
    2653            $C$DW$157       .dwtag  DW_TAG_variable
    2654                    .dwattr $C$DW$157, DW_AT_name("baseAddress")
    2655                    .dwattr $C$DW$157, DW_AT_TI_symbol_name("baseAddress")
    2656                    .dwattr $C$DW$157, DW_AT_type(*$C$DW$T$34)
    2657                    .dwattr $C$DW$157, DW_AT_location[DW_OP_breg1 0]
    2658            
    2659 000002 4C81          MOV.W     r12,0(SP)             ; [] |424| 
         000004 0000 
    2660                    .dwpsn  file "../driverlib/MSP430FR2xx_4xx/eusci_b_i2c.c",line 426,column 5,is_stmt,isa 0
    2661 000006 B3AC          BIT.W     #2,42(r12)            ; [] |426| 
         000008 002A 
    2662 00000a 2003          JNE       $C$L34                ; [] |426| 
    2663                                                      ; [] |426| 
MSP430 Assembler PC v21.6.1 Wed Nov 30 16:35:38 2022

Copyright (c) 2003-2018 Texas Instruments Incorporated
eusci_b_i2c.asm                                                      PAGE   54

    2664            ;* --------------------------------------------------------------------------*
    2665                    .dwpsn  file "../driverlib/MSP430FR2xx_4xx/eusci_b_i2c.c",line 428,column 9,is_stmt,isa 0
    2666            ;* --------------------------------------------------------------------------*
    2667            ;*   BEGIN LOOP $C$L33
    2668            ;*
    2669            ;*   Loop source line                : 428
    2670            ;*   Loop closing brace source line  : 428
    2671            ;*   Known Minimum Trip Count        : 1
    2672            ;*   Known Maximum Trip Count        : 4294967295
    2673            ;*   Known Max Trip Count Factor     : 1
    2674            ;* --------------------------------------------------------------------------*
    2675 00000c       $C$L33:    
    2676                    .dwpsn  file "../driverlib/MSP430FR2xx_4xx/eusci_b_i2c.c",line 428,column 16,is_stmt,isa 0
    2677 00000c B3AC          BIT.W     #2,44(r12)            ; [] |428| 
         00000e 002C 
    2678 000010 27FD          JEQ       $C$L33                ; [] |428| 
    2679                                                      ; [] |428| 
    2680            ;* --------------------------------------------------------------------------*
    2681 000012       $C$L34:    
    2682                    .dwpsn  file "../driverlib/MSP430FR2xx_4xx/eusci_b_i2c.c",line 432,column 5,is_stmt,isa 0
    2683 000012 412F          MOV.W     0(SP),r15             ; [] |432| 
    2684 000014 D2AF          OR.W      #4,0(r15)             ; [] |432| 
         000016 0000 
    2685                    .dwpsn  file "../driverlib/MSP430FR2xx_4xx/eusci_b_i2c.c",line 433,column 1,is_stmt,isa 0
    2686 000018 5321          ADD.W     #2,SP                 ; [] 
    2687                    .dwcfi  cfa_offset, 4
    2688            $C$DW$158       .dwtag  DW_TAG_TI_branch
    2689                    .dwattr $C$DW$158, DW_AT_low_pc(0x00)
    2690                    .dwattr $C$DW$158, DW_AT_TI_return
    2691            
    2692 00001a 0110          RETA      ; [] 
    2693                    ; [] 
    2694                    .dwattr $C$DW$155, DW_AT_TI_end_file("../driverlib/MSP430FR2xx_4xx/eusci_b_i2c.c")
    2695                    .dwattr $C$DW$155, DW_AT_TI_end_line(0x1b1)
    2696                    .dwattr $C$DW$155, DW_AT_TI_end_column(0x01)
    2697                    .dwendentry
    2698                    .dwendtag $C$DW$155
    2699            
    2700 000000               .sect   ".text:EUSCI_B_I2C_masterSendMultiByteStopWithTimeout"
    2701                    .clink
    2702                    .global EUSCI_B_I2C_masterSendMultiByteStopWithTimeout
    2703            
    2704            $C$DW$159       .dwtag  DW_TAG_subprogram
    2705                    .dwattr $C$DW$159, DW_AT_name("EUSCI_B_I2C_masterSendMultiByteStopWithTimeout")
    2706                    .dwattr $C$DW$159, DW_AT_low_pc(EUSCI_B_I2C_masterSendMultiByteStopWithTimeout)
    2707                    .dwattr $C$DW$159, DW_AT_high_pc(0x00)
    2708                    .dwattr $C$DW$159, DW_AT_TI_symbol_name("EUSCI_B_I2C_masterSendMultiByteStopWithTimeout")
    2709                    .dwattr $C$DW$159, DW_AT_external
    2710                    .dwattr $C$DW$159, DW_AT_type(*$C$DW$T$157)
    2711                    .dwattr $C$DW$159, DW_AT_TI_begin_file("../driverlib/MSP430FR2xx_4xx/eusci_b_i2c.c")
    2712                    .dwattr $C$DW$159, DW_AT_TI_begin_line(0x1b3)
    2713                    .dwattr $C$DW$159, DW_AT_TI_begin_column(0x06)
    2714                    .dwattr $C$DW$159, DW_AT_decl_file("../driverlib/MSP430FR2xx_4xx/eusci_b_i2c.c")
    2715                    .dwattr $C$DW$159, DW_AT_decl_line(0x1b3)
    2716                    .dwattr $C$DW$159, DW_AT_decl_column(0x06)
MSP430 Assembler PC v21.6.1 Wed Nov 30 16:35:38 2022

Copyright (c) 2003-2018 Texas Instruments Incorporated
eusci_b_i2c.asm                                                      PAGE   55

    2717                    .dwattr $C$DW$159, DW_AT_TI_max_frame_size(0x0a)
    2718                    .dwpsn  file "../driverlib/MSP430FR2xx_4xx/eusci_b_i2c.c",line 437,column 1,is_stmt,address EU
    2719            
    2720                    .dwfde $C$DW$CIE, EUSCI_B_I2C_masterSendMultiByteStopWithTimeout
    2721            $C$DW$160       .dwtag  DW_TAG_formal_parameter
    2722                    .dwattr $C$DW$160, DW_AT_name("baseAddress")
    2723                    .dwattr $C$DW$160, DW_AT_TI_symbol_name("baseAddress")
    2724                    .dwattr $C$DW$160, DW_AT_type(*$C$DW$T$34)
    2725                    .dwattr $C$DW$160, DW_AT_location[DW_OP_reg12]
    2726            
    2727            $C$DW$161       .dwtag  DW_TAG_formal_parameter
    2728                    .dwattr $C$DW$161, DW_AT_name("timeout")
    2729                    .dwattr $C$DW$161, DW_AT_TI_symbol_name("timeout")
    2730                    .dwattr $C$DW$161, DW_AT_type(*$C$DW$T$25)
    2731                    .dwattr $C$DW$161, DW_AT_location[DW_OP_reg13 DW_OP_piece 2 DW_OP_reg14 DW_OP_piece 2]
    2732            
    2733            
    2734            ;*****************************************************************************
    2735            ;* FUNCTION NAME: EUSCI_B_I2C_masterSendMultiByteStopWithTimeout             *
    2736            ;*                                                                           *
    2737            ;*   Regs Modified     : SP,SR,r12,r15                                       *
    2738            ;*   Regs Used         : SP,SR,r12,r13,r14,r15                               *
    2739            ;*   Local Frame Size  : 0 Args + 6 Auto + 0 Save = 6 byte                   *
    2740            ;*****************************************************************************
    2741 000000       EUSCI_B_I2C_masterSendMultiByteStopWithTimeout:
    2742            ;* --------------------------------------------------------------------------*
    2743                    .dwcfi  cfa_offset, 4
    2744                    .dwcfi  save_reg_to_mem, 16, -4
    2745 000000 8031          SUB.W     #6,SP                 ; [] 
         000002 0006 
    2746                    .dwcfi  cfa_offset, 10
    2747            $C$DW$162       .dwtag  DW_TAG_variable
    2748                    .dwattr $C$DW$162, DW_AT_name("timeout")
    2749                    .dwattr $C$DW$162, DW_AT_TI_symbol_name("timeout")
    2750                    .dwattr $C$DW$162, DW_AT_type(*$C$DW$T$25)
    2751                    .dwattr $C$DW$162, DW_AT_location[DW_OP_breg1 0]
    2752            
    2753            $C$DW$163       .dwtag  DW_TAG_variable
    2754                    .dwattr $C$DW$163, DW_AT_name("baseAddress")
    2755                    .dwattr $C$DW$163, DW_AT_TI_symbol_name("baseAddress")
    2756                    .dwattr $C$DW$163, DW_AT_type(*$C$DW$T$34)
    2757                    .dwattr $C$DW$163, DW_AT_location[DW_OP_breg1 4]
    2758            
    2759 000004 4D81          MOV.W     r13,0(SP)             ; [] |437| 
         000006 0000 
    2760 000008 4E81          MOV.W     r14,2(SP)             ; [] |437| 
         00000a 0002 
    2761 00000c 4C81          MOV.W     r12,4(SP)             ; [] |437| 
         00000e 0004 
    2762                    .dwpsn  file "../driverlib/MSP430FR2xx_4xx/eusci_b_i2c.c",line 439,column 5,is_stmt,isa 0
    2763 000010 B3AC          BIT.W     #2,42(r12)            ; [] |439| 
         000012 002A 
    2764 000014 2013          JNE       $C$L37                ; [] |439| 
    2765                                                      ; [] |439| 
    2766            ;* --------------------------------------------------------------------------*
MSP430 Assembler PC v21.6.1 Wed Nov 30 16:35:38 2022

Copyright (c) 2003-2018 Texas Instruments Incorporated
eusci_b_i2c.asm                                                      PAGE   56

    2767                    .dwpsn  file "../driverlib/MSP430FR2xx_4xx/eusci_b_i2c.c",line 441,column 9,is_stmt,isa 0
    2768            ;* --------------------------------------------------------------------------*
    2769            ;*   BEGIN LOOP $C$L35
    2770            ;*
    2771            ;*   Loop source line                : 441
    2772            ;*   Loop closing brace source line  : 441
    2773            ;*   Known Minimum Trip Count        : 1
    2774            ;*   Known Maximum Trip Count        : 4294967295
    2775            ;*   Known Max Trip Count Factor     : 1
    2776            ;* --------------------------------------------------------------------------*
    2777 000016       $C$L35:    
    2778                    .dwpsn  file "../driverlib/MSP430FR2xx_4xx/eusci_b_i2c.c",line 441,column 16,is_stmt,isa 0
    2779 000016 B3AC          BIT.W     #2,44(r12)            ; [] |441| 
         000018 002C 
    2780 00001a 2008          JNE       $C$L36                ; [] |441| 
    2781                                                      ; [] |441| 
    2782            ;* --------------------------------------------------------------------------*
    2783 00001c 8391          SUB.W     #1,0(SP)              ; [] |441| 
         00001e 0000 
    2784 000020 7381          SUBC.W    #0,2(SP)              ; [] |441| 
         000022 0002 
    2785 000024 23F8          JNE       $C$L35                ; [] |441| 
    2786                                                      ; [] |441| 
    2787            ;* --------------------------------------------------------------------------*
    2788 000026 9381          TST.W     0(SP)                 ; [] |441| 
         000028 0000 
    2789 00002a 23F5          JNE       $C$L35                ; [] |441| 
    2790                                                      ; [] |441| 
    2791            ;* --------------------------------------------------------------------------*
    2792 00002c       $C$L36:    
    2793                    .dwpsn  file "../driverlib/MSP430FR2xx_4xx/eusci_b_i2c.c",line 444,column 9,is_stmt,isa 0
    2794 00002c 9381          TST.W     2(SP)                 ; [] |444| 
         00002e 0002 
    2795 000030 2005          JNE       $C$L37                ; [] |444| 
    2796                                                      ; [] |444| 
    2797            ;* --------------------------------------------------------------------------*
    2798 000032 9381          TST.W     0(SP)                 ; [] |444| 
         000034 0000 
    2799 000036 2002          JNE       $C$L37                ; [] |444| 
    2800                                                      ; [] |444| 
    2801            ;* --------------------------------------------------------------------------*
    2802                    .dwpsn  file "../driverlib/MSP430FR2xx_4xx/eusci_b_i2c.c",line 445,column 13,is_stmt,isa 0
    2803 000038 434C          MOV.B     #0,r12                ; [] |445| 
    2804 00003a 3C05          JMP       $C$L38                ; [] |445| 
    2805                                                      ; [] |445| 
    2806            ;* --------------------------------------------------------------------------*
    2807 00003c       $C$L37:    
    2808                    .dwpsn  file "../driverlib/MSP430FR2xx_4xx/eusci_b_i2c.c",line 450,column 5,is_stmt,isa 0
    2809 00003c 411F          MOV.W     4(SP),r15             ; [] |450| 
         00003e 0004 
    2810 000040 D2AF          OR.W      #4,0(r15)             ; [] |450| 
         000042 0000 
    2811                    .dwpsn  file "../driverlib/MSP430FR2xx_4xx/eusci_b_i2c.c",line 452,column 5,is_stmt,isa 0
    2812 000044 435C          MOV.B     #1,r12                ; [] |452| 
    2813            ;* --------------------------------------------------------------------------*
MSP430 Assembler PC v21.6.1 Wed Nov 30 16:35:38 2022

Copyright (c) 2003-2018 Texas Instruments Incorporated
eusci_b_i2c.asm                                                      PAGE   57

    2814 000046       $C$L38:    
    2815                    .dwpsn  file "../driverlib/MSP430FR2xx_4xx/eusci_b_i2c.c",line 453,column 1,is_stmt,isa 0
    2816 000046 5031          ADD.W     #6,SP                 ; [] 
         000048 0006 
    2817                    .dwcfi  cfa_offset, 4
    2818            $C$DW$164       .dwtag  DW_TAG_TI_branch
    2819                    .dwattr $C$DW$164, DW_AT_low_pc(0x00)
    2820                    .dwattr $C$DW$164, DW_AT_TI_return
    2821            
    2822 00004a 0110          RETA      ; [] 
    2823                    ; [] 
    2824                    .dwattr $C$DW$159, DW_AT_TI_end_file("../driverlib/MSP430FR2xx_4xx/eusci_b_i2c.c")
    2825                    .dwattr $C$DW$159, DW_AT_TI_end_line(0x1c5)
    2826                    .dwattr $C$DW$159, DW_AT_TI_end_column(0x01)
    2827                    .dwendentry
    2828                    .dwendtag $C$DW$159
    2829            
    2830 000000               .sect   ".text:EUSCI_B_I2C_masterReceiveStart"
    2831                    .clink
    2832                    .global EUSCI_B_I2C_masterReceiveStart
    2833            
    2834            $C$DW$165       .dwtag  DW_TAG_subprogram
    2835                    .dwattr $C$DW$165, DW_AT_name("EUSCI_B_I2C_masterReceiveStart")
    2836                    .dwattr $C$DW$165, DW_AT_low_pc(EUSCI_B_I2C_masterReceiveStart)
    2837                    .dwattr $C$DW$165, DW_AT_high_pc(0x00)
    2838                    .dwattr $C$DW$165, DW_AT_TI_symbol_name("EUSCI_B_I2C_masterReceiveStart")
    2839                    .dwattr $C$DW$165, DW_AT_external
    2840                    .dwattr $C$DW$165, DW_AT_TI_begin_file("../driverlib/MSP430FR2xx_4xx/eusci_b_i2c.c")
    2841                    .dwattr $C$DW$165, DW_AT_TI_begin_line(0x1c7)
    2842                    .dwattr $C$DW$165, DW_AT_TI_begin_column(0x06)
    2843                    .dwattr $C$DW$165, DW_AT_decl_file("../driverlib/MSP430FR2xx_4xx/eusci_b_i2c.c")
    2844                    .dwattr $C$DW$165, DW_AT_decl_line(0x1c7)
    2845                    .dwattr $C$DW$165, DW_AT_decl_column(0x06)
    2846                    .dwattr $C$DW$165, DW_AT_TI_max_frame_size(0x06)
    2847                    .dwpsn  file "../driverlib/MSP430FR2xx_4xx/eusci_b_i2c.c",line 456,column 1,is_stmt,address EU
    2848            
    2849                    .dwfde $C$DW$CIE, EUSCI_B_I2C_masterReceiveStart
    2850            $C$DW$166       .dwtag  DW_TAG_formal_parameter
    2851                    .dwattr $C$DW$166, DW_AT_name("baseAddress")
    2852                    .dwattr $C$DW$166, DW_AT_TI_symbol_name("baseAddress")
    2853                    .dwattr $C$DW$166, DW_AT_type(*$C$DW$T$34)
    2854                    .dwattr $C$DW$166, DW_AT_location[DW_OP_reg12]
    2855            
    2856            
    2857            ;*****************************************************************************
    2858            ;* FUNCTION NAME: EUSCI_B_I2C_masterReceiveStart                             *
    2859            ;*                                                                           *
    2860            ;*   Regs Modified     : SP,SR,r15                                           *
    2861            ;*   Regs Used         : SP,SR,r12,r15                                       *
    2862            ;*   Local Frame Size  : 0 Args + 2 Auto + 0 Save = 2 byte                   *
    2863            ;*****************************************************************************
    2864 000000       EUSCI_B_I2C_masterReceiveStart:
    2865            ;* --------------------------------------------------------------------------*
    2866                    .dwcfi  cfa_offset, 4
    2867                    .dwcfi  save_reg_to_mem, 16, -4
MSP430 Assembler PC v21.6.1 Wed Nov 30 16:35:38 2022

Copyright (c) 2003-2018 Texas Instruments Incorporated
eusci_b_i2c.asm                                                      PAGE   58

    2868 000000 8321          SUB.W     #2,SP                 ; [] 
    2869                    .dwcfi  cfa_offset, 6
    2870            $C$DW$167       .dwtag  DW_TAG_variable
    2871                    .dwattr $C$DW$167, DW_AT_name("baseAddress")
    2872                    .dwattr $C$DW$167, DW_AT_TI_symbol_name("baseAddress")
    2873                    .dwattr $C$DW$167, DW_AT_type(*$C$DW$T$34)
    2874                    .dwattr $C$DW$167, DW_AT_location[DW_OP_breg1 0]
    2875            
    2876 000002 4C81          MOV.W     r12,0(SP)             ; [] |456| 
         000004 0000 
    2877                    .dwpsn  file "../driverlib/MSP430FR2xx_4xx/eusci_b_i2c.c",line 458,column 5,is_stmt,isa 0
    2878 000006 412F          MOV.W     0(SP),r15             ; [] |458| 
    2879 000008 F0BF          AND.W     #65519,0(r15)         ; [] |458| 
         00000a FFEF 
         00000c 0000 
    2880                    .dwpsn  file "../driverlib/MSP430FR2xx_4xx/eusci_b_i2c.c",line 460,column 5,is_stmt,isa 0
    2881 00000e 412F          MOV.W     0(SP),r15             ; [] |460| 
    2882 000010 D3AF          OR.W      #2,0(r15)             ; [] |460| 
         000012 0000 
    2883                    .dwpsn  file "../driverlib/MSP430FR2xx_4xx/eusci_b_i2c.c",line 461,column 1,is_stmt,isa 0
    2884 000014 5321          ADD.W     #2,SP                 ; [] 
    2885                    .dwcfi  cfa_offset, 4
    2886            $C$DW$168       .dwtag  DW_TAG_TI_branch
    2887                    .dwattr $C$DW$168, DW_AT_low_pc(0x00)
    2888                    .dwattr $C$DW$168, DW_AT_TI_return
    2889            
    2890 000016 0110          RETA      ; [] 
    2891                    ; [] 
    2892                    .dwattr $C$DW$165, DW_AT_TI_end_file("../driverlib/MSP430FR2xx_4xx/eusci_b_i2c.c")
    2893                    .dwattr $C$DW$165, DW_AT_TI_end_line(0x1cd)
    2894                    .dwattr $C$DW$165, DW_AT_TI_end_column(0x01)
    2895                    .dwendentry
    2896                    .dwendtag $C$DW$165
    2897            
    2898 000000               .sect   ".text:EUSCI_B_I2C_masterReceiveMultiByteNext"
    2899                    .clink
    2900                    .global EUSCI_B_I2C_masterReceiveMultiByteNext
    2901            
    2902            $C$DW$169       .dwtag  DW_TAG_subprogram
    2903                    .dwattr $C$DW$169, DW_AT_name("EUSCI_B_I2C_masterReceiveMultiByteNext")
    2904                    .dwattr $C$DW$169, DW_AT_low_pc(EUSCI_B_I2C_masterReceiveMultiByteNext)
    2905                    .dwattr $C$DW$169, DW_AT_high_pc(0x00)
    2906                    .dwattr $C$DW$169, DW_AT_TI_symbol_name("EUSCI_B_I2C_masterReceiveMultiByteNext")
    2907                    .dwattr $C$DW$169, DW_AT_external
    2908                    .dwattr $C$DW$169, DW_AT_type(*$C$DW$T$23)
    2909                    .dwattr $C$DW$169, DW_AT_TI_begin_file("../driverlib/MSP430FR2xx_4xx/eusci_b_i2c.c")
    2910                    .dwattr $C$DW$169, DW_AT_TI_begin_line(0x1cf)
    2911                    .dwattr $C$DW$169, DW_AT_TI_begin_column(0x09)
    2912                    .dwattr $C$DW$169, DW_AT_decl_file("../driverlib/MSP430FR2xx_4xx/eusci_b_i2c.c")
    2913                    .dwattr $C$DW$169, DW_AT_decl_line(0x1cf)
    2914                    .dwattr $C$DW$169, DW_AT_decl_column(0x09)
    2915                    .dwattr $C$DW$169, DW_AT_TI_max_frame_size(0x06)
    2916                    .dwpsn  file "../driverlib/MSP430FR2xx_4xx/eusci_b_i2c.c",line 464,column 1,is_stmt,address EU
    2917            
    2918                    .dwfde $C$DW$CIE, EUSCI_B_I2C_masterReceiveMultiByteNext
MSP430 Assembler PC v21.6.1 Wed Nov 30 16:35:38 2022

Copyright (c) 2003-2018 Texas Instruments Incorporated
eusci_b_i2c.asm                                                      PAGE   59

    2919            $C$DW$170       .dwtag  DW_TAG_formal_parameter
    2920                    .dwattr $C$DW$170, DW_AT_name("baseAddress")
    2921                    .dwattr $C$DW$170, DW_AT_TI_symbol_name("baseAddress")
    2922                    .dwattr $C$DW$170, DW_AT_type(*$C$DW$T$34)
    2923                    .dwattr $C$DW$170, DW_AT_location[DW_OP_reg12]
    2924            
    2925            
    2926            ;*****************************************************************************
    2927            ;* FUNCTION NAME: EUSCI_B_I2C_masterReceiveMultiByteNext                     *
    2928            ;*                                                                           *
    2929            ;*   Regs Modified     : SP,SR,r12                                           *
    2930            ;*   Regs Used         : SP,SR,r12                                           *
    2931            ;*   Local Frame Size  : 0 Args + 2 Auto + 0 Save = 2 byte                   *
    2932            ;*****************************************************************************
    2933 000000       EUSCI_B_I2C_masterReceiveMultiByteNext:
    2934            ;* --------------------------------------------------------------------------*
    2935                    .dwcfi  cfa_offset, 4
    2936                    .dwcfi  save_reg_to_mem, 16, -4
    2937 000000 8321          SUB.W     #2,SP                 ; [] 
    2938                    .dwcfi  cfa_offset, 6
    2939            $C$DW$171       .dwtag  DW_TAG_variable
    2940                    .dwattr $C$DW$171, DW_AT_name("baseAddress")
    2941                    .dwattr $C$DW$171, DW_AT_TI_symbol_name("baseAddress")
    2942                    .dwattr $C$DW$171, DW_AT_type(*$C$DW$T$34)
    2943                    .dwattr $C$DW$171, DW_AT_location[DW_OP_breg1 0]
    2944            
    2945 000002 4C81          MOV.W     r12,0(SP)             ; [] |464| 
         000004 0000 
    2946                    .dwpsn  file "../driverlib/MSP430FR2xx_4xx/eusci_b_i2c.c",line 465,column 5,is_stmt,isa 0
    2947 000006 4C1C          MOV.W     12(r12),r12           ; [] |465| 
         000008 000C 
    2948 00000a 4C4C          MOV.B     r12,r12               ; [] |465| 
    2949                    .dwpsn  file "../driverlib/MSP430FR2xx_4xx/eusci_b_i2c.c",line 466,column 1,is_stmt,isa 0
    2950 00000c 5321          ADD.W     #2,SP                 ; [] 
    2951                    .dwcfi  cfa_offset, 4
    2952            $C$DW$172       .dwtag  DW_TAG_TI_branch
    2953                    .dwattr $C$DW$172, DW_AT_low_pc(0x00)
    2954                    .dwattr $C$DW$172, DW_AT_TI_return
    2955            
    2956 00000e 0110          RETA      ; [] 
    2957                    ; [] 
    2958                    .dwattr $C$DW$169, DW_AT_TI_end_file("../driverlib/MSP430FR2xx_4xx/eusci_b_i2c.c")
    2959                    .dwattr $C$DW$169, DW_AT_TI_end_line(0x1d2)
    2960                    .dwattr $C$DW$169, DW_AT_TI_end_column(0x01)
    2961                    .dwendentry
    2962                    .dwendtag $C$DW$169
    2963            
    2964 000000               .sect   ".text:EUSCI_B_I2C_masterReceiveMultiByteFinish"
    2965                    .clink
    2966                    .global EUSCI_B_I2C_masterReceiveMultiByteFinish
    2967            
    2968            $C$DW$173       .dwtag  DW_TAG_subprogram
    2969                    .dwattr $C$DW$173, DW_AT_name("EUSCI_B_I2C_masterReceiveMultiByteFinish")
    2970                    .dwattr $C$DW$173, DW_AT_low_pc(EUSCI_B_I2C_masterReceiveMultiByteFinish)
    2971                    .dwattr $C$DW$173, DW_AT_high_pc(0x00)
MSP430 Assembler PC v21.6.1 Wed Nov 30 16:35:38 2022

Copyright (c) 2003-2018 Texas Instruments Incorporated
eusci_b_i2c.asm                                                      PAGE   60

    2972                    .dwattr $C$DW$173, DW_AT_TI_symbol_name("EUSCI_B_I2C_masterReceiveMultiByteFinish")
    2973                    .dwattr $C$DW$173, DW_AT_external
    2974                    .dwattr $C$DW$173, DW_AT_type(*$C$DW$T$23)
    2975                    .dwattr $C$DW$173, DW_AT_TI_begin_file("../driverlib/MSP430FR2xx_4xx/eusci_b_i2c.c")
    2976                    .dwattr $C$DW$173, DW_AT_TI_begin_line(0x1d4)
    2977                    .dwattr $C$DW$173, DW_AT_TI_begin_column(0x09)
    2978                    .dwattr $C$DW$173, DW_AT_decl_file("../driverlib/MSP430FR2xx_4xx/eusci_b_i2c.c")
    2979                    .dwattr $C$DW$173, DW_AT_decl_line(0x1d4)
    2980                    .dwattr $C$DW$173, DW_AT_decl_column(0x09)
    2981                    .dwattr $C$DW$173, DW_AT_TI_max_frame_size(0x06)
    2982                    .dwpsn  file "../driverlib/MSP430FR2xx_4xx/eusci_b_i2c.c",line 469,column 1,is_stmt,address EU
    2983            
    2984                    .dwfde $C$DW$CIE, EUSCI_B_I2C_masterReceiveMultiByteFinish
    2985            $C$DW$174       .dwtag  DW_TAG_formal_parameter
    2986                    .dwattr $C$DW$174, DW_AT_name("baseAddress")
    2987                    .dwattr $C$DW$174, DW_AT_TI_symbol_name("baseAddress")
    2988                    .dwattr $C$DW$174, DW_AT_type(*$C$DW$T$34)
    2989                    .dwattr $C$DW$174, DW_AT_location[DW_OP_reg12]
    2990            
    2991            
    2992            ;*****************************************************************************
    2993            ;* FUNCTION NAME: EUSCI_B_I2C_masterReceiveMultiByteFinish                   *
    2994            ;*                                                                           *
    2995            ;*   Regs Modified     : SP,SR,r12,r14,r15                                   *
    2996            ;*   Regs Used         : SP,SR,r12,r14,r15                                   *
    2997            ;*   Local Frame Size  : 0 Args + 2 Auto + 0 Save = 2 byte                   *
    2998            ;*****************************************************************************
    2999 000000       EUSCI_B_I2C_masterReceiveMultiByteFinish:
    3000            ;* --------------------------------------------------------------------------*
    3001                    .dwcfi  cfa_offset, 4
    3002                    .dwcfi  save_reg_to_mem, 16, -4
    3003 000000 8321          SUB.W     #2,SP                 ; [] 
    3004                    .dwcfi  cfa_offset, 6
    3005            $C$DW$175       .dwtag  DW_TAG_variable
    3006                    .dwattr $C$DW$175, DW_AT_name("baseAddress")
    3007                    .dwattr $C$DW$175, DW_AT_TI_symbol_name("baseAddress")
    3008                    .dwattr $C$DW$175, DW_AT_type(*$C$DW$T$34)
    3009                    .dwattr $C$DW$175, DW_AT_location[DW_OP_breg1 0]
    3010            
    3011 000002 4C81          MOV.W     r12,0(SP)             ; [] |469| 
         000004 0000 
    3012                    .dwpsn  file "../driverlib/MSP430FR2xx_4xx/eusci_b_i2c.c",line 471,column 5,is_stmt,isa 0
    3013 000006 412F          MOV.W     0(SP),r15             ; [] |471| 
    3014 000008 D2AF          OR.W      #4,0(r15)             ; [] |471| 
         00000a 0000 
    3015                    .dwpsn  file "../driverlib/MSP430FR2xx_4xx/eusci_b_i2c.c",line 474,column 5,is_stmt,isa 0
    3016 00000c 3C04          JMP       $C$L40                ; [] |474| 
    3017                                                      ; [] |474| 
    3018            ;* --------------------------------------------------------------------------*
    3019            ;* --------------------------------------------------------------------------*
    3020            ;*   BEGIN LOOP $C$L39
    3021            ;*
    3022            ;*   Loop source line                : 477
    3023            ;*   Loop closing brace source line  : 477
    3024            ;*   Known Minimum Trip Count        : 1
MSP430 Assembler PC v21.6.1 Wed Nov 30 16:35:38 2022

Copyright (c) 2003-2018 Texas Instruments Incorporated
eusci_b_i2c.asm                                                      PAGE   61

    3025            ;*   Known Maximum Trip Count        : 4294967295
    3026            ;*   Known Max Trip Count Factor     : 1
    3027            ;* --------------------------------------------------------------------------*
    3028 00000e       $C$L39:    
    3029                    .dwpsn  file "../driverlib/MSP430FR2xx_4xx/eusci_b_i2c.c",line 477,column 12,is_stmt,isa 0
    3030 00000e 412F          MOV.W     0(SP),r15             ; [] |477| 
    3031 000010 B39F          BIT.W     #1,44(r15)            ; [] |477| 
         000012 002C 
    3032 000014 27FC          JEQ       $C$L39                ; [] |477| 
    3033                                                      ; [] |477| 
    3034            ;* --------------------------------------------------------------------------*
    3035            ;*   BEGIN LOOP $C$L40
    3036            ;* --------------------------------------------------------------------------*
    3037 000016       $C$L40:    
    3038 000016 412F          MOV.W     0(SP),r15             ; [] |477| 
    3039 000018 422E          MOV.W     #4,r14                ; [] |477| 
    3040 00001a BF2E          BIT.W     @r15,r14              ; [] |477| 
    3041 00001c 23F8          JNE       $C$L39                ; [] |477| 
    3042                                                      ; [] |477| 
    3043            ;* --------------------------------------------------------------------------*
    3044                    .dwpsn  file "../driverlib/MSP430FR2xx_4xx/eusci_b_i2c.c",line 481,column 5,is_stmt,isa 0
    3045 00001e 412F          MOV.W     0(SP),r15             ; [] |481| 
    3046 000020 4F1C          MOV.W     12(r15),r12           ; [] |481| 
         000022 000C 
    3047 000024 4C4C          MOV.B     r12,r12               ; [] |481| 
    3048                    .dwpsn  file "../driverlib/MSP430FR2xx_4xx/eusci_b_i2c.c",line 482,column 1,is_stmt,isa 0
    3049 000026 5321          ADD.W     #2,SP                 ; [] 
    3050                    .dwcfi  cfa_offset, 4
    3051            $C$DW$176       .dwtag  DW_TAG_TI_branch
    3052                    .dwattr $C$DW$176, DW_AT_low_pc(0x00)
    3053                    .dwattr $C$DW$176, DW_AT_TI_return
    3054            
    3055 000028 0110          RETA      ; [] 
    3056                    ; [] 
    3057                    .dwattr $C$DW$173, DW_AT_TI_end_file("../driverlib/MSP430FR2xx_4xx/eusci_b_i2c.c")
    3058                    .dwattr $C$DW$173, DW_AT_TI_end_line(0x1e2)
    3059                    .dwattr $C$DW$173, DW_AT_TI_end_column(0x01)
    3060                    .dwendentry
    3061                    .dwendtag $C$DW$173
    3062            
    3063 000000               .sect   ".text:EUSCI_B_I2C_masterReceiveMultiByteFinishWithTimeout"
    3064                    .clink
    3065                    .global EUSCI_B_I2C_masterReceiveMultiByteFinishWithTimeout
    3066            
    3067            $C$DW$177       .dwtag  DW_TAG_subprogram
    3068                    .dwattr $C$DW$177, DW_AT_name("EUSCI_B_I2C_masterReceiveMultiByteFinishWithTimeout")
    3069                    .dwattr $C$DW$177, DW_AT_low_pc(EUSCI_B_I2C_masterReceiveMultiByteFinishWithTimeout)
    3070                    .dwattr $C$DW$177, DW_AT_high_pc(0x00)
    3071                    .dwattr $C$DW$177, DW_AT_TI_symbol_name("EUSCI_B_I2C_masterReceiveMultiByteFinishWithTimeout")
    3072                    .dwattr $C$DW$177, DW_AT_external
    3073                    .dwattr $C$DW$177, DW_AT_type(*$C$DW$T$157)
    3074                    .dwattr $C$DW$177, DW_AT_TI_begin_file("../driverlib/MSP430FR2xx_4xx/eusci_b_i2c.c")
    3075                    .dwattr $C$DW$177, DW_AT_TI_begin_line(0x1e4)
    3076                    .dwattr $C$DW$177, DW_AT_TI_begin_column(0x06)
    3077                    .dwattr $C$DW$177, DW_AT_decl_file("../driverlib/MSP430FR2xx_4xx/eusci_b_i2c.c")
MSP430 Assembler PC v21.6.1 Wed Nov 30 16:35:38 2022

Copyright (c) 2003-2018 Texas Instruments Incorporated
eusci_b_i2c.asm                                                      PAGE   62

    3078                    .dwattr $C$DW$177, DW_AT_decl_line(0x1e4)
    3079                    .dwattr $C$DW$177, DW_AT_decl_column(0x06)
    3080                    .dwattr $C$DW$177, DW_AT_TI_max_frame_size(0x10)
    3081                    .dwpsn  file "../driverlib/MSP430FR2xx_4xx/eusci_b_i2c.c",line 488,column 1,is_stmt,address EU
    3082            
    3083                    .dwfde $C$DW$CIE, EUSCI_B_I2C_masterReceiveMultiByteFinishWithTimeout
    3084            $C$DW$178       .dwtag  DW_TAG_formal_parameter
    3085                    .dwattr $C$DW$178, DW_AT_name("baseAddress")
    3086                    .dwattr $C$DW$178, DW_AT_TI_symbol_name("baseAddress")
    3087                    .dwattr $C$DW$178, DW_AT_type(*$C$DW$T$34)
    3088                    .dwattr $C$DW$178, DW_AT_location[DW_OP_reg12]
    3089            
    3090            $C$DW$179       .dwtag  DW_TAG_formal_parameter
    3091                    .dwattr $C$DW$179, DW_AT_name("txData")
    3092                    .dwattr $C$DW$179, DW_AT_TI_symbol_name("txData")
    3093                    .dwattr $C$DW$179, DW_AT_type(*$C$DW$T$51)
    3094                    .dwattr $C$DW$179, DW_AT_location[DW_OP_reg13]
    3095            
    3096            $C$DW$180       .dwtag  DW_TAG_formal_parameter
    3097                    .dwattr $C$DW$180, DW_AT_name("timeout")
    3098                    .dwattr $C$DW$180, DW_AT_TI_symbol_name("timeout")
    3099                    .dwattr $C$DW$180, DW_AT_type(*$C$DW$T$25)
    3100                    .dwattr $C$DW$180, DW_AT_location[DW_OP_reg14 DW_OP_piece 2 DW_OP_reg15 DW_OP_piece 2]
    3101            
    3102            
    3103            ;*****************************************************************************
    3104            ;* FUNCTION NAME: EUSCI_B_I2C_masterReceiveMultiByteFinishWithTimeout        *
    3105            ;*                                                                           *
    3106            ;*   Regs Modified     : SP,SR,r12,r14,r15                                   *
    3107            ;*   Regs Used         : SP,SR,r12,r13,r14,r15                               *
    3108            ;*   Local Frame Size  : 0 Args + 12 Auto + 0 Save = 12 byte                 *
    3109            ;*****************************************************************************
    3110 000000       EUSCI_B_I2C_masterReceiveMultiByteFinishWithTimeout:
    3111            ;* --------------------------------------------------------------------------*
    3112                    .dwcfi  cfa_offset, 4
    3113                    .dwcfi  save_reg_to_mem, 16, -4
    3114 000000 8031          SUB.W     #12,SP                ; [] 
         000002 000C 
    3115                    .dwcfi  cfa_offset, 16
    3116            $C$DW$181       .dwtag  DW_TAG_variable
    3117                    .dwattr $C$DW$181, DW_AT_name("timeout")
    3118                    .dwattr $C$DW$181, DW_AT_TI_symbol_name("timeout")
    3119                    .dwattr $C$DW$181, DW_AT_type(*$C$DW$T$25)
    3120                    .dwattr $C$DW$181, DW_AT_location[DW_OP_breg1 0]
    3121            
    3122            $C$DW$182       .dwtag  DW_TAG_variable
    3123                    .dwattr $C$DW$182, DW_AT_name("timeout2")
    3124                    .dwattr $C$DW$182, DW_AT_TI_symbol_name("timeout2")
    3125                    .dwattr $C$DW$182, DW_AT_type(*$C$DW$T$25)
    3126                    .dwattr $C$DW$182, DW_AT_location[DW_OP_breg1 4]
    3127            
    3128            $C$DW$183       .dwtag  DW_TAG_variable
    3129                    .dwattr $C$DW$183, DW_AT_name("baseAddress")
    3130                    .dwattr $C$DW$183, DW_AT_TI_symbol_name("baseAddress")
    3131                    .dwattr $C$DW$183, DW_AT_type(*$C$DW$T$34)
MSP430 Assembler PC v21.6.1 Wed Nov 30 16:35:38 2022

Copyright (c) 2003-2018 Texas Instruments Incorporated
eusci_b_i2c.asm                                                      PAGE   63

    3132                    .dwattr $C$DW$183, DW_AT_location[DW_OP_breg1 8]
    3133            
    3134            $C$DW$184       .dwtag  DW_TAG_variable
    3135                    .dwattr $C$DW$184, DW_AT_name("txData")
    3136                    .dwattr $C$DW$184, DW_AT_TI_symbol_name("txData")
    3137                    .dwattr $C$DW$184, DW_AT_type(*$C$DW$T$51)
    3138                    .dwattr $C$DW$184, DW_AT_location[DW_OP_breg1 10]
    3139            
    3140 000004 4E81          MOV.W     r14,0(SP)             ; [] |488| 
         000006 0000 
    3141 000008 4F81          MOV.W     r15,2(SP)             ; [] |488| 
         00000a 0002 
    3142 00000c 4D81          MOV.W     r13,10(SP)            ; [] |488| 
         00000e 000A 
    3143 000010 4C81          MOV.W     r12,8(SP)             ; [] |488| 
         000012 0008 
    3144                    .dwpsn  file "../driverlib/MSP430FR2xx_4xx/eusci_b_i2c.c",line 489,column 23,is_stmt,isa 0
    3145 000014 41A1          MOV.W     0(SP),4(SP)           ; [] |489| 
         000016 0004 
    3146 000018 4191          MOV.W     2(SP),6(SP)           ; [] |489| 
         00001a 0002 
         00001c 0006 
    3147                    .dwpsn  file "../driverlib/MSP430FR2xx_4xx/eusci_b_i2c.c",line 492,column 5,is_stmt,isa 0
    3148 00001e 411F          MOV.W     8(SP),r15             ; [] |492| 
         000020 0008 
    3149 000022 D2AF          OR.W      #4,0(r15)             ; [] |492| 
         000024 0000 
    3150                    .dwpsn  file "../driverlib/MSP430FR2xx_4xx/eusci_b_i2c.c",line 495,column 5,is_stmt,isa 0
    3151            ;* --------------------------------------------------------------------------*
    3152            ;*   BEGIN LOOP $C$L41
    3153            ;*
    3154            ;*   Loop source line                : 495
    3155            ;*   Loop closing brace source line  : 495
    3156            ;*   Known Minimum Trip Count        : 1
    3157            ;*   Known Maximum Trip Count        : 4294967295
    3158            ;*   Known Max Trip Count Factor     : 1
    3159            ;* --------------------------------------------------------------------------*
    3160 000026       $C$L41:    
    3161                    .dwpsn  file "../driverlib/MSP430FR2xx_4xx/eusci_b_i2c.c",line 495,column 12,is_stmt,isa 0
    3162 000026 411F          MOV.W     8(SP),r15             ; [] |495| 
         000028 0008 
    3163 00002a 422E          MOV.W     #4,r14                ; [] |495| 
    3164 00002c BF2E          BIT.W     @r15,r14              ; [] |495| 
    3165 00002e 2408          JEQ       $C$L42                ; [] |495| 
    3166                                                      ; [] |495| 
    3167            ;* --------------------------------------------------------------------------*
    3168 000030 8391          SUB.W     #1,0(SP)              ; [] |495| 
         000032 0000 
    3169 000034 7381          SUBC.W    #0,2(SP)              ; [] |495| 
         000036 0002 
    3170 000038 23F6          JNE       $C$L41                ; [] |495| 
    3171                                                      ; [] |495| 
    3172            ;* --------------------------------------------------------------------------*
    3173 00003a 9381          TST.W     0(SP)                 ; [] |495| 
         00003c 0000 
MSP430 Assembler PC v21.6.1 Wed Nov 30 16:35:38 2022

Copyright (c) 2003-2018 Texas Instruments Incorporated
eusci_b_i2c.asm                                                      PAGE   64

    3174 00003e 23F3          JNE       $C$L41                ; [] |495| 
    3175                                                      ; [] |495| 
    3176            ;* --------------------------------------------------------------------------*
    3177 000040       $C$L42:    
    3178                    .dwpsn  file "../driverlib/MSP430FR2xx_4xx/eusci_b_i2c.c",line 498,column 5,is_stmt,isa 0
    3179 000040 9381          TST.W     2(SP)                 ; [] |498| 
         000042 0002 
    3180 000044 2005          JNE       $C$L43                ; [] |498| 
    3181                                                      ; [] |498| 
    3182            ;* --------------------------------------------------------------------------*
    3183 000046 9381          TST.W     0(SP)                 ; [] |498| 
         000048 0000 
    3184 00004a 2002          JNE       $C$L43                ; [] |498| 
    3185                                                      ; [] |498| 
    3186            ;* --------------------------------------------------------------------------*
    3187                    .dwpsn  file "../driverlib/MSP430FR2xx_4xx/eusci_b_i2c.c",line 499,column 9,is_stmt,isa 0
    3188 00004c 434C          MOV.B     #0,r12                ; [] |499| 
    3189 00004e 3C1B          JMP       $C$L46                ; [] |499| 
    3190                                                      ; [] |499| 
    3191            ;* --------------------------------------------------------------------------*
    3192            ;* --------------------------------------------------------------------------*
    3193            ;*   BEGIN LOOP $C$L43
    3194            ;*
    3195            ;*   Loop source line                : 503
    3196            ;*   Loop closing brace source line  : 503
    3197            ;*   Known Minimum Trip Count        : 1
    3198            ;*   Known Maximum Trip Count        : 4294967295
    3199            ;*   Known Max Trip Count Factor     : 1
    3200            ;* --------------------------------------------------------------------------*
    3201 000050       $C$L43:    
    3202                    .dwpsn  file "../driverlib/MSP430FR2xx_4xx/eusci_b_i2c.c",line 503,column 12,is_stmt,isa 0
    3203 000050 411F          MOV.W     8(SP),r15             ; [] |503| 
         000052 0008 
    3204 000054 B39F          BIT.W     #1,44(r15)            ; [] |503| 
         000056 002C 
    3205 000058 2008          JNE       $C$L44                ; [] |503| 
    3206                                                      ; [] |503| 
    3207            ;* --------------------------------------------------------------------------*
    3208 00005a 8391          SUB.W     #1,4(SP)              ; [] |503| 
         00005c 0004 
    3209 00005e 7381          SUBC.W    #0,6(SP)              ; [] |503| 
         000060 0006 
    3210 000062 23F6          JNE       $C$L43                ; [] |503| 
    3211                                                      ; [] |503| 
    3212            ;* --------------------------------------------------------------------------*
    3213 000064 9381          TST.W     4(SP)                 ; [] |503| 
         000066 0004 
    3214 000068 23F3          JNE       $C$L43                ; [] |503| 
    3215                                                      ; [] |503| 
    3216            ;* --------------------------------------------------------------------------*
    3217 00006a       $C$L44:    
    3218                    .dwpsn  file "../driverlib/MSP430FR2xx_4xx/eusci_b_i2c.c",line 506,column 5,is_stmt,isa 0
    3219 00006a 9381          TST.W     6(SP)                 ; [] |506| 
         00006c 0006 
    3220 00006e 2005          JNE       $C$L45                ; [] |506| 
MSP430 Assembler PC v21.6.1 Wed Nov 30 16:35:38 2022

Copyright (c) 2003-2018 Texas Instruments Incorporated
eusci_b_i2c.asm                                                      PAGE   65

    3221                                                      ; [] |506| 
    3222            ;* --------------------------------------------------------------------------*
    3223 000070 9381          TST.W     4(SP)                 ; [] |506| 
