MSP430 Assembler PC v21.6.1 Wed Nov 30 16:35:43 2022

Copyright (c) 2003-2018 Texas Instruments Incorporated
tlv.asm                                                              PAGE    1

       1            ;******************************************************************************
       2            ;* MSP430 G3 C/C++ Codegen                                              PC v21.6.1.LTS *
       3            ;* Date/Time created: Wed Nov 30 16:35:42 2022                                *
       4            ;******************************************************************************
       5                    .compiler_opts --abi=eabi --diag_wrap=off --hll_source=on --mem_model:code=large --mem_model:d
       6            
       7            $C$DW$CU        .dwtag  DW_TAG_compile_unit
       8                    .dwattr $C$DW$CU, DW_AT_name("../driverlib/MSP430FR2xx_4xx/tlv.c")
       9                    .dwattr $C$DW$CU, DW_AT_producer("TI MSP430 G3 C/C++ Codegen PC v21.6.1.LTS Copyright (c) 2003
      10                    .dwattr $C$DW$CU, DW_AT_TI_version(0x01)
      11                    .dwattr $C$DW$CU, DW_AT_comp_dir("C:\ccs_challengespace\MSP430_LCD_display\Debug")
      12            ;       C:\ti\ccs1110\ccs\tools\compiler\ti-cgt-msp430_21.6.1.LTS\bin\acpia430.exe -@C:\\Users\\DAVID~
      13 000000               .sect   ".text:TLV_getInfo"
      14                    .clink
      15                    .global TLV_getInfo
      16            
      17            $C$DW$1 .dwtag  DW_TAG_subprogram
      18                    .dwattr $C$DW$1, DW_AT_name("TLV_getInfo")
      19                    .dwattr $C$DW$1, DW_AT_low_pc(TLV_getInfo)
      20                    .dwattr $C$DW$1, DW_AT_high_pc(0x00)
      21                    .dwattr $C$DW$1, DW_AT_TI_symbol_name("TLV_getInfo")
      22                    .dwattr $C$DW$1, DW_AT_external
      23                    .dwattr $C$DW$1, DW_AT_TI_begin_file("../driverlib/MSP430FR2xx_4xx/tlv.c")
      24                    .dwattr $C$DW$1, DW_AT_TI_begin_line(0x15)
      25                    .dwattr $C$DW$1, DW_AT_TI_begin_column(0x06)
      26                    .dwattr $C$DW$1, DW_AT_decl_file("../driverlib/MSP430FR2xx_4xx/tlv.c")
      27                    .dwattr $C$DW$1, DW_AT_decl_line(0x15)
      28                    .dwattr $C$DW$1, DW_AT_decl_column(0x06)
      29                    .dwattr $C$DW$1, DW_AT_TI_max_frame_size(0x0c)
      30                    .dwpsn  file "../driverlib/MSP430FR2xx_4xx/tlv.c",line 26,column 1,is_stmt,address TLV_getInfo
      31            
      32                    .dwfde $C$DW$CIE, TLV_getInfo
      33            $C$DW$2 .dwtag  DW_TAG_formal_parameter
      34                    .dwattr $C$DW$2, DW_AT_name("tag")
      35                    .dwattr $C$DW$2, DW_AT_TI_symbol_name("tag")
      36                    .dwattr $C$DW$2, DW_AT_type(*$C$DW$T$35)
      37                    .dwattr $C$DW$2, DW_AT_location[DW_OP_reg12]
      38            
      39            $C$DW$3 .dwtag  DW_TAG_formal_parameter
      40                    .dwattr $C$DW$3, DW_AT_name("instance")
      41                    .dwattr $C$DW$3, DW_AT_TI_symbol_name("instance")
      42                    .dwattr $C$DW$3, DW_AT_type(*$C$DW$T$35)
      43                    .dwattr $C$DW$3, DW_AT_location[DW_OP_reg13]
      44            
      45            $C$DW$4 .dwtag  DW_TAG_formal_parameter
      46                    .dwattr $C$DW$4, DW_AT_name("length")
      47                    .dwattr $C$DW$4, DW_AT_TI_symbol_name("length")
      48                    .dwattr $C$DW$4, DW_AT_type(*$C$DW$T$36)
      49                    .dwattr $C$DW$4, DW_AT_location[DW_OP_reg14]
      50            
      51            $C$DW$5 .dwtag  DW_TAG_formal_parameter
      52                    .dwattr $C$DW$5, DW_AT_name("data_address")
      53                    .dwattr $C$DW$5, DW_AT_TI_symbol_name("data_address")
      54                    .dwattr $C$DW$5, DW_AT_type(*$C$DW$T$38)
      55                    .dwattr $C$DW$5, DW_AT_location[DW_OP_reg15]
MSP430 Assembler PC v21.6.1 Wed Nov 30 16:35:43 2022

Copyright (c) 2003-2018 Texas Instruments Incorporated
tlv.asm                                                              PAGE    2

      56            
      57            
      58            ;*****************************************************************************
      59            ;* FUNCTION NAME: TLV_getInfo                                                *
      60            ;*                                                                           *
      61            ;*   Regs Modified     : SP,SR,r13,r14,r15                                   *
      62            ;*   Regs Used         : SP,SR,r12,r13,r14,r15                               *
      63            ;*   Local Frame Size  : 0 Args + 8 Auto + 0 Save = 8 byte                   *
      64            ;*****************************************************************************
      65 000000       TLV_getInfo:
      66            ;* --------------------------------------------------------------------------*
      67                    .dwcfi  cfa_offset, 4
      68                    .dwcfi  save_reg_to_mem, 16, -4
      69 000000 8231          SUB.W     #8,SP                 ; [] 
      70                    .dwcfi  cfa_offset, 12
      71            $C$DW$6 .dwtag  DW_TAG_variable
      72                    .dwattr $C$DW$6, DW_AT_name("length")
      73                    .dwattr $C$DW$6, DW_AT_TI_symbol_name("length")
      74                    .dwattr $C$DW$6, DW_AT_type(*$C$DW$T$36)
      75                    .dwattr $C$DW$6, DW_AT_location[DW_OP_breg1 0]
      76            
      77            $C$DW$7 .dwtag  DW_TAG_variable
      78                    .dwattr $C$DW$7, DW_AT_name("data_address")
      79                    .dwattr $C$DW$7, DW_AT_TI_symbol_name("data_address")
      80                    .dwattr $C$DW$7, DW_AT_type(*$C$DW$T$38)
      81                    .dwattr $C$DW$7, DW_AT_location[DW_OP_breg1 2]
      82            
      83            $C$DW$8 .dwtag  DW_TAG_variable
      84                    .dwattr $C$DW$8, DW_AT_name("TLV_address")
      85                    .dwattr $C$DW$8, DW_AT_TI_symbol_name("TLV_address")
      86                    .dwattr $C$DW$8, DW_AT_type(*$C$DW$T$154)
      87                    .dwattr $C$DW$8, DW_AT_location[DW_OP_breg1 4]
      88            
      89            $C$DW$9 .dwtag  DW_TAG_variable
      90                    .dwattr $C$DW$9, DW_AT_name("tag")
      91                    .dwattr $C$DW$9, DW_AT_TI_symbol_name("tag")
      92                    .dwattr $C$DW$9, DW_AT_type(*$C$DW$T$35)
      93                    .dwattr $C$DW$9, DW_AT_location[DW_OP_breg1 6]
      94            
      95            $C$DW$10        .dwtag  DW_TAG_variable
      96                    .dwattr $C$DW$10, DW_AT_name("instance")
      97                    .dwattr $C$DW$10, DW_AT_TI_symbol_name("instance")
      98                    .dwattr $C$DW$10, DW_AT_type(*$C$DW$T$35)
      99                    .dwattr $C$DW$10, DW_AT_location[DW_OP_breg1 7]
     100            
     101 000002 4F81          MOV.W     r15,2(SP)             ; [] |26| 
         000004 0002 
     102 000006 4E81          MOV.W     r14,0(SP)             ; [] |26| 
         000008 0000 
     103 00000a 4DC1          MOV.B     r13,7(SP)             ; [] |26| 
         00000c 0007 
     104 00000e 4CC1          MOV.B     r12,6(SP)             ; [] |26| 
         000010 0006 
     105                    .dwpsn  file "../driverlib/MSP430FR2xx_4xx/tlv.c",line 28,column 23,is_stmt,isa 0
     106 000012 40B1          MOV.W     #6664,4(SP)           ; [] |28| 
MSP430 Assembler PC v21.6.1 Wed Nov 30 16:35:43 2022

Copyright (c) 2003-2018 Texas Instruments Incorporated
tlv.asm                                                              PAGE    3

         000014 1A08 
         000016 0004 
     107                    .dwpsn  file "../driverlib/MSP430FR2xx_4xx/tlv.c",line 30,column 5,is_stmt,isa 0
     108 000018 3C0A          JMP       $C$L3                 ; [] |30| 
     109                                                      ; [] |30| 
     110            ;* --------------------------------------------------------------------------*
     111 00001a       $C$L1:    
     112                    .dwpsn  file "../driverlib/MSP430FR2xx_4xx/tlv.c",line 34,column 9,is_stmt,isa 0
     113 00001a 9FE1          CMP.B     @r15,6(SP)            ; [] |34| 
         00001c 0006 
     114 00001e 2002          JNE       $C$L2                 ; [] |34| 
     115                                                      ; [] |34| 
     116            ;* --------------------------------------------------------------------------*
     117                    .dwpsn  file "../driverlib/MSP430FR2xx_4xx/tlv.c",line 37,column 13,is_stmt,isa 0
     118 000020 83D1          SUB.B     #1,7(SP)              ; [] |37| 
         000022 0007 
     119            ;* --------------------------------------------------------------------------*
     120 000024       $C$L2:    
     121                    .dwpsn  file "../driverlib/MSP430FR2xx_4xx/tlv.c",line 40,column 9,is_stmt,isa 0
     122 000024 4F5F          MOV.B     1(r15),r15            ; [] |40| 
         000026 0001 
     123 000028 532F          ADD.W     #2,r15                ; [] |40| 
     124 00002a 5F81          ADD.W     r15,4(SP)             ; [] |40| 
         00002c 0004 
     125            ;* --------------------------------------------------------------------------*
     126            ;*   BEGIN LOOP $C$L3
     127            ;* --------------------------------------------------------------------------*
     128 00002e       $C$L3:    
     129                    .dwpsn  file "../driverlib/MSP430FR2xx_4xx/tlv.c",line 30,column 11,is_stmt,isa 0
     130 00002e 90B1          CMP.W     #6911,4(SP)           ; [] |30| 
         000030 1AFF 
         000032 0004 
     131 000034 2C0C          JHS       $C$L5                 ; [] |30| 
     132                                                      ; [] |30| 
     133            ;* --------------------------------------------------------------------------*
     134 000036 411F          MOV.W     4(SP),r15             ; [] |30| 
         000038 0004 
     135 00003a 9FE1          CMP.B     @r15,6(SP)            ; [] |30| 
         00003c 0006 
     136 00003e 2003          JNE       $C$L4                 ; [] |30| 
     137                                                      ; [] |30| 
     138            ;* --------------------------------------------------------------------------*
     139 000040 93C1          TST.B     7(SP)                 ; [] |30| 
         000042 0007 
     140 000044 2404          JEQ       $C$L5                 ; [] |30| 
     141                                                      ; [] |30| 
     142            ;* --------------------------------------------------------------------------*
     143 000046       $C$L4:    
     144 000046 403D          MOV.W     #255,r13              ; [] |30| 
         000048 00FF 
     145 00004a 9F6D          CMP.B     @r15,r13              ; [] |30| 
     146 00004c 23E6          JNE       $C$L1                 ; [] |30| 
     147                                                      ; [] |30| 
     148            ;* --------------------------------------------------------------------------*
     149 00004e       $C$L5:    
MSP430 Assembler PC v21.6.1 Wed Nov 30 16:35:43 2022

Copyright (c) 2003-2018 Texas Instruments Incorporated
tlv.asm                                                              PAGE    4

     150                    .dwpsn  file "../driverlib/MSP430FR2xx_4xx/tlv.c",line 44,column 5,is_stmt,isa 0
     151 00004e 411F          MOV.W     4(SP),r15             ; [] |44| 
         000050 0004 
     152 000052 9FE1          CMP.B     @r15,6(SP)            ; [] |44| 
         000054 0006 
     153 000056 200B          JNE       $C$L6                 ; [] |44| 
     154                                                      ; [] |44| 
     155            ;* --------------------------------------------------------------------------*
     156                    .dwpsn  file "../driverlib/MSP430FR2xx_4xx/tlv.c",line 47,column 9,is_stmt,isa 0
     157 000058 4FDE          MOV.B     1(r15),0(r14)         ; [] |47| 
         00005a 0001 
         00005c 0000 
     158                    .dwpsn  file "../driverlib/MSP430FR2xx_4xx/tlv.c",line 49,column 9,is_stmt,isa 0
     159 00005e 432F          MOV.W     #2,r15                ; [] |49| 
     160 000060 511F          ADD.W     4(SP),r15             ; [] |49| 
         000062 0004 
     161 000064 411E          MOV.W     2(SP),r14             ; [] |49| 
         000066 0002 
     162 000068 4F8E          MOV.W     r15,0(r14)            ; [] |49| 
         00006a 0000 
     163 00006c 3C06          JMP       $C$L7                 ; [] 
     164                                                      ; [] 
     165            ;* --------------------------------------------------------------------------*
     166 00006e       $C$L6:    
     167                    .dwpsn  file "../driverlib/MSP430FR2xx_4xx/tlv.c",line 55,column 9,is_stmt,isa 0
     168 00006e 43CE          MOV.B     #0,0(r14)             ; [] |55| 
         000070 0000 
     169                    .dwpsn  file "../driverlib/MSP430FR2xx_4xx/tlv.c",line 57,column 9,is_stmt,isa 0
     170 000072 411F          MOV.W     2(SP),r15             ; [] |57| 
         000074 0002 
     171 000076 438F          MOV.W     #0,0(r15)             ; [] |57| 
         000078 0000 
     172                    .dwpsn  file "../driverlib/MSP430FR2xx_4xx/tlv.c",line 59,column 1,is_stmt,isa 0
     173            ;* --------------------------------------------------------------------------*
     174 00007a       $C$L7:    
     175 00007a 5231          ADD.W     #8,SP                 ; [] 
     176                    .dwcfi  cfa_offset, 4
     177            $C$DW$11        .dwtag  DW_TAG_TI_branch
     178                    .dwattr $C$DW$11, DW_AT_low_pc(0x00)
     179                    .dwattr $C$DW$11, DW_AT_TI_return
     180            
     181 00007c 0110          RETA      ; [] 
     182                    ; [] 
     183                    .dwattr $C$DW$1, DW_AT_TI_end_file("../driverlib/MSP430FR2xx_4xx/tlv.c")
     184                    .dwattr $C$DW$1, DW_AT_TI_end_line(0x3b)
     185                    .dwattr $C$DW$1, DW_AT_TI_end_column(0x01)
     186                    .dwendentry
     187                    .dwendtag $C$DW$1
     188            
     189 000000               .sect   ".text:TLV_getDeviceType"
     190                    .clink
     191                    .global TLV_getDeviceType
     192            
     193            $C$DW$12        .dwtag  DW_TAG_subprogram
     194                    .dwattr $C$DW$12, DW_AT_name("TLV_getDeviceType")
MSP430 Assembler PC v21.6.1 Wed Nov 30 16:35:43 2022

Copyright (c) 2003-2018 Texas Instruments Incorporated
tlv.asm                                                              PAGE    5

     195                    .dwattr $C$DW$12, DW_AT_low_pc(TLV_getDeviceType)
     196                    .dwattr $C$DW$12, DW_AT_high_pc(0x00)
     197                    .dwattr $C$DW$12, DW_AT_TI_symbol_name("TLV_getDeviceType")
     198                    .dwattr $C$DW$12, DW_AT_external
     199                    .dwattr $C$DW$12, DW_AT_type(*$C$DW$T$23)
     200                    .dwattr $C$DW$12, DW_AT_TI_begin_file("../driverlib/MSP430FR2xx_4xx/tlv.c")
     201                    .dwattr $C$DW$12, DW_AT_TI_begin_line(0x3d)
     202                    .dwattr $C$DW$12, DW_AT_TI_begin_column(0x0a)
     203                    .dwattr $C$DW$12, DW_AT_decl_file("../driverlib/MSP430FR2xx_4xx/tlv.c")
     204                    .dwattr $C$DW$12, DW_AT_decl_line(0x3d)
     205                    .dwattr $C$DW$12, DW_AT_decl_column(0x0a)
     206                    .dwattr $C$DW$12, DW_AT_TI_max_frame_size(0x06)
     207                    .dwpsn  file "../driverlib/MSP430FR2xx_4xx/tlv.c",line 62,column 1,is_stmt,address TLV_getDevi
     208            
     209                    .dwfde $C$DW$CIE, TLV_getDeviceType
     210            
     211            ;*****************************************************************************
     212            ;* FUNCTION NAME: TLV_getDeviceType                                          *
     213            ;*                                                                           *
     214            ;*   Regs Modified     : SP,SR,r12,r15                                       *
     215            ;*   Regs Used         : SP,SR,r12,r15                                       *
     216            ;*   Local Frame Size  : 0 Args + 2 Auto + 0 Save = 2 byte                   *
     217            ;*****************************************************************************
     218 000000       TLV_getDeviceType:
     219            ;* --------------------------------------------------------------------------*
     220                    .dwcfi  cfa_offset, 4
     221                    .dwcfi  save_reg_to_mem, 16, -4
     222 000000 8321          SUB.W     #2,SP                 ; [] 
     223                    .dwcfi  cfa_offset, 6
     224            $C$DW$13        .dwtag  DW_TAG_variable
     225                    .dwattr $C$DW$13, DW_AT_name("pDeviceType")
     226                    .dwattr $C$DW$13, DW_AT_TI_symbol_name("pDeviceType")
     227                    .dwattr $C$DW$13, DW_AT_type(*$C$DW$T$37)
     228                    .dwattr $C$DW$13, DW_AT_location[DW_OP_breg1 0]
     229            
     230                    .dwpsn  file "../driverlib/MSP430FR2xx_4xx/tlv.c",line 63,column 27,is_stmt,isa 0
     231 000002 40B1          MOV.W     #6660,0(SP)           ; [] |63| 
         000004 1A04 
         000006 0000 
     232                    .dwpsn  file "../driverlib/MSP430FR2xx_4xx/tlv.c",line 65,column 5,is_stmt,isa 0
     233 000008 412F          MOV.W     0(SP),r15             ; [] |65| 
     234 00000a 4F2C          MOV.W     @r15,r12              ; [] |65| 
     235                    .dwpsn  file "../driverlib/MSP430FR2xx_4xx/tlv.c",line 66,column 1,is_stmt,isa 0
     236 00000c 5321          ADD.W     #2,SP                 ; [] 
     237                    .dwcfi  cfa_offset, 4
     238            $C$DW$14        .dwtag  DW_TAG_TI_branch
     239                    .dwattr $C$DW$14, DW_AT_low_pc(0x00)
     240                    .dwattr $C$DW$14, DW_AT_TI_return
     241            
     242 00000e 0110          RETA      ; [] 
     243                    ; [] 
     244                    .dwattr $C$DW$12, DW_AT_TI_end_file("../driverlib/MSP430FR2xx_4xx/tlv.c")
     245                    .dwattr $C$DW$12, DW_AT_TI_end_line(0x42)
     246                    .dwattr $C$DW$12, DW_AT_TI_end_column(0x01)
     247                    .dwendentry
MSP430 Assembler PC v21.6.1 Wed Nov 30 16:35:43 2022

Copyright (c) 2003-2018 Texas Instruments Incorporated
tlv.asm                                                              PAGE    6

     248                    .dwendtag $C$DW$12
     249            
     250 000000               .sect   ".text:TLV_getMemory"
     251                    .clink
     252                    .global TLV_getMemory
     253            
     254            $C$DW$15        .dwtag  DW_TAG_subprogram
     255                    .dwattr $C$DW$15, DW_AT_name("TLV_getMemory")
     256                    .dwattr $C$DW$15, DW_AT_low_pc(TLV_getMemory)
     257                    .dwattr $C$DW$15, DW_AT_high_pc(0x00)
     258                    .dwattr $C$DW$15, DW_AT_TI_symbol_name("TLV_getMemory")
     259                    .dwattr $C$DW$15, DW_AT_external
     260                    .dwattr $C$DW$15, DW_AT_type(*$C$DW$T$23)
     261                    .dwattr $C$DW$15, DW_AT_TI_begin_file("../driverlib/MSP430FR2xx_4xx/tlv.c")
     262                    .dwattr $C$DW$15, DW_AT_TI_begin_line(0x44)
     263                    .dwattr $C$DW$15, DW_AT_TI_begin_column(0x0a)
     264                    .dwattr $C$DW$15, DW_AT_decl_file("../driverlib/MSP430FR2xx_4xx/tlv.c")
     265                    .dwattr $C$DW$15, DW_AT_decl_line(0x44)
     266                    .dwattr $C$DW$15, DW_AT_decl_column(0x0a)
     267                    .dwattr $C$DW$15, DW_AT_TI_max_frame_size(0x0a)
     268                    .dwpsn  file "../driverlib/MSP430FR2xx_4xx/tlv.c",line 69,column 1,is_stmt,address TLV_getMemo
     269            
     270                    .dwfde $C$DW$CIE, TLV_getMemory
     271            $C$DW$16        .dwtag  DW_TAG_formal_parameter
     272                    .dwattr $C$DW$16, DW_AT_name("instance")
     273                    .dwattr $C$DW$16, DW_AT_TI_symbol_name("instance")
     274                    .dwattr $C$DW$16, DW_AT_type(*$C$DW$T$35)
     275                    .dwattr $C$DW$16, DW_AT_location[DW_OP_reg12]
     276            
     277            
     278            ;*****************************************************************************
     279            ;* FUNCTION NAME: TLV_getMemory                                              *
     280            ;*                                                                           *
     281            ;*   Regs Modified     : SP,SR,r12,r13,r14,r15                               *
     282            ;*   Regs Used         : SP,SR,r12,r13,r14,r15                               *
     283            ;*   Local Frame Size  : 0 Args + 6 Auto + 0 Save = 6 byte                   *
     284            ;*****************************************************************************
     285 000000       TLV_getMemory:
     286            ;* --------------------------------------------------------------------------*
     287                    .dwcfi  cfa_offset, 4
     288                    .dwcfi  save_reg_to_mem, 16, -4
     289 000000 8031          SUB.W     #6,SP                 ; [] 
         000002 0006 
     290                    .dwcfi  cfa_offset, 10
     291            $C$DW$17        .dwtag  DW_TAG_variable
     292                    .dwattr $C$DW$17, DW_AT_name("pPDTAG")
     293                    .dwattr $C$DW$17, DW_AT_TI_symbol_name("pPDTAG")
     294                    .dwattr $C$DW$17, DW_AT_type(*$C$DW$T$36)
     295                    .dwattr $C$DW$17, DW_AT_location[DW_OP_breg1 0]
     296            
     297            $C$DW$18        .dwtag  DW_TAG_variable
     298                    .dwattr $C$DW$18, DW_AT_name("count")
     299                    .dwattr $C$DW$18, DW_AT_TI_symbol_name("count")
     300                    .dwattr $C$DW$18, DW_AT_type(*$C$DW$T$23)
     301                    .dwattr $C$DW$18, DW_AT_location[DW_OP_breg1 2]
MSP430 Assembler PC v21.6.1 Wed Nov 30 16:35:43 2022

Copyright (c) 2003-2018 Texas Instruments Incorporated
tlv.asm                                                              PAGE    7

     302            
     303            $C$DW$19        .dwtag  DW_TAG_variable
     304                    .dwattr $C$DW$19, DW_AT_name("instance")
     305                    .dwattr $C$DW$19, DW_AT_TI_symbol_name("instance")
     306                    .dwattr $C$DW$19, DW_AT_type(*$C$DW$T$35)
     307                    .dwattr $C$DW$19, DW_AT_location[DW_OP_breg1 4]
     308            
     309            $C$DW$20        .dwtag  DW_TAG_variable
     310                    .dwattr $C$DW$20, DW_AT_name("bPDTAG_bytes")
     311                    .dwattr $C$DW$20, DW_AT_TI_symbol_name("bPDTAG_bytes")
     312                    .dwattr $C$DW$20, DW_AT_type(*$C$DW$T$35)
     313                    .dwattr $C$DW$20, DW_AT_location[DW_OP_breg1 5]
     314            
     315 000004 4CC1          MOV.B     r12,4(SP)             ; [] |69| 
         000006 0004 
     316                    .dwpsn  file "../driverlib/MSP430FR2xx_4xx/tlv.c",line 75,column 5,is_stmt,isa 0
     317 000008 51D1          RLA.B     4(SP)                 ; [] |75| 
         00000a 0004 
         00000c 0004 
     318                    .dwpsn  file "../driverlib/MSP430FR2xx_4xx/tlv.c",line 79,column 5,is_stmt,isa 0
     319 00000e 436C          MOV.B     #2,r12                ; [] |79| 
     320 000010 434D          MOV.B     #0,r13                ; [] |79| 
     321 000012 01CE          MOVA      SP,r14                ; [] |79| 
     322 000014 503E          ADD.W     #5,r14                ; [] |79| 
         000016 0005 
     323 000018 01CF          MOVA      SP,r15                ; [] |79| 
     324            $C$DW$21        .dwtag  DW_TAG_TI_branch
     325                    .dwattr $C$DW$21, DW_AT_low_pc(0x00)
     326                    .dwattr $C$DW$21, DW_AT_name("TLV_getInfo")
     327                    .dwattr $C$DW$21, DW_AT_TI_call
     328            
     329 00001a 13B0!         CALLA     #TLV_getInfo          ; [] |79| 
         00001c 0000 
     330                                                      ; [] |79| 
     331                    .dwpsn  file "../driverlib/MSP430FR2xx_4xx/tlv.c",line 84,column 5,is_stmt,isa 0
     332 00001e 9381          TST.W     0(SP)                 ; [] |84| 
         000020 0000 
     333 000022 2428          JEQ       $C$L11                ; [] |84| 
     334                                                      ; [] |84| 
     335            ;* --------------------------------------------------------------------------*
     336                    .dwpsn  file "../driverlib/MSP430FR2xx_4xx/tlv.c",line 86,column 14,is_stmt,isa 0
     337 000024 4381          MOV.W     #0,2(SP)              ; [] |86| 
         000026 0002 
     338                    .dwpsn  file "../driverlib/MSP430FR2xx_4xx/tlv.c",line 86,column 25,is_stmt,isa 0
     339 000028 415F          MOV.B     4(SP),r15             ; [] |86| 
         00002a 0004 
     340 00002c 911F          CMP.W     2(SP),r15             ; [] |86| 
         00002e 0002 
     341 000030 2821          JLO       $C$L11                ; [] |86| 
     342                                                      ; [] |86| 
     343            ;* --------------------------------------------------------------------------*
     344            ;*   BEGIN LOOP $C$L8
     345            ;*
     346            ;*   Loop source line                : 86
     347            ;*   Loop closing brace source line  : 97
MSP430 Assembler PC v21.6.1 Wed Nov 30 16:35:43 2022

Copyright (c) 2003-2018 Texas Instruments Incorporated
tlv.asm                                                              PAGE    8

     348            ;*   Known Minimum Trip Count        : 1
     349            ;*   Known Maximum Trip Count        : 4294967295
     350            ;*   Known Max Trip Count Factor     : 1
     351            ;* --------------------------------------------------------------------------*
     352 000032       $C$L8:    
     353                    .dwpsn  file "../driverlib/MSP430FR2xx_4xx/tlv.c",line 88,column 13,is_stmt,isa 0
     354 000032 411F          MOV.W     2(SP),r15             ; [] |88| 
         000034 0002 
     355 000036 512F          ADD.W     0(SP),r15             ; [] |88| 
     356 000038 93CF          TST.B     0(r15)                ; [] |88| 
         00003a 0000 
     357 00003c 2002          JNE       $C$L9                 ; [] |88| 
     358                                                      ; [] |88| 
     359            ;* --------------------------------------------------------------------------*
     360                    .dwpsn  file "../driverlib/MSP430FR2xx_4xx/tlv.c",line 91,column 17,is_stmt,isa 0
     361 00003e 430C          MOV.W     #0,r12                ; [] |91| 
     362 000040 3C1A          JMP       $C$L12                ; [] |91| 
     363                                                      ; [] |91| 
     364            ;* --------------------------------------------------------------------------*
     365 000042       $C$L9:    
     366                    .dwpsn  file "../driverlib/MSP430FR2xx_4xx/tlv.c",line 93,column 13,is_stmt,isa 0
     367 000042 415F          MOV.B     4(SP),r15             ; [] |93| 
         000044 0004 
     368 000046 9F81          CMP.W     r15,2(SP)             ; [] |93| 
         000048 0002 
     369 00004a 200D          JNE       $C$L10                ; [] |93| 
     370                                                      ; [] |93| 
     371            ;* --------------------------------------------------------------------------*
     372                    .dwpsn  file "../driverlib/MSP430FR2xx_4xx/tlv.c",line 95,column 17,is_stmt,isa 0
     373 00004c 411F          MOV.W     2(SP),r15             ; [] |95| 
         00004e 0002 
     374 000050 512F          ADD.W     0(SP),r15             ; [] |95| 
     375 000052 4F6F          MOV.B     @r15,r15              ; [] |95| 
     376 000054 431E          MOV.W     #1,r14                ; [] |95| 
     377 000056 511E          ADD.W     2(SP),r14             ; [] |95| 
         000058 0002 
     378 00005a 512E          ADD.W     0(SP),r14             ; [] |95| 
     379 00005c 4E6C          MOV.B     @r14,r12              ; [] |95| 
     380 00005e 1847          RPT #8 || RLAX.W r12 ; [] |95| 
         000060 5C0C 
     381 000062 DF0C          OR.W      r15,r12               ; [] |95| 
     382 000064 3C08          JMP       $C$L12                ; [] |95| 
     383                                                      ; [] |95| 
     384            ;* --------------------------------------------------------------------------*
     385 000066       $C$L10:    
     386                    .dwpsn  file "../driverlib/MSP430FR2xx_4xx/tlv.c",line 86,column 44,is_stmt,isa 0
     387 000066 53A1          ADD.W     #2,2(SP)              ; [] |86| 
         000068 0002 
     388                    .dwpsn  file "../driverlib/MSP430FR2xx_4xx/tlv.c",line 86,column 25,is_stmt,isa 0
     389 00006a 415F          MOV.B     4(SP),r15             ; [] |86| 
         00006c 0004 
     390 00006e 911F          CMP.W     2(SP),r15             ; [] |86| 
         000070 0002 
     391 000072 2FDF          JHS       $C$L8                 ; [] |86| 
     392                                                      ; [] |86| 
MSP430 Assembler PC v21.6.1 Wed Nov 30 16:35:43 2022

Copyright (c) 2003-2018 Texas Instruments Incorporated
tlv.asm                                                              PAGE    9

     393            ;* --------------------------------------------------------------------------*
     394 000074       $C$L11:    
     395                    .dwpsn  file "../driverlib/MSP430FR2xx_4xx/tlv.c",line 101,column 5,is_stmt,isa 0
     396 000074 430C          MOV.W     #0,r12                ; [] |101| 
     397            ;* --------------------------------------------------------------------------*
     398 000076       $C$L12:    
     399                    .dwpsn  file "../driverlib/MSP430FR2xx_4xx/tlv.c",line 102,column 1,is_stmt,isa 0
     400 000076 5031          ADD.W     #6,SP                 ; [] 
         000078 0006 
     401                    .dwcfi  cfa_offset, 4
     402            $C$DW$22        .dwtag  DW_TAG_TI_branch
     403                    .dwattr $C$DW$22, DW_AT_low_pc(0x00)
     404                    .dwattr $C$DW$22, DW_AT_TI_return
     405            
     406 00007a 0110          RETA      ; [] 
     407                    ; [] 
     408                    .dwattr $C$DW$15, DW_AT_TI_end_file("../driverlib/MSP430FR2xx_4xx/tlv.c")
     409                    .dwattr $C$DW$15, DW_AT_TI_end_line(0x66)
     410                    .dwattr $C$DW$15, DW_AT_TI_end_column(0x01)
     411                    .dwendentry
     412                    .dwendtag $C$DW$15
     413            
     414 000000               .sect   ".text:TLV_getPeripheral"
     415                    .clink
     416                    .global TLV_getPeripheral
     417            
     418            $C$DW$23        .dwtag  DW_TAG_subprogram
     419                    .dwattr $C$DW$23, DW_AT_name("TLV_getPeripheral")
     420                    .dwattr $C$DW$23, DW_AT_low_pc(TLV_getPeripheral)
     421                    .dwattr $C$DW$23, DW_AT_high_pc(0x00)
     422                    .dwattr $C$DW$23, DW_AT_TI_symbol_name("TLV_getPeripheral")
     423                    .dwattr $C$DW$23, DW_AT_external
     424                    .dwattr $C$DW$23, DW_AT_type(*$C$DW$T$23)
     425                    .dwattr $C$DW$23, DW_AT_TI_begin_file("../driverlib/MSP430FR2xx_4xx/tlv.c")
     426                    .dwattr $C$DW$23, DW_AT_TI_begin_line(0x68)
     427                    .dwattr $C$DW$23, DW_AT_TI_begin_column(0x0a)
     428                    .dwattr $C$DW$23, DW_AT_decl_file("../driverlib/MSP430FR2xx_4xx/tlv.c")
     429                    .dwattr $C$DW$23, DW_AT_decl_line(0x68)
     430                    .dwattr $C$DW$23, DW_AT_decl_column(0x0a)
     431                    .dwattr $C$DW$23, DW_AT_TI_max_frame_size(0x0e)
     432                    .dwpsn  file "../driverlib/MSP430FR2xx_4xx/tlv.c",line 107,column 1,is_stmt,address TLV_getPer
     433            
     434                    .dwfde $C$DW$CIE, TLV_getPeripheral
     435            $C$DW$24        .dwtag  DW_TAG_formal_parameter
     436                    .dwattr $C$DW$24, DW_AT_name("tag")
     437                    .dwattr $C$DW$24, DW_AT_TI_symbol_name("tag")
     438                    .dwattr $C$DW$24, DW_AT_type(*$C$DW$T$35)
     439                    .dwattr $C$DW$24, DW_AT_location[DW_OP_reg12]
     440            
     441            $C$DW$25        .dwtag  DW_TAG_formal_parameter
     442                    .dwattr $C$DW$25, DW_AT_name("instance")
     443                    .dwattr $C$DW$25, DW_AT_TI_symbol_name("instance")
     444                    .dwattr $C$DW$25, DW_AT_type(*$C$DW$T$35)
     445                    .dwattr $C$DW$25, DW_AT_location[DW_OP_reg13]
     446            
MSP430 Assembler PC v21.6.1 Wed Nov 30 16:35:43 2022

Copyright (c) 2003-2018 Texas Instruments Incorporated
tlv.asm                                                              PAGE   10

     447            
     448            ;*****************************************************************************
     449            ;* FUNCTION NAME: TLV_getPeripheral                                          *
     450            ;*                                                                           *
     451            ;*   Regs Modified     : SP,SR,r12,r13,r14,r15                               *
     452            ;*   Regs Used         : SP,SR,r12,r13,r14,r15                               *
     453            ;*   Local Frame Size  : 0 Args + 10 Auto + 0 Save = 10 byte                 *
     454            ;*****************************************************************************
     455 000000       TLV_getPeripheral:
     456            ;* --------------------------------------------------------------------------*
     457                    .dwcfi  cfa_offset, 4
     458                    .dwcfi  save_reg_to_mem, 16, -4
     459 000000 8031          SUB.W     #10,SP                ; [] 
         000002 000A 
     460                    .dwcfi  cfa_offset, 14
     461            $C$DW$26        .dwtag  DW_TAG_variable
     462                    .dwattr $C$DW$26, DW_AT_name("pPDTAG")
     463                    .dwattr $C$DW$26, DW_AT_TI_symbol_name("pPDTAG")
     464                    .dwattr $C$DW$26, DW_AT_type(*$C$DW$T$36)
     465                    .dwattr $C$DW$26, DW_AT_location[DW_OP_breg1 0]
     466            
     467            $C$DW$27        .dwtag  DW_TAG_variable
     468                    .dwattr $C$DW$27, DW_AT_name("count")
     469                    .dwattr $C$DW$27, DW_AT_TI_symbol_name("count")
     470                    .dwattr $C$DW$27, DW_AT_type(*$C$DW$T$23)
     471                    .dwattr $C$DW$27, DW_AT_location[DW_OP_breg1 2]
     472            
     473            $C$DW$28        .dwtag  DW_TAG_variable
     474                    .dwattr $C$DW$28, DW_AT_name("pcount")
     475                    .dwattr $C$DW$28, DW_AT_TI_symbol_name("pcount")
     476                    .dwattr $C$DW$28, DW_AT_type(*$C$DW$T$23)
     477                    .dwattr $C$DW$28, DW_AT_location[DW_OP_breg1 4]
     478            
     479            $C$DW$29        .dwtag  DW_TAG_variable
     480                    .dwattr $C$DW$29, DW_AT_name("tag")
     481                    .dwattr $C$DW$29, DW_AT_TI_symbol_name("tag")
     482                    .dwattr $C$DW$29, DW_AT_type(*$C$DW$T$35)
     483                    .dwattr $C$DW$29, DW_AT_location[DW_OP_breg1 6]
     484            
     485            $C$DW$30        .dwtag  DW_TAG_variable
     486                    .dwattr $C$DW$30, DW_AT_name("instance")
     487                    .dwattr $C$DW$30, DW_AT_TI_symbol_name("instance")
     488                    .dwattr $C$DW$30, DW_AT_type(*$C$DW$T$35)
     489                    .dwattr $C$DW$30, DW_AT_location[DW_OP_breg1 7]
     490            
     491            $C$DW$31        .dwtag  DW_TAG_variable
     492                    .dwattr $C$DW$31, DW_AT_name("bPDTAG_bytes")
     493                    .dwattr $C$DW$31, DW_AT_TI_symbol_name("bPDTAG_bytes")
     494                    .dwattr $C$DW$31, DW_AT_type(*$C$DW$T$35)
     495                    .dwattr $C$DW$31, DW_AT_location[DW_OP_breg1 8]
     496            
     497 000004 4DC1          MOV.B     r13,7(SP)             ; [] |107| 
         000006 0007 
     498 000008 4CC1          MOV.B     r12,6(SP)             ; [] |107| 
         00000a 0006 
MSP430 Assembler PC v21.6.1 Wed Nov 30 16:35:43 2022

Copyright (c) 2003-2018 Texas Instruments Incorporated
tlv.asm                                                              PAGE   11

     499                    .dwpsn  file "../driverlib/MSP430FR2xx_4xx/tlv.c",line 110,column 20,is_stmt,isa 0
     500 00000c 4381          MOV.W     #0,2(SP)              ; [] |110| 
         00000e 0002 
     501                    .dwpsn  file "../driverlib/MSP430FR2xx_4xx/tlv.c",line 111,column 21,is_stmt,isa 0
     502 000010 4381          MOV.W     #0,4(SP)              ; [] |111| 
         000012 0004 
     503                    .dwpsn  file "../driverlib/MSP430FR2xx_4xx/tlv.c",line 114,column 5,is_stmt,isa 0
     504 000014 436C          MOV.B     #2,r12                ; [] |114| 
     505 000016 434D          MOV.B     #0,r13                ; [] |114| 
     506 000018 01CE          MOVA      SP,r14                ; [] |114| 
     507 00001a 523E          ADD.W     #8,r14                ; [] |114| 
     508 00001c 01CF          MOVA      SP,r15                ; [] |114| 
     509            $C$DW$32        .dwtag  DW_TAG_TI_branch
     510                    .dwattr $C$DW$32, DW_AT_low_pc(0x00)
     511                    .dwattr $C$DW$32, DW_AT_name("TLV_getInfo")
     512                    .dwattr $C$DW$32, DW_AT_TI_call
     513            
     514 00001e 13B0!         CALLA     #TLV_getInfo          ; [] |114| 
         000020 0000 
     515                                                      ; [] |114| 
     516                    .dwpsn  file "../driverlib/MSP430FR2xx_4xx/tlv.c",line 119,column 5,is_stmt,isa 0
     517 000022 9381          TST.W     0(SP)                 ; [] |119| 
         000024 0000 
     518 000026 2443          JEQ       $C$L18                ; [] |119| 
     519                                                      ; [] |119| 
     520            ;* --------------------------------------------------------------------------*
     521                    .dwpsn  file "../driverlib/MSP430FR2xx_4xx/tlv.c",line 122,column 9,is_stmt,isa 0
     522 000028 3C02          JMP       $C$L14                ; [] |122| 
     523                                                      ; [] |122| 
     524            ;* --------------------------------------------------------------------------*
     525 00002a       $C$L13:    
     526                    .dwpsn  file "../driverlib/MSP430FR2xx_4xx/tlv.c",line 124,column 13,is_stmt,isa 0
     527 00002a 5391          ADD.W     #1,2(SP)              ; [] |124| 
         00002c 0002 
     528            ;* --------------------------------------------------------------------------*
     529            ;*   BEGIN LOOP $C$L14
     530            ;* --------------------------------------------------------------------------*
     531 00002e       $C$L14:    
     532                    .dwpsn  file "../driverlib/MSP430FR2xx_4xx/tlv.c",line 125,column 9,is_stmt,isa 0
     533 00002e 415C          MOV.B     2(SP),r12             ; [] |125| 
         000030 0002 
     534            $C$DW$33        .dwtag  DW_TAG_TI_branch
     535                    .dwattr $C$DW$33, DW_AT_low_pc(0x00)
     536                    .dwattr $C$DW$33, DW_AT_name("TLV_getMemory")
     537                    .dwattr $C$DW$33, DW_AT_TI_call
     538            
     539 000032 13B0!         CALLA     #TLV_getMemory        ; [] |125| 
         000034 0000 
     540                                                      ; [] |125| 
     541 000036 930C          TST.W     r12                   ; [] |125| 
     542 000038 23F8          JNE       $C$L13                ; [] |125| 
     543                                                      ; [] |125| 
     544            ;* --------------------------------------------------------------------------*
     545                    .dwpsn  file "../driverlib/MSP430FR2xx_4xx/tlv.c",line 127,column 9,is_stmt,isa 0
     546 00003a 411F          MOV.W     2(SP),r15             ; [] |127| 
MSP430 Assembler PC v21.6.1 Wed Nov 30 16:35:43 2022

Copyright (c) 2003-2018 Texas Instruments Incorporated
tlv.asm                                                              PAGE   12

         00003c 0002 
     547 00003e 025F          RLAM.W    #1,r15                ; [] |127| 
     548 000040 531F          ADD.W     #1,r15                ; [] |127| 
     549 000042 512F          ADD.W     0(SP),r15             ; [] |127| 
     550 000044 4F6F          MOV.B     @r15,r15              ; [] |127| 
     551 000046 4F81          MOV.W     r15,4(SP)             ; [] |127| 
         000048 0004 
     552                    .dwpsn  file "../driverlib/MSP430FR2xx_4xx/tlv.c",line 129,column 9,is_stmt,isa 0
     553 00004a 5391          ADD.W     #1,2(SP)              ; [] |129| 
         00004c 0002 
     554                    .dwpsn  file "../driverlib/MSP430FR2xx_4xx/tlv.c",line 131,column 9,is_stmt,isa 0
     555 00004e 411F          MOV.W     2(SP),r15             ; [] |131| 
         000050 0002 
     556 000052 025F          RLAM.W    #1,r15                ; [] |131| 
     557 000054 5F81          ADD.W     r15,0(SP)             ; [] |131| 
         000056 0000 
     558                    .dwpsn  file "../driverlib/MSP430FR2xx_4xx/tlv.c",line 133,column 9,is_stmt,isa 0
     559 000058 4381          MOV.W     #0,2(SP)              ; [] |133| 
         00005a 0002 
     560                    .dwpsn  file "../driverlib/MSP430FR2xx_4xx/tlv.c",line 135,column 9,is_stmt,isa 0
     561 00005c 5191          RLA.W     4(SP)                 ; [] |135| 
         00005e 0004 
         000060 0004 
     562                    .dwpsn  file "../driverlib/MSP430FR2xx_4xx/tlv.c",line 138,column 14,is_stmt,isa 0
     563 000062 4381          MOV.W     #0,2(SP)              ; [] |138| 
         000064 0002 
     564                    .dwpsn  file "../driverlib/MSP430FR2xx_4xx/tlv.c",line 138,column 25,is_stmt,isa 0
     565 000066 9191          CMP.W     2(SP),4(SP)           ; [] |138| 
         000068 0002 
         00006a 0004 
     566 00006c 2820          JLO       $C$L18                ; [] |138| 
     567                                                      ; [] |138| 
     568            ;* --------------------------------------------------------------------------*
     569            ;*   BEGIN LOOP $C$L15
     570            ;*
     571            ;*   Loop source line                : 138
     572            ;*   Loop closing brace source line  : 154
     573            ;*   Known Minimum Trip Count        : 1
     574            ;*   Known Maximum Trip Count        : 4294967295
     575            ;*   Known Max Trip Count Factor     : 1
     576            ;* --------------------------------------------------------------------------*
     577 00006e       $C$L15:    
     578                    .dwpsn  file "../driverlib/MSP430FR2xx_4xx/tlv.c",line 140,column 13,is_stmt,isa 0
     579 00006e 431F          MOV.W     #1,r15                ; [] |140| 
     580 000070 511F          ADD.W     2(SP),r15             ; [] |140| 
         000072 0002 
     581 000074 512F          ADD.W     0(SP),r15             ; [] |140| 
     582 000076 9FE1          CMP.B     @r15,6(SP)            ; [] |140| 
         000078 0006 
     583 00007a 2013          JNE       $C$L17                ; [] |140| 
     584                                                      ; [] |140| 
     585            ;* --------------------------------------------------------------------------*
     586                    .dwpsn  file "../driverlib/MSP430FR2xx_4xx/tlv.c",line 143,column 17,is_stmt,isa 0
     587 00007c 93D1          CMP.B     #1,7(SP)              ; [] |143| 
         00007e 0007 
MSP430 Assembler PC v21.6.1 Wed Nov 30 16:35:43 2022

Copyright (c) 2003-2018 Texas Instruments Incorporated
tlv.asm                                                              PAGE   13

     588 000080 2803          JLO       $C$L16                ; [] |143| 
     589                                                      ; [] |143| 
     590            ;* --------------------------------------------------------------------------*
     591                    .dwpsn  file "../driverlib/MSP430FR2xx_4xx/tlv.c",line 146,column 21,is_stmt,isa 0
     592 000082 83D1          SUB.B     #1,7(SP)              ; [] |146| 
         000084 0007 
     593 000086 3C0D          JMP       $C$L17                ; [] 
     594                                                      ; [] 
     595            ;* --------------------------------------------------------------------------*
     596 000088       $C$L16:    
     597                    .dwpsn  file "../driverlib/MSP430FR2xx_4xx/tlv.c",line 151,column 21,is_stmt,isa 0
     598 000088 411F          MOV.W     2(SP),r15             ; [] |151| 
         00008a 0002 
     599 00008c 512F          ADD.W     0(SP),r15             ; [] |151| 
     600 00008e 4F6F          MOV.B     @r15,r15              ; [] |151| 
     601 000090 431E          MOV.W     #1,r14                ; [] |151| 
     602 000092 511E          ADD.W     2(SP),r14             ; [] |151| 
         000094 0002 
     603 000096 512E          ADD.W     0(SP),r14             ; [] |151| 
     604 000098 4E6C          MOV.B     @r14,r12              ; [] |151| 
     605 00009a 1847          RPT #8 || RLAX.W r12 ; [] |151| 
         00009c 5C0C 
     606 00009e DF0C          OR.W      r15,r12               ; [] |151| 
     607 0000a0 3C07          JMP       $C$L19                ; [] |151| 
     608                                                      ; [] |151| 
     609            ;* --------------------------------------------------------------------------*
     610 0000a2       $C$L17:    
     611                    .dwpsn  file "../driverlib/MSP430FR2xx_4xx/tlv.c",line 138,column 42,is_stmt,isa 0
     612 0000a2 53A1          ADD.W     #2,2(SP)              ; [] |138| 
         0000a4 0002 
     613                    .dwpsn  file "../driverlib/MSP430FR2xx_4xx/tlv.c",line 138,column 25,is_stmt,isa 0
     614 0000a6 9191          CMP.W     2(SP),4(SP)           ; [] |138| 
         0000a8 0002 
         0000aa 0004 
     615 0000ac 2FE0          JHS       $C$L15                ; [] |138| 
     616                                                      ; [] |138| 
     617            ;* --------------------------------------------------------------------------*
     618 0000ae       $C$L18:    
     619                    .dwpsn  file "../driverlib/MSP430FR2xx_4xx/tlv.c",line 158,column 5,is_stmt,isa 0
     620 0000ae 430C          MOV.W     #0,r12                ; [] |158| 
     621            ;* --------------------------------------------------------------------------*
     622 0000b0       $C$L19:    
     623                    .dwpsn  file "../driverlib/MSP430FR2xx_4xx/tlv.c",line 159,column 1,is_stmt,isa 0
     624 0000b0 5031          ADD.W     #10,SP                ; [] 
         0000b2 000A 
     625                    .dwcfi  cfa_offset, 4
     626            $C$DW$34        .dwtag  DW_TAG_TI_branch
     627                    .dwattr $C$DW$34, DW_AT_low_pc(0x00)
     628                    .dwattr $C$DW$34, DW_AT_TI_return
     629            
     630 0000b4 0110          RETA      ; [] 
     631                    ; [] 
     632                    .dwattr $C$DW$23, DW_AT_TI_end_file("../driverlib/MSP430FR2xx_4xx/tlv.c")
     633                    .dwattr $C$DW$23, DW_AT_TI_end_line(0x9f)
     634                    .dwattr $C$DW$23, DW_AT_TI_end_column(0x01)
MSP430 Assembler PC v21.6.1 Wed Nov 30 16:35:43 2022

Copyright (c) 2003-2018 Texas Instruments Incorporated
tlv.asm                                                              PAGE   14

     635                    .dwendentry
     636                    .dwendtag $C$DW$23
     637            
     638 000000               .sect   ".text:TLV_getInterrupt"
     639                    .clink
     640                    .global TLV_getInterrupt
     641            
     642            $C$DW$35        .dwtag  DW_TAG_subprogram
     643                    .dwattr $C$DW$35, DW_AT_name("TLV_getInterrupt")
     644                    .dwattr $C$DW$35, DW_AT_low_pc(TLV_getInterrupt)
     645                    .dwattr $C$DW$35, DW_AT_high_pc(0x00)
     646                    .dwattr $C$DW$35, DW_AT_TI_symbol_name("TLV_getInterrupt")
     647                    .dwattr $C$DW$35, DW_AT_external
     648                    .dwattr $C$DW$35, DW_AT_type(*$C$DW$T$35)
     649                    .dwattr $C$DW$35, DW_AT_TI_begin_file("../driverlib/MSP430FR2xx_4xx/tlv.c")
     650                    .dwattr $C$DW$35, DW_AT_TI_begin_line(0xa1)
     651                    .dwattr $C$DW$35, DW_AT_TI_begin_column(0x09)
     652                    .dwattr $C$DW$35, DW_AT_decl_file("../driverlib/MSP430FR2xx_4xx/tlv.c")
     653                    .dwattr $C$DW$35, DW_AT_decl_line(0xa1)
     654                    .dwattr $C$DW$35, DW_AT_decl_column(0x09)
     655                    .dwattr $C$DW$35, DW_AT_TI_max_frame_size(0x0c)
     656                    .dwpsn  file "../driverlib/MSP430FR2xx_4xx/tlv.c",line 162,column 1,is_stmt,address TLV_getInt
     657            
     658                    .dwfde $C$DW$CIE, TLV_getInterrupt
     659            $C$DW$36        .dwtag  DW_TAG_formal_parameter
     660                    .dwattr $C$DW$36, DW_AT_name("tag")
     661                    .dwattr $C$DW$36, DW_AT_TI_symbol_name("tag")
     662                    .dwattr $C$DW$36, DW_AT_type(*$C$DW$T$35)
     663                    .dwattr $C$DW$36, DW_AT_location[DW_OP_reg12]
     664            
     665            
     666            ;*****************************************************************************
     667            ;* FUNCTION NAME: TLV_getInterrupt                                           *
     668            ;*                                                                           *
     669            ;*   Regs Modified     : SP,SR,r12,r13,r14,r15                               *
     670            ;*   Regs Used         : SP,SR,r12,r13,r14,r15                               *
     671            ;*   Local Frame Size  : 0 Args + 8 Auto + 0 Save = 8 byte                   *
     672            ;*****************************************************************************
     673 000000       TLV_getInterrupt:
     674            ;* --------------------------------------------------------------------------*
     675                    .dwcfi  cfa_offset, 4
     676                    .dwcfi  save_reg_to_mem, 16, -4
     677 000000 8231          SUB.W     #8,SP                 ; [] 
     678                    .dwcfi  cfa_offset, 12
     679            $C$DW$37        .dwtag  DW_TAG_variable
     680                    .dwattr $C$DW$37, DW_AT_name("pPDTAG")
     681                    .dwattr $C$DW$37, DW_AT_TI_symbol_name("pPDTAG")
     682                    .dwattr $C$DW$37, DW_AT_type(*$C$DW$T$36)
     683                    .dwattr $C$DW$37, DW_AT_location[DW_OP_breg1 0]
     684            
     685            $C$DW$38        .dwtag  DW_TAG_variable
     686                    .dwattr $C$DW$38, DW_AT_name("count")
     687                    .dwattr $C$DW$38, DW_AT_TI_symbol_name("count")
     688                    .dwattr $C$DW$38, DW_AT_type(*$C$DW$T$23)
     689                    .dwattr $C$DW$38, DW_AT_location[DW_OP_breg1 2]
MSP430 Assembler PC v21.6.1 Wed Nov 30 16:35:43 2022

Copyright (c) 2003-2018 Texas Instruments Incorporated
tlv.asm                                                              PAGE   15

     690            
     691            $C$DW$39        .dwtag  DW_TAG_variable
     692                    .dwattr $C$DW$39, DW_AT_name("pcount")
     693                    .dwattr $C$DW$39, DW_AT_TI_symbol_name("pcount")
     694                    .dwattr $C$DW$39, DW_AT_type(*$C$DW$T$23)
     695                    .dwattr $C$DW$39, DW_AT_location[DW_OP_breg1 4]
     696            
     697            $C$DW$40        .dwtag  DW_TAG_variable
     698                    .dwattr $C$DW$40, DW_AT_name("tag")
     699                    .dwattr $C$DW$40, DW_AT_TI_symbol_name("tag")
     700                    .dwattr $C$DW$40, DW_AT_type(*$C$DW$T$35)
     701                    .dwattr $C$DW$40, DW_AT_location[DW_OP_breg1 6]
     702            
     703            $C$DW$41        .dwtag  DW_TAG_variable
     704                    .dwattr $C$DW$41, DW_AT_name("bPDTAG_bytes")
     705                    .dwattr $C$DW$41, DW_AT_TI_symbol_name("bPDTAG_bytes")
     706                    .dwattr $C$DW$41, DW_AT_type(*$C$DW$T$35)
     707                    .dwattr $C$DW$41, DW_AT_location[DW_OP_breg1 7]
     708            
     709 000002 4CC1          MOV.B     r12,6(SP)             ; [] |162| 
         000004 0006 
     710                    .dwpsn  file "../driverlib/MSP430FR2xx_4xx/tlv.c",line 165,column 20,is_stmt,isa 0
     711 000006 4381          MOV.W     #0,2(SP)              ; [] |165| 
         000008 0002 
     712                    .dwpsn  file "../driverlib/MSP430FR2xx_4xx/tlv.c",line 166,column 21,is_stmt,isa 0
     713 00000a 4381          MOV.W     #0,4(SP)              ; [] |166| 
         00000c 0004 
     714                    .dwpsn  file "../driverlib/MSP430FR2xx_4xx/tlv.c",line 169,column 5,is_stmt,isa 0
     715 00000e 436C          MOV.B     #2,r12                ; [] |169| 
     716 000010 434D          MOV.B     #0,r13                ; [] |169| 
     717 000012 01CE          MOVA      SP,r14                ; [] |169| 
     718 000014 503E          ADD.W     #7,r14                ; [] |169| 
         000016 0007 
     719 000018 01CF          MOVA      SP,r15                ; [] |169| 
     720            $C$DW$42        .dwtag  DW_TAG_TI_branch
     721                    .dwattr $C$DW$42, DW_AT_low_pc(0x00)
     722                    .dwattr $C$DW$42, DW_AT_name("TLV_getInfo")
     723                    .dwattr $C$DW$42, DW_AT_TI_call
     724            
     725 00001a 13B0!         CALLA     #TLV_getInfo          ; [] |169| 
         00001c 0000 
     726                                                      ; [] |169| 
     727                    .dwpsn  file "../driverlib/MSP430FR2xx_4xx/tlv.c",line 174,column 5,is_stmt,isa 0
     728 00001e 9381          TST.W     0(SP)                 ; [] |174| 
         000020 0000 
     729 000022 243C          JEQ       $C$L25                ; [] |174| 
     730                                                      ; [] |174| 
     731            ;* --------------------------------------------------------------------------*
     732                    .dwpsn  file "../driverlib/MSP430FR2xx_4xx/tlv.c",line 177,column 9,is_stmt,isa 0
     733 000024 3C02          JMP       $C$L21                ; [] |177| 
     734                                                      ; [] |177| 
     735            ;* --------------------------------------------------------------------------*
     736 000026       $C$L20:    
     737                    .dwpsn  file "../driverlib/MSP430FR2xx_4xx/tlv.c",line 179,column 13,is_stmt,isa 0
     738 000026 5391          ADD.W     #1,2(SP)              ; [] |179| 
MSP430 Assembler PC v21.6.1 Wed Nov 30 16:35:43 2022

Copyright (c) 2003-2018 Texas Instruments Incorporated
tlv.asm                                                              PAGE   16

         000028 0002 
     739            ;* --------------------------------------------------------------------------*
     740            ;*   BEGIN LOOP $C$L21
     741            ;* --------------------------------------------------------------------------*
     742 00002a       $C$L21:    
     743                    .dwpsn  file "../driverlib/MSP430FR2xx_4xx/tlv.c",line 180,column 9,is_stmt,isa 0
     744 00002a 415C          MOV.B     2(SP),r12             ; [] |180| 
         00002c 0002 
     745            $C$DW$43        .dwtag  DW_TAG_TI_branch
     746                    .dwattr $C$DW$43, DW_AT_low_pc(0x00)
     747                    .dwattr $C$DW$43, DW_AT_name("TLV_getMemory")
     748                    .dwattr $C$DW$43, DW_AT_TI_call
     749            
     750 00002e 13B0!         CALLA     #TLV_getMemory        ; [] |180| 
         000030 0000 
     751                                                      ; [] |180| 
     752 000032 930C          TST.W     r12                   ; [] |180| 
     753 000034 23F8          JNE       $C$L20                ; [] |180| 
     754                                                      ; [] |180| 
     755            ;* --------------------------------------------------------------------------*
     756                    .dwpsn  file "../driverlib/MSP430FR2xx_4xx/tlv.c",line 182,column 9,is_stmt,isa 0
     757 000036 411F          MOV.W     2(SP),r15             ; [] |182| 
         000038 0002 
     758 00003a 025F          RLAM.W    #1,r15                ; [] |182| 
     759 00003c 531F          ADD.W     #1,r15                ; [] |182| 
     760 00003e 512F          ADD.W     0(SP),r15             ; [] |182| 
     761 000040 4F6F          MOV.B     @r15,r15              ; [] |182| 
     762 000042 4F81          MOV.W     r15,4(SP)             ; [] |182| 
         000044 0004 
     763                    .dwpsn  file "../driverlib/MSP430FR2xx_4xx/tlv.c",line 184,column 9,is_stmt,isa 0
     764 000046 5391          ADD.W     #1,2(SP)              ; [] |184| 
         000048 0002 
     765                    .dwpsn  file "../driverlib/MSP430FR2xx_4xx/tlv.c",line 186,column 9,is_stmt,isa 0
     766 00004a 411F          MOV.W     2(SP),r15             ; [] |186| 
         00004c 0002 
     767 00004e 511F          ADD.W     4(SP),r15             ; [] |186| 
         000050 0004 
     768 000052 025F          RLAM.W    #1,r15                ; [] |186| 
     769 000054 5F81          ADD.W     r15,0(SP)             ; [] |186| 
         000056 0000 
     770                    .dwpsn  file "../driverlib/MSP430FR2xx_4xx/tlv.c",line 188,column 9,is_stmt,isa 0
     771 000058 4381          MOV.W     #0,2(SP)              ; [] |188| 
         00005a 0002 
     772                    .dwpsn  file "../driverlib/MSP430FR2xx_4xx/tlv.c",line 191,column 14,is_stmt,isa 0
     773 00005c 4381          MOV.W     #0,2(SP)              ; [] |191| 
         00005e 0002 
     774                    .dwpsn  file "../driverlib/MSP430FR2xx_4xx/tlv.c",line 191,column 25,is_stmt,isa 0
     775 000060 415F          MOV.B     6(SP),r15             ; [] |191| 
         000062 0006 
     776 000064 911F          CMP.W     2(SP),r15             ; [] |191| 
         000066 0002 
     777 000068 2819          JLO       $C$L25                ; [] |191| 
     778                                                      ; [] |191| 
     779            ;* --------------------------------------------------------------------------*
     780            ;*   BEGIN LOOP $C$L22
MSP430 Assembler PC v21.6.1 Wed Nov 30 16:35:43 2022

Copyright (c) 2003-2018 Texas Instruments Incorporated
tlv.asm                                                              PAGE   17

     781            ;*
     782            ;*   Loop source line                : 191
     783            ;*   Loop closing brace source line  : 203
     784            ;*   Known Minimum Trip Count        : 1
     785            ;*   Known Maximum Trip Count        : 4294967295
     786            ;*   Known Max Trip Count Factor     : 1
     787            ;* --------------------------------------------------------------------------*
     788 00006a       $C$L22:    
     789                    .dwpsn  file "../driverlib/MSP430FR2xx_4xx/tlv.c",line 193,column 13,is_stmt,isa 0
     790 00006a 411F          MOV.W     2(SP),r15             ; [] |193| 
         00006c 0002 
     791 00006e 512F          ADD.W     0(SP),r15             ; [] |193| 
     792 000070 93CF          TST.B     0(r15)                ; [] |193| 
         000072 0000 
     793 000074 2002          JNE       $C$L23                ; [] |193| 
     794                                                      ; [] |193| 
     795            ;* --------------------------------------------------------------------------*
     796                    .dwpsn  file "../driverlib/MSP430FR2xx_4xx/tlv.c",line 196,column 17,is_stmt,isa 0
     797 000076 434C          MOV.B     #0,r12                ; [] |196| 
     798 000078 3C12          JMP       $C$L26                ; [] |196| 
     799                                                      ; [] |196| 
     800            ;* --------------------------------------------------------------------------*
     801 00007a       $C$L23:    
     802                    .dwpsn  file "../driverlib/MSP430FR2xx_4xx/tlv.c",line 198,column 13,is_stmt,isa 0
     803 00007a 415F          MOV.B     6(SP),r15             ; [] |198| 
         00007c 0006 
     804 00007e 9F81          CMP.W     r15,2(SP)             ; [] |198| 
         000080 0002 
     805 000082 2005          JNE       $C$L24                ; [] |198| 
     806                                                      ; [] |198| 
     807            ;* --------------------------------------------------------------------------*
     808                    .dwpsn  file "../driverlib/MSP430FR2xx_4xx/tlv.c",line 201,column 17,is_stmt,isa 0
     809 000084 411F          MOV.W     2(SP),r15             ; [] |201| 
         000086 0002 
     810 000088 512F          ADD.W     0(SP),r15             ; [] |201| 
     811 00008a 4F6C          MOV.B     @r15,r12              ; [] |201| 
     812 00008c 3C08          JMP       $C$L26                ; [] |201| 
     813                                                      ; [] |201| 
     814            ;* --------------------------------------------------------------------------*
     815 00008e       $C$L24:    
     816                    .dwpsn  file "../driverlib/MSP430FR2xx_4xx/tlv.c",line 191,column 39,is_stmt,isa 0
     817 00008e 53A1          ADD.W     #2,2(SP)              ; [] |191| 
         000090 0002 
     818                    .dwpsn  file "../driverlib/MSP430FR2xx_4xx/tlv.c",line 191,column 25,is_stmt,isa 0
     819 000092 415F          MOV.B     6(SP),r15             ; [] |191| 
         000094 0006 
     820 000096 911F          CMP.W     2(SP),r15             ; [] |191| 
         000098 0002 
     821 00009a 2FE7          JHS       $C$L22                ; [] |191| 
     822                                                      ; [] |191| 
     823            ;* --------------------------------------------------------------------------*
     824 00009c       $C$L25:    
     825                    .dwpsn  file "../driverlib/MSP430FR2xx_4xx/tlv.c",line 207,column 5,is_stmt,isa 0
     826 00009c 434C          MOV.B     #0,r12                ; [] |207| 
     827            ;* --------------------------------------------------------------------------*
MSP430 Assembler PC v21.6.1 Wed Nov 30 16:35:43 2022

Copyright (c) 2003-2018 Texas Instruments Incorporated
tlv.asm                                                              PAGE   18

     828 00009e       $C$L26:    
     829                    .dwpsn  file "../driverlib/MSP430FR2xx_4xx/tlv.c",line 208,column 1,is_stmt,isa 0
     830 00009e 5231          ADD.W     #8,SP                 ; [] 
     831                    .dwcfi  cfa_offset, 4
     832            $C$DW$44        .dwtag  DW_TAG_TI_branch
     833                    .dwattr $C$DW$44, DW_AT_low_pc(0x00)
     834                    .dwattr $C$DW$44, DW_AT_TI_return
     835            
     836 0000a0 0110          RETA      ; [] 
     837                    ; [] 
     838                    .dwattr $C$DW$35, DW_AT_TI_end_file("../driverlib/MSP430FR2xx_4xx/tlv.c")
     839                    .dwattr $C$DW$35, DW_AT_TI_end_line(0xd0)
     840                    .dwattr $C$DW$35, DW_AT_TI_end_column(0x01)
     841                    .dwendentry
     842                    .dwendtag $C$DW$35
     843            
     844            
     845            ;******************************************************************************
     846            ;* BUILD ATTRIBUTES                                                           *
     847            ;******************************************************************************
     848                    .battr "TI", Tag_File, 1, Tag_LOCKIO_INFO(1)
     849                    .battr "TI", Tag_File, 1, Tag_WAITSTATE_INFO(2)
     850                    .battr "TI", Tag_File, 1, Tag_HW_MPY_ISR_INFO(1)
     851                    .battr "TI", Tag_File, 1, Tag_HW_MPY_INLINE_INFO(1)
     852                    .battr "mspabi", Tag_File, 1, Tag_enum_size(3)
     853            
     854            ;******************************************************************************
     855            ;* TYPE INFORMATION                                                           *
     856            ;******************************************************************************
     857            
     858            $C$DW$T$21      .dwtag  DW_TAG_structure_type
     859                    .dwattr $C$DW$T$21, DW_AT_byte_size(0x10)
     860            $C$DW$45        .dwtag  DW_TAG_member
     861                    .dwattr $C$DW$45, DW_AT_type(*$C$DW$T$14)
     862                    .dwattr $C$DW$45, DW_AT_name("__max_align1")
     863                    .dwattr $C$DW$45, DW_AT_TI_symbol_name("__max_align1")
     864                    .dwattr $C$DW$45, DW_AT_data_member_location[DW_OP_plus_uconst 0x0]
     865                    .dwattr $C$DW$45, DW_AT_accessibility(DW_ACCESS_public)
     866                    .dwattr $C$DW$45, DW_AT_decl_file("C:/ti/ccs1110/ccs/tools/compiler/ti-cgt-msp430_21.6.1.LTS/i
     867                    .dwattr $C$DW$45, DW_AT_decl_line(0x7b)
     868                    .dwattr $C$DW$45, DW_AT_decl_column(0x0c)
     869            
     870            $C$DW$46        .dwtag  DW_TAG_member
     871                    .dwattr $C$DW$46, DW_AT_type(*$C$DW$T$18)
     872                    .dwattr $C$DW$46, DW_AT_name("__max_align2")
     873                    .dwattr $C$DW$46, DW_AT_TI_symbol_name("__max_align2")
     874                    .dwattr $C$DW$46, DW_AT_data_member_location[DW_OP_plus_uconst 0x8]
     875                    .dwattr $C$DW$46, DW_AT_accessibility(DW_ACCESS_public)
     876                    .dwattr $C$DW$46, DW_AT_decl_file("C:/ti/ccs1110/ccs/tools/compiler/ti-cgt-msp430_21.6.1.LTS/i
     877                    .dwattr $C$DW$46, DW_AT_decl_line(0x7c)
     878                    .dwattr $C$DW$46, DW_AT_decl_column(0x0e)
     879            
     880                    .dwattr $C$DW$T$21, DW_AT_decl_file("C:/ti/ccs1110/ccs/tools/compiler/ti-cgt-msp430_21.6.1.LTS
     881                    .dwattr $C$DW$T$21, DW_AT_decl_line(0x7a)
     882                    .dwattr $C$DW$T$21, DW_AT_decl_column(0x10)
MSP430 Assembler PC v21.6.1 Wed Nov 30 16:35:43 2022

Copyright (c) 2003-2018 Texas Instruments Incorporated
tlv.asm                                                              PAGE   19

     883                    .dwendtag $C$DW$T$21
     884            
     885            $C$DW$T$33      .dwtag  DW_TAG_typedef
     886                    .dwattr $C$DW$T$33, DW_AT_name("__max_align_t")
     887                    .dwattr $C$DW$T$33, DW_AT_type(*$C$DW$T$21)
     888                    .dwattr $C$DW$T$33, DW_AT_language(DW_LANG_C)
     889                    .dwattr $C$DW$T$33, DW_AT_decl_file("C:/ti/ccs1110/ccs/tools/compiler/ti-cgt-msp430_21.6.1.LTS
     890                    .dwattr $C$DW$T$33, DW_AT_decl_line(0x7d)
     891                    .dwattr $C$DW$T$33, DW_AT_decl_column(0x03)
     892            
     893            $C$DW$T$2       .dwtag  DW_TAG_unspecified_type
     894                    .dwattr $C$DW$T$2, DW_AT_name("void")
     895            
     896            
     897            $C$DW$T$41      .dwtag  DW_TAG_subroutine_type
     898                    .dwattr $C$DW$T$41, DW_AT_language(DW_LANG_C)
     899                    .dwendtag $C$DW$T$41
     900            
     901            $C$DW$T$42      .dwtag  DW_TAG_pointer_type
     902                    .dwattr $C$DW$T$42, DW_AT_type(*$C$DW$T$41)
     903                    .dwattr $C$DW$T$42, DW_AT_address_class(0x14)
     904            
     905            $C$DW$T$43      .dwtag  DW_TAG_typedef
     906                    .dwattr $C$DW$T$43, DW_AT_name("__SFR_FARPTR")
     907                    .dwattr $C$DW$T$43, DW_AT_type(*$C$DW$T$42)
     908                    .dwattr $C$DW$T$43, DW_AT_language(DW_LANG_C)
     909                    .dwattr $C$DW$T$43, DW_AT_decl_file("C:\ti\ccs1110\ccs\ccs_base\msp430\include\msp430fr4133.h"
     910                    .dwattr $C$DW$T$43, DW_AT_decl_line(0x46)
     911                    .dwattr $C$DW$T$43, DW_AT_decl_column(0x11)
     912            
     913            $C$DW$T$4       .dwtag  DW_TAG_base_type
     914                    .dwattr $C$DW$T$4, DW_AT_encoding(DW_ATE_boolean)
     915                    .dwattr $C$DW$T$4, DW_AT_name("bool")
     916                    .dwattr $C$DW$T$4, DW_AT_byte_size(0x01)
     917            
     918            $C$DW$T$5       .dwtag  DW_TAG_base_type
     919                    .dwattr $C$DW$T$5, DW_AT_encoding(DW_ATE_signed_char)
     920                    .dwattr $C$DW$T$5, DW_AT_name("signed char")
     921                    .dwattr $C$DW$T$5, DW_AT_byte_size(0x01)
     922            
     923            $C$DW$T$44      .dwtag  DW_TAG_typedef
     924                    .dwattr $C$DW$T$44, DW_AT_name("__int8_t")
     925                    .dwattr $C$DW$T$44, DW_AT_type(*$C$DW$T$5)
     926                    .dwattr $C$DW$T$44, DW_AT_language(DW_LANG_C)
     927                    .dwattr $C$DW$T$44, DW_AT_decl_file("C:/ti/ccs1110/ccs/tools/compiler/ti-cgt-msp430_21.6.1.LTS
     928                    .dwattr $C$DW$T$44, DW_AT_decl_line(0x36)
     929                    .dwattr $C$DW$T$44, DW_AT_decl_column(0x16)
     930            
     931            $C$DW$T$45      .dwtag  DW_TAG_typedef
     932                    .dwattr $C$DW$T$45, DW_AT_name("__int_least8_t")
     933                    .dwattr $C$DW$T$45, DW_AT_type(*$C$DW$T$44)
     934                    .dwattr $C$DW$T$45, DW_AT_language(DW_LANG_C)
     935                    .dwattr $C$DW$T$45, DW_AT_decl_file("C:/ti/ccs1110/ccs/tools/compiler/ti-cgt-msp430_21.6.1.LTS
     936                    .dwattr $C$DW$T$45, DW_AT_decl_line(0x5a)
     937                    .dwattr $C$DW$T$45, DW_AT_decl_column(0x12)
MSP430 Assembler PC v21.6.1 Wed Nov 30 16:35:43 2022

Copyright (c) 2003-2018 Texas Instruments Incorporated
tlv.asm                                                              PAGE   20

     938            
     939            $C$DW$T$46      .dwtag  DW_TAG_typedef
     940                    .dwattr $C$DW$T$46, DW_AT_name("int_least8_t")
     941                    .dwattr $C$DW$T$46, DW_AT_type(*$C$DW$T$45)
     942                    .dwattr $C$DW$T$46, DW_AT_language(DW_LANG_C)
     943                    .dwattr $C$DW$T$46, DW_AT_decl_file("C:/ti/ccs1110/ccs/tools/compiler/ti-cgt-msp430_21.6.1.LTS
     944                    .dwattr $C$DW$T$46, DW_AT_decl_line(0x2a)
     945                    .dwattr $C$DW$T$46, DW_AT_decl_column(0x19)
     946            
     947            $C$DW$T$47      .dwtag  DW_TAG_typedef
     948                    .dwattr $C$DW$T$47, DW_AT_name("int8_t")
     949                    .dwattr $C$DW$T$47, DW_AT_type(*$C$DW$T$44)
     950                    .dwattr $C$DW$T$47, DW_AT_language(DW_LANG_C)
     951                    .dwattr $C$DW$T$47, DW_AT_decl_file("C:/ti/ccs1110/ccs/tools/compiler/ti-cgt-msp430_21.6.1.LTS
     952                    .dwattr $C$DW$T$47, DW_AT_decl_line(0x25)
     953                    .dwattr $C$DW$T$47, DW_AT_decl_column(0x13)
     954            
     955            $C$DW$T$6       .dwtag  DW_TAG_base_type
     956                    .dwattr $C$DW$T$6, DW_AT_encoding(DW_ATE_unsigned_char)
     957                    .dwattr $C$DW$T$6, DW_AT_name("unsigned char")
     958                    .dwattr $C$DW$T$6, DW_AT_byte_size(0x01)
     959            
     960            $C$DW$T$34      .dwtag  DW_TAG_typedef
     961                    .dwattr $C$DW$T$34, DW_AT_name("__uint8_t")
     962                    .dwattr $C$DW$T$34, DW_AT_type(*$C$DW$T$6)
     963                    .dwattr $C$DW$T$34, DW_AT_language(DW_LANG_C)
     964                    .dwattr $C$DW$T$34, DW_AT_decl_file("C:/ti/ccs1110/ccs/tools/compiler/ti-cgt-msp430_21.6.1.LTS
     965                    .dwattr $C$DW$T$34, DW_AT_decl_line(0x37)
     966                    .dwattr $C$DW$T$34, DW_AT_decl_column(0x18)
     967            
     968            $C$DW$T$48      .dwtag  DW_TAG_typedef
     969                    .dwattr $C$DW$T$48, DW_AT_name("__sa_family_t")
     970                    .dwattr $C$DW$T$48, DW_AT_type(*$C$DW$T$34)
     971                    .dwattr $C$DW$T$48, DW_AT_language(DW_LANG_C)
     972                    .dwattr $C$DW$T$48, DW_AT_decl_file("C:/ti/ccs1110/ccs/tools/compiler/ti-cgt-msp430_21.6.1.LTS
     973                    .dwattr $C$DW$T$48, DW_AT_decl_line(0x47)
     974                    .dwattr $C$DW$T$48, DW_AT_decl_column(0x13)
     975            
     976            $C$DW$T$49      .dwtag  DW_TAG_typedef
     977                    .dwattr $C$DW$T$49, DW_AT_name("__uint_least8_t")
     978                    .dwattr $C$DW$T$49, DW_AT_type(*$C$DW$T$34)
     979                    .dwattr $C$DW$T$49, DW_AT_language(DW_LANG_C)
     980                    .dwattr $C$DW$T$49, DW_AT_decl_file("C:/ti/ccs1110/ccs/tools/compiler/ti-cgt-msp430_21.6.1.LTS
     981                    .dwattr $C$DW$T$49, DW_AT_decl_line(0x74)
     982                    .dwattr $C$DW$T$49, DW_AT_decl_column(0x13)
     983            
     984            $C$DW$T$50      .dwtag  DW_TAG_typedef
     985                    .dwattr $C$DW$T$50, DW_AT_name("uint_least8_t")
     986                    .dwattr $C$DW$T$50, DW_AT_type(*$C$DW$T$49)
     987                    .dwattr $C$DW$T$50, DW_AT_language(DW_LANG_C)
     988                    .dwattr $C$DW$T$50, DW_AT_decl_file("C:/ti/ccs1110/ccs/tools/compiler/ti-cgt-msp430_21.6.1.LTS
     989                    .dwattr $C$DW$T$50, DW_AT_decl_line(0x2f)
     990                    .dwattr $C$DW$T$50, DW_AT_decl_column(0x1a)
     991            
     992            $C$DW$T$35      .dwtag  DW_TAG_typedef
MSP430 Assembler PC v21.6.1 Wed Nov 30 16:35:43 2022

Copyright (c) 2003-2018 Texas Instruments Incorporated
tlv.asm                                                              PAGE   21

     993                    .dwattr $C$DW$T$35, DW_AT_name("uint8_t")
     994                    .dwattr $C$DW$T$35, DW_AT_type(*$C$DW$T$34)
     995                    .dwattr $C$DW$T$35, DW_AT_language(DW_LANG_C)
     996                    .dwattr $C$DW$T$35, DW_AT_decl_file("C:/ti/ccs1110/ccs/tools/compiler/ti-cgt-msp430_21.6.1.LTS
     997                    .dwattr $C$DW$T$35, DW_AT_decl_line(0x3b)
     998                    .dwattr $C$DW$T$35, DW_AT_decl_column(0x14)
     999            
    1000            $C$DW$T$36      .dwtag  DW_TAG_pointer_type
    1001                    .dwattr $C$DW$T$36, DW_AT_type(*$C$DW$T$35)
    1002                    .dwattr $C$DW$T$36, DW_AT_address_class(0x10)
    1003            
    1004            $C$DW$T$7       .dwtag  DW_TAG_base_type
    1005                    .dwattr $C$DW$T$7, DW_AT_encoding(DW_ATE_signed_char)
    1006                    .dwattr $C$DW$T$7, DW_AT_name("wchar_t")
    1007                    .dwattr $C$DW$T$7, DW_AT_byte_size(0x02)
    1008            
    1009            $C$DW$T$8       .dwtag  DW_TAG_base_type
    1010                    .dwattr $C$DW$T$8, DW_AT_encoding(DW_ATE_signed)
    1011                    .dwattr $C$DW$T$8, DW_AT_name("short")
    1012                    .dwattr $C$DW$T$8, DW_AT_byte_size(0x02)
    1013            
    1014            $C$DW$T$9       .dwtag  DW_TAG_base_type
    1015                    .dwattr $C$DW$T$9, DW_AT_encoding(DW_ATE_unsigned)
    1016                    .dwattr $C$DW$T$9, DW_AT_name("unsigned short")
    1017                    .dwattr $C$DW$T$9, DW_AT_byte_size(0x02)
    1018            
    1019            $C$DW$T$10      .dwtag  DW_TAG_base_type
    1020                    .dwattr $C$DW$T$10, DW_AT_encoding(DW_ATE_signed)
    1021                    .dwattr $C$DW$T$10, DW_AT_name("int")
    1022                    .dwattr $C$DW$T$10, DW_AT_byte_size(0x02)
    1023            
    1024            $C$DW$T$53      .dwtag  DW_TAG_typedef
    1025                    .dwattr $C$DW$T$53, DW_AT_name("_Mbstatet")
    1026                    .dwattr $C$DW$T$53, DW_AT_type(*$C$DW$T$10)
    1027                    .dwattr $C$DW$T$53, DW_AT_language(DW_LANG_C)
    1028                    .dwattr $C$DW$T$53, DW_AT_decl_file("C:/ti/ccs1110/ccs/tools/compiler/ti-cgt-msp430_21.6.1.LTS
    1029                    .dwattr $C$DW$T$53, DW_AT_decl_line(0x8f)
    1030                    .dwattr $C$DW$T$53, DW_AT_decl_column(0x0d)
    1031            
    1032            $C$DW$T$54      .dwtag  DW_TAG_typedef
    1033                    .dwattr $C$DW$T$54, DW_AT_name("__mbstate_t")
    1034                    .dwattr $C$DW$T$54, DW_AT_type(*$C$DW$T$53)
    1035                    .dwattr $C$DW$T$54, DW_AT_language(DW_LANG_C)
    1036                    .dwattr $C$DW$T$54, DW_AT_decl_file("C:/ti/ccs1110/ccs/tools/compiler/ti-cgt-msp430_21.6.1.LTS
    1037                    .dwattr $C$DW$T$54, DW_AT_decl_line(0x92)
    1038                    .dwattr $C$DW$T$54, DW_AT_decl_column(0x13)
    1039            
    1040            $C$DW$T$55      .dwtag  DW_TAG_typedef
    1041                    .dwattr $C$DW$T$55, DW_AT_name("__accmode_t")
    1042                    .dwattr $C$DW$T$55, DW_AT_type(*$C$DW$T$10)
    1043                    .dwattr $C$DW$T$55, DW_AT_language(DW_LANG_C)
    1044                    .dwattr $C$DW$T$55, DW_AT_decl_file("C:/ti/ccs1110/ccs/tools/compiler/ti-cgt-msp430_21.6.1.LTS
    1045                    .dwattr $C$DW$T$55, DW_AT_decl_line(0x3b)
    1046                    .dwattr $C$DW$T$55, DW_AT_decl_column(0x0e)
    1047            
MSP430 Assembler PC v21.6.1 Wed Nov 30 16:35:43 2022

Copyright (c) 2003-2018 Texas Instruments Incorporated
tlv.asm                                                              PAGE   22

    1048            $C$DW$T$56      .dwtag  DW_TAG_typedef
    1049                    .dwattr $C$DW$T$56, DW_AT_name("__cpulevel_t")
    1050                    .dwattr $C$DW$T$56, DW_AT_type(*$C$DW$T$10)
    1051                    .dwattr $C$DW$T$56, DW_AT_language(DW_LANG_C)
    1052                    .dwattr $C$DW$T$56, DW_AT_decl_file("C:/ti/ccs1110/ccs/tools/compiler/ti-cgt-msp430_21.6.1.LTS
    1053                    .dwattr $C$DW$T$56, DW_AT_decl_line(0x50)
    1054                    .dwattr $C$DW$T$56, DW_AT_decl_column(0x0e)
    1055            
    1056            $C$DW$T$57      .dwtag  DW_TAG_typedef
    1057                    .dwattr $C$DW$T$57, DW_AT_name("__cpusetid_t")
    1058                    .dwattr $C$DW$T$57, DW_AT_type(*$C$DW$T$10)
    1059                    .dwattr $C$DW$T$57, DW_AT_language(DW_LANG_C)
    1060                    .dwattr $C$DW$T$57, DW_AT_decl_file("C:/ti/ccs1110/ccs/tools/compiler/ti-cgt-msp430_21.6.1.LTS
    1061                    .dwattr $C$DW$T$57, DW_AT_decl_line(0x51)
    1062                    .dwattr $C$DW$T$57, DW_AT_decl_column(0x0e)
    1063            
    1064            $C$DW$T$58      .dwtag  DW_TAG_typedef
    1065                    .dwattr $C$DW$T$58, DW_AT_name("__cpuwhich_t")
    1066                    .dwattr $C$DW$T$58, DW_AT_type(*$C$DW$T$10)
    1067                    .dwattr $C$DW$T$58, DW_AT_language(DW_LANG_C)
    1068                    .dwattr $C$DW$T$58, DW_AT_decl_file("C:/ti/ccs1110/ccs/tools/compiler/ti-cgt-msp430_21.6.1.LTS
    1069                    .dwattr $C$DW$T$58, DW_AT_decl_line(0x4f)
    1070                    .dwattr $C$DW$T$58, DW_AT_decl_column(0x0e)
    1071            
    1072            $C$DW$T$59      .dwtag  DW_TAG_typedef
    1073                    .dwattr $C$DW$T$59, DW_AT_name("__ct_rune_t")
    1074                    .dwattr $C$DW$T$59, DW_AT_type(*$C$DW$T$10)
    1075                    .dwattr $C$DW$T$59, DW_AT_language(DW_LANG_C)
    1076                    .dwattr $C$DW$T$59, DW_AT_decl_file("C:/ti/ccs1110/ccs/tools/compiler/ti-cgt-msp430_21.6.1.LTS
    1077                    .dwattr $C$DW$T$59, DW_AT_decl_line(0x69)
    1078                    .dwattr $C$DW$T$59, DW_AT_decl_column(0x0e)
    1079            
    1080            $C$DW$T$60      .dwtag  DW_TAG_typedef
    1081                    .dwattr $C$DW$T$60, DW_AT_name("__rune_t")
    1082                    .dwattr $C$DW$T$60, DW_AT_type(*$C$DW$T$59)
    1083                    .dwattr $C$DW$T$60, DW_AT_language(DW_LANG_C)
    1084                    .dwattr $C$DW$T$60, DW_AT_decl_file("C:/ti/ccs1110/ccs/tools/compiler/ti-cgt-msp430_21.6.1.LTS
    1085                    .dwattr $C$DW$T$60, DW_AT_decl_line(0x6c)
    1086                    .dwattr $C$DW$T$60, DW_AT_decl_column(0x15)
    1087            
    1088            $C$DW$T$61      .dwtag  DW_TAG_typedef
    1089                    .dwattr $C$DW$T$61, DW_AT_name("__wint_t")
    1090                    .dwattr $C$DW$T$61, DW_AT_type(*$C$DW$T$59)
    1091                    .dwattr $C$DW$T$61, DW_AT_language(DW_LANG_C)
    1092                    .dwattr $C$DW$T$61, DW_AT_decl_file("C:/ti/ccs1110/ccs/tools/compiler/ti-cgt-msp430_21.6.1.LTS
    1093                    .dwattr $C$DW$T$61, DW_AT_decl_line(0x6d)
    1094                    .dwattr $C$DW$T$61, DW_AT_decl_column(0x15)
    1095            
    1096            $C$DW$T$25      .dwtag  DW_TAG_typedef
    1097                    .dwattr $C$DW$T$25, DW_AT_name("__int16_t")
    1098                    .dwattr $C$DW$T$25, DW_AT_type(*$C$DW$T$10)
    1099                    .dwattr $C$DW$T$25, DW_AT_language(DW_LANG_C)
    1100                    .dwattr $C$DW$T$25, DW_AT_decl_file("C:/ti/ccs1110/ccs/tools/compiler/ti-cgt-msp430_21.6.1.LTS
    1101                    .dwattr $C$DW$T$25, DW_AT_decl_line(0x38)
    1102                    .dwattr $C$DW$T$25, DW_AT_decl_column(0x0f)
MSP430 Assembler PC v21.6.1 Wed Nov 30 16:35:43 2022

Copyright (c) 2003-2018 Texas Instruments Incorporated
tlv.asm                                                              PAGE   23

    1103            
    1104            $C$DW$T$62      .dwtag  DW_TAG_typedef
    1105                    .dwattr $C$DW$T$62, DW_AT_name("__int_fast16_t")
    1106                    .dwattr $C$DW$T$62, DW_AT_type(*$C$DW$T$25)
    1107                    .dwattr $C$DW$T$62, DW_AT_language(DW_LANG_C)
    1108                    .dwattr $C$DW$T$62, DW_AT_decl_file("C:/ti/ccs1110/ccs/tools/compiler/ti-cgt-msp430_21.6.1.LTS
    1109                    .dwattr $C$DW$T$62, DW_AT_decl_line(0x57)
    1110                    .dwattr $C$DW$T$62, DW_AT_decl_column(0x13)
    1111            
    1112            $C$DW$T$63      .dwtag  DW_TAG_typedef
    1113                    .dwattr $C$DW$T$63, DW_AT_name("int_fast16_t")
    1114                    .dwattr $C$DW$T$63, DW_AT_type(*$C$DW$T$62)
    1115                    .dwattr $C$DW$T$63, DW_AT_language(DW_LANG_C)
    1116                    .dwattr $C$DW$T$63, DW_AT_decl_file("C:/ti/ccs1110/ccs/tools/compiler/ti-cgt-msp430_21.6.1.LTS
    1117                    .dwattr $C$DW$T$63, DW_AT_decl_line(0x35)
    1118                    .dwattr $C$DW$T$63, DW_AT_decl_column(0x19)
    1119            
    1120            $C$DW$T$64      .dwtag  DW_TAG_typedef
    1121                    .dwattr $C$DW$T$64, DW_AT_name("__int_fast8_t")
    1122                    .dwattr $C$DW$T$64, DW_AT_type(*$C$DW$T$25)
    1123                    .dwattr $C$DW$T$64, DW_AT_language(DW_LANG_C)
    1124                    .dwattr $C$DW$T$64, DW_AT_decl_file("C:/ti/ccs1110/ccs/tools/compiler/ti-cgt-msp430_21.6.1.LTS
    1125                    .dwattr $C$DW$T$64, DW_AT_decl_line(0x56)
    1126                    .dwattr $C$DW$T$64, DW_AT_decl_column(0x13)
    1127            
    1128            $C$DW$T$65      .dwtag  DW_TAG_typedef
    1129                    .dwattr $C$DW$T$65, DW_AT_name("int_fast8_t")
    1130                    .dwattr $C$DW$T$65, DW_AT_type(*$C$DW$T$64)
    1131                    .dwattr $C$DW$T$65, DW_AT_language(DW_LANG_C)
    1132                    .dwattr $C$DW$T$65, DW_AT_decl_file("C:/ti/ccs1110/ccs/tools/compiler/ti-cgt-msp430_21.6.1.LTS
    1133                    .dwattr $C$DW$T$65, DW_AT_decl_line(0x34)
    1134                    .dwattr $C$DW$T$65, DW_AT_decl_column(0x18)
    1135            
    1136            $C$DW$T$66      .dwtag  DW_TAG_typedef
    1137                    .dwattr $C$DW$T$66, DW_AT_name("__int_least16_t")
    1138                    .dwattr $C$DW$T$66, DW_AT_type(*$C$DW$T$25)
    1139                    .dwattr $C$DW$T$66, DW_AT_language(DW_LANG_C)
    1140                    .dwattr $C$DW$T$66, DW_AT_decl_file("C:/ti/ccs1110/ccs/tools/compiler/ti-cgt-msp430_21.6.1.LTS
    1141                    .dwattr $C$DW$T$66, DW_AT_decl_line(0x5b)
    1142                    .dwattr $C$DW$T$66, DW_AT_decl_column(0x13)
    1143            
    1144            $C$DW$T$67      .dwtag  DW_TAG_typedef
    1145                    .dwattr $C$DW$T$67, DW_AT_name("int_least16_t")
    1146                    .dwattr $C$DW$T$67, DW_AT_type(*$C$DW$T$66)
    1147                    .dwattr $C$DW$T$67, DW_AT_language(DW_LANG_C)
    1148                    .dwattr $C$DW$T$67, DW_AT_decl_file("C:/ti/ccs1110/ccs/tools/compiler/ti-cgt-msp430_21.6.1.LTS
    1149                    .dwattr $C$DW$T$67, DW_AT_decl_line(0x2b)
    1150                    .dwattr $C$DW$T$67, DW_AT_decl_column(0x1a)
    1151            
    1152            $C$DW$T$68      .dwtag  DW_TAG_typedef
    1153                    .dwattr $C$DW$T$68, DW_AT_name("__register_t")
    1154                    .dwattr $C$DW$T$68, DW_AT_type(*$C$DW$T$25)
    1155                    .dwattr $C$DW$T$68, DW_AT_language(DW_LANG_C)
    1156                    .dwattr $C$DW$T$68, DW_AT_decl_file("C:/ti/ccs1110/ccs/tools/compiler/ti-cgt-msp430_21.6.1.LTS
    1157                    .dwattr $C$DW$T$68, DW_AT_decl_line(0x5f)
MSP430 Assembler PC v21.6.1 Wed Nov 30 16:35:43 2022

Copyright (c) 2003-2018 Texas Instruments Incorporated
tlv.asm                                                              PAGE   24

    1158                    .dwattr $C$DW$T$68, DW_AT_decl_column(0x13)
    1159            
    1160            $C$DW$T$26      .dwtag  DW_TAG_typedef
    1161                    .dwattr $C$DW$T$26, DW_AT_name("int16_t")
    1162                    .dwattr $C$DW$T$26, DW_AT_type(*$C$DW$T$25)
    1163                    .dwattr $C$DW$T$26, DW_AT_language(DW_LANG_C)
    1164                    .dwattr $C$DW$T$26, DW_AT_decl_file("C:/ti/ccs1110/ccs/tools/compiler/ti-cgt-msp430_21.6.1.LTS
    1165                    .dwattr $C$DW$T$26, DW_AT_decl_line(0x2b)
    1166                    .dwattr $C$DW$T$26, DW_AT_decl_column(0x14)
    1167            
    1168            $C$DW$T$69      .dwtag  DW_TAG_typedef
    1169                    .dwattr $C$DW$T$69, DW_AT_name("__nl_item")
    1170                    .dwattr $C$DW$T$69, DW_AT_type(*$C$DW$T$10)
    1171                    .dwattr $C$DW$T$69, DW_AT_language(DW_LANG_C)
    1172                    .dwattr $C$DW$T$69, DW_AT_decl_file("C:/ti/ccs1110/ccs/tools/compiler/ti-cgt-msp430_21.6.1.LTS
    1173                    .dwattr $C$DW$T$69, DW_AT_decl_line(0x3c)
    1174                    .dwattr $C$DW$T$69, DW_AT_decl_column(0x0e)
    1175            
    1176            $C$DW$T$70      .dwtag  DW_TAG_typedef
    1177                    .dwattr $C$DW$T$70, DW_AT_name("__ptrdiff_t")
    1178                    .dwattr $C$DW$T$70, DW_AT_type(*$C$DW$T$10)
    1179                    .dwattr $C$DW$T$70, DW_AT_language(DW_LANG_C)
    1180                    .dwattr $C$DW$T$70, DW_AT_decl_file("C:/ti/ccs1110/ccs/tools/compiler/ti-cgt-msp430_21.6.1.LTS
    1181                    .dwattr $C$DW$T$70, DW_AT_decl_line(0x5e)
    1182                    .dwattr $C$DW$T$70, DW_AT_decl_column(0x1c)
    1183            
    1184            $C$DW$T$11      .dwtag  DW_TAG_base_type
    1185                    .dwattr $C$DW$T$11, DW_AT_encoding(DW_ATE_unsigned)
    1186                    .dwattr $C$DW$T$11, DW_AT_name("unsigned int")
    1187                    .dwattr $C$DW$T$11, DW_AT_byte_size(0x02)
    1188            
    1189            $C$DW$T$71      .dwtag  DW_TAG_typedef
    1190                    .dwattr $C$DW$T$71, DW_AT_name("___wchar_t")
    1191                    .dwattr $C$DW$T$71, DW_AT_type(*$C$DW$T$11)
    1192                    .dwattr $C$DW$T$71, DW_AT_language(DW_LANG_C)
    1193                    .dwattr $C$DW$T$71, DW_AT_decl_file("C:/ti/ccs1110/ccs/tools/compiler/ti-cgt-msp430_21.6.1.LTS
    1194                    .dwattr $C$DW$T$71, DW_AT_decl_line(0x7d)
    1195                    .dwattr $C$DW$T$71, DW_AT_decl_column(0x1a)
    1196            
    1197            $C$DW$T$72      .dwtag  DW_TAG_typedef
    1198                    .dwattr $C$DW$T$72, DW_AT_name("__size_t")
    1199                    .dwattr $C$DW$T$72, DW_AT_type(*$C$DW$T$11)
    1200                    .dwattr $C$DW$T$72, DW_AT_language(DW_LANG_C)
    1201                    .dwattr $C$DW$T$72, DW_AT_decl_file("C:/ti/ccs1110/ccs/tools/compiler/ti-cgt-msp430_21.6.1.LTS
    1202                    .dwattr $C$DW$T$72, DW_AT_decl_line(0x61)
    1203                    .dwattr $C$DW$T$72, DW_AT_decl_column(0x19)
    1204            
    1205            $C$DW$T$22      .dwtag  DW_TAG_typedef
    1206                    .dwattr $C$DW$T$22, DW_AT_name("__uint16_t")
    1207                    .dwattr $C$DW$T$22, DW_AT_type(*$C$DW$T$11)
    1208                    .dwattr $C$DW$T$22, DW_AT_language(DW_LANG_C)
    1209                    .dwattr $C$DW$T$22, DW_AT_decl_file("C:/ti/ccs1110/ccs/tools/compiler/ti-cgt-msp430_21.6.1.LTS
    1210                    .dwattr $C$DW$T$22, DW_AT_decl_line(0x39)
    1211                    .dwattr $C$DW$T$22, DW_AT_decl_column(0x17)
    1212            
MSP430 Assembler PC v21.6.1 Wed Nov 30 16:35:43 2022

Copyright (c) 2003-2018 Texas Instruments Incorporated
tlv.asm                                                              PAGE   25

    1213            $C$DW$T$73      .dwtag  DW_TAG_typedef
    1214                    .dwattr $C$DW$T$73, DW_AT_name("__mode_t")
    1215                    .dwattr $C$DW$T$73, DW_AT_type(*$C$DW$T$22)
    1216                    .dwattr $C$DW$T$73, DW_AT_language(DW_LANG_C)
    1217                    .dwattr $C$DW$T$73, DW_AT_decl_file("C:/ti/ccs1110/ccs/tools/compiler/ti-cgt-msp430_21.6.1.LTS
    1218                    .dwattr $C$DW$T$73, DW_AT_decl_line(0x3a)
    1219                    .dwattr $C$DW$T$73, DW_AT_decl_column(0x14)
    1220            
    1221            $C$DW$T$74      .dwtag  DW_TAG_typedef
    1222                    .dwattr $C$DW$T$74, DW_AT_name("__u_register_t")
    1223                    .dwattr $C$DW$T$74, DW_AT_type(*$C$DW$T$22)
    1224                    .dwattr $C$DW$T$74, DW_AT_language(DW_LANG_C)
    1225                    .dwattr $C$DW$T$74, DW_AT_decl_file("C:/ti/ccs1110/ccs/tools/compiler/ti-cgt-msp430_21.6.1.LTS
    1226                    .dwattr $C$DW$T$74, DW_AT_decl_line(0x78)
    1227                    .dwattr $C$DW$T$74, DW_AT_decl_column(0x14)
    1228            
    1229            $C$DW$T$75      .dwtag  DW_TAG_typedef
    1230                    .dwattr $C$DW$T$75, DW_AT_name("__uint_fast16_t")
    1231                    .dwattr $C$DW$T$75, DW_AT_type(*$C$DW$T$22)
    1232                    .dwattr $C$DW$T$75, DW_AT_language(DW_LANG_C)
    1233                    .dwattr $C$DW$T$75, DW_AT_decl_file("C:/ti/ccs1110/ccs/tools/compiler/ti-cgt-msp430_21.6.1.LTS
    1234                    .dwattr $C$DW$T$75, DW_AT_decl_line(0x71)
    1235                    .dwattr $C$DW$T$75, DW_AT_decl_column(0x14)
    1236            
    1237            $C$DW$T$76      .dwtag  DW_TAG_typedef
    1238                    .dwattr $C$DW$T$76, DW_AT_name("uint_fast16_t")
    1239                    .dwattr $C$DW$T$76, DW_AT_type(*$C$DW$T$75)
    1240                    .dwattr $C$DW$T$76, DW_AT_language(DW_LANG_C)
    1241                    .dwattr $C$DW$T$76, DW_AT_decl_file("C:/ti/ccs1110/ccs/tools/compiler/ti-cgt-msp430_21.6.1.LTS
    1242                    .dwattr $C$DW$T$76, DW_AT_decl_line(0x3a)
    1243                    .dwattr $C$DW$T$76, DW_AT_decl_column(0x1a)
    1244            
    1245            $C$DW$T$77      .dwtag  DW_TAG_typedef
    1246                    .dwattr $C$DW$T$77, DW_AT_name("__uint_fast8_t")
    1247                    .dwattr $C$DW$T$77, DW_AT_type(*$C$DW$T$22)
    1248                    .dwattr $C$DW$T$77, DW_AT_language(DW_LANG_C)
    1249                    .dwattr $C$DW$T$77, DW_AT_decl_file("C:/ti/ccs1110/ccs/tools/compiler/ti-cgt-msp430_21.6.1.LTS
    1250                    .dwattr $C$DW$T$77, DW_AT_decl_line(0x70)
    1251                    .dwattr $C$DW$T$77, DW_AT_decl_column(0x14)
    1252            
    1253            $C$DW$T$78      .dwtag  DW_TAG_typedef
    1254                    .dwattr $C$DW$T$78, DW_AT_name("uint_fast8_t")
    1255                    .dwattr $C$DW$T$78, DW_AT_type(*$C$DW$T$77)
    1256                    .dwattr $C$DW$T$78, DW_AT_language(DW_LANG_C)
    1257                    .dwattr $C$DW$T$78, DW_AT_decl_file("C:/ti/ccs1110/ccs/tools/compiler/ti-cgt-msp430_21.6.1.LTS
    1258                    .dwattr $C$DW$T$78, DW_AT_decl_line(0x39)
    1259                    .dwattr $C$DW$T$78, DW_AT_decl_column(0x19)
    1260            
    1261            $C$DW$T$79      .dwtag  DW_TAG_typedef
    1262                    .dwattr $C$DW$T$79, DW_AT_name("__uint_least16_t")
    1263                    .dwattr $C$DW$T$79, DW_AT_type(*$C$DW$T$22)
    1264                    .dwattr $C$DW$T$79, DW_AT_language(DW_LANG_C)
    1265                    .dwattr $C$DW$T$79, DW_AT_decl_file("C:/ti/ccs1110/ccs/tools/compiler/ti-cgt-msp430_21.6.1.LTS
    1266                    .dwattr $C$DW$T$79, DW_AT_decl_line(0x75)
    1267                    .dwattr $C$DW$T$79, DW_AT_decl_column(0x14)
MSP430 Assembler PC v21.6.1 Wed Nov 30 16:35:43 2022

Copyright (c) 2003-2018 Texas Instruments Incorporated
tlv.asm                                                              PAGE   26

    1268            
    1269            $C$DW$T$80      .dwtag  DW_TAG_typedef
    1270                    .dwattr $C$DW$T$80, DW_AT_name("__char16_t")
    1271                    .dwattr $C$DW$T$80, DW_AT_type(*$C$DW$T$79)
    1272                    .dwattr $C$DW$T$80, DW_AT_language(DW_LANG_C)
    1273                    .dwattr $C$DW$T$80, DW_AT_decl_file("C:/ti/ccs1110/ccs/tools/compiler/ti-cgt-msp430_21.6.1.LTS
    1274                    .dwattr $C$DW$T$80, DW_AT_decl_line(0x71)
    1275                    .dwattr $C$DW$T$80, DW_AT_decl_column(0x1a)
    1276            
    1277            $C$DW$T$81      .dwtag  DW_TAG_typedef
    1278                    .dwattr $C$DW$T$81, DW_AT_name("uint_least16_t")
    1279                    .dwattr $C$DW$T$81, DW_AT_type(*$C$DW$T$79)
    1280                    .dwattr $C$DW$T$81, DW_AT_language(DW_LANG_C)
    1281                    .dwattr $C$DW$T$81, DW_AT_decl_file("C:/ti/ccs1110/ccs/tools/compiler/ti-cgt-msp430_21.6.1.LTS
    1282                    .dwattr $C$DW$T$81, DW_AT_decl_line(0x30)
    1283                    .dwattr $C$DW$T$81, DW_AT_decl_column(0x1a)
    1284            
    1285            $C$DW$T$23      .dwtag  DW_TAG_typedef
    1286                    .dwattr $C$DW$T$23, DW_AT_name("uint16_t")
    1287                    .dwattr $C$DW$T$23, DW_AT_type(*$C$DW$T$22)
    1288                    .dwattr $C$DW$T$23, DW_AT_language(DW_LANG_C)
    1289                    .dwattr $C$DW$T$23, DW_AT_decl_file("C:/ti/ccs1110/ccs/tools/compiler/ti-cgt-msp430_21.6.1.LTS
    1290                    .dwattr $C$DW$T$23, DW_AT_decl_line(0x41)
    1291                    .dwattr $C$DW$T$23, DW_AT_decl_column(0x15)
    1292            
    1293            $C$DW$T$37      .dwtag  DW_TAG_pointer_type
    1294                    .dwattr $C$DW$T$37, DW_AT_type(*$C$DW$T$23)
    1295                    .dwattr $C$DW$T$37, DW_AT_address_class(0x10)
    1296            
    1297            $C$DW$T$38      .dwtag  DW_TAG_pointer_type
    1298                    .dwattr $C$DW$T$38, DW_AT_type(*$C$DW$T$37)
    1299                    .dwattr $C$DW$T$38, DW_AT_address_class(0x10)
    1300            
    1301            $C$DW$T$86      .dwtag  DW_TAG_typedef
    1302                    .dwattr $C$DW$T$86, DW_AT_name("__useconds_t")
    1303                    .dwattr $C$DW$T$86, DW_AT_type(*$C$DW$T$11)
    1304                    .dwattr $C$DW$T$86, DW_AT_language(DW_LANG_C)
    1305                    .dwattr $C$DW$T$86, DW_AT_decl_file("C:/ti/ccs1110/ccs/tools/compiler/ti-cgt-msp430_21.6.1.LTS
    1306                    .dwattr $C$DW$T$86, DW_AT_decl_line(0x4e)
    1307                    .dwattr $C$DW$T$86, DW_AT_decl_column(0x16)
    1308            
    1309            $C$DW$T$12      .dwtag  DW_TAG_base_type
    1310                    .dwattr $C$DW$T$12, DW_AT_encoding(DW_ATE_signed)
    1311                    .dwattr $C$DW$T$12, DW_AT_name("long")
    1312                    .dwattr $C$DW$T$12, DW_AT_byte_size(0x04)
    1313            
    1314            $C$DW$T$87      .dwtag  DW_TAG_typedef
    1315                    .dwattr $C$DW$T$87, DW_AT_name("__int32_t")
    1316                    .dwattr $C$DW$T$87, DW_AT_type(*$C$DW$T$12)
    1317                    .dwattr $C$DW$T$87, DW_AT_language(DW_LANG_C)
    1318                    .dwattr $C$DW$T$87, DW_AT_decl_file("C:/ti/ccs1110/ccs/tools/compiler/ti-cgt-msp430_21.6.1.LTS
    1319                    .dwattr $C$DW$T$87, DW_AT_decl_line(0x3a)
    1320                    .dwattr $C$DW$T$87, DW_AT_decl_column(0x10)
    1321            
    1322            $C$DW$T$88      .dwtag  DW_TAG_typedef
MSP430 Assembler PC v21.6.1 Wed Nov 30 16:35:43 2022

Copyright (c) 2003-2018 Texas Instruments Incorporated
tlv.asm                                                              PAGE   27

    1323                    .dwattr $C$DW$T$88, DW_AT_name("__blksize_t")
    1324                    .dwattr $C$DW$T$88, DW_AT_type(*$C$DW$T$87)
    1325                    .dwattr $C$DW$T$88, DW_AT_language(DW_LANG_C)
    1326                    .dwattr $C$DW$T$88, DW_AT_decl_file("C:/ti/ccs1110/ccs/tools/compiler/ti-cgt-msp430_21.6.1.LTS
    1327                    .dwattr $C$DW$T$88, DW_AT_decl_line(0x2f)
    1328                    .dwattr $C$DW$T$88, DW_AT_decl_column(0x13)
    1329            
    1330            $C$DW$T$89      .dwtag  DW_TAG_typedef
    1331                    .dwattr $C$DW$T$89, DW_AT_name("__clockid_t")
    1332                    .dwattr $C$DW$T$89, DW_AT_type(*$C$DW$T$87)
    1333                    .dwattr $C$DW$T$89, DW_AT_language(DW_LANG_C)
    1334                    .dwattr $C$DW$T$89, DW_AT_decl_file("C:/ti/ccs1110/ccs/tools/compiler/ti-cgt-msp430_21.6.1.LTS
    1335                    .dwattr $C$DW$T$89, DW_AT_decl_line(0x31)
    1336                    .dwattr $C$DW$T$89, DW_AT_decl_column(0x13)
    1337            
    1338            $C$DW$T$90      .dwtag  DW_TAG_typedef
    1339                    .dwattr $C$DW$T$90, DW_AT_name("__critical_t")
    1340                    .dwattr $C$DW$T$90, DW_AT_type(*$C$DW$T$87)
    1341                    .dwattr $C$DW$T$90, DW_AT_language(DW_LANG_C)
    1342                    .dwattr $C$DW$T$90, DW_AT_decl_file("C:/ti/ccs1110/ccs/tools/compiler/ti-cgt-msp430_21.6.1.LTS
    1343                    .dwattr $C$DW$T$90, DW_AT_decl_line(0x4b)
    1344                    .dwattr $C$DW$T$90, DW_AT_decl_column(0x13)
    1345            
    1346            $C$DW$T$91      .dwtag  DW_TAG_typedef
    1347                    .dwattr $C$DW$T$91, DW_AT_name("__int_fast32_t")
    1348                    .dwattr $C$DW$T$91, DW_AT_type(*$C$DW$T$87)
    1349                    .dwattr $C$DW$T$91, DW_AT_language(DW_LANG_C)
    1350                    .dwattr $C$DW$T$91, DW_AT_decl_file("C:/ti/ccs1110/ccs/tools/compiler/ti-cgt-msp430_21.6.1.LTS
    1351                    .dwattr $C$DW$T$91, DW_AT_decl_line(0x58)
    1352                    .dwattr $C$DW$T$91, DW_AT_decl_column(0x13)
    1353            
    1354            $C$DW$T$92      .dwtag  DW_TAG_typedef
    1355                    .dwattr $C$DW$T$92, DW_AT_name("int_fast32_t")
    1356                    .dwattr $C$DW$T$92, DW_AT_type(*$C$DW$T$91)
    1357                    .dwattr $C$DW$T$92, DW_AT_language(DW_LANG_C)
    1358                    .dwattr $C$DW$T$92, DW_AT_decl_file("C:/ti/ccs1110/ccs/tools/compiler/ti-cgt-msp430_21.6.1.LTS
    1359                    .dwattr $C$DW$T$92, DW_AT_decl_line(0x36)
    1360                    .dwattr $C$DW$T$92, DW_AT_decl_column(0x19)
    1361            
    1362            $C$DW$T$93      .dwtag  DW_TAG_typedef
    1363                    .dwattr $C$DW$T$93, DW_AT_name("__int_least32_t")
    1364                    .dwattr $C$DW$T$93, DW_AT_type(*$C$DW$T$87)
    1365                    .dwattr $C$DW$T$93, DW_AT_language(DW_LANG_C)
    1366                    .dwattr $C$DW$T$93, DW_AT_decl_file("C:/ti/ccs1110/ccs/tools/compiler/ti-cgt-msp430_21.6.1.LTS
    1367                    .dwattr $C$DW$T$93, DW_AT_decl_line(0x5c)
    1368                    .dwattr $C$DW$T$93, DW_AT_decl_column(0x13)
    1369            
    1370            $C$DW$T$94      .dwtag  DW_TAG_typedef
    1371                    .dwattr $C$DW$T$94, DW_AT_name("int_least32_t")
    1372                    .dwattr $C$DW$T$94, DW_AT_type(*$C$DW$T$93)
    1373                    .dwattr $C$DW$T$94, DW_AT_language(DW_LANG_C)
    1374                    .dwattr $C$DW$T$94, DW_AT_decl_file("C:/ti/ccs1110/ccs/tools/compiler/ti-cgt-msp430_21.6.1.LTS
    1375                    .dwattr $C$DW$T$94, DW_AT_decl_line(0x2c)
    1376                    .dwattr $C$DW$T$94, DW_AT_decl_column(0x1a)
    1377            
MSP430 Assembler PC v21.6.1 Wed Nov 30 16:35:43 2022

Copyright (c) 2003-2018 Texas Instruments Incorporated
tlv.asm                                                              PAGE   28

    1378            $C$DW$T$95      .dwtag  DW_TAG_typedef
    1379                    .dwattr $C$DW$T$95, DW_AT_name("__intfptr_t")
    1380                    .dwattr $C$DW$T$95, DW_AT_type(*$C$DW$T$87)
    1381                    .dwattr $C$DW$T$95, DW_AT_language(DW_LANG_C)
    1382                    .dwattr $C$DW$T$95, DW_AT_decl_file("C:/ti/ccs1110/ccs/tools/compiler/ti-cgt-msp430_21.6.1.LTS
    1383                    .dwattr $C$DW$T$95, DW_AT_decl_line(0x4e)
    1384                    .dwattr $C$DW$T$95, DW_AT_decl_column(0x13)
    1385            
    1386            $C$DW$T$96      .dwtag  DW_TAG_typedef
    1387                    .dwattr $C$DW$T$96, DW_AT_name("__intptr_t")
    1388                    .dwattr $C$DW$T$96, DW_AT_type(*$C$DW$T$87)
    1389                    .dwattr $C$DW$T$96, DW_AT_language(DW_LANG_C)
    1390                    .dwattr $C$DW$T$96, DW_AT_decl_file("C:/ti/ccs1110/ccs/tools/compiler/ti-cgt-msp430_21.6.1.LTS
    1391                    .dwattr $C$DW$T$96, DW_AT_decl_line(0x51)
    1392                    .dwattr $C$DW$T$96, DW_AT_decl_column(0x13)
    1393            
    1394            $C$DW$T$97      .dwtag  DW_TAG_typedef
    1395                    .dwattr $C$DW$T$97, DW_AT_name("intptr_t")
    1396                    .dwattr $C$DW$T$97, DW_AT_type(*$C$DW$T$96)
    1397                    .dwattr $C$DW$T$97, DW_AT_language(DW_LANG_C)
    1398                    .dwattr $C$DW$T$97, DW_AT_decl_file("C:/ti/ccs1110/ccs/tools/compiler/ti-cgt-msp430_21.6.1.LTS
    1399                    .dwattr $C$DW$T$97, DW_AT_decl_line(0x50)
    1400                    .dwattr $C$DW$T$97, DW_AT_decl_column(0x15)
    1401            
    1402            $C$DW$T$98      .dwtag  DW_TAG_typedef
    1403                    .dwattr $C$DW$T$98, DW_AT_name("__lwpid_t")
    1404                    .dwattr $C$DW$T$98, DW_AT_type(*$C$DW$T$87)
    1405                    .dwattr $C$DW$T$98, DW_AT_language(DW_LANG_C)
    1406                    .dwattr $C$DW$T$98, DW_AT_decl_file("C:/ti/ccs1110/ccs/tools/compiler/ti-cgt-msp430_21.6.1.LTS
    1407                    .dwattr $C$DW$T$98, DW_AT_decl_line(0x39)
    1408                    .dwattr $C$DW$T$98, DW_AT_decl_column(0x13)
    1409            
    1410            $C$DW$T$99      .dwtag  DW_TAG_typedef
    1411                    .dwattr $C$DW$T$99, DW_AT_name("__pid_t")
    1412                    .dwattr $C$DW$T$99, DW_AT_type(*$C$DW$T$87)
    1413                    .dwattr $C$DW$T$99, DW_AT_language(DW_LANG_C)
    1414                    .dwattr $C$DW$T$99, DW_AT_decl_file("C:/ti/ccs1110/ccs/tools/compiler/ti-cgt-msp430_21.6.1.LTS
    1415                    .dwattr $C$DW$T$99, DW_AT_decl_line(0x40)
    1416                    .dwattr $C$DW$T$99, DW_AT_decl_column(0x13)
    1417            
    1418            $C$DW$T$100     .dwtag  DW_TAG_typedef
    1419                    .dwattr $C$DW$T$100, DW_AT_name("__segsz_t")
    1420                    .dwattr $C$DW$T$100, DW_AT_type(*$C$DW$T$87)
    1421                    .dwattr $C$DW$T$100, DW_AT_language(DW_LANG_C)
    1422                    .dwattr $C$DW$T$100, DW_AT_decl_file("C:/ti/ccs1110/ccs/tools/compiler/ti-cgt-msp430_21.6.1.LT
    1423                    .dwattr $C$DW$T$100, DW_AT_decl_line(0x60)
    1424                    .dwattr $C$DW$T$100, DW_AT_decl_column(0x13)
    1425            
    1426            $C$DW$T$101     .dwtag  DW_TAG_typedef
    1427                    .dwattr $C$DW$T$101, DW_AT_name("__ssize_t")
    1428                    .dwattr $C$DW$T$101, DW_AT_type(*$C$DW$T$87)
    1429                    .dwattr $C$DW$T$101, DW_AT_language(DW_LANG_C)
    1430                    .dwattr $C$DW$T$101, DW_AT_decl_file("C:/ti/ccs1110/ccs/tools/compiler/ti-cgt-msp430_21.6.1.LT
    1431                    .dwattr $C$DW$T$101, DW_AT_decl_line(0x62)
    1432                    .dwattr $C$DW$T$101, DW_AT_decl_column(0x13)
MSP430 Assembler PC v21.6.1 Wed Nov 30 16:35:43 2022

Copyright (c) 2003-2018 Texas Instruments Incorporated
tlv.asm                                                              PAGE   29

    1433            
    1434            $C$DW$T$102     .dwtag  DW_TAG_typedef
    1435                    .dwattr $C$DW$T$102, DW_AT_name("int32_t")
    1436                    .dwattr $C$DW$T$102, DW_AT_type(*$C$DW$T$87)
    1437                    .dwattr $C$DW$T$102, DW_AT_language(DW_LANG_C)
    1438                    .dwattr $C$DW$T$102, DW_AT_decl_file("C:/ti/ccs1110/ccs/tools/compiler/ti-cgt-msp430_21.6.1.LT
    1439                    .dwattr $C$DW$T$102, DW_AT_decl_line(0x30)
    1440                    .dwattr $C$DW$T$102, DW_AT_decl_column(0x14)
    1441            
    1442            $C$DW$T$103     .dwtag  DW_TAG_typedef
    1443                    .dwattr $C$DW$T$103, DW_AT_name("__key_t")
    1444                    .dwattr $C$DW$T$103, DW_AT_type(*$C$DW$T$12)
    1445                    .dwattr $C$DW$T$103, DW_AT_language(DW_LANG_C)
    1446                    .dwattr $C$DW$T$103, DW_AT_decl_file("C:/ti/ccs1110/ccs/tools/compiler/ti-cgt-msp430_21.6.1.LT
    1447                    .dwattr $C$DW$T$103, DW_AT_decl_line(0x38)
    1448                    .dwattr $C$DW$T$103, DW_AT_decl_column(0x0f)
    1449            
    1450            $C$DW$T$104     .dwtag  DW_TAG_typedef
    1451                    .dwattr $C$DW$T$104, DW_AT_name("__suseconds_t")
    1452                    .dwattr $C$DW$T$104, DW_AT_type(*$C$DW$T$12)
    1453                    .dwattr $C$DW$T$104, DW_AT_language(DW_LANG_C)
    1454                    .dwattr $C$DW$T$104, DW_AT_decl_file("C:/ti/ccs1110/ccs/tools/compiler/ti-cgt-msp430_21.6.1.LT
    1455                    .dwattr $C$DW$T$104, DW_AT_decl_line(0x4a)
    1456                    .dwattr $C$DW$T$104, DW_AT_decl_column(0x0f)
    1457            
    1458            $C$DW$T$105     .dwtag  DW_TAG_typedef
    1459                    .dwattr $C$DW$T$105, DW_AT_name("_off_t")
    1460                    .dwattr $C$DW$T$105, DW_AT_type(*$C$DW$T$12)
    1461                    .dwattr $C$DW$T$105, DW_AT_language(DW_LANG_C)
    1462                    .dwattr $C$DW$T$105, DW_AT_decl_file("C:/ti/ccs1110/ccs/tools/compiler/ti-cgt-msp430_21.6.1.LT
    1463                    .dwattr $C$DW$T$105, DW_AT_decl_line(0x8d)
    1464                    .dwattr $C$DW$T$105, DW_AT_decl_column(0x12)
    1465            
    1466            $C$DW$T$106     .dwtag  DW_TAG_typedef
    1467                    .dwattr $C$DW$T$106, DW_AT_name("__off_t")
    1468                    .dwattr $C$DW$T$106, DW_AT_type(*$C$DW$T$105)
    1469                    .dwattr $C$DW$T$106, DW_AT_language(DW_LANG_C)
    1470                    .dwattr $C$DW$T$106, DW_AT_decl_file("C:/ti/ccs1110/ccs/tools/compiler/ti-cgt-msp430_21.6.1.LT
    1471                    .dwattr $C$DW$T$106, DW_AT_decl_line(0x3e)
    1472                    .dwattr $C$DW$T$106, DW_AT_decl_column(0x18)
    1473            
    1474            $C$DW$T$13      .dwtag  DW_TAG_base_type
    1475                    .dwattr $C$DW$T$13, DW_AT_encoding(DW_ATE_unsigned)
    1476                    .dwattr $C$DW$T$13, DW_AT_name("unsigned long")
    1477                    .dwattr $C$DW$T$13, DW_AT_byte_size(0x04)
    1478            
    1479            $C$DW$T$28      .dwtag  DW_TAG_typedef
    1480                    .dwattr $C$DW$T$28, DW_AT_name("__uint32_t")
    1481                    .dwattr $C$DW$T$28, DW_AT_type(*$C$DW$T$13)
    1482                    .dwattr $C$DW$T$28, DW_AT_language(DW_LANG_C)
    1483                    .dwattr $C$DW$T$28, DW_AT_decl_file("C:/ti/ccs1110/ccs/tools/compiler/ti-cgt-msp430_21.6.1.LTS
    1484                    .dwattr $C$DW$T$28, DW_AT_decl_line(0x3b)
    1485                    .dwattr $C$DW$T$28, DW_AT_decl_column(0x18)
    1486            
    1487            $C$DW$T$107     .dwtag  DW_TAG_typedef
MSP430 Assembler PC v21.6.1 Wed Nov 30 16:35:43 2022

Copyright (c) 2003-2018 Texas Instruments Incorporated
tlv.asm                                                              PAGE   30

    1488                    .dwattr $C$DW$T$107, DW_AT_name("__clock_t")
    1489                    .dwattr $C$DW$T$107, DW_AT_type(*$C$DW$T$28)
    1490                    .dwattr $C$DW$T$107, DW_AT_language(DW_LANG_C)
    1491                    .dwattr $C$DW$T$107, DW_AT_decl_file("C:/ti/ccs1110/ccs/tools/compiler/ti-cgt-msp430_21.6.1.LT
    1492                    .dwattr $C$DW$T$107, DW_AT_decl_line(0x4a)
    1493                    .dwattr $C$DW$T$107, DW_AT_decl_column(0x14)
    1494            
    1495            $C$DW$T$108     .dwtag  DW_TAG_typedef
    1496                    .dwattr $C$DW$T$108, DW_AT_name("__fflags_t")
    1497                    .dwattr $C$DW$T$108, DW_AT_type(*$C$DW$T$28)
    1498                    .dwattr $C$DW$T$108, DW_AT_language(DW_LANG_C)
    1499                    .dwattr $C$DW$T$108, DW_AT_decl_file("C:/ti/ccs1110/ccs/tools/compiler/ti-cgt-msp430_21.6.1.LT
    1500                    .dwattr $C$DW$T$108, DW_AT_decl_line(0x32)
    1501                    .dwattr $C$DW$T$108, DW_AT_decl_column(0x14)
    1502            
    1503            $C$DW$T$109     .dwtag  DW_TAG_typedef
    1504                    .dwattr $C$DW$T$109, DW_AT_name("__fixpt_t")
    1505                    .dwattr $C$DW$T$109, DW_AT_type(*$C$DW$T$28)
    1506                    .dwattr $C$DW$T$109, DW_AT_language(DW_LANG_C)
    1507                    .dwattr $C$DW$T$109, DW_AT_decl_file("C:/ti/ccs1110/ccs/tools/compiler/ti-cgt-msp430_21.6.1.LT
    1508                    .dwattr $C$DW$T$109, DW_AT_decl_line(0x81)
    1509                    .dwattr $C$DW$T$109, DW_AT_decl_column(0x14)
    1510            
    1511            $C$DW$T$110     .dwtag  DW_TAG_typedef
    1512                    .dwattr $C$DW$T$110, DW_AT_name("__gid_t")
    1513                    .dwattr $C$DW$T$110, DW_AT_type(*$C$DW$T$28)
    1514                    .dwattr $C$DW$T$110, DW_AT_language(DW_LANG_C)
    1515                    .dwattr $C$DW$T$110, DW_AT_decl_file("C:/ti/ccs1110/ccs/tools/compiler/ti-cgt-msp430_21.6.1.LT
    1516                    .dwattr $C$DW$T$110, DW_AT_decl_line(0x35)
    1517                    .dwattr $C$DW$T$110, DW_AT_decl_column(0x14)
    1518            
    1519            $C$DW$T$111     .dwtag  DW_TAG_typedef
    1520                    .dwattr $C$DW$T$111, DW_AT_name("__socklen_t")
    1521                    .dwattr $C$DW$T$111, DW_AT_type(*$C$DW$T$28)
    1522                    .dwattr $C$DW$T$111, DW_AT_language(DW_LANG_C)
    1523                    .dwattr $C$DW$T$111, DW_AT_decl_file("C:/ti/ccs1110/ccs/tools/compiler/ti-cgt-msp430_21.6.1.LT
    1524                    .dwattr $C$DW$T$111, DW_AT_decl_line(0x49)
    1525                    .dwattr $C$DW$T$111, DW_AT_decl_column(0x14)
    1526            
    1527            $C$DW$T$112     .dwtag  DW_TAG_typedef
    1528                    .dwattr $C$DW$T$112, DW_AT_name("__time_t")
    1529                    .dwattr $C$DW$T$112, DW_AT_type(*$C$DW$T$28)
    1530                    .dwattr $C$DW$T$112, DW_AT_language(DW_LANG_C)
    1531                    .dwattr $C$DW$T$112, DW_AT_decl_file("C:/ti/ccs1110/ccs/tools/compiler/ti-cgt-msp430_21.6.1.LT
    1532                    .dwattr $C$DW$T$112, DW_AT_decl_line(0x66)
    1533                    .dwattr $C$DW$T$112, DW_AT_decl_column(0x19)
    1534            
    1535            $C$DW$T$113     .dwtag  DW_TAG_typedef
    1536                    .dwattr $C$DW$T$113, DW_AT_name("__uid_t")
    1537                    .dwattr $C$DW$T$113, DW_AT_type(*$C$DW$T$28)
    1538                    .dwattr $C$DW$T$113, DW_AT_language(DW_LANG_C)
    1539                    .dwattr $C$DW$T$113, DW_AT_decl_file("C:/ti/ccs1110/ccs/tools/compiler/ti-cgt-msp430_21.6.1.LT
    1540                    .dwattr $C$DW$T$113, DW_AT_decl_line(0x4d)
    1541                    .dwattr $C$DW$T$113, DW_AT_decl_column(0x14)
    1542            
MSP430 Assembler PC v21.6.1 Wed Nov 30 16:35:43 2022

Copyright (c) 2003-2018 Texas Instruments Incorporated
tlv.asm                                                              PAGE   31

    1543            $C$DW$T$114     .dwtag  DW_TAG_typedef
    1544                    .dwattr $C$DW$T$114, DW_AT_name("__uint_fast32_t")
    1545                    .dwattr $C$DW$T$114, DW_AT_type(*$C$DW$T$28)
    1546                    .dwattr $C$DW$T$114, DW_AT_language(DW_LANG_C)
    1547                    .dwattr $C$DW$T$114, DW_AT_decl_file("C:/ti/ccs1110/ccs/tools/compiler/ti-cgt-msp430_21.6.1.LT
    1548                    .dwattr $C$DW$T$114, DW_AT_decl_line(0x72)
    1549                    .dwattr $C$DW$T$114, DW_AT_decl_column(0x14)
    1550            
    1551            $C$DW$T$115     .dwtag  DW_TAG_typedef
    1552                    .dwattr $C$DW$T$115, DW_AT_name("uint_fast32_t")
    1553                    .dwattr $C$DW$T$115, DW_AT_type(*$C$DW$T$114)
    1554                    .dwattr $C$DW$T$115, DW_AT_language(DW_LANG_C)
    1555                    .dwattr $C$DW$T$115, DW_AT_decl_file("C:/ti/ccs1110/ccs/tools/compiler/ti-cgt-msp430_21.6.1.LT
    1556                    .dwattr $C$DW$T$115, DW_AT_decl_line(0x3b)
    1557                    .dwattr $C$DW$T$115, DW_AT_decl_column(0x1a)
    1558            
    1559            $C$DW$T$116     .dwtag  DW_TAG_typedef
    1560                    .dwattr $C$DW$T$116, DW_AT_name("__uint_least32_t")
    1561                    .dwattr $C$DW$T$116, DW_AT_type(*$C$DW$T$28)
    1562                    .dwattr $C$DW$T$116, DW_AT_language(DW_LANG_C)
    1563                    .dwattr $C$DW$T$116, DW_AT_decl_file("C:/ti/ccs1110/ccs/tools/compiler/ti-cgt-msp430_21.6.1.LT
    1564                    .dwattr $C$DW$T$116, DW_AT_decl_line(0x76)
    1565                    .dwattr $C$DW$T$116, DW_AT_decl_column(0x14)
    1566            
    1567            $C$DW$T$117     .dwtag  DW_TAG_typedef
    1568                    .dwattr $C$DW$T$117, DW_AT_name("__char32_t")
    1569                    .dwattr $C$DW$T$117, DW_AT_type(*$C$DW$T$116)
    1570                    .dwattr $C$DW$T$117, DW_AT_language(DW_LANG_C)
    1571                    .dwattr $C$DW$T$117, DW_AT_decl_file("C:/ti/ccs1110/ccs/tools/compiler/ti-cgt-msp430_21.6.1.LT
    1572                    .dwattr $C$DW$T$117, DW_AT_decl_line(0x72)
    1573                    .dwattr $C$DW$T$117, DW_AT_decl_column(0x1a)
    1574            
    1575            $C$DW$T$118     .dwtag  DW_TAG_typedef
    1576                    .dwattr $C$DW$T$118, DW_AT_name("uint_least32_t")
    1577                    .dwattr $C$DW$T$118, DW_AT_type(*$C$DW$T$116)
    1578                    .dwattr $C$DW$T$118, DW_AT_language(DW_LANG_C)
    1579                    .dwattr $C$DW$T$118, DW_AT_decl_file("C:/ti/ccs1110/ccs/tools/compiler/ti-cgt-msp430_21.6.1.LT
    1580                    .dwattr $C$DW$T$118, DW_AT_decl_line(0x31)
    1581                    .dwattr $C$DW$T$118, DW_AT_decl_column(0x1a)
    1582            
    1583            $C$DW$T$119     .dwtag  DW_TAG_typedef
    1584                    .dwattr $C$DW$T$119, DW_AT_name("__uintfptr_t")
    1585                    .dwattr $C$DW$T$119, DW_AT_type(*$C$DW$T$28)
    1586                    .dwattr $C$DW$T$119, DW_AT_language(DW_LANG_C)
    1587                    .dwattr $C$DW$T$119, DW_AT_decl_file("C:/ti/ccs1110/ccs/tools/compiler/ti-cgt-msp430_21.6.1.LT
    1588                    .dwattr $C$DW$T$119, DW_AT_decl_line(0x68)
    1589                    .dwattr $C$DW$T$119, DW_AT_decl_column(0x14)
    1590            
    1591            $C$DW$T$120     .dwtag  DW_TAG_typedef
    1592                    .dwattr $C$DW$T$120, DW_AT_name("__uintptr_t")
    1593                    .dwattr $C$DW$T$120, DW_AT_type(*$C$DW$T$28)
    1594                    .dwattr $C$DW$T$120, DW_AT_language(DW_LANG_C)
    1595                    .dwattr $C$DW$T$120, DW_AT_decl_file("C:/ti/ccs1110/ccs/tools/compiler/ti-cgt-msp430_21.6.1.LT
    1596                    .dwattr $C$DW$T$120, DW_AT_decl_line(0x6b)
    1597                    .dwattr $C$DW$T$120, DW_AT_decl_column(0x14)
MSP430 Assembler PC v21.6.1 Wed Nov 30 16:35:43 2022

Copyright (c) 2003-2018 Texas Instruments Incorporated
tlv.asm                                                              PAGE   32

    1598            
    1599            $C$DW$T$121     .dwtag  DW_TAG_typedef
    1600                    .dwattr $C$DW$T$121, DW_AT_name("uintptr_t")
    1601                    .dwattr $C$DW$T$121, DW_AT_type(*$C$DW$T$120)
    1602                    .dwattr $C$DW$T$121, DW_AT_language(DW_LANG_C)
    1603                    .dwattr $C$DW$T$121, DW_AT_decl_file("C:/ti/ccs1110/ccs/tools/compiler/ti-cgt-msp430_21.6.1.LT
    1604                    .dwattr $C$DW$T$121, DW_AT_decl_line(0x54)
    1605                    .dwattr $C$DW$T$121, DW_AT_decl_column(0x16)
    1606            
    1607            $C$DW$T$122     .dwtag  DW_TAG_typedef
    1608                    .dwattr $C$DW$T$122, DW_AT_name("__vm_offset_t")
    1609                    .dwattr $C$DW$T$122, DW_AT_type(*$C$DW$T$28)
    1610                    .dwattr $C$DW$T$122, DW_AT_language(DW_LANG_C)
    1611                    .dwattr $C$DW$T$122, DW_AT_decl_file("C:/ti/ccs1110/ccs/tools/compiler/ti-cgt-msp430_21.6.1.LT
    1612                    .dwattr $C$DW$T$122, DW_AT_decl_line(0x79)
    1613                    .dwattr $C$DW$T$122, DW_AT_decl_column(0x14)
    1614            
    1615            $C$DW$T$123     .dwtag  DW_TAG_typedef
    1616                    .dwattr $C$DW$T$123, DW_AT_name("__vm_paddr_t")
    1617                    .dwattr $C$DW$T$123, DW_AT_type(*$C$DW$T$28)
    1618                    .dwattr $C$DW$T$123, DW_AT_language(DW_LANG_C)
    1619                    .dwattr $C$DW$T$123, DW_AT_decl_file("C:/ti/ccs1110/ccs/tools/compiler/ti-cgt-msp430_21.6.1.LT
    1620                    .dwattr $C$DW$T$123, DW_AT_decl_line(0x7a)
    1621                    .dwattr $C$DW$T$123, DW_AT_decl_column(0x14)
    1622            
    1623            $C$DW$T$124     .dwtag  DW_TAG_typedef
    1624                    .dwattr $C$DW$T$124, DW_AT_name("__vm_size_t")
    1625                    .dwattr $C$DW$T$124, DW_AT_type(*$C$DW$T$28)
    1626                    .dwattr $C$DW$T$124, DW_AT_language(DW_LANG_C)
    1627                    .dwattr $C$DW$T$124, DW_AT_decl_file("C:/ti/ccs1110/ccs/tools/compiler/ti-cgt-msp430_21.6.1.LT
    1628                    .dwattr $C$DW$T$124, DW_AT_decl_line(0x7b)
    1629                    .dwattr $C$DW$T$124, DW_AT_decl_column(0x14)
    1630            
    1631            $C$DW$T$29      .dwtag  DW_TAG_typedef
    1632                    .dwattr $C$DW$T$29, DW_AT_name("uint32_t")
    1633                    .dwattr $C$DW$T$29, DW_AT_type(*$C$DW$T$28)
    1634                    .dwattr $C$DW$T$29, DW_AT_language(DW_LANG_C)
    1635                    .dwattr $C$DW$T$29, DW_AT_decl_file("C:/ti/ccs1110/ccs/tools/compiler/ti-cgt-msp430_21.6.1.LTS
    1636                    .dwattr $C$DW$T$29, DW_AT_decl_line(0x46)
    1637                    .dwattr $C$DW$T$29, DW_AT_decl_column(0x15)
    1638            
    1639            $C$DW$T$14      .dwtag  DW_TAG_base_type
    1640                    .dwattr $C$DW$T$14, DW_AT_encoding(DW_ATE_signed)
    1641                    .dwattr $C$DW$T$14, DW_AT_name("long long")
    1642                    .dwattr $C$DW$T$14, DW_AT_byte_size(0x08)
    1643            
    1644            $C$DW$T$125     .dwtag  DW_TAG_typedef
    1645                    .dwattr $C$DW$T$125, DW_AT_name("__int64_t")
    1646                    .dwattr $C$DW$T$125, DW_AT_type(*$C$DW$T$14)
    1647                    .dwattr $C$DW$T$125, DW_AT_language(DW_LANG_C)
    1648                    .dwattr $C$DW$T$125, DW_AT_decl_file("C:/ti/ccs1110/ccs/tools/compiler/ti-cgt-msp430_21.6.1.LT
    1649                    .dwattr $C$DW$T$125, DW_AT_decl_line(0x40)
    1650                    .dwattr $C$DW$T$125, DW_AT_decl_column(0x14)
    1651            
    1652            $C$DW$T$126     .dwtag  DW_TAG_typedef
MSP430 Assembler PC v21.6.1 Wed Nov 30 16:35:43 2022

Copyright (c) 2003-2018 Texas Instruments Incorporated
tlv.asm                                                              PAGE   33

    1653                    .dwattr $C$DW$T$126, DW_AT_name("__blkcnt_t")
    1654                    .dwattr $C$DW$T$126, DW_AT_type(*$C$DW$T$125)
    1655                    .dwattr $C$DW$T$126, DW_AT_language(DW_LANG_C)
    1656                    .dwattr $C$DW$T$126, DW_AT_decl_file("C:/ti/ccs1110/ccs/tools/compiler/ti-cgt-msp430_21.6.1.LT
    1657                    .dwattr $C$DW$T$126, DW_AT_decl_line(0x30)
    1658                    .dwattr $C$DW$T$126, DW_AT_decl_column(0x13)
    1659            
    1660            $C$DW$T$127     .dwtag  DW_TAG_typedef
    1661                    .dwattr $C$DW$T$127, DW_AT_name("__id_t")
    1662                    .dwattr $C$DW$T$127, DW_AT_type(*$C$DW$T$125)
    1663                    .dwattr $C$DW$T$127, DW_AT_language(DW_LANG_C)
    1664                    .dwattr $C$DW$T$127, DW_AT_decl_file("C:/ti/ccs1110/ccs/tools/compiler/ti-cgt-msp430_21.6.1.LT
    1665                    .dwattr $C$DW$T$127, DW_AT_decl_line(0x36)
    1666                    .dwattr $C$DW$T$127, DW_AT_decl_column(0x13)
    1667            
    1668            $C$DW$T$128     .dwtag  DW_TAG_typedef
    1669                    .dwattr $C$DW$T$128, DW_AT_name("__int_fast64_t")
    1670                    .dwattr $C$DW$T$128, DW_AT_type(*$C$DW$T$125)
    1671                    .dwattr $C$DW$T$128, DW_AT_language(DW_LANG_C)
    1672                    .dwattr $C$DW$T$128, DW_AT_decl_file("C:/ti/ccs1110/ccs/tools/compiler/ti-cgt-msp430_21.6.1.LT
    1673                    .dwattr $C$DW$T$128, DW_AT_decl_line(0x59)
    1674                    .dwattr $C$DW$T$128, DW_AT_decl_column(0x13)
    1675            
    1676            $C$DW$T$129     .dwtag  DW_TAG_typedef
    1677                    .dwattr $C$DW$T$129, DW_AT_name("int_fast64_t")
    1678                    .dwattr $C$DW$T$129, DW_AT_type(*$C$DW$T$128)
    1679                    .dwattr $C$DW$T$129, DW_AT_language(DW_LANG_C)
    1680                    .dwattr $C$DW$T$129, DW_AT_decl_file("C:/ti/ccs1110/ccs/tools/compiler/ti-cgt-msp430_21.6.1.LT
    1681                    .dwattr $C$DW$T$129, DW_AT_decl_line(0x37)
    1682                    .dwattr $C$DW$T$129, DW_AT_decl_column(0x19)
    1683            
    1684            $C$DW$T$130     .dwtag  DW_TAG_typedef
    1685                    .dwattr $C$DW$T$130, DW_AT_name("__int_least64_t")
    1686                    .dwattr $C$DW$T$130, DW_AT_type(*$C$DW$T$125)
    1687                    .dwattr $C$DW$T$130, DW_AT_language(DW_LANG_C)
    1688                    .dwattr $C$DW$T$130, DW_AT_decl_file("C:/ti/ccs1110/ccs/tools/compiler/ti-cgt-msp430_21.6.1.LT
    1689                    .dwattr $C$DW$T$130, DW_AT_decl_line(0x5d)
    1690                    .dwattr $C$DW$T$130, DW_AT_decl_column(0x13)
    1691            
    1692            $C$DW$T$131     .dwtag  DW_TAG_typedef
    1693                    .dwattr $C$DW$T$131, DW_AT_name("int_least64_t")
    1694                    .dwattr $C$DW$T$131, DW_AT_type(*$C$DW$T$130)
    1695                    .dwattr $C$DW$T$131, DW_AT_language(DW_LANG_C)
    1696                    .dwattr $C$DW$T$131, DW_AT_decl_file("C:/ti/ccs1110/ccs/tools/compiler/ti-cgt-msp430_21.6.1.LT
    1697                    .dwattr $C$DW$T$131, DW_AT_decl_line(0x2d)
    1698                    .dwattr $C$DW$T$131, DW_AT_decl_column(0x1a)
    1699            
    1700            $C$DW$T$132     .dwtag  DW_TAG_typedef
    1701                    .dwattr $C$DW$T$132, DW_AT_name("__intmax_t")
    1702                    .dwattr $C$DW$T$132, DW_AT_type(*$C$DW$T$125)
    1703                    .dwattr $C$DW$T$132, DW_AT_language(DW_LANG_C)
    1704                    .dwattr $C$DW$T$132, DW_AT_decl_file("C:/ti/ccs1110/ccs/tools/compiler/ti-cgt-msp430_21.6.1.LT
    1705                    .dwattr $C$DW$T$132, DW_AT_decl_line(0x4f)
    1706                    .dwattr $C$DW$T$132, DW_AT_decl_column(0x13)
    1707            
MSP430 Assembler PC v21.6.1 Wed Nov 30 16:35:43 2022

Copyright (c) 2003-2018 Texas Instruments Incorporated
tlv.asm                                                              PAGE   34

    1708            $C$DW$T$133     .dwtag  DW_TAG_typedef
    1709                    .dwattr $C$DW$T$133, DW_AT_name("intmax_t")
    1710                    .dwattr $C$DW$T$133, DW_AT_type(*$C$DW$T$132)
    1711                    .dwattr $C$DW$T$133, DW_AT_language(DW_LANG_C)
    1712                    .dwattr $C$DW$T$133, DW_AT_decl_file("C:/ti/ccs1110/ccs/tools/compiler/ti-cgt-msp430_21.6.1.LT
    1713                    .dwattr $C$DW$T$133, DW_AT_decl_line(0x58)
    1714                    .dwattr $C$DW$T$133, DW_AT_decl_column(0x15)
    1715            
    1716            $C$DW$T$134     .dwtag  DW_TAG_typedef
    1717                    .dwattr $C$DW$T$134, DW_AT_name("__off64_t")
    1718                    .dwattr $C$DW$T$134, DW_AT_type(*$C$DW$T$125)
    1719                    .dwattr $C$DW$T$134, DW_AT_language(DW_LANG_C)
    1720                    .dwattr $C$DW$T$134, DW_AT_decl_file("C:/ti/ccs1110/ccs/tools/compiler/ti-cgt-msp430_21.6.1.LT
    1721                    .dwattr $C$DW$T$134, DW_AT_decl_line(0x3f)
    1722                    .dwattr $C$DW$T$134, DW_AT_decl_column(0x13)
    1723            
    1724            $C$DW$T$135     .dwtag  DW_TAG_typedef
    1725                    .dwattr $C$DW$T$135, DW_AT_name("__rlim_t")
    1726                    .dwattr $C$DW$T$135, DW_AT_type(*$C$DW$T$125)
    1727                    .dwattr $C$DW$T$135, DW_AT_language(DW_LANG_C)
    1728                    .dwattr $C$DW$T$135, DW_AT_decl_file("C:/ti/ccs1110/ccs/tools/compiler/ti-cgt-msp430_21.6.1.LT
    1729                    .dwattr $C$DW$T$135, DW_AT_decl_line(0x41)
    1730                    .dwattr $C$DW$T$135, DW_AT_decl_column(0x13)
    1731            
    1732            $C$DW$T$136     .dwtag  DW_TAG_typedef
    1733                    .dwattr $C$DW$T$136, DW_AT_name("int64_t")
    1734                    .dwattr $C$DW$T$136, DW_AT_type(*$C$DW$T$125)
    1735                    .dwattr $C$DW$T$136, DW_AT_language(DW_LANG_C)
    1736                    .dwattr $C$DW$T$136, DW_AT_decl_file("C:/ti/ccs1110/ccs/tools/compiler/ti-cgt-msp430_21.6.1.LT
    1737                    .dwattr $C$DW$T$136, DW_AT_decl_line(0x35)
    1738                    .dwattr $C$DW$T$136, DW_AT_decl_column(0x14)
    1739            
    1740            $C$DW$T$15      .dwtag  DW_TAG_base_type
    1741                    .dwattr $C$DW$T$15, DW_AT_encoding(DW_ATE_unsigned)
    1742                    .dwattr $C$DW$T$15, DW_AT_name("unsigned long long")
    1743                    .dwattr $C$DW$T$15, DW_AT_byte_size(0x08)
    1744            
    1745            $C$DW$T$137     .dwtag  DW_TAG_typedef
    1746                    .dwattr $C$DW$T$137, DW_AT_name("__uint64_t")
    1747                    .dwattr $C$DW$T$137, DW_AT_type(*$C$DW$T$15)
    1748                    .dwattr $C$DW$T$137, DW_AT_language(DW_LANG_C)
    1749                    .dwattr $C$DW$T$137, DW_AT_decl_file("C:/ti/ccs1110/ccs/tools/compiler/ti-cgt-msp430_21.6.1.LT
    1750                    .dwattr $C$DW$T$137, DW_AT_decl_line(0x45)
    1751                    .dwattr $C$DW$T$137, DW_AT_decl_column(0x1c)
    1752            
    1753            $C$DW$T$138     .dwtag  DW_TAG_typedef
    1754                    .dwattr $C$DW$T$138, DW_AT_name("__dev_t")
    1755                    .dwattr $C$DW$T$138, DW_AT_type(*$C$DW$T$137)
    1756                    .dwattr $C$DW$T$138, DW_AT_language(DW_LANG_C)
    1757                    .dwattr $C$DW$T$138, DW_AT_decl_file("C:/ti/ccs1110/ccs/tools/compiler/ti-cgt-msp430_21.6.1.LT
    1758                    .dwattr $C$DW$T$138, DW_AT_decl_line(0x7f)
    1759                    .dwattr $C$DW$T$138, DW_AT_decl_column(0x14)
    1760            
    1761            $C$DW$T$139     .dwtag  DW_TAG_typedef
    1762                    .dwattr $C$DW$T$139, DW_AT_name("__fsblkcnt_t")
MSP430 Assembler PC v21.6.1 Wed Nov 30 16:35:43 2022

Copyright (c) 2003-2018 Texas Instruments Incorporated
tlv.asm                                                              PAGE   35

    1763                    .dwattr $C$DW$T$139, DW_AT_type(*$C$DW$T$137)
    1764                    .dwattr $C$DW$T$139, DW_AT_language(DW_LANG_C)
    1765                    .dwattr $C$DW$T$139, DW_AT_decl_file("C:/ti/ccs1110/ccs/tools/compiler/ti-cgt-msp430_21.6.1.LT
    1766                    .dwattr $C$DW$T$139, DW_AT_decl_line(0x33)
    1767                    .dwattr $C$DW$T$139, DW_AT_decl_column(0x14)
    1768            
    1769            $C$DW$T$140     .dwtag  DW_TAG_typedef
    1770                    .dwattr $C$DW$T$140, DW_AT_name("__fsfilcnt_t")
    1771                    .dwattr $C$DW$T$140, DW_AT_type(*$C$DW$T$137)
    1772                    .dwattr $C$DW$T$140, DW_AT_language(DW_LANG_C)
    1773                    .dwattr $C$DW$T$140, DW_AT_decl_file("C:/ti/ccs1110/ccs/tools/compiler/ti-cgt-msp430_21.6.1.LT
    1774                    .dwattr $C$DW$T$140, DW_AT_decl_line(0x34)
    1775                    .dwattr $C$DW$T$140, DW_AT_decl_column(0x14)
    1776            
    1777            $C$DW$T$141     .dwtag  DW_TAG_typedef
    1778                    .dwattr $C$DW$T$141, DW_AT_name("__ino_t")
    1779                    .dwattr $C$DW$T$141, DW_AT_type(*$C$DW$T$137)
    1780                    .dwattr $C$DW$T$141, DW_AT_language(DW_LANG_C)
    1781                    .dwattr $C$DW$T$141, DW_AT_decl_file("C:/ti/ccs1110/ccs/tools/compiler/ti-cgt-msp430_21.6.1.LT
    1782                    .dwattr $C$DW$T$141, DW_AT_decl_line(0x37)
    1783                    .dwattr $C$DW$T$141, DW_AT_decl_column(0x14)
    1784            
    1785            $C$DW$T$142     .dwtag  DW_TAG_typedef
    1786                    .dwattr $C$DW$T$142, DW_AT_name("__nlink_t")
    1787                    .dwattr $C$DW$T$142, DW_AT_type(*$C$DW$T$137)
    1788                    .dwattr $C$DW$T$142, DW_AT_language(DW_LANG_C)
    1789                    .dwattr $C$DW$T$142, DW_AT_decl_file("C:/ti/ccs1110/ccs/tools/compiler/ti-cgt-msp430_21.6.1.LT
    1790                    .dwattr $C$DW$T$142, DW_AT_decl_line(0x3d)
    1791                    .dwattr $C$DW$T$142, DW_AT_decl_column(0x14)
    1792            
    1793            $C$DW$T$143     .dwtag  DW_TAG_typedef
    1794                    .dwattr $C$DW$T$143, DW_AT_name("__uint_fast64_t")
    1795                    .dwattr $C$DW$T$143, DW_AT_type(*$C$DW$T$137)
    1796                    .dwattr $C$DW$T$143, DW_AT_language(DW_LANG_C)
    1797                    .dwattr $C$DW$T$143, DW_AT_decl_file("C:/ti/ccs1110/ccs/tools/compiler/ti-cgt-msp430_21.6.1.LT
    1798                    .dwattr $C$DW$T$143, DW_AT_decl_line(0x73)
    1799                    .dwattr $C$DW$T$143, DW_AT_decl_column(0x14)
    1800            
    1801            $C$DW$T$144     .dwtag  DW_TAG_typedef
    1802                    .dwattr $C$DW$T$144, DW_AT_name("uint_fast64_t")
    1803                    .dwattr $C$DW$T$144, DW_AT_type(*$C$DW$T$143)
    1804                    .dwattr $C$DW$T$144, DW_AT_language(DW_LANG_C)
    1805                    .dwattr $C$DW$T$144, DW_AT_decl_file("C:/ti/ccs1110/ccs/tools/compiler/ti-cgt-msp430_21.6.1.LT
    1806                    .dwattr $C$DW$T$144, DW_AT_decl_line(0x3c)
    1807                    .dwattr $C$DW$T$144, DW_AT_decl_column(0x1a)
    1808            
    1809            $C$DW$T$145     .dwtag  DW_TAG_typedef
    1810                    .dwattr $C$DW$T$145, DW_AT_name("__uint_least64_t")
    1811                    .dwattr $C$DW$T$145, DW_AT_type(*$C$DW$T$137)
    1812                    .dwattr $C$DW$T$145, DW_AT_language(DW_LANG_C)
    1813                    .dwattr $C$DW$T$145, DW_AT_decl_file("C:/ti/ccs1110/ccs/tools/compiler/ti-cgt-msp430_21.6.1.LT
    1814                    .dwattr $C$DW$T$145, DW_AT_decl_line(0x77)
    1815                    .dwattr $C$DW$T$145, DW_AT_decl_column(0x14)
    1816            
    1817            $C$DW$T$146     .dwtag  DW_TAG_typedef
MSP430 Assembler PC v21.6.1 Wed Nov 30 16:35:43 2022

Copyright (c) 2003-2018 Texas Instruments Incorporated
tlv.asm                                                              PAGE   36

    1818                    .dwattr $C$DW$T$146, DW_AT_name("uint_least64_t")
    1819                    .dwattr $C$DW$T$146, DW_AT_type(*$C$DW$T$145)
    1820                    .dwattr $C$DW$T$146, DW_AT_language(DW_LANG_C)
    1821                    .dwattr $C$DW$T$146, DW_AT_decl_file("C:/ti/ccs1110/ccs/tools/compiler/ti-cgt-msp430_21.6.1.LT
    1822                    .dwattr $C$DW$T$146, DW_AT_decl_line(0x32)
    1823                    .dwattr $C$DW$T$146, DW_AT_decl_column(0x1a)
    1824            
    1825            $C$DW$T$147     .dwtag  DW_TAG_typedef
    1826                    .dwattr $C$DW$T$147, DW_AT_name("__uintmax_t")
    1827                    .dwattr $C$DW$T$147, DW_AT_type(*$C$DW$T$137)
    1828                    .dwattr $C$DW$T$147, DW_AT_language(DW_LANG_C)
    1829                    .dwattr $C$DW$T$147, DW_AT_decl_file("C:/ti/ccs1110/ccs/tools/compiler/ti-cgt-msp430_21.6.1.LT
    1830                    .dwattr $C$DW$T$147, DW_AT_decl_line(0x69)
    1831                    .dwattr $C$DW$T$147, DW_AT_decl_column(0x14)
    1832            
    1833            $C$DW$T$148     .dwtag  DW_TAG_typedef
    1834                    .dwattr $C$DW$T$148, DW_AT_name("__rman_res_t")
    1835                    .dwattr $C$DW$T$148, DW_AT_type(*$C$DW$T$147)
    1836                    .dwattr $C$DW$T$148, DW_AT_language(DW_LANG_C)
    1837                    .dwattr $C$DW$T$148, DW_AT_decl_file("C:/ti/ccs1110/ccs/tools/compiler/ti-cgt-msp430_21.6.1.LT
    1838                    .dwattr $C$DW$T$148, DW_AT_decl_line(0x9a)
    1839                    .dwattr $C$DW$T$148, DW_AT_decl_column(0x19)
    1840            
    1841            $C$DW$T$149     .dwtag  DW_TAG_typedef
    1842                    .dwattr $C$DW$T$149, DW_AT_name("uintmax_t")
    1843                    .dwattr $C$DW$T$149, DW_AT_type(*$C$DW$T$147)
    1844                    .dwattr $C$DW$T$149, DW_AT_language(DW_LANG_C)
    1845                    .dwattr $C$DW$T$149, DW_AT_decl_file("C:/ti/ccs1110/ccs/tools/compiler/ti-cgt-msp430_21.6.1.LT
    1846                    .dwattr $C$DW$T$149, DW_AT_decl_line(0x5c)
    1847                    .dwattr $C$DW$T$149, DW_AT_decl_column(0x16)
    1848            
    1849            $C$DW$T$150     .dwtag  DW_TAG_typedef
    1850                    .dwattr $C$DW$T$150, DW_AT_name("uint64_t")
    1851                    .dwattr $C$DW$T$150, DW_AT_type(*$C$DW$T$137)
    1852                    .dwattr $C$DW$T$150, DW_AT_language(DW_LANG_C)
    1853                    .dwattr $C$DW$T$150, DW_AT_decl_file("C:/ti/ccs1110/ccs/tools/compiler/ti-cgt-msp430_21.6.1.LT
    1854                    .dwattr $C$DW$T$150, DW_AT_decl_line(0x4b)
    1855                    .dwattr $C$DW$T$150, DW_AT_decl_column(0x15)
    1856            
    1857            $C$DW$T$16      .dwtag  DW_TAG_base_type
    1858                    .dwattr $C$DW$T$16, DW_AT_encoding(DW_ATE_float)
    1859                    .dwattr $C$DW$T$16, DW_AT_name("float")
    1860                    .dwattr $C$DW$T$16, DW_AT_byte_size(0x04)
    1861            
    1862            $C$DW$T$151     .dwtag  DW_TAG_typedef
    1863                    .dwattr $C$DW$T$151, DW_AT_name("__float_t")
    1864                    .dwattr $C$DW$T$151, DW_AT_type(*$C$DW$T$16)
    1865                    .dwattr $C$DW$T$151, DW_AT_language(DW_LANG_C)
    1866                    .dwattr $C$DW$T$151, DW_AT_decl_file("C:/ti/ccs1110/ccs/tools/compiler/ti-cgt-msp430_21.6.1.LT
    1867                    .dwattr $C$DW$T$151, DW_AT_decl_line(0x4d)
    1868                    .dwattr $C$DW$T$151, DW_AT_decl_column(0x10)
    1869            
    1870            $C$DW$T$17      .dwtag  DW_TAG_base_type
    1871                    .dwattr $C$DW$T$17, DW_AT_encoding(DW_ATE_float)
    1872                    .dwattr $C$DW$T$17, DW_AT_name("double")
MSP430 Assembler PC v21.6.1 Wed Nov 30 16:35:43 2022

Copyright (c) 2003-2018 Texas Instruments Incorporated
tlv.asm                                                              PAGE   37

    1873                    .dwattr $C$DW$T$17, DW_AT_byte_size(0x08)
    1874            
    1875            $C$DW$T$152     .dwtag  DW_TAG_typedef
    1876                    .dwattr $C$DW$T$152, DW_AT_name("__double_t")
    1877                    .dwattr $C$DW$T$152, DW_AT_type(*$C$DW$T$17)
    1878                    .dwattr $C$DW$T$152, DW_AT_language(DW_LANG_C)
    1879                    .dwattr $C$DW$T$152, DW_AT_decl_file("C:/ti/ccs1110/ccs/tools/compiler/ti-cgt-msp430_21.6.1.LT
    1880                    .dwattr $C$DW$T$152, DW_AT_decl_line(0x4c)
    1881                    .dwattr $C$DW$T$152, DW_AT_decl_column(0x11)
    1882            
    1883            $C$DW$T$18      .dwtag  DW_TAG_base_type
    1884                    .dwattr $C$DW$T$18, DW_AT_encoding(DW_ATE_float)
    1885                    .dwattr $C$DW$T$18, DW_AT_name("long double")
    1886                    .dwattr $C$DW$T$18, DW_AT_byte_size(0x08)
    1887            
    1888            $C$DW$T$154     .dwtag  DW_TAG_pointer_type
    1889                    .dwattr $C$DW$T$154, DW_AT_type(*$C$DW$T$6)
    1890                    .dwattr $C$DW$T$154, DW_AT_address_class(0x10)
    1891            
    1892            $C$DW$T$155     .dwtag  DW_TAG_typedef
    1893                    .dwattr $C$DW$T$155, DW_AT_name("__va_list")
    1894                    .dwattr $C$DW$T$155, DW_AT_type(*$C$DW$T$154)
    1895                    .dwattr $C$DW$T$155, DW_AT_language(DW_LANG_C)
    1896                    .dwattr $C$DW$T$155, DW_AT_decl_file("C:/ti/ccs1110/ccs/tools/compiler/ti-cgt-msp430_21.6.1.LT
    1897                    .dwattr $C$DW$T$155, DW_AT_decl_line(0x92)
    1898                    .dwattr $C$DW$T$155, DW_AT_decl_column(0x0f)
    1899            
    1900            
    1901            $C$DW$T$19      .dwtag  DW_TAG_structure_type
    1902                    .dwattr $C$DW$T$19, DW_AT_name("__mq")
    1903                    .dwattr $C$DW$T$19, DW_AT_declaration
    1904                    .dwattr $C$DW$T$19, DW_AT_decl_file("C:/ti/ccs1110/ccs/tools/compiler/ti-cgt-msp430_21.6.1.LTS
    1905                    .dwattr $C$DW$T$19, DW_AT_decl_line(0x4c)
    1906                    .dwattr $C$DW$T$19, DW_AT_decl_column(0x10)
    1907                    .dwendtag $C$DW$T$19
    1908            
    1909            $C$DW$T$156     .dwtag  DW_TAG_pointer_type
    1910                    .dwattr $C$DW$T$156, DW_AT_type(*$C$DW$T$19)
    1911                    .dwattr $C$DW$T$156, DW_AT_address_class(0x10)
    1912            
    1913            $C$DW$T$157     .dwtag  DW_TAG_typedef
    1914                    .dwattr $C$DW$T$157, DW_AT_name("__mqd_t")
    1915                    .dwattr $C$DW$T$157, DW_AT_type(*$C$DW$T$156)
    1916                    .dwattr $C$DW$T$157, DW_AT_language(DW_LANG_C)
    1917                    .dwattr $C$DW$T$157, DW_AT_decl_file("C:/ti/ccs1110/ccs/tools/compiler/ti-cgt-msp430_21.6.1.LT
    1918                    .dwattr $C$DW$T$157, DW_AT_decl_line(0x4c)
    1919                    .dwattr $C$DW$T$157, DW_AT_decl_column(0x16)
    1920            
    1921            
    1922            $C$DW$T$20      .dwtag  DW_TAG_structure_type
    1923                    .dwattr $C$DW$T$20, DW_AT_name("__timer")
    1924                    .dwattr $C$DW$T$20, DW_AT_declaration
    1925                    .dwattr $C$DW$T$20, DW_AT_decl_file("C:/ti/ccs1110/ccs/tools/compiler/ti-cgt-msp430_21.6.1.LTS
    1926                    .dwattr $C$DW$T$20, DW_AT_decl_line(0x4b)
    1927                    .dwattr $C$DW$T$20, DW_AT_decl_column(0x10)
MSP430 Assembler PC v21.6.1 Wed Nov 30 16:35:43 2022

Copyright (c) 2003-2018 Texas Instruments Incorporated
tlv.asm                                                              PAGE   38

    1928                    .dwendtag $C$DW$T$20
    1929            
    1930            $C$DW$T$158     .dwtag  DW_TAG_pointer_type
    1931                    .dwattr $C$DW$T$158, DW_AT_type(*$C$DW$T$20)
    1932                    .dwattr $C$DW$T$158, DW_AT_address_class(0x10)
    1933            
    1934            $C$DW$T$159     .dwtag  DW_TAG_typedef
    1935                    .dwattr $C$DW$T$159, DW_AT_name("__timer_t")
    1936                    .dwattr $C$DW$T$159, DW_AT_type(*$C$DW$T$158)
    1937                    .dwattr $C$DW$T$159, DW_AT_language(DW_LANG_C)
    1938                    .dwattr $C$DW$T$159, DW_AT_decl_file("C:/ti/ccs1110/ccs/tools/compiler/ti-cgt-msp430_21.6.1.LT
    1939                    .dwattr $C$DW$T$159, DW_AT_decl_line(0x4b)
    1940                    .dwattr $C$DW$T$159, DW_AT_decl_column(0x19)
    1941            
    1942            
    1943            $C$DW$T$24      .dwtag  DW_TAG_structure_type
    1944                    .dwattr $C$DW$T$24, DW_AT_name("s_Peripheral_Memory_Data")
    1945                    .dwattr $C$DW$T$24, DW_AT_byte_size(0x08)
    1946            $C$DW$47        .dwtag  DW_TAG_member
    1947                    .dwattr $C$DW$47, DW_AT_type(*$C$DW$T$23)
    1948                    .dwattr $C$DW$47, DW_AT_name("memory_1")
    1949                    .dwattr $C$DW$47, DW_AT_TI_symbol_name("memory_1")
    1950                    .dwattr $C$DW$47, DW_AT_data_member_location[DW_OP_plus_uconst 0x0]
    1951                    .dwattr $C$DW$47, DW_AT_accessibility(DW_ACCESS_public)
    1952                    .dwattr $C$DW$47, DW_AT_decl_file("..\driverlib\MSP430FR2xx_4xx\tlv.h")
    1953                    .dwattr $C$DW$47, DW_AT_decl_line(0x3f)
    1954                    .dwattr $C$DW$47, DW_AT_decl_column(0x0e)
    1955            
    1956            $C$DW$48        .dwtag  DW_TAG_member
    1957                    .dwattr $C$DW$48, DW_AT_type(*$C$DW$T$23)
    1958                    .dwattr $C$DW$48, DW_AT_name("memory_2")
    1959                    .dwattr $C$DW$48, DW_AT_TI_symbol_name("memory_2")
    1960                    .dwattr $C$DW$48, DW_AT_data_member_location[DW_OP_plus_uconst 0x2]
    1961                    .dwattr $C$DW$48, DW_AT_accessibility(DW_ACCESS_public)
    1962                    .dwattr $C$DW$48, DW_AT_decl_file("..\driverlib\MSP430FR2xx_4xx\tlv.h")
    1963                    .dwattr $C$DW$48, DW_AT_decl_line(0x40)
    1964                    .dwattr $C$DW$48, DW_AT_decl_column(0x0e)
    1965            
    1966            $C$DW$49        .dwtag  DW_TAG_member
    1967                    .dwattr $C$DW$49, DW_AT_type(*$C$DW$T$23)
    1968                    .dwattr $C$DW$49, DW_AT_name("memory_3")
    1969                    .dwattr $C$DW$49, DW_AT_TI_symbol_name("memory_3")
    1970                    .dwattr $C$DW$49, DW_AT_data_member_location[DW_OP_plus_uconst 0x4]
    1971                    .dwattr $C$DW$49, DW_AT_accessibility(DW_ACCESS_public)
    1972                    .dwattr $C$DW$49, DW_AT_decl_file("..\driverlib\MSP430FR2xx_4xx\tlv.h")
    1973                    .dwattr $C$DW$49, DW_AT_decl_line(0x41)
    1974                    .dwattr $C$DW$49, DW_AT_decl_column(0x0e)
    1975            
    1976            $C$DW$50        .dwtag  DW_TAG_member
    1977                    .dwattr $C$DW$50, DW_AT_type(*$C$DW$T$23)
    1978                    .dwattr $C$DW$50, DW_AT_name("memory_4")
    1979                    .dwattr $C$DW$50, DW_AT_TI_symbol_name("memory_4")
    1980                    .dwattr $C$DW$50, DW_AT_data_member_location[DW_OP_plus_uconst 0x6]
    1981                    .dwattr $C$DW$50, DW_AT_accessibility(DW_ACCESS_public)
    1982                    .dwattr $C$DW$50, DW_AT_decl_file("..\driverlib\MSP430FR2xx_4xx\tlv.h")
MSP430 Assembler PC v21.6.1 Wed Nov 30 16:35:43 2022

Copyright (c) 2003-2018 Texas Instruments Incorporated
tlv.asm                                                              PAGE   39

    1983                    .dwattr $C$DW$50, DW_AT_decl_line(0x42)
    1984                    .dwattr $C$DW$50, DW_AT_decl_column(0x0e)
    1985            
    1986                    .dwattr $C$DW$T$24, DW_AT_decl_file("..\driverlib\MSP430FR2xx_4xx\tlv.h")
    1987                    .dwattr $C$DW$T$24, DW_AT_decl_line(0x3e)
    1988                    .dwattr $C$DW$T$24, DW_AT_decl_column(0x08)
    1989                    .dwendtag $C$DW$T$24
    1990            
    1991            
    1992            $C$DW$T$27      .dwtag  DW_TAG_structure_type
    1993                    .dwattr $C$DW$T$27, DW_AT_name("s_TLV_ADC_Cal_Data")
    1994                    .dwattr $C$DW$T$27, DW_AT_byte_size(0x10)
    1995            $C$DW$51        .dwtag  DW_TAG_member
    1996                    .dwattr $C$DW$51, DW_AT_type(*$C$DW$T$23)
    1997                    .dwattr $C$DW$51, DW_AT_name("adc_gain_factor")
    1998                    .dwattr $C$DW$51, DW_AT_TI_symbol_name("adc_gain_factor")
    1999                    .dwattr $C$DW$51, DW_AT_data_member_location[DW_OP_plus_uconst 0x0]
    2000                    .dwattr $C$DW$51, DW_AT_accessibility(DW_ACCESS_public)
    2001                    .dwattr $C$DW$51, DW_AT_decl_file("..\driverlib\MSP430FR2xx_4xx\tlv.h")
    2002                    .dwattr $C$DW$51, DW_AT_decl_line(0x27)
    2003                    .dwattr $C$DW$51, DW_AT_decl_column(0x0e)
    2004            
    2005            $C$DW$52        .dwtag  DW_TAG_member
    2006                    .dwattr $C$DW$52, DW_AT_type(*$C$DW$T$26)
    2007                    .dwattr $C$DW$52, DW_AT_name("adc_offset")
    2008                    .dwattr $C$DW$52, DW_AT_TI_symbol_name("adc_offset")
    2009                    .dwattr $C$DW$52, DW_AT_data_member_location[DW_OP_plus_uconst 0x2]
    2010                    .dwattr $C$DW$52, DW_AT_accessibility(DW_ACCESS_public)
    2011                    .dwattr $C$DW$52, DW_AT_decl_file("..\driverlib\MSP430FR2xx_4xx\tlv.h")
    2012                    .dwattr $C$DW$52, DW_AT_decl_line(0x28)
    2013                    .dwattr $C$DW$52, DW_AT_decl_column(0x0d)
    2014            
    2015            $C$DW$53        .dwtag  DW_TAG_member
    2016                    .dwattr $C$DW$53, DW_AT_type(*$C$DW$T$23)
    2017                    .dwattr $C$DW$53, DW_AT_name("adc_ref15_30_temp")
    2018                    .dwattr $C$DW$53, DW_AT_TI_symbol_name("adc_ref15_30_temp")
    2019                    .dwattr $C$DW$53, DW_AT_data_member_location[DW_OP_plus_uconst 0x4]
    2020                    .dwattr $C$DW$53, DW_AT_accessibility(DW_ACCESS_public)
    2021                    .dwattr $C$DW$53, DW_AT_decl_file("..\driverlib\MSP430FR2xx_4xx\tlv.h")
    2022                    .dwattr $C$DW$53, DW_AT_decl_line(0x29)
    2023                    .dwattr $C$DW$53, DW_AT_decl_column(0x0e)
    2024            
    2025            $C$DW$54        .dwtag  DW_TAG_member
    2026                    .dwattr $C$DW$54, DW_AT_type(*$C$DW$T$23)
    2027                    .dwattr $C$DW$54, DW_AT_name("adc_ref15_85_temp")
    2028                    .dwattr $C$DW$54, DW_AT_TI_symbol_name("adc_ref15_85_temp")
    2029                    .dwattr $C$DW$54, DW_AT_data_member_location[DW_OP_plus_uconst 0x6]
    2030                    .dwattr $C$DW$54, DW_AT_accessibility(DW_ACCESS_public)
    2031                    .dwattr $C$DW$54, DW_AT_decl_file("..\driverlib\MSP430FR2xx_4xx\tlv.h")
    2032                    .dwattr $C$DW$54, DW_AT_decl_line(0x2a)
    2033                    .dwattr $C$DW$54, DW_AT_decl_column(0x0e)
    2034            
    2035            $C$DW$55        .dwtag  DW_TAG_member
    2036                    .dwattr $C$DW$55, DW_AT_type(*$C$DW$T$23)
    2037                    .dwattr $C$DW$55, DW_AT_name("adc_ref20_30_temp")
MSP430 Assembler PC v21.6.1 Wed Nov 30 16:35:43 2022

Copyright (c) 2003-2018 Texas Instruments Incorporated
tlv.asm                                                              PAGE   40

    2038                    .dwattr $C$DW$55, DW_AT_TI_symbol_name("adc_ref20_30_temp")
    2039                    .dwattr $C$DW$55, DW_AT_data_member_location[DW_OP_plus_uconst 0x8]
    2040                    .dwattr $C$DW$55, DW_AT_accessibility(DW_ACCESS_public)
    2041                    .dwattr $C$DW$55, DW_AT_decl_file("..\driverlib\MSP430FR2xx_4xx\tlv.h")
    2042                    .dwattr $C$DW$55, DW_AT_decl_line(0x2b)
    2043                    .dwattr $C$DW$55, DW_AT_decl_column(0x0e)
    2044            
    2045            $C$DW$56        .dwtag  DW_TAG_member
    2046                    .dwattr $C$DW$56, DW_AT_type(*$C$DW$T$23)
    2047                    .dwattr $C$DW$56, DW_AT_name("adc_ref20_85_temp")
    2048                    .dwattr $C$DW$56, DW_AT_TI_symbol_name("adc_ref20_85_temp")
    2049                    .dwattr $C$DW$56, DW_AT_data_member_location[DW_OP_plus_uconst 0xa]
    2050                    .dwattr $C$DW$56, DW_AT_accessibility(DW_ACCESS_public)
    2051                    .dwattr $C$DW$56, DW_AT_decl_file("..\driverlib\MSP430FR2xx_4xx\tlv.h")
    2052                    .dwattr $C$DW$56, DW_AT_decl_line(0x2c)
    2053                    .dwattr $C$DW$56, DW_AT_decl_column(0x0e)
    2054            
    2055            $C$DW$57        .dwtag  DW_TAG_member
    2056                    .dwattr $C$DW$57, DW_AT_type(*$C$DW$T$23)
    2057                    .dwattr $C$DW$57, DW_AT_name("adc_ref25_30_temp")
    2058                    .dwattr $C$DW$57, DW_AT_TI_symbol_name("adc_ref25_30_temp")
    2059                    .dwattr $C$DW$57, DW_AT_data_member_location[DW_OP_plus_uconst 0xc]
    2060                    .dwattr $C$DW$57, DW_AT_accessibility(DW_ACCESS_public)
    2061                    .dwattr $C$DW$57, DW_AT_decl_file("..\driverlib\MSP430FR2xx_4xx\tlv.h")
    2062                    .dwattr $C$DW$57, DW_AT_decl_line(0x2d)
    2063                    .dwattr $C$DW$57, DW_AT_decl_column(0x0e)
    2064            
    2065            $C$DW$58        .dwtag  DW_TAG_member
    2066                    .dwattr $C$DW$58, DW_AT_type(*$C$DW$T$23)
    2067                    .dwattr $C$DW$58, DW_AT_name("adc_ref25_85_temp")
    2068                    .dwattr $C$DW$58, DW_AT_TI_symbol_name("adc_ref25_85_temp")
    2069                    .dwattr $C$DW$58, DW_AT_data_member_location[DW_OP_plus_uconst 0xe]
    2070                    .dwattr $C$DW$58, DW_AT_accessibility(DW_ACCESS_public)
    2071                    .dwattr $C$DW$58, DW_AT_decl_file("..\driverlib\MSP430FR2xx_4xx\tlv.h")
    2072                    .dwattr $C$DW$58, DW_AT_decl_line(0x2e)
    2073                    .dwattr $C$DW$58, DW_AT_decl_column(0x0e)
    2074            
    2075                    .dwattr $C$DW$T$27, DW_AT_decl_file("..\driverlib\MSP430FR2xx_4xx\tlv.h")
    2076                    .dwattr $C$DW$T$27, DW_AT_decl_line(0x26)
    2077                    .dwattr $C$DW$T$27, DW_AT_decl_column(0x08)
    2078                    .dwendtag $C$DW$T$27
    2079            
    2080            
    2081            $C$DW$T$30      .dwtag  DW_TAG_structure_type
    2082                    .dwattr $C$DW$T$30, DW_AT_name("s_TLV_Die_Record")
    2083                    .dwattr $C$DW$T$30, DW_AT_byte_size(0x0a)
    2084            $C$DW$59        .dwtag  DW_TAG_member
    2085                    .dwattr $C$DW$59, DW_AT_type(*$C$DW$T$29)
    2086                    .dwattr $C$DW$59, DW_AT_name("wafer_id")
    2087                    .dwattr $C$DW$59, DW_AT_TI_symbol_name("wafer_id")
    2088                    .dwattr $C$DW$59, DW_AT_data_member_location[DW_OP_plus_uconst 0x0]
    2089                    .dwattr $C$DW$59, DW_AT_accessibility(DW_ACCESS_public)
    2090                    .dwattr $C$DW$59, DW_AT_decl_file("..\driverlib\MSP430FR2xx_4xx\tlv.h")
    2091                    .dwattr $C$DW$59, DW_AT_decl_line(0x20)
    2092                    .dwattr $C$DW$59, DW_AT_decl_column(0x0e)
MSP430 Assembler PC v21.6.1 Wed Nov 30 16:35:43 2022

Copyright (c) 2003-2018 Texas Instruments Incorporated
tlv.asm                                                              PAGE   41

    2093            
    2094            $C$DW$60        .dwtag  DW_TAG_member
    2095                    .dwattr $C$DW$60, DW_AT_type(*$C$DW$T$23)
    2096                    .dwattr $C$DW$60, DW_AT_name("die_x_position")
    2097                    .dwattr $C$DW$60, DW_AT_TI_symbol_name("die_x_position")
    2098                    .dwattr $C$DW$60, DW_AT_data_member_location[DW_OP_plus_uconst 0x4]
    2099                    .dwattr $C$DW$60, DW_AT_accessibility(DW_ACCESS_public)
    2100                    .dwattr $C$DW$60, DW_AT_decl_file("..\driverlib\MSP430FR2xx_4xx\tlv.h")
    2101                    .dwattr $C$DW$60, DW_AT_decl_line(0x21)
    2102                    .dwattr $C$DW$60, DW_AT_decl_column(0x0e)
    2103            
    2104            $C$DW$61        .dwtag  DW_TAG_member
    2105                    .dwattr $C$DW$61, DW_AT_type(*$C$DW$T$23)
    2106                    .dwattr $C$DW$61, DW_AT_name("die_y_position")
    2107                    .dwattr $C$DW$61, DW_AT_TI_symbol_name("die_y_position")
    2108                    .dwattr $C$DW$61, DW_AT_data_member_location[DW_OP_plus_uconst 0x6]
    2109                    .dwattr $C$DW$61, DW_AT_accessibility(DW_ACCESS_public)
    2110                    .dwattr $C$DW$61, DW_AT_decl_file("..\driverlib\MSP430FR2xx_4xx\tlv.h")
    2111                    .dwattr $C$DW$61, DW_AT_decl_line(0x22)
    2112                    .dwattr $C$DW$61, DW_AT_decl_column(0x0e)
    2113            
    2114            $C$DW$62        .dwtag  DW_TAG_member
    2115                    .dwattr $C$DW$62, DW_AT_type(*$C$DW$T$23)
    2116                    .dwattr $C$DW$62, DW_AT_name("test_results")
    2117                    .dwattr $C$DW$62, DW_AT_TI_symbol_name("test_results")
    2118                    .dwattr $C$DW$62, DW_AT_data_member_location[DW_OP_plus_uconst 0x8]
    2119                    .dwattr $C$DW$62, DW_AT_accessibility(DW_ACCESS_public)
    2120                    .dwattr $C$DW$62, DW_AT_decl_file("..\driverlib\MSP430FR2xx_4xx\tlv.h")
    2121                    .dwattr $C$DW$62, DW_AT_decl_line(0x23)
    2122                    .dwattr $C$DW$62, DW_AT_decl_column(0x0e)
    2123            
    2124                    .dwattr $C$DW$T$30, DW_AT_decl_file("..\driverlib\MSP430FR2xx_4xx\tlv.h")
    2125                    .dwattr $C$DW$T$30, DW_AT_decl_line(0x1f)
    2126                    .dwattr $C$DW$T$30, DW_AT_decl_column(0x08)
    2127                    .dwendtag $C$DW$T$30
    2128            
    2129            
    2130            $C$DW$T$31      .dwtag  DW_TAG_structure_type
    2131                    .dwattr $C$DW$T$31, DW_AT_name("s_TLV_REF_Cal_Data")
    2132                    .dwattr $C$DW$T$31, DW_AT_byte_size(0x06)
    2133            $C$DW$63        .dwtag  DW_TAG_member
    2134                    .dwattr $C$DW$63, DW_AT_type(*$C$DW$T$23)
    2135                    .dwattr $C$DW$63, DW_AT_name("ref_ref15")
    2136                    .dwattr $C$DW$63, DW_AT_TI_symbol_name("ref_ref15")
    2137                    .dwattr $C$DW$63, DW_AT_data_member_location[DW_OP_plus_uconst 0x0]
    2138                    .dwattr $C$DW$63, DW_AT_accessibility(DW_ACCESS_public)
    2139                    .dwattr $C$DW$63, DW_AT_decl_file("..\driverlib\MSP430FR2xx_4xx\tlv.h")
    2140                    .dwattr $C$DW$63, DW_AT_decl_line(0x39)
    2141                    .dwattr $C$DW$63, DW_AT_decl_column(0x0e)
    2142            
    2143            $C$DW$64        .dwtag  DW_TAG_member
    2144                    .dwattr $C$DW$64, DW_AT_type(*$C$DW$T$23)
    2145                    .dwattr $C$DW$64, DW_AT_name("ref_ref20")
    2146                    .dwattr $C$DW$64, DW_AT_TI_symbol_name("ref_ref20")
    2147                    .dwattr $C$DW$64, DW_AT_data_member_location[DW_OP_plus_uconst 0x2]
MSP430 Assembler PC v21.6.1 Wed Nov 30 16:35:43 2022

Copyright (c) 2003-2018 Texas Instruments Incorporated
tlv.asm                                                              PAGE   42

    2148                    .dwattr $C$DW$64, DW_AT_accessibility(DW_ACCESS_public)
    2149                    .dwattr $C$DW$64, DW_AT_decl_file("..\driverlib\MSP430FR2xx_4xx\tlv.h")
    2150                    .dwattr $C$DW$64, DW_AT_decl_line(0x3a)
    2151                    .dwattr $C$DW$64, DW_AT_decl_column(0x0e)
    2152            
    2153            $C$DW$65        .dwtag  DW_TAG_member
    2154                    .dwattr $C$DW$65, DW_AT_type(*$C$DW$T$23)
    2155                    .dwattr $C$DW$65, DW_AT_name("ref_ref25")
    2156                    .dwattr $C$DW$65, DW_AT_TI_symbol_name("ref_ref25")
    2157                    .dwattr $C$DW$65, DW_AT_data_member_location[DW_OP_plus_uconst 0x4]
    2158                    .dwattr $C$DW$65, DW_AT_accessibility(DW_ACCESS_public)
    2159                    .dwattr $C$DW$65, DW_AT_decl_file("..\driverlib\MSP430FR2xx_4xx\tlv.h")
    2160                    .dwattr $C$DW$65, DW_AT_decl_line(0x3b)
    2161                    .dwattr $C$DW$65, DW_AT_decl_column(0x0e)
    2162            
    2163                    .dwattr $C$DW$T$31, DW_AT_decl_file("..\driverlib\MSP430FR2xx_4xx\tlv.h")
    2164                    .dwattr $C$DW$T$31, DW_AT_decl_line(0x38)
    2165                    .dwattr $C$DW$T$31, DW_AT_decl_column(0x08)
    2166                    .dwendtag $C$DW$T$31
    2167            
    2168            
    2169            $C$DW$T$32      .dwtag  DW_TAG_structure_type
    2170                    .dwattr $C$DW$T$32, DW_AT_name("s_TLV_Timer_D_Cal_Data")
    2171                    .dwattr $C$DW$T$32, DW_AT_byte_size(0x08)
    2172            $C$DW$66        .dwtag  DW_TAG_member
    2173                    .dwattr $C$DW$66, DW_AT_type(*$C$DW$T$23)
    2174                    .dwattr $C$DW$66, DW_AT_name("TDH0CTL1_64")
    2175                    .dwattr $C$DW$66, DW_AT_TI_symbol_name("TDH0CTL1_64")
    2176                    .dwattr $C$DW$66, DW_AT_data_member_location[DW_OP_plus_uconst 0x0]
    2177                    .dwattr $C$DW$66, DW_AT_accessibility(DW_ACCESS_public)
    2178                    .dwattr $C$DW$66, DW_AT_decl_file("..\driverlib\MSP430FR2xx_4xx\tlv.h")
    2179                    .dwattr $C$DW$66, DW_AT_decl_line(0x32)
    2180                    .dwattr $C$DW$66, DW_AT_decl_column(0x0e)
    2181            
    2182            $C$DW$67        .dwtag  DW_TAG_member
    2183                    .dwattr $C$DW$67, DW_AT_type(*$C$DW$T$23)
    2184                    .dwattr $C$DW$67, DW_AT_name("TDH0CTL1_128")
    2185                    .dwattr $C$DW$67, DW_AT_TI_symbol_name("TDH0CTL1_128")
    2186                    .dwattr $C$DW$67, DW_AT_data_member_location[DW_OP_plus_uconst 0x2]
    2187                    .dwattr $C$DW$67, DW_AT_accessibility(DW_ACCESS_public)
    2188                    .dwattr $C$DW$67, DW_AT_decl_file("..\driverlib\MSP430FR2xx_4xx\tlv.h")
    2189                    .dwattr $C$DW$67, DW_AT_decl_line(0x33)
    2190                    .dwattr $C$DW$67, DW_AT_decl_column(0x0e)
    2191            
    2192            $C$DW$68        .dwtag  DW_TAG_member
    2193                    .dwattr $C$DW$68, DW_AT_type(*$C$DW$T$23)
    2194                    .dwattr $C$DW$68, DW_AT_name("TDH0CTL1_200")
    2195                    .dwattr $C$DW$68, DW_AT_TI_symbol_name("TDH0CTL1_200")
    2196                    .dwattr $C$DW$68, DW_AT_data_member_location[DW_OP_plus_uconst 0x4]
    2197                    .dwattr $C$DW$68, DW_AT_accessibility(DW_ACCESS_public)
    2198                    .dwattr $C$DW$68, DW_AT_decl_file("..\driverlib\MSP430FR2xx_4xx\tlv.h")
    2199                    .dwattr $C$DW$68, DW_AT_decl_line(0x34)
    2200                    .dwattr $C$DW$68, DW_AT_decl_column(0x0e)
    2201            
    2202            $C$DW$69        .dwtag  DW_TAG_member
MSP430 Assembler PC v21.6.1 Wed Nov 30 16:35:43 2022

Copyright (c) 2003-2018 Texas Instruments Incorporated
tlv.asm                                                              PAGE   43

    2203                    .dwattr $C$DW$69, DW_AT_type(*$C$DW$T$23)
    2204                    .dwattr $C$DW$69, DW_AT_name("TDH0CTL1_256")
    2205                    .dwattr $C$DW$69, DW_AT_TI_symbol_name("TDH0CTL1_256")
    2206                    .dwattr $C$DW$69, DW_AT_data_member_location[DW_OP_plus_uconst 0x6]
    2207                    .dwattr $C$DW$69, DW_AT_accessibility(DW_ACCESS_public)
    2208                    .dwattr $C$DW$69, DW_AT_decl_file("..\driverlib\MSP430FR2xx_4xx\tlv.h")
    2209                    .dwattr $C$DW$69, DW_AT_decl_line(0x35)
    2210                    .dwattr $C$DW$69, DW_AT_decl_column(0x0e)
    2211            
    2212                    .dwattr $C$DW$T$32, DW_AT_decl_file("..\driverlib\MSP430FR2xx_4xx\tlv.h")
    2213                    .dwattr $C$DW$T$32, DW_AT_decl_line(0x31)
    2214                    .dwattr $C$DW$T$32, DW_AT_decl_column(0x08)
    2215                    .dwendtag $C$DW$T$32
    2216            
    2217                    .dwattr $C$DW$CU, DW_AT_language(DW_LANG_C)
    2218            
    2219            ;***************************************************************
    2220            ;* DWARF CIE ENTRIES                                           *
    2221            ;***************************************************************
    2222            
    2223            $C$DW$CIE       .dwcie 16
    2224                    .dwcfi  cfa_register, 1
    2225                    .dwcfi  cfa_offset, 0
    2226                    .dwcfi  same_value, 0
    2227                    .dwcfi  same_value, 1
    2228                    .dwcfi  same_value, 3
    2229                    .dwcfi  same_value, 4
    2230                    .dwcfi  same_value, 5
    2231                    .dwcfi  same_value, 6
    2232                    .dwcfi  same_value, 7
    2233                    .dwcfi  same_value, 8
    2234                    .dwcfi  same_value, 9
    2235                    .dwcfi  same_value, 10
    2236                    .dwendentry
    2237            
    2238            ;***************************************************************
    2239            ;* DWARF REGISTER MAP                                          *
    2240            ;***************************************************************
    2241            
    2242            $C$DW$70        .dwtag  DW_TAG_TI_assign_register
    2243                    .dwattr $C$DW$70, DW_AT_name("PC")
    2244                    .dwattr $C$DW$70, DW_AT_location[DW_OP_reg0]
    2245            
    2246            $C$DW$71        .dwtag  DW_TAG_TI_assign_register
    2247                    .dwattr $C$DW$71, DW_AT_name("SP")
    2248                    .dwattr $C$DW$71, DW_AT_location[DW_OP_reg1]
    2249            
    2250            $C$DW$72        .dwtag  DW_TAG_TI_assign_register
    2251                    .dwattr $C$DW$72, DW_AT_name("SR")
    2252                    .dwattr $C$DW$72, DW_AT_location[DW_OP_reg2]
    2253            
    2254            $C$DW$73        .dwtag  DW_TAG_TI_assign_register
    2255                    .dwattr $C$DW$73, DW_AT_name("CG")
    2256                    .dwattr $C$DW$73, DW_AT_location[DW_OP_reg3]
    2257            
MSP430 Assembler PC v21.6.1 Wed Nov 30 16:35:43 2022

Copyright (c) 2003-2018 Texas Instruments Incorporated
tlv.asm                                                              PAGE   44

    2258            $C$DW$74        .dwtag  DW_TAG_TI_assign_register
    2259                    .dwattr $C$DW$74, DW_AT_name("r4")
    2260                    .dwattr $C$DW$74, DW_AT_location[DW_OP_reg4]
    2261            
    2262            $C$DW$75        .dwtag  DW_TAG_TI_assign_register
    2263                    .dwattr $C$DW$75, DW_AT_name("r5")
    2264                    .dwattr $C$DW$75, DW_AT_location[DW_OP_reg5]
    2265            
    2266            $C$DW$76        .dwtag  DW_TAG_TI_assign_register
    2267                    .dwattr $C$DW$76, DW_AT_name("r6")
    2268                    .dwattr $C$DW$76, DW_AT_location[DW_OP_reg6]
    2269            
    2270            $C$DW$77        .dwtag  DW_TAG_TI_assign_register
    2271                    .dwattr $C$DW$77, DW_AT_name("r7")
    2272                    .dwattr $C$DW$77, DW_AT_location[DW_OP_reg7]
    2273            
    2274            $C$DW$78        .dwtag  DW_TAG_TI_assign_register
    2275                    .dwattr $C$DW$78, DW_AT_name("r8")
    2276                    .dwattr $C$DW$78, DW_AT_location[DW_OP_reg8]
    2277            
    2278            $C$DW$79        .dwtag  DW_TAG_TI_assign_register
    2279                    .dwattr $C$DW$79, DW_AT_name("r9")
    2280                    .dwattr $C$DW$79, DW_AT_location[DW_OP_reg9]
    2281            
    2282            $C$DW$80        .dwtag  DW_TAG_TI_assign_register
    2283                    .dwattr $C$DW$80, DW_AT_name("r10")
    2284                    .dwattr $C$DW$80, DW_AT_location[DW_OP_reg10]
    2285            
    2286            $C$DW$81        .dwtag  DW_TAG_TI_assign_register
    2287                    .dwattr $C$DW$81, DW_AT_name("r11")
    2288                    .dwattr $C$DW$81, DW_AT_location[DW_OP_reg11]
    2289            
    2290            $C$DW$82        .dwtag  DW_TAG_TI_assign_register
    2291                    .dwattr $C$DW$82, DW_AT_name("r12")
    2292                    .dwattr $C$DW$82, DW_AT_location[DW_OP_reg12]
    2293            
    2294            $C$DW$83        .dwtag  DW_TAG_TI_assign_register
    2295                    .dwattr $C$DW$83, DW_AT_name("r13")
    2296                    .dwattr $C$DW$83, DW_AT_location[DW_OP_reg13]
    2297            
    2298            $C$DW$84        .dwtag  DW_TAG_TI_assign_register
    2299                    .dwattr $C$DW$84, DW_AT_name("r14")
    2300                    .dwattr $C$DW$84, DW_AT_location[DW_OP_reg14]
    2301            
    2302            $C$DW$85        .dwtag  DW_TAG_TI_assign_register
    2303                    .dwattr $C$DW$85, DW_AT_name("r15")
    2304                    .dwattr $C$DW$85, DW_AT_location[DW_OP_reg15]
    2305            
    2306            $C$DW$86        .dwtag  DW_TAG_TI_assign_register
    2307                    .dwattr $C$DW$86, DW_AT_name("CIE_RETA")
    2308                    .dwattr $C$DW$86, DW_AT_location[DW_OP_reg16]
    2309            
    2310                    .dwendtag $C$DW$CU
    2311            

No Assembly Errors, No Assembly Warnings
