;******************************************************************************
;* MSP430 G3 C/C++ Codegen                                              PC v21.6.1.LTS *
;* Date/Time created: Wed Nov 30 16:35:36 2022                                *
;******************************************************************************
	.compiler_opts --abi=eabi --diag_wrap=off --hll_source=on --mem_model:code=large --mem_model:data=small --object_format=elf --silicon_errata=CPU21 --silicon_errata=CPU22 --silicon_errata=CPU40 --silicon_version=mspx --symdebug:dwarf --symdebug:dwarf_version=3 

$C$DW$CU	.dwtag  DW_TAG_compile_unit
	.dwattr $C$DW$CU, DW_AT_name("../driverlib/MSP430FR2xx_4xx/gpio.c")
	.dwattr $C$DW$CU, DW_AT_producer("TI MSP430 G3 C/C++ Codegen PC v21.6.1.LTS Copyright (c) 2003-2018 Texas Instruments Incorporated")
	.dwattr $C$DW$CU, DW_AT_TI_version(0x01)
	.dwattr $C$DW$CU, DW_AT_comp_dir("C:\ccs_challengespace\MSP430_LCD_display\Debug")
	.sect	".const:GPIO_PORT_TO_BASE"
	.align	2
	.elfsym	GPIO_PORT_TO_BASE,SYM_SIZE(28)
GPIO_PORT_TO_BASE:
	.bits		0,16
			; GPIO_PORT_TO_BASE[0] @ 0
	.bits		0x200,16
			; GPIO_PORT_TO_BASE[1] @ 16
	.bits		0x200,16
			; GPIO_PORT_TO_BASE[2] @ 32
	.bits		0x220,16
			; GPIO_PORT_TO_BASE[3] @ 48
	.bits		0x220,16
			; GPIO_PORT_TO_BASE[4] @ 64
	.bits		0x240,16
			; GPIO_PORT_TO_BASE[5] @ 80
	.bits		0x240,16
			; GPIO_PORT_TO_BASE[6] @ 96
	.bits		0x260,16
			; GPIO_PORT_TO_BASE[7] @ 112
	.bits		0x260,16
			; GPIO_PORT_TO_BASE[8] @ 128
	.bits		0xffff,16
			; GPIO_PORT_TO_BASE[9] @ 144
	.bits		0xffff,16
			; GPIO_PORT_TO_BASE[10] @ 160
	.bits		0xffff,16
			; GPIO_PORT_TO_BASE[11] @ 176
	.bits		0xffff,16
			; GPIO_PORT_TO_BASE[12] @ 192
	.bits		0xffff,16
			; GPIO_PORT_TO_BASE[13] @ 208

$C$DW$1	.dwtag  DW_TAG_variable
	.dwattr $C$DW$1, DW_AT_name("GPIO_PORT_TO_BASE")
	.dwattr $C$DW$1, DW_AT_TI_symbol_name("GPIO_PORT_TO_BASE")
	.dwattr $C$DW$1, DW_AT_type(*$C$DW$T$75)
	.dwattr $C$DW$1, DW_AT_location[DW_OP_addr GPIO_PORT_TO_BASE]
	.dwattr $C$DW$1, DW_AT_decl_file("../driverlib/MSP430FR2xx_4xx/gpio.c")
	.dwattr $C$DW$1, DW_AT_decl_line(0x16)
	.dwattr $C$DW$1, DW_AT_decl_column(0x17)

;	C:\ti\ccs1110\ccs\tools\compiler\ti-cgt-msp430_21.6.1.LTS\bin\acpia430.exe -@C:\\Users\\DAVID~1.AND\\AppData\\Local\\Temp\\{DB75CA8D-AD55-4AA1-BA71-221B2EAAEED3} 
	.sect	".text:GPIO_setAsOutputPin"
	.clink
	.global	GPIO_setAsOutputPin

$C$DW$2	.dwtag  DW_TAG_subprogram
	.dwattr $C$DW$2, DW_AT_name("GPIO_setAsOutputPin")
	.dwattr $C$DW$2, DW_AT_low_pc(GPIO_setAsOutputPin)
	.dwattr $C$DW$2, DW_AT_high_pc(0x00)
	.dwattr $C$DW$2, DW_AT_TI_symbol_name("GPIO_setAsOutputPin")
	.dwattr $C$DW$2, DW_AT_external
	.dwattr $C$DW$2, DW_AT_TI_begin_file("../driverlib/MSP430FR2xx_4xx/gpio.c")
	.dwattr $C$DW$2, DW_AT_TI_begin_line(0x6f)
	.dwattr $C$DW$2, DW_AT_TI_begin_column(0x06)
	.dwattr $C$DW$2, DW_AT_decl_file("../driverlib/MSP430FR2xx_4xx/gpio.c")
	.dwattr $C$DW$2, DW_AT_decl_line(0x6f)
	.dwattr $C$DW$2, DW_AT_decl_column(0x06)
	.dwattr $C$DW$2, DW_AT_TI_max_frame_size(0x0a)
	.dwpsn	file "../driverlib/MSP430FR2xx_4xx/gpio.c",line 111,column 71,is_stmt,address GPIO_setAsOutputPin,isa 0

	.dwfde $C$DW$CIE, GPIO_setAsOutputPin
$C$DW$3	.dwtag  DW_TAG_formal_parameter
	.dwattr $C$DW$3, DW_AT_name("selectedPort")
	.dwattr $C$DW$3, DW_AT_TI_symbol_name("selectedPort")
	.dwattr $C$DW$3, DW_AT_type(*$C$DW$T$24)
	.dwattr $C$DW$3, DW_AT_location[DW_OP_reg12]

$C$DW$4	.dwtag  DW_TAG_formal_parameter
	.dwattr $C$DW$4, DW_AT_name("selectedPins")
	.dwattr $C$DW$4, DW_AT_TI_symbol_name("selectedPins")
	.dwattr $C$DW$4, DW_AT_type(*$C$DW$T$26)
	.dwattr $C$DW$4, DW_AT_location[DW_OP_reg13]


;*****************************************************************************
;* FUNCTION NAME: GPIO_setAsOutputPin                                        *
;*                                                                           *
;*   Regs Modified     : SP,SR,r13,r15                                       *
;*   Regs Used         : SP,SR,r12,r13,r15                                   *
;*   Local Frame Size  : 0 Args + 6 Auto + 0 Save = 6 byte                   *
;*****************************************************************************
GPIO_setAsOutputPin:
;* --------------------------------------------------------------------------*
	.dwcfi	cfa_offset, 4
	.dwcfi	save_reg_to_mem, 16, -4
        SUB.W     #6,SP                 ; [] 
	.dwcfi	cfa_offset, 10
$C$DW$5	.dwtag  DW_TAG_variable
	.dwattr $C$DW$5, DW_AT_name("selectedPins")
	.dwattr $C$DW$5, DW_AT_TI_symbol_name("selectedPins")
	.dwattr $C$DW$5, DW_AT_type(*$C$DW$T$26)
	.dwattr $C$DW$5, DW_AT_location[DW_OP_breg1 0]

$C$DW$6	.dwtag  DW_TAG_variable
	.dwattr $C$DW$6, DW_AT_name("baseAddress")
	.dwattr $C$DW$6, DW_AT_TI_symbol_name("baseAddress")
	.dwattr $C$DW$6, DW_AT_type(*$C$DW$T$26)
	.dwattr $C$DW$6, DW_AT_location[DW_OP_breg1 2]

$C$DW$7	.dwtag  DW_TAG_variable
	.dwattr $C$DW$7, DW_AT_name("selectedPort")
	.dwattr $C$DW$7, DW_AT_TI_symbol_name("selectedPort")
	.dwattr $C$DW$7, DW_AT_type(*$C$DW$T$24)
	.dwattr $C$DW$7, DW_AT_location[DW_OP_breg1 4]

        MOV.W     r13,0(SP)             ; [] |111| 
        MOV.B     r12,4(SP)             ; [] |111| 
	.dwpsn	file "../driverlib/MSP430FR2xx_4xx/gpio.c",line 113,column 26,is_stmt,isa 0
        MOV.B     4(SP),r15             ; [] |113| 
        RLAM.W    #1,r15                ; [] |113| 
        MOV.W     GPIO_PORT_TO_BASE+0(r15),2(SP) ; [] |113| 
	.dwpsn	file "../driverlib/MSP430FR2xx_4xx/gpio.c",line 122,column 5,is_stmt,isa 0
        MOV.B     4(SP),r15             ; [] |122| 
        AND.W     #1,r15                ; [] |122| 
        XOR.W     #1,r15                ; [] |122| 
        TST.W     r15                   ; [] |122| 
        JEQ       $C$L1                 ; [] |122| 
                                          ; [] |122| 
;* --------------------------------------------------------------------------*
	.dwpsn	file "../driverlib/MSP430FR2xx_4xx/gpio.c",line 123,column 9,is_stmt,isa 0
        RPT #8 || RLAX.W r13 ; [] |123| 
        MOV.W     r13,0(SP)             ; [] |123| 
;* --------------------------------------------------------------------------*
$C$L1:    
	.dwpsn	file "../driverlib/MSP430FR2xx_4xx/gpio.c",line 127,column 5,is_stmt,isa 0
        MOV.W     #10,r15               ; [] |127| 
        ADD.W     2(SP),r15             ; [] |127| 
        BIC.W     0(SP),0(r15)          ; [] |127| 
	.dwpsn	file "../driverlib/MSP430FR2xx_4xx/gpio.c",line 132,column 5,is_stmt,isa 0
        MOV.W     #4,r15                ; [] |132| 
        ADD.W     2(SP),r15             ; [] |132| 
        OR.W      0(SP),0(r15)          ; [] |132| 
	.dwpsn	file "../driverlib/MSP430FR2xx_4xx/gpio.c",line 134,column 5,is_stmt,isa 0
	.dwpsn	file "../driverlib/MSP430FR2xx_4xx/gpio.c",line 135,column 1,is_stmt,isa 0
        ADD.W     #6,SP                 ; [] 
	.dwcfi	cfa_offset, 4
$C$DW$8	.dwtag  DW_TAG_TI_branch
	.dwattr $C$DW$8, DW_AT_low_pc(0x00)
	.dwattr $C$DW$8, DW_AT_TI_return

        RETA      ; [] 
        ; [] 
	.dwattr $C$DW$2, DW_AT_TI_end_file("../driverlib/MSP430FR2xx_4xx/gpio.c")
	.dwattr $C$DW$2, DW_AT_TI_end_line(0x87)
	.dwattr $C$DW$2, DW_AT_TI_end_column(0x01)
	.dwendentry
	.dwendtag $C$DW$2

	.sect	".text:GPIO_setAsInputPin"
	.clink
	.global	GPIO_setAsInputPin

$C$DW$9	.dwtag  DW_TAG_subprogram
	.dwattr $C$DW$9, DW_AT_name("GPIO_setAsInputPin")
	.dwattr $C$DW$9, DW_AT_low_pc(GPIO_setAsInputPin)
	.dwattr $C$DW$9, DW_AT_high_pc(0x00)
	.dwattr $C$DW$9, DW_AT_TI_symbol_name("GPIO_setAsInputPin")
	.dwattr $C$DW$9, DW_AT_external
	.dwattr $C$DW$9, DW_AT_TI_begin_file("../driverlib/MSP430FR2xx_4xx/gpio.c")
	.dwattr $C$DW$9, DW_AT_TI_begin_line(0x89)
	.dwattr $C$DW$9, DW_AT_TI_begin_column(0x06)
	.dwattr $C$DW$9, DW_AT_decl_file("../driverlib/MSP430FR2xx_4xx/gpio.c")
	.dwattr $C$DW$9, DW_AT_decl_line(0x89)
	.dwattr $C$DW$9, DW_AT_decl_column(0x06)
	.dwattr $C$DW$9, DW_AT_TI_max_frame_size(0x0a)
	.dwpsn	file "../driverlib/MSP430FR2xx_4xx/gpio.c",line 137,column 70,is_stmt,address GPIO_setAsInputPin,isa 0

	.dwfde $C$DW$CIE, GPIO_setAsInputPin
$C$DW$10	.dwtag  DW_TAG_formal_parameter
	.dwattr $C$DW$10, DW_AT_name("selectedPort")
	.dwattr $C$DW$10, DW_AT_TI_symbol_name("selectedPort")
	.dwattr $C$DW$10, DW_AT_type(*$C$DW$T$24)
	.dwattr $C$DW$10, DW_AT_location[DW_OP_reg12]

$C$DW$11	.dwtag  DW_TAG_formal_parameter
	.dwattr $C$DW$11, DW_AT_name("selectedPins")
	.dwattr $C$DW$11, DW_AT_TI_symbol_name("selectedPins")
	.dwattr $C$DW$11, DW_AT_type(*$C$DW$T$26)
	.dwattr $C$DW$11, DW_AT_location[DW_OP_reg13]


;*****************************************************************************
;* FUNCTION NAME: GPIO_setAsInputPin                                         *
;*                                                                           *
;*   Regs Modified     : SP,SR,r13,r15                                       *
;*   Regs Used         : SP,SR,r12,r13,r15                                   *
;*   Local Frame Size  : 0 Args + 6 Auto + 0 Save = 6 byte                   *
;*****************************************************************************
GPIO_setAsInputPin:
;* --------------------------------------------------------------------------*
	.dwcfi	cfa_offset, 4
	.dwcfi	save_reg_to_mem, 16, -4
        SUB.W     #6,SP                 ; [] 
	.dwcfi	cfa_offset, 10
$C$DW$12	.dwtag  DW_TAG_variable
	.dwattr $C$DW$12, DW_AT_name("selectedPins")
	.dwattr $C$DW$12, DW_AT_TI_symbol_name("selectedPins")
	.dwattr $C$DW$12, DW_AT_type(*$C$DW$T$26)
	.dwattr $C$DW$12, DW_AT_location[DW_OP_breg1 0]

$C$DW$13	.dwtag  DW_TAG_variable
	.dwattr $C$DW$13, DW_AT_name("baseAddress")
	.dwattr $C$DW$13, DW_AT_TI_symbol_name("baseAddress")
	.dwattr $C$DW$13, DW_AT_type(*$C$DW$T$26)
	.dwattr $C$DW$13, DW_AT_location[DW_OP_breg1 2]

$C$DW$14	.dwtag  DW_TAG_variable
	.dwattr $C$DW$14, DW_AT_name("selectedPort")
	.dwattr $C$DW$14, DW_AT_TI_symbol_name("selectedPort")
	.dwattr $C$DW$14, DW_AT_type(*$C$DW$T$24)
	.dwattr $C$DW$14, DW_AT_location[DW_OP_breg1 4]

        MOV.W     r13,0(SP)             ; [] |137| 
        MOV.B     r12,4(SP)             ; [] |137| 
	.dwpsn	file "../driverlib/MSP430FR2xx_4xx/gpio.c",line 139,column 26,is_stmt,isa 0
        MOV.B     4(SP),r15             ; [] |139| 
        RLAM.W    #1,r15                ; [] |139| 
        MOV.W     GPIO_PORT_TO_BASE+0(r15),2(SP) ; [] |139| 
	.dwpsn	file "../driverlib/MSP430FR2xx_4xx/gpio.c",line 148,column 5,is_stmt,isa 0
        MOV.B     4(SP),r15             ; [] |148| 
        AND.W     #1,r15                ; [] |148| 
        XOR.W     #1,r15                ; [] |148| 
        TST.W     r15                   ; [] |148| 
        JEQ       $C$L2                 ; [] |148| 
                                          ; [] |148| 
;* --------------------------------------------------------------------------*
	.dwpsn	file "../driverlib/MSP430FR2xx_4xx/gpio.c",line 149,column 9,is_stmt,isa 0
        RPT #8 || RLAX.W r13 ; [] |149| 
        MOV.W     r13,0(SP)             ; [] |149| 
;* --------------------------------------------------------------------------*
$C$L2:    
	.dwpsn	file "../driverlib/MSP430FR2xx_4xx/gpio.c",line 153,column 5,is_stmt,isa 0
        MOV.W     #10,r15               ; [] |153| 
        ADD.W     2(SP),r15             ; [] |153| 
        BIC.W     0(SP),0(r15)          ; [] |153| 
	.dwpsn	file "../driverlib/MSP430FR2xx_4xx/gpio.c",line 158,column 5,is_stmt,isa 0
        MOV.W     #4,r15                ; [] |158| 
        ADD.W     2(SP),r15             ; [] |158| 
        BIC.W     0(SP),0(r15)          ; [] |158| 
	.dwpsn	file "../driverlib/MSP430FR2xx_4xx/gpio.c",line 159,column 5,is_stmt,isa 0
        MOV.W     #6,r15                ; [] |159| 
        ADD.W     2(SP),r15             ; [] |159| 
        BIC.W     0(SP),0(r15)          ; [] |159| 
	.dwpsn	file "../driverlib/MSP430FR2xx_4xx/gpio.c",line 160,column 1,is_stmt,isa 0
        ADD.W     #6,SP                 ; [] 
	.dwcfi	cfa_offset, 4
$C$DW$15	.dwtag  DW_TAG_TI_branch
	.dwattr $C$DW$15, DW_AT_low_pc(0x00)
	.dwattr $C$DW$15, DW_AT_TI_return

        RETA      ; [] 
        ; [] 
	.dwattr $C$DW$9, DW_AT_TI_end_file("../driverlib/MSP430FR2xx_4xx/gpio.c")
	.dwattr $C$DW$9, DW_AT_TI_end_line(0xa0)
	.dwattr $C$DW$9, DW_AT_TI_end_column(0x01)
	.dwendentry
	.dwendtag $C$DW$9

	.sect	".text:GPIO_setAsPeripheralModuleFunctionOutputPin"
	.clink
	.global	GPIO_setAsPeripheralModuleFunctionOutputPin

$C$DW$16	.dwtag  DW_TAG_subprogram
	.dwattr $C$DW$16, DW_AT_name("GPIO_setAsPeripheralModuleFunctionOutputPin")
	.dwattr $C$DW$16, DW_AT_low_pc(GPIO_setAsPeripheralModuleFunctionOutputPin)
	.dwattr $C$DW$16, DW_AT_high_pc(0x00)
	.dwattr $C$DW$16, DW_AT_TI_symbol_name("GPIO_setAsPeripheralModuleFunctionOutputPin")
	.dwattr $C$DW$16, DW_AT_external
	.dwattr $C$DW$16, DW_AT_TI_begin_file("../driverlib/MSP430FR2xx_4xx/gpio.c")
	.dwattr $C$DW$16, DW_AT_TI_begin_line(0xa2)
	.dwattr $C$DW$16, DW_AT_TI_begin_column(0x06)
	.dwattr $C$DW$16, DW_AT_decl_file("../driverlib/MSP430FR2xx_4xx/gpio.c")
	.dwattr $C$DW$16, DW_AT_decl_line(0xa2)
	.dwattr $C$DW$16, DW_AT_decl_column(0x06)
	.dwattr $C$DW$16, DW_AT_TI_max_frame_size(0x0a)
	.dwpsn	file "../driverlib/MSP430FR2xx_4xx/gpio.c",line 164,column 69,is_stmt,address GPIO_setAsPeripheralModuleFunctionOutputPin,isa 0

	.dwfde $C$DW$CIE, GPIO_setAsPeripheralModuleFunctionOutputPin
$C$DW$17	.dwtag  DW_TAG_formal_parameter
	.dwattr $C$DW$17, DW_AT_name("selectedPort")
	.dwattr $C$DW$17, DW_AT_TI_symbol_name("selectedPort")
	.dwattr $C$DW$17, DW_AT_type(*$C$DW$T$24)
	.dwattr $C$DW$17, DW_AT_location[DW_OP_reg12]

$C$DW$18	.dwtag  DW_TAG_formal_parameter
	.dwattr $C$DW$18, DW_AT_name("selectedPins")
	.dwattr $C$DW$18, DW_AT_TI_symbol_name("selectedPins")
	.dwattr $C$DW$18, DW_AT_type(*$C$DW$T$26)
	.dwattr $C$DW$18, DW_AT_location[DW_OP_reg13]

$C$DW$19	.dwtag  DW_TAG_formal_parameter
	.dwattr $C$DW$19, DW_AT_name("mode")
	.dwattr $C$DW$19, DW_AT_TI_symbol_name("mode")
	.dwattr $C$DW$19, DW_AT_type(*$C$DW$T$24)
	.dwattr $C$DW$19, DW_AT_location[DW_OP_reg14]


;*****************************************************************************
;* FUNCTION NAME: GPIO_setAsPeripheralModuleFunctionOutputPin                *
;*                                                                           *
;*   Regs Modified     : SP,SR,r13,r15                                       *
;*   Regs Used         : SP,SR,r12,r13,r14,r15                               *
;*   Local Frame Size  : 0 Args + 6 Auto + 0 Save = 6 byte                   *
;*****************************************************************************
GPIO_setAsPeripheralModuleFunctionOutputPin:
;* --------------------------------------------------------------------------*
	.dwcfi	cfa_offset, 4
	.dwcfi	save_reg_to_mem, 16, -4
        SUB.W     #6,SP                 ; [] 
	.dwcfi	cfa_offset, 10
$C$DW$20	.dwtag  DW_TAG_variable
	.dwattr $C$DW$20, DW_AT_name("selectedPins")
	.dwattr $C$DW$20, DW_AT_TI_symbol_name("selectedPins")
	.dwattr $C$DW$20, DW_AT_type(*$C$DW$T$26)
	.dwattr $C$DW$20, DW_AT_location[DW_OP_breg1 0]

$C$DW$21	.dwtag  DW_TAG_variable
	.dwattr $C$DW$21, DW_AT_name("baseAddress")
	.dwattr $C$DW$21, DW_AT_TI_symbol_name("baseAddress")
	.dwattr $C$DW$21, DW_AT_type(*$C$DW$T$26)
	.dwattr $C$DW$21, DW_AT_location[DW_OP_breg1 2]

$C$DW$22	.dwtag  DW_TAG_variable
	.dwattr $C$DW$22, DW_AT_name("selectedPort")
	.dwattr $C$DW$22, DW_AT_TI_symbol_name("selectedPort")
	.dwattr $C$DW$22, DW_AT_type(*$C$DW$T$24)
	.dwattr $C$DW$22, DW_AT_location[DW_OP_breg1 4]

$C$DW$23	.dwtag  DW_TAG_variable
	.dwattr $C$DW$23, DW_AT_name("mode")
	.dwattr $C$DW$23, DW_AT_TI_symbol_name("mode")
	.dwattr $C$DW$23, DW_AT_type(*$C$DW$T$24)
	.dwattr $C$DW$23, DW_AT_location[DW_OP_breg1 5]

        MOV.B     r14,5(SP)             ; [] |164| 
        MOV.W     r13,0(SP)             ; [] |164| 
        MOV.B     r12,4(SP)             ; [] |164| 
	.dwpsn	file "../driverlib/MSP430FR2xx_4xx/gpio.c",line 166,column 26,is_stmt,isa 0
        MOV.B     4(SP),r15             ; [] |166| 
        RLAM.W    #1,r15                ; [] |166| 
        MOV.W     GPIO_PORT_TO_BASE+0(r15),2(SP) ; [] |166| 
	.dwpsn	file "../driverlib/MSP430FR2xx_4xx/gpio.c",line 175,column 5,is_stmt,isa 0
        MOV.B     4(SP),r15             ; [] |175| 
        AND.W     #1,r15                ; [] |175| 
        XOR.W     #1,r15                ; [] |175| 
        TST.W     r15                   ; [] |175| 
        JEQ       $C$L3                 ; [] |175| 
                                          ; [] |175| 
;* --------------------------------------------------------------------------*
	.dwpsn	file "../driverlib/MSP430FR2xx_4xx/gpio.c",line 176,column 9,is_stmt,isa 0
        RPT #8 || RLAX.W r13 ; [] |176| 
        MOV.W     r13,0(SP)             ; [] |176| 
;* --------------------------------------------------------------------------*
$C$L3:    
	.dwpsn	file "../driverlib/MSP430FR2xx_4xx/gpio.c",line 179,column 5,is_stmt,isa 0
        MOV.W     #4,r15                ; [] |179| 
        ADD.W     2(SP),r15             ; [] |179| 
        OR.W      0(SP),0(r15)          ; [] |179| 
	.dwpsn	file "../driverlib/MSP430FR2xx_4xx/gpio.c",line 180,column 5,is_stmt,isa 0
        JMP       $C$L7                 ; [] |180| 
                                          ; [] |180| 
;* --------------------------------------------------------------------------*
$C$L4:    
	.dwpsn	file "../driverlib/MSP430FR2xx_4xx/gpio.c",line 183,column 13,is_stmt,isa 0
        MOV.W     #10,r15               ; [] |183| 
        ADD.W     2(SP),r15             ; [] |183| 
        OR.W      0(SP),0(r15)          ; [] |183| 
	.dwpsn	file "../driverlib/MSP430FR2xx_4xx/gpio.c",line 188,column 13,is_stmt,isa 0
        JMP       $C$L8                 ; [] |188| 
                                          ; [] |188| 
;* --------------------------------------------------------------------------*
$C$L5:    
	.dwpsn	file "../driverlib/MSP430FR2xx_4xx/gpio.c",line 191,column 13,is_stmt,isa 0
        MOV.W     #10,r15               ; [] |191| 
        ADD.W     2(SP),r15             ; [] |191| 
        BIC.W     0(SP),0(r15)          ; [] |191| 
	.dwpsn	file "../driverlib/MSP430FR2xx_4xx/gpio.c",line 196,column 13,is_stmt,isa 0
        JMP       $C$L8                 ; [] |196| 
                                          ; [] |196| 
;* --------------------------------------------------------------------------*
$C$L6:    
	.dwpsn	file "../driverlib/MSP430FR2xx_4xx/gpio.c",line 199,column 13,is_stmt,isa 0
        MOV.W     #10,r15               ; [] |199| 
        ADD.W     2(SP),r15             ; [] |199| 
        OR.W      0(SP),0(r15)          ; [] |199| 
	.dwpsn	file "../driverlib/MSP430FR2xx_4xx/gpio.c",line 204,column 13,is_stmt,isa 0
        JMP       $C$L8                 ; [] |204| 
                                          ; [] |204| 
;* --------------------------------------------------------------------------*
;* --------------------------------------------------------------------------*
$C$L7:    
	.dwpsn	file "../driverlib/MSP430FR2xx_4xx/gpio.c",line 180,column 5,is_stmt,isa 0
        MOV.B     5(SP),r15             ; [] |180| 
        SUB.W     #1,r15                ; [] |180| 
        JEQ       $C$L4                 ; [] |180| 
                                          ; [] |180| 
;* --------------------------------------------------------------------------*
        SUB.W     #1,r15                ; [] |180| 
        JEQ       $C$L5                 ; [] |180| 
                                          ; [] |180| 
;* --------------------------------------------------------------------------*
        SUB.W     #1,r15                ; [] |180| 
        JEQ       $C$L6                 ; [] |180| 
                                          ; [] |180| 
;* --------------------------------------------------------------------------*
        JMP       $C$L8                 ; [] |180| 
                                          ; [] |180| 
;* --------------------------------------------------------------------------*
;* --------------------------------------------------------------------------*
$C$L8:    
        ADD.W     #6,SP                 ; [] 
	.dwcfi	cfa_offset, 4
$C$DW$24	.dwtag  DW_TAG_TI_branch
	.dwattr $C$DW$24, DW_AT_low_pc(0x00)
	.dwattr $C$DW$24, DW_AT_TI_return

        RETA      ; [] 
        ; [] 
	.dwattr $C$DW$16, DW_AT_TI_end_file("../driverlib/MSP430FR2xx_4xx/gpio.c")
	.dwattr $C$DW$16, DW_AT_TI_end_line(0xce)
	.dwattr $C$DW$16, DW_AT_TI_end_column(0x01)
	.dwendentry
	.dwendtag $C$DW$16

	.sect	".text:GPIO_setAsPeripheralModuleFunctionInputPin"
	.clink
	.global	GPIO_setAsPeripheralModuleFunctionInputPin

$C$DW$25	.dwtag  DW_TAG_subprogram
	.dwattr $C$DW$25, DW_AT_name("GPIO_setAsPeripheralModuleFunctionInputPin")
	.dwattr $C$DW$25, DW_AT_low_pc(GPIO_setAsPeripheralModuleFunctionInputPin)
	.dwattr $C$DW$25, DW_AT_high_pc(0x00)
	.dwattr $C$DW$25, DW_AT_TI_symbol_name("GPIO_setAsPeripheralModuleFunctionInputPin")
	.dwattr $C$DW$25, DW_AT_external
	.dwattr $C$DW$25, DW_AT_TI_begin_file("../driverlib/MSP430FR2xx_4xx/gpio.c")
	.dwattr $C$DW$25, DW_AT_TI_begin_line(0xd0)
	.dwattr $C$DW$25, DW_AT_TI_begin_column(0x06)
	.dwattr $C$DW$25, DW_AT_decl_file("../driverlib/MSP430FR2xx_4xx/gpio.c")
	.dwattr $C$DW$25, DW_AT_decl_line(0xd0)
	.dwattr $C$DW$25, DW_AT_decl_column(0x06)
	.dwattr $C$DW$25, DW_AT_TI_max_frame_size(0x0a)
	.dwpsn	file "../driverlib/MSP430FR2xx_4xx/gpio.c",line 210,column 69,is_stmt,address GPIO_setAsPeripheralModuleFunctionInputPin,isa 0

	.dwfde $C$DW$CIE, GPIO_setAsPeripheralModuleFunctionInputPin
$C$DW$26	.dwtag  DW_TAG_formal_parameter
	.dwattr $C$DW$26, DW_AT_name("selectedPort")
	.dwattr $C$DW$26, DW_AT_TI_symbol_name("selectedPort")
	.dwattr $C$DW$26, DW_AT_type(*$C$DW$T$24)
	.dwattr $C$DW$26, DW_AT_location[DW_OP_reg12]

$C$DW$27	.dwtag  DW_TAG_formal_parameter
	.dwattr $C$DW$27, DW_AT_name("selectedPins")
	.dwattr $C$DW$27, DW_AT_TI_symbol_name("selectedPins")
	.dwattr $C$DW$27, DW_AT_type(*$C$DW$T$26)
	.dwattr $C$DW$27, DW_AT_location[DW_OP_reg13]

$C$DW$28	.dwtag  DW_TAG_formal_parameter
	.dwattr $C$DW$28, DW_AT_name("mode")
	.dwattr $C$DW$28, DW_AT_TI_symbol_name("mode")
	.dwattr $C$DW$28, DW_AT_type(*$C$DW$T$24)
	.dwattr $C$DW$28, DW_AT_location[DW_OP_reg14]


;*****************************************************************************
;* FUNCTION NAME: GPIO_setAsPeripheralModuleFunctionInputPin                 *
;*                                                                           *
;*   Regs Modified     : SP,SR,r13,r15                                       *
;*   Regs Used         : SP,SR,r12,r13,r14,r15                               *
;*   Local Frame Size  : 0 Args + 6 Auto + 0 Save = 6 byte                   *
;*****************************************************************************
GPIO_setAsPeripheralModuleFunctionInputPin:
;* --------------------------------------------------------------------------*
	.dwcfi	cfa_offset, 4
	.dwcfi	save_reg_to_mem, 16, -4
        SUB.W     #6,SP                 ; [] 
	.dwcfi	cfa_offset, 10
$C$DW$29	.dwtag  DW_TAG_variable
	.dwattr $C$DW$29, DW_AT_name("selectedPins")
	.dwattr $C$DW$29, DW_AT_TI_symbol_name("selectedPins")
	.dwattr $C$DW$29, DW_AT_type(*$C$DW$T$26)
	.dwattr $C$DW$29, DW_AT_location[DW_OP_breg1 0]

$C$DW$30	.dwtag  DW_TAG_variable
	.dwattr $C$DW$30, DW_AT_name("baseAddress")
	.dwattr $C$DW$30, DW_AT_TI_symbol_name("baseAddress")
	.dwattr $C$DW$30, DW_AT_type(*$C$DW$T$26)
	.dwattr $C$DW$30, DW_AT_location[DW_OP_breg1 2]

$C$DW$31	.dwtag  DW_TAG_variable
	.dwattr $C$DW$31, DW_AT_name("selectedPort")
	.dwattr $C$DW$31, DW_AT_TI_symbol_name("selectedPort")
	.dwattr $C$DW$31, DW_AT_type(*$C$DW$T$24)
	.dwattr $C$DW$31, DW_AT_location[DW_OP_breg1 4]

$C$DW$32	.dwtag  DW_TAG_variable
	.dwattr $C$DW$32, DW_AT_name("mode")
	.dwattr $C$DW$32, DW_AT_TI_symbol_name("mode")
	.dwattr $C$DW$32, DW_AT_type(*$C$DW$T$24)
	.dwattr $C$DW$32, DW_AT_location[DW_OP_breg1 5]

        MOV.B     r14,5(SP)             ; [] |210| 
        MOV.W     r13,0(SP)             ; [] |210| 
        MOV.B     r12,4(SP)             ; [] |210| 
	.dwpsn	file "../driverlib/MSP430FR2xx_4xx/gpio.c",line 211,column 26,is_stmt,isa 0
        MOV.B     4(SP),r15             ; [] |211| 
        RLAM.W    #1,r15                ; [] |211| 
        MOV.W     GPIO_PORT_TO_BASE+0(r15),2(SP) ; [] |211| 
	.dwpsn	file "../driverlib/MSP430FR2xx_4xx/gpio.c",line 220,column 5,is_stmt,isa 0
        MOV.B     4(SP),r15             ; [] |220| 
        AND.W     #1,r15                ; [] |220| 
        XOR.W     #1,r15                ; [] |220| 
        TST.W     r15                   ; [] |220| 
        JEQ       $C$L9                 ; [] |220| 
                                          ; [] |220| 
;* --------------------------------------------------------------------------*
	.dwpsn	file "../driverlib/MSP430FR2xx_4xx/gpio.c",line 221,column 9,is_stmt,isa 0
        RPT #8 || RLAX.W r13 ; [] |221| 
        MOV.W     r13,0(SP)             ; [] |221| 
;* --------------------------------------------------------------------------*
$C$L9:    
	.dwpsn	file "../driverlib/MSP430FR2xx_4xx/gpio.c",line 224,column 5,is_stmt,isa 0
        MOV.W     #4,r15                ; [] |224| 
        ADD.W     2(SP),r15             ; [] |224| 
        BIC.W     0(SP),0(r15)          ; [] |224| 
	.dwpsn	file "../driverlib/MSP430FR2xx_4xx/gpio.c",line 225,column 5,is_stmt,isa 0
        JMP       $C$L13                ; [] |225| 
                                          ; [] |225| 
;* --------------------------------------------------------------------------*
$C$L10:    
	.dwpsn	file "../driverlib/MSP430FR2xx_4xx/gpio.c",line 228,column 13,is_stmt,isa 0
        MOV.W     #10,r15               ; [] |228| 
        ADD.W     2(SP),r15             ; [] |228| 
        OR.W      0(SP),0(r15)          ; [] |228| 
	.dwpsn	file "../driverlib/MSP430FR2xx_4xx/gpio.c",line 233,column 13,is_stmt,isa 0
        JMP       $C$L14                ; [] |233| 
                                          ; [] |233| 
;* --------------------------------------------------------------------------*
$C$L11:    
	.dwpsn	file "../driverlib/MSP430FR2xx_4xx/gpio.c",line 236,column 13,is_stmt,isa 0
        MOV.W     #10,r15               ; [] |236| 
        ADD.W     2(SP),r15             ; [] |236| 
        BIC.W     0(SP),0(r15)          ; [] |236| 
	.dwpsn	file "../driverlib/MSP430FR2xx_4xx/gpio.c",line 241,column 13,is_stmt,isa 0
        JMP       $C$L14                ; [] |241| 
                                          ; [] |241| 
;* --------------------------------------------------------------------------*
$C$L12:    
	.dwpsn	file "../driverlib/MSP430FR2xx_4xx/gpio.c",line 244,column 13,is_stmt,isa 0
        MOV.W     #10,r15               ; [] |244| 
        ADD.W     2(SP),r15             ; [] |244| 
        OR.W      0(SP),0(r15)          ; [] |244| 
	.dwpsn	file "../driverlib/MSP430FR2xx_4xx/gpio.c",line 249,column 13,is_stmt,isa 0
        JMP       $C$L14                ; [] |249| 
                                          ; [] |249| 
;* --------------------------------------------------------------------------*
;* --------------------------------------------------------------------------*
$C$L13:    
	.dwpsn	file "../driverlib/MSP430FR2xx_4xx/gpio.c",line 225,column 5,is_stmt,isa 0
        MOV.B     5(SP),r15             ; [] |225| 
        SUB.W     #1,r15                ; [] |225| 
        JEQ       $C$L10                ; [] |225| 
                                          ; [] |225| 
;* --------------------------------------------------------------------------*
        SUB.W     #1,r15                ; [] |225| 
        JEQ       $C$L11                ; [] |225| 
                                          ; [] |225| 
;* --------------------------------------------------------------------------*
        SUB.W     #1,r15                ; [] |225| 
        JEQ       $C$L12                ; [] |225| 
                                          ; [] |225| 
;* --------------------------------------------------------------------------*
        JMP       $C$L14                ; [] |225| 
                                          ; [] |225| 
;* --------------------------------------------------------------------------*
;* --------------------------------------------------------------------------*
$C$L14:    
        ADD.W     #6,SP                 ; [] 
	.dwcfi	cfa_offset, 4
$C$DW$33	.dwtag  DW_TAG_TI_branch
	.dwattr $C$DW$33, DW_AT_low_pc(0x00)
	.dwattr $C$DW$33, DW_AT_TI_return

        RETA      ; [] 
        ; [] 
	.dwattr $C$DW$25, DW_AT_TI_end_file("../driverlib/MSP430FR2xx_4xx/gpio.c")
	.dwattr $C$DW$25, DW_AT_TI_end_line(0xfb)
	.dwattr $C$DW$25, DW_AT_TI_end_column(0x01)
	.dwendentry
	.dwendtag $C$DW$25

	.sect	".text:GPIO_setOutputHighOnPin"
	.clink
	.global	GPIO_setOutputHighOnPin

$C$DW$34	.dwtag  DW_TAG_subprogram
	.dwattr $C$DW$34, DW_AT_name("GPIO_setOutputHighOnPin")
	.dwattr $C$DW$34, DW_AT_low_pc(GPIO_setOutputHighOnPin)
	.dwattr $C$DW$34, DW_AT_high_pc(0x00)
	.dwattr $C$DW$34, DW_AT_TI_symbol_name("GPIO_setOutputHighOnPin")
	.dwattr $C$DW$34, DW_AT_external
	.dwattr $C$DW$34, DW_AT_TI_begin_file("../driverlib/MSP430FR2xx_4xx/gpio.c")
	.dwattr $C$DW$34, DW_AT_TI_begin_line(0xfd)
	.dwattr $C$DW$34, DW_AT_TI_begin_column(0x06)
	.dwattr $C$DW$34, DW_AT_decl_file("../driverlib/MSP430FR2xx_4xx/gpio.c")
	.dwattr $C$DW$34, DW_AT_decl_line(0xfd)
	.dwattr $C$DW$34, DW_AT_decl_column(0x06)
	.dwattr $C$DW$34, DW_AT_TI_max_frame_size(0x0a)
	.dwpsn	file "../driverlib/MSP430FR2xx_4xx/gpio.c",line 254,column 59,is_stmt,address GPIO_setOutputHighOnPin,isa 0

	.dwfde $C$DW$CIE, GPIO_setOutputHighOnPin
$C$DW$35	.dwtag  DW_TAG_formal_parameter
	.dwattr $C$DW$35, DW_AT_name("selectedPort")
	.dwattr $C$DW$35, DW_AT_TI_symbol_name("selectedPort")
	.dwattr $C$DW$35, DW_AT_type(*$C$DW$T$24)
	.dwattr $C$DW$35, DW_AT_location[DW_OP_reg12]

$C$DW$36	.dwtag  DW_TAG_formal_parameter
	.dwattr $C$DW$36, DW_AT_name("selectedPins")
	.dwattr $C$DW$36, DW_AT_TI_symbol_name("selectedPins")
	.dwattr $C$DW$36, DW_AT_type(*$C$DW$T$26)
	.dwattr $C$DW$36, DW_AT_location[DW_OP_reg13]


;*****************************************************************************
;* FUNCTION NAME: GPIO_setOutputHighOnPin                                    *
;*                                                                           *
;*   Regs Modified     : SP,SR,r13,r15                                       *
;*   Regs Used         : SP,SR,r12,r13,r15                                   *
;*   Local Frame Size  : 0 Args + 6 Auto + 0 Save = 6 byte                   *
;*****************************************************************************
GPIO_setOutputHighOnPin:
;* --------------------------------------------------------------------------*
	.dwcfi	cfa_offset, 4
	.dwcfi	save_reg_to_mem, 16, -4
        SUB.W     #6,SP                 ; [] 
	.dwcfi	cfa_offset, 10
$C$DW$37	.dwtag  DW_TAG_variable
	.dwattr $C$DW$37, DW_AT_name("selectedPins")
	.dwattr $C$DW$37, DW_AT_TI_symbol_name("selectedPins")
	.dwattr $C$DW$37, DW_AT_type(*$C$DW$T$26)
	.dwattr $C$DW$37, DW_AT_location[DW_OP_breg1 0]

$C$DW$38	.dwtag  DW_TAG_variable
	.dwattr $C$DW$38, DW_AT_name("baseAddress")
	.dwattr $C$DW$38, DW_AT_TI_symbol_name("baseAddress")
	.dwattr $C$DW$38, DW_AT_type(*$C$DW$T$26)
	.dwattr $C$DW$38, DW_AT_location[DW_OP_breg1 2]

$C$DW$39	.dwtag  DW_TAG_variable
	.dwattr $C$DW$39, DW_AT_name("selectedPort")
	.dwattr $C$DW$39, DW_AT_TI_symbol_name("selectedPort")
	.dwattr $C$DW$39, DW_AT_type(*$C$DW$T$24)
	.dwattr $C$DW$39, DW_AT_location[DW_OP_breg1 4]

        MOV.W     r13,0(SP)             ; [] |254| 
        MOV.B     r12,4(SP)             ; [] |254| 
	.dwpsn	file "../driverlib/MSP430FR2xx_4xx/gpio.c",line 256,column 26,is_stmt,isa 0
        MOV.B     4(SP),r15             ; [] |256| 
        RLAM.W    #1,r15                ; [] |256| 
        MOV.W     GPIO_PORT_TO_BASE+0(r15),2(SP) ; [] |256| 
	.dwpsn	file "../driverlib/MSP430FR2xx_4xx/gpio.c",line 265,column 5,is_stmt,isa 0
        MOV.B     4(SP),r15             ; [] |265| 
        AND.W     #1,r15                ; [] |265| 
        XOR.W     #1,r15                ; [] |265| 
        TST.W     r15                   ; [] |265| 
        JEQ       $C$L15                ; [] |265| 
                                          ; [] |265| 
;* --------------------------------------------------------------------------*
	.dwpsn	file "../driverlib/MSP430FR2xx_4xx/gpio.c",line 266,column 9,is_stmt,isa 0
        RPT #8 || RLAX.W r13 ; [] |266| 
        MOV.W     r13,0(SP)             ; [] |266| 
;* --------------------------------------------------------------------------*
$C$L15:    
	.dwpsn	file "../driverlib/MSP430FR2xx_4xx/gpio.c",line 269,column 5,is_stmt,isa 0
        MOV.W     #2,r15                ; [] |269| 
        ADD.W     2(SP),r15             ; [] |269| 
        OR.W      0(SP),0(r15)          ; [] |269| 
	.dwpsn	file "../driverlib/MSP430FR2xx_4xx/gpio.c",line 270,column 1,is_stmt,isa 0
        ADD.W     #6,SP                 ; [] 
	.dwcfi	cfa_offset, 4
$C$DW$40	.dwtag  DW_TAG_TI_branch
	.dwattr $C$DW$40, DW_AT_low_pc(0x00)
	.dwattr $C$DW$40, DW_AT_TI_return

        RETA      ; [] 
        ; [] 
	.dwattr $C$DW$34, DW_AT_TI_end_file("../driverlib/MSP430FR2xx_4xx/gpio.c")
	.dwattr $C$DW$34, DW_AT_TI_end_line(0x10e)
	.dwattr $C$DW$34, DW_AT_TI_end_column(0x01)
	.dwendentry
	.dwendtag $C$DW$34

	.sect	".text:GPIO_setOutputLowOnPin"
	.clink
	.global	GPIO_setOutputLowOnPin

$C$DW$41	.dwtag  DW_TAG_subprogram
	.dwattr $C$DW$41, DW_AT_name("GPIO_setOutputLowOnPin")
	.dwattr $C$DW$41, DW_AT_low_pc(GPIO_setOutputLowOnPin)
	.dwattr $C$DW$41, DW_AT_high_pc(0x00)
	.dwattr $C$DW$41, DW_AT_TI_symbol_name("GPIO_setOutputLowOnPin")
	.dwattr $C$DW$41, DW_AT_external
	.dwattr $C$DW$41, DW_AT_TI_begin_file("../driverlib/MSP430FR2xx_4xx/gpio.c")
	.dwattr $C$DW$41, DW_AT_TI_begin_line(0x110)
	.dwattr $C$DW$41, DW_AT_TI_begin_column(0x06)
	.dwattr $C$DW$41, DW_AT_decl_file("../driverlib/MSP430FR2xx_4xx/gpio.c")
	.dwattr $C$DW$41, DW_AT_decl_line(0x110)
	.dwattr $C$DW$41, DW_AT_decl_column(0x06)
	.dwattr $C$DW$41, DW_AT_TI_max_frame_size(0x0a)
	.dwpsn	file "../driverlib/MSP430FR2xx_4xx/gpio.c",line 272,column 75,is_stmt,address GPIO_setOutputLowOnPin,isa 0

	.dwfde $C$DW$CIE, GPIO_setOutputLowOnPin
$C$DW$42	.dwtag  DW_TAG_formal_parameter
	.dwattr $C$DW$42, DW_AT_name("selectedPort")
	.dwattr $C$DW$42, DW_AT_TI_symbol_name("selectedPort")
	.dwattr $C$DW$42, DW_AT_type(*$C$DW$T$24)
	.dwattr $C$DW$42, DW_AT_location[DW_OP_reg12]

$C$DW$43	.dwtag  DW_TAG_formal_parameter
	.dwattr $C$DW$43, DW_AT_name("selectedPins")
	.dwattr $C$DW$43, DW_AT_TI_symbol_name("selectedPins")
	.dwattr $C$DW$43, DW_AT_type(*$C$DW$T$26)
	.dwattr $C$DW$43, DW_AT_location[DW_OP_reg13]


;*****************************************************************************
;* FUNCTION NAME: GPIO_setOutputLowOnPin                                     *
;*                                                                           *
;*   Regs Modified     : SP,SR,r13,r15                                       *
;*   Regs Used         : SP,SR,r12,r13,r15                                   *
;*   Local Frame Size  : 0 Args + 6 Auto + 0 Save = 6 byte                   *
;*****************************************************************************
GPIO_setOutputLowOnPin:
;* --------------------------------------------------------------------------*
	.dwcfi	cfa_offset, 4
	.dwcfi	save_reg_to_mem, 16, -4
        SUB.W     #6,SP                 ; [] 
	.dwcfi	cfa_offset, 10
$C$DW$44	.dwtag  DW_TAG_variable
	.dwattr $C$DW$44, DW_AT_name("selectedPins")
	.dwattr $C$DW$44, DW_AT_TI_symbol_name("selectedPins")
	.dwattr $C$DW$44, DW_AT_type(*$C$DW$T$26)
	.dwattr $C$DW$44, DW_AT_location[DW_OP_breg1 0]

$C$DW$45	.dwtag  DW_TAG_variable
	.dwattr $C$DW$45, DW_AT_name("baseAddress")
	.dwattr $C$DW$45, DW_AT_TI_symbol_name("baseAddress")
	.dwattr $C$DW$45, DW_AT_type(*$C$DW$T$26)
	.dwattr $C$DW$45, DW_AT_location[DW_OP_breg1 2]

$C$DW$46	.dwtag  DW_TAG_variable
	.dwattr $C$DW$46, DW_AT_name("selectedPort")
	.dwattr $C$DW$46, DW_AT_TI_symbol_name("selectedPort")
	.dwattr $C$DW$46, DW_AT_type(*$C$DW$T$24)
	.dwattr $C$DW$46, DW_AT_location[DW_OP_breg1 4]

        MOV.W     r13,0(SP)             ; [] |272| 
        MOV.B     r12,4(SP)             ; [] |272| 
	.dwpsn	file "../driverlib/MSP430FR2xx_4xx/gpio.c",line 274,column 26,is_stmt,isa 0
        MOV.B     4(SP),r15             ; [] |274| 
        RLAM.W    #1,r15                ; [] |274| 
        MOV.W     GPIO_PORT_TO_BASE+0(r15),2(SP) ; [] |274| 
	.dwpsn	file "../driverlib/MSP430FR2xx_4xx/gpio.c",line 283,column 5,is_stmt,isa 0
        MOV.B     4(SP),r15             ; [] |283| 
        AND.W     #1,r15                ; [] |283| 
        XOR.W     #1,r15                ; [] |283| 
        TST.W     r15                   ; [] |283| 
        JEQ       $C$L16                ; [] |283| 
                                          ; [] |283| 
;* --------------------------------------------------------------------------*
	.dwpsn	file "../driverlib/MSP430FR2xx_4xx/gpio.c",line 284,column 9,is_stmt,isa 0
        RPT #8 || RLAX.W r13 ; [] |284| 
        MOV.W     r13,0(SP)             ; [] |284| 
;* --------------------------------------------------------------------------*
$C$L16:    
	.dwpsn	file "../driverlib/MSP430FR2xx_4xx/gpio.c",line 287,column 5,is_stmt,isa 0
        MOV.W     #2,r15                ; [] |287| 
        ADD.W     2(SP),r15             ; [] |287| 
        BIC.W     0(SP),0(r15)          ; [] |287| 
	.dwpsn	file "../driverlib/MSP430FR2xx_4xx/gpio.c",line 288,column 1,is_stmt,isa 0
        ADD.W     #6,SP                 ; [] 
	.dwcfi	cfa_offset, 4
$C$DW$47	.dwtag  DW_TAG_TI_branch
	.dwattr $C$DW$47, DW_AT_low_pc(0x00)
	.dwattr $C$DW$47, DW_AT_TI_return

        RETA      ; [] 
        ; [] 
	.dwattr $C$DW$41, DW_AT_TI_end_file("../driverlib/MSP430FR2xx_4xx/gpio.c")
	.dwattr $C$DW$41, DW_AT_TI_end_line(0x120)
	.dwattr $C$DW$41, DW_AT_TI_end_column(0x01)
	.dwendentry
	.dwendtag $C$DW$41

	.sect	".text:GPIO_toggleOutputOnPin"
	.clink
	.global	GPIO_toggleOutputOnPin

$C$DW$48	.dwtag  DW_TAG_subprogram
	.dwattr $C$DW$48, DW_AT_name("GPIO_toggleOutputOnPin")
	.dwattr $C$DW$48, DW_AT_low_pc(GPIO_toggleOutputOnPin)
	.dwattr $C$DW$48, DW_AT_high_pc(0x00)
	.dwattr $C$DW$48, DW_AT_TI_symbol_name("GPIO_toggleOutputOnPin")
	.dwattr $C$DW$48, DW_AT_external
	.dwattr $C$DW$48, DW_AT_TI_begin_file("../driverlib/MSP430FR2xx_4xx/gpio.c")
	.dwattr $C$DW$48, DW_AT_TI_begin_line(0x122)
	.dwattr $C$DW$48, DW_AT_TI_begin_column(0x06)
	.dwattr $C$DW$48, DW_AT_decl_file("../driverlib/MSP430FR2xx_4xx/gpio.c")
	.dwattr $C$DW$48, DW_AT_decl_line(0x122)
	.dwattr $C$DW$48, DW_AT_decl_column(0x06)
	.dwattr $C$DW$48, DW_AT_TI_max_frame_size(0x0a)
	.dwpsn	file "../driverlib/MSP430FR2xx_4xx/gpio.c",line 290,column 75,is_stmt,address GPIO_toggleOutputOnPin,isa 0

	.dwfde $C$DW$CIE, GPIO_toggleOutputOnPin
$C$DW$49	.dwtag  DW_TAG_formal_parameter
	.dwattr $C$DW$49, DW_AT_name("selectedPort")
	.dwattr $C$DW$49, DW_AT_TI_symbol_name("selectedPort")
	.dwattr $C$DW$49, DW_AT_type(*$C$DW$T$24)
	.dwattr $C$DW$49, DW_AT_location[DW_OP_reg12]

$C$DW$50	.dwtag  DW_TAG_formal_parameter
	.dwattr $C$DW$50, DW_AT_name("selectedPins")
	.dwattr $C$DW$50, DW_AT_TI_symbol_name("selectedPins")
	.dwattr $C$DW$50, DW_AT_type(*$C$DW$T$26)
	.dwattr $C$DW$50, DW_AT_location[DW_OP_reg13]


;*****************************************************************************
;* FUNCTION NAME: GPIO_toggleOutputOnPin                                     *
;*                                                                           *
;*   Regs Modified     : SP,SR,r13,r15                                       *
;*   Regs Used         : SP,SR,r12,r13,r15                                   *
;*   Local Frame Size  : 0 Args + 6 Auto + 0 Save = 6 byte                   *
;*****************************************************************************
GPIO_toggleOutputOnPin:
;* --------------------------------------------------------------------------*
	.dwcfi	cfa_offset, 4
	.dwcfi	save_reg_to_mem, 16, -4
        SUB.W     #6,SP                 ; [] 
	.dwcfi	cfa_offset, 10
$C$DW$51	.dwtag  DW_TAG_variable
	.dwattr $C$DW$51, DW_AT_name("selectedPins")
	.dwattr $C$DW$51, DW_AT_TI_symbol_name("selectedPins")
	.dwattr $C$DW$51, DW_AT_type(*$C$DW$T$26)
	.dwattr $C$DW$51, DW_AT_location[DW_OP_breg1 0]

$C$DW$52	.dwtag  DW_TAG_variable
	.dwattr $C$DW$52, DW_AT_name("baseAddress")
	.dwattr $C$DW$52, DW_AT_TI_symbol_name("baseAddress")
	.dwattr $C$DW$52, DW_AT_type(*$C$DW$T$26)
	.dwattr $C$DW$52, DW_AT_location[DW_OP_breg1 2]

$C$DW$53	.dwtag  DW_TAG_variable
	.dwattr $C$DW$53, DW_AT_name("selectedPort")
	.dwattr $C$DW$53, DW_AT_TI_symbol_name("selectedPort")
	.dwattr $C$DW$53, DW_AT_type(*$C$DW$T$24)
	.dwattr $C$DW$53, DW_AT_location[DW_OP_breg1 4]

        MOV.W     r13,0(SP)             ; [] |290| 
        MOV.B     r12,4(SP)             ; [] |290| 
	.dwpsn	file "../driverlib/MSP430FR2xx_4xx/gpio.c",line 292,column 26,is_stmt,isa 0
        MOV.B     4(SP),r15             ; [] |292| 
        RLAM.W    #1,r15                ; [] |292| 
        MOV.W     GPIO_PORT_TO_BASE+0(r15),2(SP) ; [] |292| 
	.dwpsn	file "../driverlib/MSP430FR2xx_4xx/gpio.c",line 301,column 5,is_stmt,isa 0
        MOV.B     4(SP),r15             ; [] |301| 
        AND.W     #1,r15                ; [] |301| 
        XOR.W     #1,r15                ; [] |301| 
        TST.W     r15                   ; [] |301| 
        JEQ       $C$L17                ; [] |301| 
                                          ; [] |301| 
;* --------------------------------------------------------------------------*
	.dwpsn	file "../driverlib/MSP430FR2xx_4xx/gpio.c",line 302,column 9,is_stmt,isa 0
        RPT #8 || RLAX.W r13 ; [] |302| 
        MOV.W     r13,0(SP)             ; [] |302| 
;* --------------------------------------------------------------------------*
$C$L17:    
	.dwpsn	file "../driverlib/MSP430FR2xx_4xx/gpio.c",line 305,column 5,is_stmt,isa 0
        MOV.W     #2,r15                ; [] |305| 
        ADD.W     2(SP),r15             ; [] |305| 
        XOR.W     0(SP),0(r15)          ; [] |305| 
	.dwpsn	file "../driverlib/MSP430FR2xx_4xx/gpio.c",line 306,column 1,is_stmt,isa 0
        ADD.W     #6,SP                 ; [] 
	.dwcfi	cfa_offset, 4
$C$DW$54	.dwtag  DW_TAG_TI_branch
	.dwattr $C$DW$54, DW_AT_low_pc(0x00)
	.dwattr $C$DW$54, DW_AT_TI_return

        RETA      ; [] 
        ; [] 
	.dwattr $C$DW$48, DW_AT_TI_end_file("../driverlib/MSP430FR2xx_4xx/gpio.c")
	.dwattr $C$DW$48, DW_AT_TI_end_line(0x132)
	.dwattr $C$DW$48, DW_AT_TI_end_column(0x01)
	.dwendentry
	.dwendtag $C$DW$48

	.sect	".text:GPIO_setAsInputPinWithPullDownResistor"
	.clink
	.global	GPIO_setAsInputPinWithPullDownResistor

$C$DW$55	.dwtag  DW_TAG_subprogram
	.dwattr $C$DW$55, DW_AT_name("GPIO_setAsInputPinWithPullDownResistor")
	.dwattr $C$DW$55, DW_AT_low_pc(GPIO_setAsInputPinWithPullDownResistor)
	.dwattr $C$DW$55, DW_AT_high_pc(0x00)
	.dwattr $C$DW$55, DW_AT_TI_symbol_name("GPIO_setAsInputPinWithPullDownResistor")
	.dwattr $C$DW$55, DW_AT_external
	.dwattr $C$DW$55, DW_AT_TI_begin_file("../driverlib/MSP430FR2xx_4xx/gpio.c")
	.dwattr $C$DW$55, DW_AT_TI_begin_line(0x134)
	.dwattr $C$DW$55, DW_AT_TI_begin_column(0x06)
	.dwattr $C$DW$55, DW_AT_decl_file("../driverlib/MSP430FR2xx_4xx/gpio.c")
	.dwattr $C$DW$55, DW_AT_decl_line(0x134)
	.dwattr $C$DW$55, DW_AT_decl_column(0x06)
	.dwattr $C$DW$55, DW_AT_TI_max_frame_size(0x0a)
	.dwpsn	file "../driverlib/MSP430FR2xx_4xx/gpio.c",line 309,column 73,is_stmt,address GPIO_setAsInputPinWithPullDownResistor,isa 0

	.dwfde $C$DW$CIE, GPIO_setAsInputPinWithPullDownResistor
$C$DW$56	.dwtag  DW_TAG_formal_parameter
	.dwattr $C$DW$56, DW_AT_name("selectedPort")
	.dwattr $C$DW$56, DW_AT_TI_symbol_name("selectedPort")
	.dwattr $C$DW$56, DW_AT_type(*$C$DW$T$24)
	.dwattr $C$DW$56, DW_AT_location[DW_OP_reg12]

$C$DW$57	.dwtag  DW_TAG_formal_parameter
	.dwattr $C$DW$57, DW_AT_name("selectedPins")
	.dwattr $C$DW$57, DW_AT_TI_symbol_name("selectedPins")
	.dwattr $C$DW$57, DW_AT_type(*$C$DW$T$26)
	.dwattr $C$DW$57, DW_AT_location[DW_OP_reg13]


;*****************************************************************************
;* FUNCTION NAME: GPIO_setAsInputPinWithPullDownResistor                     *
;*                                                                           *
;*   Regs Modified     : SP,SR,r13,r15                                       *
;*   Regs Used         : SP,SR,r12,r13,r15                                   *
;*   Local Frame Size  : 0 Args + 6 Auto + 0 Save = 6 byte                   *
;*****************************************************************************
GPIO_setAsInputPinWithPullDownResistor:
;* --------------------------------------------------------------------------*
	.dwcfi	cfa_offset, 4
	.dwcfi	save_reg_to_mem, 16, -4
        SUB.W     #6,SP                 ; [] 
	.dwcfi	cfa_offset, 10
$C$DW$58	.dwtag  DW_TAG_variable
	.dwattr $C$DW$58, DW_AT_name("selectedPins")
	.dwattr $C$DW$58, DW_AT_TI_symbol_name("selectedPins")
	.dwattr $C$DW$58, DW_AT_type(*$C$DW$T$26)
	.dwattr $C$DW$58, DW_AT_location[DW_OP_breg1 0]

$C$DW$59	.dwtag  DW_TAG_variable
	.dwattr $C$DW$59, DW_AT_name("baseAddress")
	.dwattr $C$DW$59, DW_AT_TI_symbol_name("baseAddress")
	.dwattr $C$DW$59, DW_AT_type(*$C$DW$T$26)
	.dwattr $C$DW$59, DW_AT_location[DW_OP_breg1 2]

$C$DW$60	.dwtag  DW_TAG_variable
	.dwattr $C$DW$60, DW_AT_name("selectedPort")
	.dwattr $C$DW$60, DW_AT_TI_symbol_name("selectedPort")
	.dwattr $C$DW$60, DW_AT_type(*$C$DW$T$24)
	.dwattr $C$DW$60, DW_AT_location[DW_OP_breg1 4]

        MOV.W     r13,0(SP)             ; [] |309| 
        MOV.B     r12,4(SP)             ; [] |309| 
	.dwpsn	file "../driverlib/MSP430FR2xx_4xx/gpio.c",line 311,column 26,is_stmt,isa 0
        MOV.B     4(SP),r15             ; [] |311| 
        RLAM.W    #1,r15                ; [] |311| 
        MOV.W     GPIO_PORT_TO_BASE+0(r15),2(SP) ; [] |311| 
	.dwpsn	file "../driverlib/MSP430FR2xx_4xx/gpio.c",line 320,column 5,is_stmt,isa 0
        MOV.B     4(SP),r15             ; [] |320| 
        AND.W     #1,r15                ; [] |320| 
        XOR.W     #1,r15                ; [] |320| 
        TST.W     r15                   ; [] |320| 
        JEQ       $C$L18                ; [] |320| 
                                          ; [] |320| 
;* --------------------------------------------------------------------------*
	.dwpsn	file "../driverlib/MSP430FR2xx_4xx/gpio.c",line 321,column 9,is_stmt,isa 0
        RPT #8 || RLAX.W r13 ; [] |321| 
        MOV.W     r13,0(SP)             ; [] |321| 
;* --------------------------------------------------------------------------*
$C$L18:    
	.dwpsn	file "../driverlib/MSP430FR2xx_4xx/gpio.c",line 325,column 5,is_stmt,isa 0
        MOV.W     #10,r15               ; [] |325| 
        ADD.W     2(SP),r15             ; [] |325| 
        BIC.W     0(SP),0(r15)          ; [] |325| 
	.dwpsn	file "../driverlib/MSP430FR2xx_4xx/gpio.c",line 331,column 5,is_stmt,isa 0
        MOV.W     #4,r15                ; [] |331| 
        ADD.W     2(SP),r15             ; [] |331| 
        BIC.W     0(SP),0(r15)          ; [] |331| 
	.dwpsn	file "../driverlib/MSP430FR2xx_4xx/gpio.c",line 332,column 5,is_stmt,isa 0
        MOV.W     #6,r15                ; [] |332| 
        ADD.W     2(SP),r15             ; [] |332| 
        OR.W      0(SP),0(r15)          ; [] |332| 
	.dwpsn	file "../driverlib/MSP430FR2xx_4xx/gpio.c",line 333,column 5,is_stmt,isa 0
        MOV.W     #2,r15                ; [] |333| 
        ADD.W     2(SP),r15             ; [] |333| 
        BIC.W     0(SP),0(r15)          ; [] |333| 
	.dwpsn	file "../driverlib/MSP430FR2xx_4xx/gpio.c",line 334,column 1,is_stmt,isa 0
        ADD.W     #6,SP                 ; [] 
	.dwcfi	cfa_offset, 4
$C$DW$61	.dwtag  DW_TAG_TI_branch
	.dwattr $C$DW$61, DW_AT_low_pc(0x00)
	.dwattr $C$DW$61, DW_AT_TI_return

        RETA      ; [] 
        ; [] 
	.dwattr $C$DW$55, DW_AT_TI_end_file("../driverlib/MSP430FR2xx_4xx/gpio.c")
	.dwattr $C$DW$55, DW_AT_TI_end_line(0x14e)
	.dwattr $C$DW$55, DW_AT_TI_end_column(0x01)
	.dwendentry
	.dwendtag $C$DW$55

	.sect	".text:GPIO_setAsInputPinWithPullUpResistor"
	.clink
	.global	GPIO_setAsInputPinWithPullUpResistor

$C$DW$62	.dwtag  DW_TAG_subprogram
	.dwattr $C$DW$62, DW_AT_name("GPIO_setAsInputPinWithPullUpResistor")
	.dwattr $C$DW$62, DW_AT_low_pc(GPIO_setAsInputPinWithPullUpResistor)
	.dwattr $C$DW$62, DW_AT_high_pc(0x00)
	.dwattr $C$DW$62, DW_AT_TI_symbol_name("GPIO_setAsInputPinWithPullUpResistor")
	.dwattr $C$DW$62, DW_AT_external
	.dwattr $C$DW$62, DW_AT_TI_begin_file("../driverlib/MSP430FR2xx_4xx/gpio.c")
	.dwattr $C$DW$62, DW_AT_TI_begin_line(0x150)
	.dwattr $C$DW$62, DW_AT_TI_begin_column(0x06)
	.dwattr $C$DW$62, DW_AT_decl_file("../driverlib/MSP430FR2xx_4xx/gpio.c")
	.dwattr $C$DW$62, DW_AT_decl_line(0x150)
	.dwattr $C$DW$62, DW_AT_decl_column(0x06)
	.dwattr $C$DW$62, DW_AT_TI_max_frame_size(0x0a)
	.dwpsn	file "../driverlib/MSP430FR2xx_4xx/gpio.c",line 337,column 72,is_stmt,address GPIO_setAsInputPinWithPullUpResistor,isa 0

	.dwfde $C$DW$CIE, GPIO_setAsInputPinWithPullUpResistor
$C$DW$63	.dwtag  DW_TAG_formal_parameter
	.dwattr $C$DW$63, DW_AT_name("selectedPort")
	.dwattr $C$DW$63, DW_AT_TI_symbol_name("selectedPort")
	.dwattr $C$DW$63, DW_AT_type(*$C$DW$T$24)
	.dwattr $C$DW$63, DW_AT_location[DW_OP_reg12]

$C$DW$64	.dwtag  DW_TAG_formal_parameter
	.dwattr $C$DW$64, DW_AT_name("selectedPins")
	.dwattr $C$DW$64, DW_AT_TI_symbol_name("selectedPins")
	.dwattr $C$DW$64, DW_AT_type(*$C$DW$T$26)
	.dwattr $C$DW$64, DW_AT_location[DW_OP_reg13]


;*****************************************************************************
;* FUNCTION NAME: GPIO_setAsInputPinWithPullUpResistor                       *
;*                                                                           *
;*   Regs Modified     : SP,SR,r13,r15                                       *
;*   Regs Used         : SP,SR,r12,r13,r15                                   *
;*   Local Frame Size  : 0 Args + 6 Auto + 0 Save = 6 byte                   *
;*****************************************************************************
GPIO_setAsInputPinWithPullUpResistor:
;* --------------------------------------------------------------------------*
	.dwcfi	cfa_offset, 4
	.dwcfi	save_reg_to_mem, 16, -4
        SUB.W     #6,SP                 ; [] 
	.dwcfi	cfa_offset, 10
$C$DW$65	.dwtag  DW_TAG_variable
	.dwattr $C$DW$65, DW_AT_name("selectedPins")
	.dwattr $C$DW$65, DW_AT_TI_symbol_name("selectedPins")
	.dwattr $C$DW$65, DW_AT_type(*$C$DW$T$26)
	.dwattr $C$DW$65, DW_AT_location[DW_OP_breg1 0]

$C$DW$66	.dwtag  DW_TAG_variable
	.dwattr $C$DW$66, DW_AT_name("baseAddress")
	.dwattr $C$DW$66, DW_AT_TI_symbol_name("baseAddress")
	.dwattr $C$DW$66, DW_AT_type(*$C$DW$T$26)
	.dwattr $C$DW$66, DW_AT_location[DW_OP_breg1 2]

$C$DW$67	.dwtag  DW_TAG_variable
	.dwattr $C$DW$67, DW_AT_name("selectedPort")
	.dwattr $C$DW$67, DW_AT_TI_symbol_name("selectedPort")
	.dwattr $C$DW$67, DW_AT_type(*$C$DW$T$24)
	.dwattr $C$DW$67, DW_AT_location[DW_OP_breg1 4]

        MOV.W     r13,0(SP)             ; [] |337| 
        MOV.B     r12,4(SP)             ; [] |337| 
	.dwpsn	file "../driverlib/MSP430FR2xx_4xx/gpio.c",line 339,column 26,is_stmt,isa 0
        MOV.B     4(SP),r15             ; [] |339| 
        RLAM.W    #1,r15                ; [] |339| 
        MOV.W     GPIO_PORT_TO_BASE+0(r15),2(SP) ; [] |339| 
	.dwpsn	file "../driverlib/MSP430FR2xx_4xx/gpio.c",line 348,column 5,is_stmt,isa 0
        MOV.B     4(SP),r15             ; [] |348| 
        AND.W     #1,r15                ; [] |348| 
        XOR.W     #1,r15                ; [] |348| 
        TST.W     r15                   ; [] |348| 
        JEQ       $C$L19                ; [] |348| 
                                          ; [] |348| 
;* --------------------------------------------------------------------------*
	.dwpsn	file "../driverlib/MSP430FR2xx_4xx/gpio.c",line 349,column 9,is_stmt,isa 0
        RPT #8 || RLAX.W r13 ; [] |349| 
        MOV.W     r13,0(SP)             ; [] |349| 
;* --------------------------------------------------------------------------*
$C$L19:    
	.dwpsn	file "../driverlib/MSP430FR2xx_4xx/gpio.c",line 353,column 5,is_stmt,isa 0
        MOV.W     #10,r15               ; [] |353| 
        ADD.W     2(SP),r15             ; [] |353| 
        BIC.W     0(SP),0(r15)          ; [] |353| 
	.dwpsn	file "../driverlib/MSP430FR2xx_4xx/gpio.c",line 358,column 5,is_stmt,isa 0
        MOV.W     #4,r15                ; [] |358| 
        ADD.W     2(SP),r15             ; [] |358| 
        BIC.W     0(SP),0(r15)          ; [] |358| 
	.dwpsn	file "../driverlib/MSP430FR2xx_4xx/gpio.c",line 359,column 5,is_stmt,isa 0
        MOV.W     #6,r15                ; [] |359| 
        ADD.W     2(SP),r15             ; [] |359| 
        OR.W      0(SP),0(r15)          ; [] |359| 
	.dwpsn	file "../driverlib/MSP430FR2xx_4xx/gpio.c",line 360,column 5,is_stmt,isa 0
        MOV.W     #2,r15                ; [] |360| 
        ADD.W     2(SP),r15             ; [] |360| 
        OR.W      0(SP),0(r15)          ; [] |360| 
	.dwpsn	file "../driverlib/MSP430FR2xx_4xx/gpio.c",line 361,column 1,is_stmt,isa 0
        ADD.W     #6,SP                 ; [] 
	.dwcfi	cfa_offset, 4
$C$DW$68	.dwtag  DW_TAG_TI_branch
	.dwattr $C$DW$68, DW_AT_low_pc(0x00)
	.dwattr $C$DW$68, DW_AT_TI_return

        RETA      ; [] 
        ; [] 
	.dwattr $C$DW$62, DW_AT_TI_end_file("../driverlib/MSP430FR2xx_4xx/gpio.c")
	.dwattr $C$DW$62, DW_AT_TI_end_line(0x169)
	.dwattr $C$DW$62, DW_AT_TI_end_column(0x01)
	.dwendentry
	.dwendtag $C$DW$62

	.sect	".text:GPIO_getInputPinValue"
	.clink
	.global	GPIO_getInputPinValue

$C$DW$69	.dwtag  DW_TAG_subprogram
	.dwattr $C$DW$69, DW_AT_name("GPIO_getInputPinValue")
	.dwattr $C$DW$69, DW_AT_low_pc(GPIO_getInputPinValue)
	.dwattr $C$DW$69, DW_AT_high_pc(0x00)
	.dwattr $C$DW$69, DW_AT_TI_symbol_name("GPIO_getInputPinValue")
	.dwattr $C$DW$69, DW_AT_external
	.dwattr $C$DW$69, DW_AT_type(*$C$DW$T$24)
	.dwattr $C$DW$69, DW_AT_TI_begin_file("../driverlib/MSP430FR2xx_4xx/gpio.c")
	.dwattr $C$DW$69, DW_AT_TI_begin_line(0x16b)
	.dwattr $C$DW$69, DW_AT_TI_begin_column(0x09)
	.dwattr $C$DW$69, DW_AT_decl_file("../driverlib/MSP430FR2xx_4xx/gpio.c")
	.dwattr $C$DW$69, DW_AT_decl_line(0x16b)
	.dwattr $C$DW$69, DW_AT_decl_column(0x09)
	.dwattr $C$DW$69, DW_AT_TI_max_frame_size(0x0c)
	.dwpsn	file "../driverlib/MSP430FR2xx_4xx/gpio.c",line 364,column 59,is_stmt,address GPIO_getInputPinValue,isa 0

	.dwfde $C$DW$CIE, GPIO_getInputPinValue
$C$DW$70	.dwtag  DW_TAG_formal_parameter
	.dwattr $C$DW$70, DW_AT_name("selectedPort")
	.dwattr $C$DW$70, DW_AT_TI_symbol_name("selectedPort")
	.dwattr $C$DW$70, DW_AT_type(*$C$DW$T$24)
	.dwattr $C$DW$70, DW_AT_location[DW_OP_reg12]

$C$DW$71	.dwtag  DW_TAG_formal_parameter
	.dwattr $C$DW$71, DW_AT_name("selectedPins")
	.dwattr $C$DW$71, DW_AT_TI_symbol_name("selectedPins")
	.dwattr $C$DW$71, DW_AT_type(*$C$DW$T$26)
	.dwattr $C$DW$71, DW_AT_location[DW_OP_reg13]


;*****************************************************************************
;* FUNCTION NAME: GPIO_getInputPinValue                                      *
;*                                                                           *
;*   Regs Modified     : SP,SR,r12,r13,r14,r15                               *
;*   Regs Used         : SP,SR,r12,r13,r14,r15                               *
;*   Local Frame Size  : 0 Args + 8 Auto + 0 Save = 8 byte                   *
;*****************************************************************************
GPIO_getInputPinValue:
;* --------------------------------------------------------------------------*
	.dwcfi	cfa_offset, 4
	.dwcfi	save_reg_to_mem, 16, -4
        SUB.W     #8,SP                 ; [] 
	.dwcfi	cfa_offset, 12
$C$DW$72	.dwtag  DW_TAG_variable
	.dwattr $C$DW$72, DW_AT_name("selectedPins")
	.dwattr $C$DW$72, DW_AT_TI_symbol_name("selectedPins")
	.dwattr $C$DW$72, DW_AT_type(*$C$DW$T$26)
	.dwattr $C$DW$72, DW_AT_location[DW_OP_breg1 0]

$C$DW$73	.dwtag  DW_TAG_variable
	.dwattr $C$DW$73, DW_AT_name("baseAddress")
	.dwattr $C$DW$73, DW_AT_TI_symbol_name("baseAddress")
	.dwattr $C$DW$73, DW_AT_type(*$C$DW$T$26)
	.dwattr $C$DW$73, DW_AT_location[DW_OP_breg1 2]

$C$DW$74	.dwtag  DW_TAG_variable
	.dwattr $C$DW$74, DW_AT_name("inputPinValue")
	.dwattr $C$DW$74, DW_AT_TI_symbol_name("inputPinValue")
	.dwattr $C$DW$74, DW_AT_type(*$C$DW$T$26)
	.dwattr $C$DW$74, DW_AT_location[DW_OP_breg1 4]

$C$DW$75	.dwtag  DW_TAG_variable
	.dwattr $C$DW$75, DW_AT_name("selectedPort")
	.dwattr $C$DW$75, DW_AT_TI_symbol_name("selectedPort")
	.dwattr $C$DW$75, DW_AT_type(*$C$DW$T$24)
	.dwattr $C$DW$75, DW_AT_location[DW_OP_breg1 6]

        MOV.W     r13,0(SP)             ; [] |364| 
        MOV.B     r12,6(SP)             ; [] |364| 
	.dwpsn	file "../driverlib/MSP430FR2xx_4xx/gpio.c",line 366,column 26,is_stmt,isa 0
        MOV.B     6(SP),r15             ; [] |366| 
        RLAM.W    #1,r15                ; [] |366| 
        MOV.W     GPIO_PORT_TO_BASE+0(r15),2(SP) ; [] |366| 
	.dwpsn	file "../driverlib/MSP430FR2xx_4xx/gpio.c",line 375,column 5,is_stmt,isa 0
        MOV.B     6(SP),r15             ; [] |375| 
        AND.W     #1,r15                ; [] |375| 
        XOR.W     #1,r15                ; [] |375| 
        TST.W     r15                   ; [] |375| 
        JEQ       $C$L20                ; [] |375| 
                                          ; [] |375| 
;* --------------------------------------------------------------------------*
	.dwpsn	file "../driverlib/MSP430FR2xx_4xx/gpio.c",line 376,column 9,is_stmt,isa 0
        RPT #8 || RLAX.W r13 ; [] |376| 
        MOV.W     r13,0(SP)             ; [] |376| 
;* --------------------------------------------------------------------------*
$C$L20:    
	.dwpsn	file "../driverlib/MSP430FR2xx_4xx/gpio.c",line 379,column 28,is_stmt,isa 0
        MOV.W     2(SP),r14             ; [] |379| 
        MOVA      r13,r15               ; [] 
        AND.W     @r14,r15              ; [] |379| 
        MOV.W     r15,4(SP)             ; [] |379| 
	.dwpsn	file "../driverlib/MSP430FR2xx_4xx/gpio.c",line 381,column 5,is_stmt,isa 0
        TST.W     4(SP)                 ; [] |381| 
        JEQ       $C$L21                ; [] |381| 
                                          ; [] |381| 
;* --------------------------------------------------------------------------*
	.dwpsn	file "../driverlib/MSP430FR2xx_4xx/gpio.c",line 382,column 9,is_stmt,isa 0
        MOV.B     #1,r12                ; [] |382| 
        JMP       $C$L22                ; [] |382| 
                                          ; [] |382| 
;* --------------------------------------------------------------------------*
$C$L21:    
	.dwpsn	file "../driverlib/MSP430FR2xx_4xx/gpio.c",line 384,column 5,is_stmt,isa 0
        MOV.B     #0,r12                ; [] |384| 
;* --------------------------------------------------------------------------*
$C$L22:    
	.dwpsn	file "../driverlib/MSP430FR2xx_4xx/gpio.c",line 385,column 1,is_stmt,isa 0
        ADD.W     #8,SP                 ; [] 
	.dwcfi	cfa_offset, 4
$C$DW$76	.dwtag  DW_TAG_TI_branch
	.dwattr $C$DW$76, DW_AT_low_pc(0x00)
	.dwattr $C$DW$76, DW_AT_TI_return

        RETA      ; [] 
        ; [] 
	.dwattr $C$DW$69, DW_AT_TI_end_file("../driverlib/MSP430FR2xx_4xx/gpio.c")
	.dwattr $C$DW$69, DW_AT_TI_end_line(0x181)
	.dwattr $C$DW$69, DW_AT_TI_end_column(0x01)
	.dwendentry
	.dwendtag $C$DW$69

	.sect	".text:GPIO_enableInterrupt"
	.clink
	.global	GPIO_enableInterrupt

$C$DW$77	.dwtag  DW_TAG_subprogram
	.dwattr $C$DW$77, DW_AT_name("GPIO_enableInterrupt")
	.dwattr $C$DW$77, DW_AT_low_pc(GPIO_enableInterrupt)
	.dwattr $C$DW$77, DW_AT_high_pc(0x00)
	.dwattr $C$DW$77, DW_AT_TI_symbol_name("GPIO_enableInterrupt")
	.dwattr $C$DW$77, DW_AT_external
	.dwattr $C$DW$77, DW_AT_TI_begin_file("../driverlib/MSP430FR2xx_4xx/gpio.c")
	.dwattr $C$DW$77, DW_AT_TI_begin_line(0x183)
	.dwattr $C$DW$77, DW_AT_TI_begin_column(0x06)
	.dwattr $C$DW$77, DW_AT_decl_file("../driverlib/MSP430FR2xx_4xx/gpio.c")
	.dwattr $C$DW$77, DW_AT_decl_line(0x183)
	.dwattr $C$DW$77, DW_AT_decl_column(0x06)
	.dwattr $C$DW$77, DW_AT_TI_max_frame_size(0x0a)
	.dwpsn	file "../driverlib/MSP430FR2xx_4xx/gpio.c",line 387,column 72,is_stmt,address GPIO_enableInterrupt,isa 0

	.dwfde $C$DW$CIE, GPIO_enableInterrupt
$C$DW$78	.dwtag  DW_TAG_formal_parameter
	.dwattr $C$DW$78, DW_AT_name("selectedPort")
	.dwattr $C$DW$78, DW_AT_TI_symbol_name("selectedPort")
	.dwattr $C$DW$78, DW_AT_type(*$C$DW$T$24)
	.dwattr $C$DW$78, DW_AT_location[DW_OP_reg12]

$C$DW$79	.dwtag  DW_TAG_formal_parameter
	.dwattr $C$DW$79, DW_AT_name("selectedPins")
	.dwattr $C$DW$79, DW_AT_TI_symbol_name("selectedPins")
	.dwattr $C$DW$79, DW_AT_type(*$C$DW$T$26)
	.dwattr $C$DW$79, DW_AT_location[DW_OP_reg13]


;*****************************************************************************
;* FUNCTION NAME: GPIO_enableInterrupt                                       *
;*                                                                           *
;*   Regs Modified     : SP,SR,r13,r15                                       *
;*   Regs Used         : SP,SR,r12,r13,r15                                   *
;*   Local Frame Size  : 0 Args + 6 Auto + 0 Save = 6 byte                   *
;*****************************************************************************
GPIO_enableInterrupt:
;* --------------------------------------------------------------------------*
	.dwcfi	cfa_offset, 4
	.dwcfi	save_reg_to_mem, 16, -4
        SUB.W     #6,SP                 ; [] 
	.dwcfi	cfa_offset, 10
$C$DW$80	.dwtag  DW_TAG_variable
	.dwattr $C$DW$80, DW_AT_name("selectedPins")
	.dwattr $C$DW$80, DW_AT_TI_symbol_name("selectedPins")
	.dwattr $C$DW$80, DW_AT_type(*$C$DW$T$26)
	.dwattr $C$DW$80, DW_AT_location[DW_OP_breg1 0]

$C$DW$81	.dwtag  DW_TAG_variable
	.dwattr $C$DW$81, DW_AT_name("baseAddress")
	.dwattr $C$DW$81, DW_AT_TI_symbol_name("baseAddress")
	.dwattr $C$DW$81, DW_AT_type(*$C$DW$T$26)
	.dwattr $C$DW$81, DW_AT_location[DW_OP_breg1 2]

$C$DW$82	.dwtag  DW_TAG_variable
	.dwattr $C$DW$82, DW_AT_name("selectedPort")
	.dwattr $C$DW$82, DW_AT_TI_symbol_name("selectedPort")
	.dwattr $C$DW$82, DW_AT_type(*$C$DW$T$24)
	.dwattr $C$DW$82, DW_AT_location[DW_OP_breg1 4]

        MOV.W     r13,0(SP)             ; [] |387| 
        MOV.B     r12,4(SP)             ; [] |387| 
	.dwpsn	file "../driverlib/MSP430FR2xx_4xx/gpio.c",line 389,column 26,is_stmt,isa 0
        MOV.B     4(SP),r15             ; [] |389| 
        RLAM.W    #1,r15                ; [] |389| 
        MOV.W     GPIO_PORT_TO_BASE+0(r15),2(SP) ; [] |389| 
	.dwpsn	file "../driverlib/MSP430FR2xx_4xx/gpio.c",line 398,column 5,is_stmt,isa 0
        MOV.B     4(SP),r15             ; [] |398| 
        AND.W     #1,r15                ; [] |398| 
        XOR.W     #1,r15                ; [] |398| 
        TST.W     r15                   ; [] |398| 
        JEQ       $C$L23                ; [] |398| 
                                          ; [] |398| 
;* --------------------------------------------------------------------------*
	.dwpsn	file "../driverlib/MSP430FR2xx_4xx/gpio.c",line 399,column 9,is_stmt,isa 0
        RPT #8 || RLAX.W r13 ; [] |399| 
        MOV.W     r13,0(SP)             ; [] |399| 
;* --------------------------------------------------------------------------*
$C$L23:    
	.dwpsn	file "../driverlib/MSP430FR2xx_4xx/gpio.c",line 402,column 5,is_stmt,isa 0
        MOV.W     #26,r15               ; [] |402| 
        ADD.W     2(SP),r15             ; [] |402| 
        OR.W      0(SP),0(r15)          ; [] |402| 
	.dwpsn	file "../driverlib/MSP430FR2xx_4xx/gpio.c",line 403,column 1,is_stmt,isa 0
        ADD.W     #6,SP                 ; [] 
	.dwcfi	cfa_offset, 4
$C$DW$83	.dwtag  DW_TAG_TI_branch
	.dwattr $C$DW$83, DW_AT_low_pc(0x00)
	.dwattr $C$DW$83, DW_AT_TI_return

        RETA      ; [] 
        ; [] 
	.dwattr $C$DW$77, DW_AT_TI_end_file("../driverlib/MSP430FR2xx_4xx/gpio.c")
	.dwattr $C$DW$77, DW_AT_TI_end_line(0x193)
	.dwattr $C$DW$77, DW_AT_TI_end_column(0x01)
	.dwendentry
	.dwendtag $C$DW$77

	.sect	".text:GPIO_disableInterrupt"
	.clink
	.global	GPIO_disableInterrupt

$C$DW$84	.dwtag  DW_TAG_subprogram
	.dwattr $C$DW$84, DW_AT_name("GPIO_disableInterrupt")
	.dwattr $C$DW$84, DW_AT_low_pc(GPIO_disableInterrupt)
	.dwattr $C$DW$84, DW_AT_high_pc(0x00)
	.dwattr $C$DW$84, DW_AT_TI_symbol_name("GPIO_disableInterrupt")
	.dwattr $C$DW$84, DW_AT_external
	.dwattr $C$DW$84, DW_AT_TI_begin_file("../driverlib/MSP430FR2xx_4xx/gpio.c")
	.dwattr $C$DW$84, DW_AT_TI_begin_line(0x195)
	.dwattr $C$DW$84, DW_AT_TI_begin_column(0x06)
	.dwattr $C$DW$84, DW_AT_decl_file("../driverlib/MSP430FR2xx_4xx/gpio.c")
	.dwattr $C$DW$84, DW_AT_decl_line(0x195)
	.dwattr $C$DW$84, DW_AT_decl_column(0x06)
	.dwattr $C$DW$84, DW_AT_TI_max_frame_size(0x0a)
	.dwpsn	file "../driverlib/MSP430FR2xx_4xx/gpio.c",line 405,column 73,is_stmt,address GPIO_disableInterrupt,isa 0

	.dwfde $C$DW$CIE, GPIO_disableInterrupt
$C$DW$85	.dwtag  DW_TAG_formal_parameter
	.dwattr $C$DW$85, DW_AT_name("selectedPort")
	.dwattr $C$DW$85, DW_AT_TI_symbol_name("selectedPort")
	.dwattr $C$DW$85, DW_AT_type(*$C$DW$T$24)
	.dwattr $C$DW$85, DW_AT_location[DW_OP_reg12]

$C$DW$86	.dwtag  DW_TAG_formal_parameter
	.dwattr $C$DW$86, DW_AT_name("selectedPins")
	.dwattr $C$DW$86, DW_AT_TI_symbol_name("selectedPins")
	.dwattr $C$DW$86, DW_AT_type(*$C$DW$T$26)
	.dwattr $C$DW$86, DW_AT_location[DW_OP_reg13]


;*****************************************************************************
;* FUNCTION NAME: GPIO_disableInterrupt                                      *
;*                                                                           *
;*   Regs Modified     : SP,SR,r13,r15                                       *
;*   Regs Used         : SP,SR,r12,r13,r15                                   *
;*   Local Frame Size  : 0 Args + 6 Auto + 0 Save = 6 byte                   *
;*****************************************************************************
GPIO_disableInterrupt:
;* --------------------------------------------------------------------------*
	.dwcfi	cfa_offset, 4
	.dwcfi	save_reg_to_mem, 16, -4
        SUB.W     #6,SP                 ; [] 
	.dwcfi	cfa_offset, 10
$C$DW$87	.dwtag  DW_TAG_variable
	.dwattr $C$DW$87, DW_AT_name("selectedPins")
	.dwattr $C$DW$87, DW_AT_TI_symbol_name("selectedPins")
	.dwattr $C$DW$87, DW_AT_type(*$C$DW$T$26)
	.dwattr $C$DW$87, DW_AT_location[DW_OP_breg1 0]

$C$DW$88	.dwtag  DW_TAG_variable
	.dwattr $C$DW$88, DW_AT_name("baseAddress")
	.dwattr $C$DW$88, DW_AT_TI_symbol_name("baseAddress")
	.dwattr $C$DW$88, DW_AT_type(*$C$DW$T$26)
	.dwattr $C$DW$88, DW_AT_location[DW_OP_breg1 2]

$C$DW$89	.dwtag  DW_TAG_variable
	.dwattr $C$DW$89, DW_AT_name("selectedPort")
	.dwattr $C$DW$89, DW_AT_TI_symbol_name("selectedPort")
	.dwattr $C$DW$89, DW_AT_type(*$C$DW$T$24)
	.dwattr $C$DW$89, DW_AT_location[DW_OP_breg1 4]

        MOV.W     r13,0(SP)             ; [] |405| 
        MOV.B     r12,4(SP)             ; [] |405| 
	.dwpsn	file "../driverlib/MSP430FR2xx_4xx/gpio.c",line 407,column 26,is_stmt,isa 0
        MOV.B     4(SP),r15             ; [] |407| 
        RLAM.W    #1,r15                ; [] |407| 
        MOV.W     GPIO_PORT_TO_BASE+0(r15),2(SP) ; [] |407| 
	.dwpsn	file "../driverlib/MSP430FR2xx_4xx/gpio.c",line 416,column 5,is_stmt,isa 0
        MOV.B     4(SP),r15             ; [] |416| 
        AND.W     #1,r15                ; [] |416| 
        XOR.W     #1,r15                ; [] |416| 
        TST.W     r15                   ; [] |416| 
        JEQ       $C$L24                ; [] |416| 
                                          ; [] |416| 
;* --------------------------------------------------------------------------*
	.dwpsn	file "../driverlib/MSP430FR2xx_4xx/gpio.c",line 417,column 9,is_stmt,isa 0
        RPT #8 || RLAX.W r13 ; [] |417| 
        MOV.W     r13,0(SP)             ; [] |417| 
;* --------------------------------------------------------------------------*
$C$L24:    
	.dwpsn	file "../driverlib/MSP430FR2xx_4xx/gpio.c",line 420,column 5,is_stmt,isa 0
        MOV.W     #26,r15               ; [] |420| 
        ADD.W     2(SP),r15             ; [] |420| 
        BIC.W     0(SP),0(r15)          ; [] |420| 
	.dwpsn	file "../driverlib/MSP430FR2xx_4xx/gpio.c",line 421,column 1,is_stmt,isa 0
        ADD.W     #6,SP                 ; [] 
	.dwcfi	cfa_offset, 4
$C$DW$90	.dwtag  DW_TAG_TI_branch
	.dwattr $C$DW$90, DW_AT_low_pc(0x00)
	.dwattr $C$DW$90, DW_AT_TI_return

        RETA      ; [] 
        ; [] 
	.dwattr $C$DW$84, DW_AT_TI_end_file("../driverlib/MSP430FR2xx_4xx/gpio.c")
	.dwattr $C$DW$84, DW_AT_TI_end_line(0x1a5)
	.dwattr $C$DW$84, DW_AT_TI_end_column(0x01)
	.dwendentry
	.dwendtag $C$DW$84

	.sect	".text:GPIO_getInterruptStatus"
	.clink
	.global	GPIO_getInterruptStatus

$C$DW$91	.dwtag  DW_TAG_subprogram
	.dwattr $C$DW$91, DW_AT_name("GPIO_getInterruptStatus")
	.dwattr $C$DW$91, DW_AT_low_pc(GPIO_getInterruptStatus)
	.dwattr $C$DW$91, DW_AT_high_pc(0x00)
	.dwattr $C$DW$91, DW_AT_TI_symbol_name("GPIO_getInterruptStatus")
	.dwattr $C$DW$91, DW_AT_external
	.dwattr $C$DW$91, DW_AT_type(*$C$DW$T$26)
	.dwattr $C$DW$91, DW_AT_TI_begin_file("../driverlib/MSP430FR2xx_4xx/gpio.c")
	.dwattr $C$DW$91, DW_AT_TI_begin_line(0x1a7)
	.dwattr $C$DW$91, DW_AT_TI_begin_column(0x0a)
	.dwattr $C$DW$91, DW_AT_decl_file("../driverlib/MSP430FR2xx_4xx/gpio.c")
	.dwattr $C$DW$91, DW_AT_decl_line(0x1a7)
	.dwattr $C$DW$91, DW_AT_decl_column(0x0a)
	.dwattr $C$DW$91, DW_AT_TI_max_frame_size(0x0a)
	.dwpsn	file "../driverlib/MSP430FR2xx_4xx/gpio.c",line 423,column 79,is_stmt,address GPIO_getInterruptStatus,isa 0

	.dwfde $C$DW$CIE, GPIO_getInterruptStatus
$C$DW$92	.dwtag  DW_TAG_formal_parameter
	.dwattr $C$DW$92, DW_AT_name("selectedPort")
	.dwattr $C$DW$92, DW_AT_TI_symbol_name("selectedPort")
	.dwattr $C$DW$92, DW_AT_type(*$C$DW$T$24)
	.dwattr $C$DW$92, DW_AT_location[DW_OP_reg12]

$C$DW$93	.dwtag  DW_TAG_formal_parameter
	.dwattr $C$DW$93, DW_AT_name("selectedPins")
	.dwattr $C$DW$93, DW_AT_TI_symbol_name("selectedPins")
	.dwattr $C$DW$93, DW_AT_type(*$C$DW$T$26)
	.dwattr $C$DW$93, DW_AT_location[DW_OP_reg13]


;*****************************************************************************
;* FUNCTION NAME: GPIO_getInterruptStatus                                    *
;*                                                                           *
;*   Regs Modified     : SP,SR,r12,r15                                       *
;*   Regs Used         : SP,SR,r12,r13,r15                                   *
;*   Local Frame Size  : 0 Args + 6 Auto + 0 Save = 6 byte                   *
;*****************************************************************************
GPIO_getInterruptStatus:
;* --------------------------------------------------------------------------*
	.dwcfi	cfa_offset, 4
	.dwcfi	save_reg_to_mem, 16, -4
        SUB.W     #6,SP                 ; [] 
	.dwcfi	cfa_offset, 10
$C$DW$94	.dwtag  DW_TAG_variable
	.dwattr $C$DW$94, DW_AT_name("selectedPins")
	.dwattr $C$DW$94, DW_AT_TI_symbol_name("selectedPins")
	.dwattr $C$DW$94, DW_AT_type(*$C$DW$T$26)
	.dwattr $C$DW$94, DW_AT_location[DW_OP_breg1 0]

$C$DW$95	.dwtag  DW_TAG_variable
	.dwattr $C$DW$95, DW_AT_name("baseAddress")
	.dwattr $C$DW$95, DW_AT_TI_symbol_name("baseAddress")
	.dwattr $C$DW$95, DW_AT_type(*$C$DW$T$26)
	.dwattr $C$DW$95, DW_AT_location[DW_OP_breg1 2]

$C$DW$96	.dwtag  DW_TAG_variable
	.dwattr $C$DW$96, DW_AT_name("selectedPort")
	.dwattr $C$DW$96, DW_AT_TI_symbol_name("selectedPort")
	.dwattr $C$DW$96, DW_AT_type(*$C$DW$T$24)
	.dwattr $C$DW$96, DW_AT_location[DW_OP_breg1 4]

        MOV.W     r13,0(SP)             ; [] |423| 
        MOV.B     r12,4(SP)             ; [] |423| 
	.dwpsn	file "../driverlib/MSP430FR2xx_4xx/gpio.c",line 425,column 26,is_stmt,isa 0
        MOV.B     4(SP),r15             ; [] |425| 
        RLAM.W    #1,r15                ; [] |425| 
        MOV.W     GPIO_PORT_TO_BASE+0(r15),2(SP) ; [] |425| 
	.dwpsn	file "../driverlib/MSP430FR2xx_4xx/gpio.c",line 434,column 5,is_stmt,isa 0
        MOV.B     4(SP),r15             ; [] |434| 
        AND.W     #1,r15                ; [] |434| 
        XOR.W     #1,r15                ; [] |434| 
        TST.W     r15                   ; [] |434| 
        JEQ       $C$L26                ; [] |434| 
                                          ; [] |434| 
;* --------------------------------------------------------------------------*
	.dwpsn	file "../driverlib/MSP430FR2xx_4xx/gpio.c",line 435,column 9,is_stmt,isa 0
        MOV.W     #1,r15                ; [] |435| 
        AND.W     2(SP),r15             ; [] |435| 
        XOR.W     #1,r15                ; [] |435| 
        TST.W     r15                   ; [] |435| 
        JEQ       $C$L25                ; [] |435| 
                                          ; [] |435| 
;* --------------------------------------------------------------------------*
	.dwpsn	file "../driverlib/MSP430FR2xx_4xx/gpio.c",line 437,column 13,is_stmt,isa 0
        MOV.W     2(SP),r15             ; [] |437| 
        MOV.B     29(r15),r12           ; [] |437| 
        AND.W     0(SP),r12             ; [] |437| 
        JMP       $C$L27                ; [] |437| 
                                          ; [] |437| 
;* --------------------------------------------------------------------------*
$C$L25:    
	.dwpsn	file "../driverlib/MSP430FR2xx_4xx/gpio.c",line 441,column 13,is_stmt,isa 0
        MOV.W     2(SP),r15             ; [] |441| 
        MOV.B     28(r15),r12           ; [] |441| 
        AND.W     0(SP),r12             ; [] |441| 
        JMP       $C$L27                ; [] |441| 
                                          ; [] |441| 
;* --------------------------------------------------------------------------*
$C$L26:    
	.dwpsn	file "../driverlib/MSP430FR2xx_4xx/gpio.c",line 445,column 9,is_stmt,isa 0
        MOV.W     2(SP),r15             ; [] |445| 
        MOVA      r13,r12               ; [] 
        AND.W     28(r15),r12           ; [] |445| 
;* --------------------------------------------------------------------------*
$C$L27:    
	.dwpsn	file "../driverlib/MSP430FR2xx_4xx/gpio.c",line 447,column 1,is_stmt,isa 0
        ADD.W     #6,SP                 ; [] 
	.dwcfi	cfa_offset, 4
$C$DW$97	.dwtag  DW_TAG_TI_branch
	.dwattr $C$DW$97, DW_AT_low_pc(0x00)
	.dwattr $C$DW$97, DW_AT_TI_return

        RETA      ; [] 
        ; [] 
	.dwattr $C$DW$91, DW_AT_TI_end_file("../driverlib/MSP430FR2xx_4xx/gpio.c")
	.dwattr $C$DW$91, DW_AT_TI_end_line(0x1bf)
	.dwattr $C$DW$91, DW_AT_TI_end_column(0x01)
	.dwendentry
	.dwendtag $C$DW$91

	.sect	".text:GPIO_clearInterrupt"
	.clink
	.global	GPIO_clearInterrupt

$C$DW$98	.dwtag  DW_TAG_subprogram
	.dwattr $C$DW$98, DW_AT_name("GPIO_clearInterrupt")
	.dwattr $C$DW$98, DW_AT_low_pc(GPIO_clearInterrupt)
	.dwattr $C$DW$98, DW_AT_high_pc(0x00)
	.dwattr $C$DW$98, DW_AT_TI_symbol_name("GPIO_clearInterrupt")
	.dwattr $C$DW$98, DW_AT_external
	.dwattr $C$DW$98, DW_AT_TI_begin_file("../driverlib/MSP430FR2xx_4xx/gpio.c")
	.dwattr $C$DW$98, DW_AT_TI_begin_line(0x1c1)
	.dwattr $C$DW$98, DW_AT_TI_begin_column(0x06)
	.dwattr $C$DW$98, DW_AT_decl_file("../driverlib/MSP430FR2xx_4xx/gpio.c")
	.dwattr $C$DW$98, DW_AT_decl_line(0x1c1)
	.dwattr $C$DW$98, DW_AT_decl_column(0x06)
	.dwattr $C$DW$98, DW_AT_TI_max_frame_size(0x0a)
	.dwpsn	file "../driverlib/MSP430FR2xx_4xx/gpio.c",line 449,column 71,is_stmt,address GPIO_clearInterrupt,isa 0

	.dwfde $C$DW$CIE, GPIO_clearInterrupt
$C$DW$99	.dwtag  DW_TAG_formal_parameter
	.dwattr $C$DW$99, DW_AT_name("selectedPort")
	.dwattr $C$DW$99, DW_AT_TI_symbol_name("selectedPort")
	.dwattr $C$DW$99, DW_AT_type(*$C$DW$T$24)
	.dwattr $C$DW$99, DW_AT_location[DW_OP_reg12]

$C$DW$100	.dwtag  DW_TAG_formal_parameter
	.dwattr $C$DW$100, DW_AT_name("selectedPins")
	.dwattr $C$DW$100, DW_AT_TI_symbol_name("selectedPins")
	.dwattr $C$DW$100, DW_AT_type(*$C$DW$T$26)
	.dwattr $C$DW$100, DW_AT_location[DW_OP_reg13]


;*****************************************************************************
;* FUNCTION NAME: GPIO_clearInterrupt                                        *
;*                                                                           *
;*   Regs Modified     : SP,SR,r13,r15                                       *
;*   Regs Used         : SP,SR,r12,r13,r15                                   *
;*   Local Frame Size  : 0 Args + 6 Auto + 0 Save = 6 byte                   *
;*****************************************************************************
GPIO_clearInterrupt:
;* --------------------------------------------------------------------------*
	.dwcfi	cfa_offset, 4
	.dwcfi	save_reg_to_mem, 16, -4
        SUB.W     #6,SP                 ; [] 
	.dwcfi	cfa_offset, 10
$C$DW$101	.dwtag  DW_TAG_variable
	.dwattr $C$DW$101, DW_AT_name("selectedPins")
	.dwattr $C$DW$101, DW_AT_TI_symbol_name("selectedPins")
	.dwattr $C$DW$101, DW_AT_type(*$C$DW$T$26)
	.dwattr $C$DW$101, DW_AT_location[DW_OP_breg1 0]

$C$DW$102	.dwtag  DW_TAG_variable
	.dwattr $C$DW$102, DW_AT_name("baseAddress")
	.dwattr $C$DW$102, DW_AT_TI_symbol_name("baseAddress")
	.dwattr $C$DW$102, DW_AT_type(*$C$DW$T$26)
	.dwattr $C$DW$102, DW_AT_location[DW_OP_breg1 2]

$C$DW$103	.dwtag  DW_TAG_variable
	.dwattr $C$DW$103, DW_AT_name("selectedPort")
	.dwattr $C$DW$103, DW_AT_TI_symbol_name("selectedPort")
	.dwattr $C$DW$103, DW_AT_type(*$C$DW$T$24)
	.dwattr $C$DW$103, DW_AT_location[DW_OP_breg1 4]

        MOV.W     r13,0(SP)             ; [] |449| 
        MOV.B     r12,4(SP)             ; [] |449| 
	.dwpsn	file "../driverlib/MSP430FR2xx_4xx/gpio.c",line 451,column 26,is_stmt,isa 0
        MOV.B     4(SP),r15             ; [] |451| 
        RLAM.W    #1,r15                ; [] |451| 
        MOV.W     GPIO_PORT_TO_BASE+0(r15),2(SP) ; [] |451| 
	.dwpsn	file "../driverlib/MSP430FR2xx_4xx/gpio.c",line 460,column 5,is_stmt,isa 0
        MOV.B     4(SP),r15             ; [] |460| 
        AND.W     #1,r15                ; [] |460| 
        XOR.W     #1,r15                ; [] |460| 
        TST.W     r15                   ; [] |460| 
        JEQ       $C$L28                ; [] |460| 
                                          ; [] |460| 
;* --------------------------------------------------------------------------*
	.dwpsn	file "../driverlib/MSP430FR2xx_4xx/gpio.c",line 461,column 9,is_stmt,isa 0
        RPT #8 || RLAX.W r13 ; [] |461| 
        MOV.W     r13,0(SP)             ; [] |461| 
;* --------------------------------------------------------------------------*
$C$L28:    
	.dwpsn	file "../driverlib/MSP430FR2xx_4xx/gpio.c",line 464,column 5,is_stmt,isa 0
        MOV.W     #28,r15               ; [] |464| 
        ADD.W     2(SP),r15             ; [] |464| 
        BIC.W     0(SP),0(r15)          ; [] |464| 
	.dwpsn	file "../driverlib/MSP430FR2xx_4xx/gpio.c",line 465,column 1,is_stmt,isa 0
        ADD.W     #6,SP                 ; [] 
	.dwcfi	cfa_offset, 4
$C$DW$104	.dwtag  DW_TAG_TI_branch
	.dwattr $C$DW$104, DW_AT_low_pc(0x00)
	.dwattr $C$DW$104, DW_AT_TI_return

        RETA      ; [] 
        ; [] 
	.dwattr $C$DW$98, DW_AT_TI_end_file("../driverlib/MSP430FR2xx_4xx/gpio.c")
	.dwattr $C$DW$98, DW_AT_TI_end_line(0x1d1)
	.dwattr $C$DW$98, DW_AT_TI_end_column(0x01)
	.dwendentry
	.dwendtag $C$DW$98

	.sect	".text:GPIO_selectInterruptEdge"
	.clink
	.global	GPIO_selectInterruptEdge

$C$DW$105	.dwtag  DW_TAG_subprogram
	.dwattr $C$DW$105, DW_AT_name("GPIO_selectInterruptEdge")
	.dwattr $C$DW$105, DW_AT_low_pc(GPIO_selectInterruptEdge)
	.dwattr $C$DW$105, DW_AT_high_pc(0x00)
	.dwattr $C$DW$105, DW_AT_TI_symbol_name("GPIO_selectInterruptEdge")
	.dwattr $C$DW$105, DW_AT_external
	.dwattr $C$DW$105, DW_AT_TI_begin_file("../driverlib/MSP430FR2xx_4xx/gpio.c")
	.dwattr $C$DW$105, DW_AT_TI_begin_line(0x1d3)
	.dwattr $C$DW$105, DW_AT_TI_begin_column(0x06)
	.dwattr $C$DW$105, DW_AT_decl_file("../driverlib/MSP430FR2xx_4xx/gpio.c")
	.dwattr $C$DW$105, DW_AT_decl_line(0x1d3)
	.dwattr $C$DW$105, DW_AT_decl_column(0x06)
	.dwattr $C$DW$105, DW_AT_TI_max_frame_size(0x0a)
	.dwpsn	file "../driverlib/MSP430FR2xx_4xx/gpio.c",line 468,column 56,is_stmt,address GPIO_selectInterruptEdge,isa 0

	.dwfde $C$DW$CIE, GPIO_selectInterruptEdge
$C$DW$106	.dwtag  DW_TAG_formal_parameter
	.dwattr $C$DW$106, DW_AT_name("selectedPort")
	.dwattr $C$DW$106, DW_AT_TI_symbol_name("selectedPort")
	.dwattr $C$DW$106, DW_AT_type(*$C$DW$T$24)
	.dwattr $C$DW$106, DW_AT_location[DW_OP_reg12]

$C$DW$107	.dwtag  DW_TAG_formal_parameter
	.dwattr $C$DW$107, DW_AT_name("selectedPins")
	.dwattr $C$DW$107, DW_AT_TI_symbol_name("selectedPins")
	.dwattr $C$DW$107, DW_AT_type(*$C$DW$T$26)
	.dwattr $C$DW$107, DW_AT_location[DW_OP_reg13]

$C$DW$108	.dwtag  DW_TAG_formal_parameter
	.dwattr $C$DW$108, DW_AT_name("edgeSelect")
	.dwattr $C$DW$108, DW_AT_TI_symbol_name("edgeSelect")
	.dwattr $C$DW$108, DW_AT_type(*$C$DW$T$24)
	.dwattr $C$DW$108, DW_AT_location[DW_OP_reg14]


;*****************************************************************************
;* FUNCTION NAME: GPIO_selectInterruptEdge                                   *
;*                                                                           *
;*   Regs Modified     : SP,SR,r13,r15                                       *
;*   Regs Used         : SP,SR,r12,r13,r14,r15                               *
;*   Local Frame Size  : 0 Args + 6 Auto + 0 Save = 6 byte                   *
;*****************************************************************************
GPIO_selectInterruptEdge:
;* --------------------------------------------------------------------------*
	.dwcfi	cfa_offset, 4
	.dwcfi	save_reg_to_mem, 16, -4
        SUB.W     #6,SP                 ; [] 
	.dwcfi	cfa_offset, 10
$C$DW$109	.dwtag  DW_TAG_variable
	.dwattr $C$DW$109, DW_AT_name("selectedPins")
	.dwattr $C$DW$109, DW_AT_TI_symbol_name("selectedPins")
	.dwattr $C$DW$109, DW_AT_type(*$C$DW$T$26)
	.dwattr $C$DW$109, DW_AT_location[DW_OP_breg1 0]

$C$DW$110	.dwtag  DW_TAG_variable
	.dwattr $C$DW$110, DW_AT_name("baseAddress")
	.dwattr $C$DW$110, DW_AT_TI_symbol_name("baseAddress")
	.dwattr $C$DW$110, DW_AT_type(*$C$DW$T$26)
	.dwattr $C$DW$110, DW_AT_location[DW_OP_breg1 2]

$C$DW$111	.dwtag  DW_TAG_variable
	.dwattr $C$DW$111, DW_AT_name("selectedPort")
	.dwattr $C$DW$111, DW_AT_TI_symbol_name("selectedPort")
	.dwattr $C$DW$111, DW_AT_type(*$C$DW$T$24)
	.dwattr $C$DW$111, DW_AT_location[DW_OP_breg1 4]

$C$DW$112	.dwtag  DW_TAG_variable
	.dwattr $C$DW$112, DW_AT_name("edgeSelect")
	.dwattr $C$DW$112, DW_AT_TI_symbol_name("edgeSelect")
	.dwattr $C$DW$112, DW_AT_type(*$C$DW$T$24)
	.dwattr $C$DW$112, DW_AT_location[DW_OP_breg1 5]

        MOV.B     r14,5(SP)             ; [] |468| 
        MOV.W     r13,0(SP)             ; [] |468| 
        MOV.B     r12,4(SP)             ; [] |468| 
	.dwpsn	file "../driverlib/MSP430FR2xx_4xx/gpio.c",line 470,column 26,is_stmt,isa 0
        MOV.B     4(SP),r15             ; [] |470| 
        RLAM.W    #1,r15                ; [] |470| 
        MOV.W     GPIO_PORT_TO_BASE+0(r15),2(SP) ; [] |470| 
	.dwpsn	file "../driverlib/MSP430FR2xx_4xx/gpio.c",line 479,column 5,is_stmt,isa 0
        MOV.B     4(SP),r15             ; [] |479| 
        AND.W     #1,r15                ; [] |479| 
        XOR.W     #1,r15                ; [] |479| 
        TST.W     r15                   ; [] |479| 
        JEQ       $C$L29                ; [] |479| 
                                          ; [] |479| 
;* --------------------------------------------------------------------------*
	.dwpsn	file "../driverlib/MSP430FR2xx_4xx/gpio.c",line 480,column 9,is_stmt,isa 0
        RPT #8 || RLAX.W r13 ; [] |480| 
        MOV.W     r13,0(SP)             ; [] |480| 
;* --------------------------------------------------------------------------*
$C$L29:    
	.dwpsn	file "../driverlib/MSP430FR2xx_4xx/gpio.c",line 483,column 5,is_stmt,isa 0
        TST.B     5(SP)                 ; [] |483| 
        JNE       $C$L30                ; [] |483| 
                                          ; [] |483| 
;* --------------------------------------------------------------------------*
	.dwpsn	file "../driverlib/MSP430FR2xx_4xx/gpio.c",line 484,column 9,is_stmt,isa 0
        MOV.W     #24,r15               ; [] |484| 
        ADD.W     2(SP),r15             ; [] |484| 
        BIC.W     0(SP),0(r15)          ; [] |484| 
        JMP       $C$L31                ; [] 
                                          ; [] 
;* --------------------------------------------------------------------------*
$C$L30:    
	.dwpsn	file "../driverlib/MSP430FR2xx_4xx/gpio.c",line 487,column 9,is_stmt,isa 0
        MOV.W     #24,r15               ; [] |487| 
        ADD.W     2(SP),r15             ; [] |487| 
        OR.W      0(SP),0(r15)          ; [] |487| 
	.dwpsn	file "../driverlib/MSP430FR2xx_4xx/gpio.c",line 489,column 1,is_stmt,isa 0
;* --------------------------------------------------------------------------*
$C$L31:    
        ADD.W     #6,SP                 ; [] 
	.dwcfi	cfa_offset, 4
$C$DW$113	.dwtag  DW_TAG_TI_branch
	.dwattr $C$DW$113, DW_AT_low_pc(0x00)
	.dwattr $C$DW$113, DW_AT_TI_return

        RETA      ; [] 
        ; [] 
	.dwattr $C$DW$105, DW_AT_TI_end_file("../driverlib/MSP430FR2xx_4xx/gpio.c")
	.dwattr $C$DW$105, DW_AT_TI_end_line(0x1e9)
	.dwattr $C$DW$105, DW_AT_TI_end_column(0x01)
	.dwendentry
	.dwendtag $C$DW$105


;******************************************************************************
;* BUILD ATTRIBUTES                                                           *
;******************************************************************************
	.battr "TI", Tag_File, 1, Tag_LOCKIO_INFO(1)
	.battr "TI", Tag_File, 1, Tag_WAITSTATE_INFO(2)
	.battr "TI", Tag_File, 1, Tag_HW_MPY_ISR_INFO(1)
	.battr "TI", Tag_File, 1, Tag_HW_MPY_INLINE_INFO(1)
	.battr "mspabi", Tag_File, 1, Tag_enum_size(3)

;******************************************************************************
;* TYPE INFORMATION                                                           *
;******************************************************************************

$C$DW$T$21	.dwtag  DW_TAG_structure_type
	.dwattr $C$DW$T$21, DW_AT_byte_size(0x10)
$C$DW$114	.dwtag  DW_TAG_member
	.dwattr $C$DW$114, DW_AT_type(*$C$DW$T$14)
	.dwattr $C$DW$114, DW_AT_name("__max_align1")
	.dwattr $C$DW$114, DW_AT_TI_symbol_name("__max_align1")
	.dwattr $C$DW$114, DW_AT_data_member_location[DW_OP_plus_uconst 0x0]
	.dwattr $C$DW$114, DW_AT_accessibility(DW_ACCESS_public)
	.dwattr $C$DW$114, DW_AT_decl_file("C:/ti/ccs1110/ccs/tools/compiler/ti-cgt-msp430_21.6.1.LTS/include/sys/_types.h")
	.dwattr $C$DW$114, DW_AT_decl_line(0x7b)
	.dwattr $C$DW$114, DW_AT_decl_column(0x0c)

$C$DW$115	.dwtag  DW_TAG_member
	.dwattr $C$DW$115, DW_AT_type(*$C$DW$T$18)
	.dwattr $C$DW$115, DW_AT_name("__max_align2")
	.dwattr $C$DW$115, DW_AT_TI_symbol_name("__max_align2")
	.dwattr $C$DW$115, DW_AT_data_member_location[DW_OP_plus_uconst 0x8]
	.dwattr $C$DW$115, DW_AT_accessibility(DW_ACCESS_public)
	.dwattr $C$DW$115, DW_AT_decl_file("C:/ti/ccs1110/ccs/tools/compiler/ti-cgt-msp430_21.6.1.LTS/include/sys/_types.h")
	.dwattr $C$DW$115, DW_AT_decl_line(0x7c)
	.dwattr $C$DW$115, DW_AT_decl_column(0x0e)

	.dwattr $C$DW$T$21, DW_AT_decl_file("C:/ti/ccs1110/ccs/tools/compiler/ti-cgt-msp430_21.6.1.LTS/include/sys/_types.h")
	.dwattr $C$DW$T$21, DW_AT_decl_line(0x7a)
	.dwattr $C$DW$T$21, DW_AT_decl_column(0x10)
	.dwendtag $C$DW$T$21

$C$DW$T$22	.dwtag  DW_TAG_typedef
	.dwattr $C$DW$T$22, DW_AT_name("__max_align_t")
	.dwattr $C$DW$T$22, DW_AT_type(*$C$DW$T$21)
	.dwattr $C$DW$T$22, DW_AT_language(DW_LANG_C)
	.dwattr $C$DW$T$22, DW_AT_decl_file("C:/ti/ccs1110/ccs/tools/compiler/ti-cgt-msp430_21.6.1.LTS/include/sys/_types.h")
	.dwattr $C$DW$T$22, DW_AT_decl_line(0x7d)
	.dwattr $C$DW$T$22, DW_AT_decl_column(0x03)

$C$DW$T$2	.dwtag  DW_TAG_unspecified_type
	.dwattr $C$DW$T$2, DW_AT_name("void")


$C$DW$T$29	.dwtag  DW_TAG_subroutine_type
	.dwattr $C$DW$T$29, DW_AT_language(DW_LANG_C)
	.dwendtag $C$DW$T$29

$C$DW$T$30	.dwtag  DW_TAG_pointer_type
	.dwattr $C$DW$T$30, DW_AT_type(*$C$DW$T$29)
	.dwattr $C$DW$T$30, DW_AT_address_class(0x14)

$C$DW$T$31	.dwtag  DW_TAG_typedef
	.dwattr $C$DW$T$31, DW_AT_name("__SFR_FARPTR")
	.dwattr $C$DW$T$31, DW_AT_type(*$C$DW$T$30)
	.dwattr $C$DW$T$31, DW_AT_language(DW_LANG_C)
	.dwattr $C$DW$T$31, DW_AT_decl_file("C:\ti\ccs1110\ccs\ccs_base\msp430\include\msp430fr4133.h")
	.dwattr $C$DW$T$31, DW_AT_decl_line(0x46)
	.dwattr $C$DW$T$31, DW_AT_decl_column(0x11)

$C$DW$T$4	.dwtag  DW_TAG_base_type
	.dwattr $C$DW$T$4, DW_AT_encoding(DW_ATE_boolean)
	.dwattr $C$DW$T$4, DW_AT_name("bool")
	.dwattr $C$DW$T$4, DW_AT_byte_size(0x01)

$C$DW$T$5	.dwtag  DW_TAG_base_type
	.dwattr $C$DW$T$5, DW_AT_encoding(DW_ATE_signed_char)
	.dwattr $C$DW$T$5, DW_AT_name("signed char")
	.dwattr $C$DW$T$5, DW_AT_byte_size(0x01)

$C$DW$T$32	.dwtag  DW_TAG_typedef
	.dwattr $C$DW$T$32, DW_AT_name("__int8_t")
	.dwattr $C$DW$T$32, DW_AT_type(*$C$DW$T$5)
	.dwattr $C$DW$T$32, DW_AT_language(DW_LANG_C)
	.dwattr $C$DW$T$32, DW_AT_decl_file("C:/ti/ccs1110/ccs/tools/compiler/ti-cgt-msp430_21.6.1.LTS/include/machine/_types.h")
	.dwattr $C$DW$T$32, DW_AT_decl_line(0x36)
	.dwattr $C$DW$T$32, DW_AT_decl_column(0x16)

$C$DW$T$33	.dwtag  DW_TAG_typedef
	.dwattr $C$DW$T$33, DW_AT_name("__int_least8_t")
	.dwattr $C$DW$T$33, DW_AT_type(*$C$DW$T$32)
	.dwattr $C$DW$T$33, DW_AT_language(DW_LANG_C)
	.dwattr $C$DW$T$33, DW_AT_decl_file("C:/ti/ccs1110/ccs/tools/compiler/ti-cgt-msp430_21.6.1.LTS/include/machine/_types.h")
	.dwattr $C$DW$T$33, DW_AT_decl_line(0x5a)
	.dwattr $C$DW$T$33, DW_AT_decl_column(0x12)

$C$DW$T$34	.dwtag  DW_TAG_typedef
	.dwattr $C$DW$T$34, DW_AT_name("int_least8_t")
	.dwattr $C$DW$T$34, DW_AT_type(*$C$DW$T$33)
	.dwattr $C$DW$T$34, DW_AT_language(DW_LANG_C)
	.dwattr $C$DW$T$34, DW_AT_decl_file("C:/ti/ccs1110/ccs/tools/compiler/ti-cgt-msp430_21.6.1.LTS/include/sys/stdint.h")
	.dwattr $C$DW$T$34, DW_AT_decl_line(0x2a)
	.dwattr $C$DW$T$34, DW_AT_decl_column(0x19)

$C$DW$T$35	.dwtag  DW_TAG_typedef
	.dwattr $C$DW$T$35, DW_AT_name("int8_t")
	.dwattr $C$DW$T$35, DW_AT_type(*$C$DW$T$32)
	.dwattr $C$DW$T$35, DW_AT_language(DW_LANG_C)
	.dwattr $C$DW$T$35, DW_AT_decl_file("C:/ti/ccs1110/ccs/tools/compiler/ti-cgt-msp430_21.6.1.LTS/include/sys/_stdint.h")
	.dwattr $C$DW$T$35, DW_AT_decl_line(0x25)
	.dwattr $C$DW$T$35, DW_AT_decl_column(0x13)

$C$DW$T$6	.dwtag  DW_TAG_base_type
	.dwattr $C$DW$T$6, DW_AT_encoding(DW_ATE_unsigned_char)
	.dwattr $C$DW$T$6, DW_AT_name("unsigned char")
	.dwattr $C$DW$T$6, DW_AT_byte_size(0x01)

$C$DW$T$23	.dwtag  DW_TAG_typedef
	.dwattr $C$DW$T$23, DW_AT_name("__uint8_t")
	.dwattr $C$DW$T$23, DW_AT_type(*$C$DW$T$6)
	.dwattr $C$DW$T$23, DW_AT_language(DW_LANG_C)
	.dwattr $C$DW$T$23, DW_AT_decl_file("C:/ti/ccs1110/ccs/tools/compiler/ti-cgt-msp430_21.6.1.LTS/include/machine/_types.h")
	.dwattr $C$DW$T$23, DW_AT_decl_line(0x37)
	.dwattr $C$DW$T$23, DW_AT_decl_column(0x18)

$C$DW$T$36	.dwtag  DW_TAG_typedef
	.dwattr $C$DW$T$36, DW_AT_name("__sa_family_t")
	.dwattr $C$DW$T$36, DW_AT_type(*$C$DW$T$23)
	.dwattr $C$DW$T$36, DW_AT_language(DW_LANG_C)
	.dwattr $C$DW$T$36, DW_AT_decl_file("C:/ti/ccs1110/ccs/tools/compiler/ti-cgt-msp430_21.6.1.LTS/include/sys/_types.h")
	.dwattr $C$DW$T$36, DW_AT_decl_line(0x47)
	.dwattr $C$DW$T$36, DW_AT_decl_column(0x13)

$C$DW$T$37	.dwtag  DW_TAG_typedef
	.dwattr $C$DW$T$37, DW_AT_name("__uint_least8_t")
	.dwattr $C$DW$T$37, DW_AT_type(*$C$DW$T$23)
	.dwattr $C$DW$T$37, DW_AT_language(DW_LANG_C)
	.dwattr $C$DW$T$37, DW_AT_decl_file("C:/ti/ccs1110/ccs/tools/compiler/ti-cgt-msp430_21.6.1.LTS/include/machine/_types.h")
	.dwattr $C$DW$T$37, DW_AT_decl_line(0x74)
	.dwattr $C$DW$T$37, DW_AT_decl_column(0x13)

$C$DW$T$38	.dwtag  DW_TAG_typedef
	.dwattr $C$DW$T$38, DW_AT_name("uint_least8_t")
	.dwattr $C$DW$T$38, DW_AT_type(*$C$DW$T$37)
	.dwattr $C$DW$T$38, DW_AT_language(DW_LANG_C)
	.dwattr $C$DW$T$38, DW_AT_decl_file("C:/ti/ccs1110/ccs/tools/compiler/ti-cgt-msp430_21.6.1.LTS/include/sys/stdint.h")
	.dwattr $C$DW$T$38, DW_AT_decl_line(0x2f)
	.dwattr $C$DW$T$38, DW_AT_decl_column(0x1a)

$C$DW$T$24	.dwtag  DW_TAG_typedef
	.dwattr $C$DW$T$24, DW_AT_name("uint8_t")
	.dwattr $C$DW$T$24, DW_AT_type(*$C$DW$T$23)
	.dwattr $C$DW$T$24, DW_AT_language(DW_LANG_C)
	.dwattr $C$DW$T$24, DW_AT_decl_file("C:/ti/ccs1110/ccs/tools/compiler/ti-cgt-msp430_21.6.1.LTS/include/sys/_stdint.h")
	.dwattr $C$DW$T$24, DW_AT_decl_line(0x3b)
	.dwattr $C$DW$T$24, DW_AT_decl_column(0x14)

$C$DW$T$7	.dwtag  DW_TAG_base_type
	.dwattr $C$DW$T$7, DW_AT_encoding(DW_ATE_signed_char)
	.dwattr $C$DW$T$7, DW_AT_name("wchar_t")
	.dwattr $C$DW$T$7, DW_AT_byte_size(0x02)

$C$DW$T$8	.dwtag  DW_TAG_base_type
	.dwattr $C$DW$T$8, DW_AT_encoding(DW_ATE_signed)
	.dwattr $C$DW$T$8, DW_AT_name("short")
	.dwattr $C$DW$T$8, DW_AT_byte_size(0x02)

$C$DW$T$9	.dwtag  DW_TAG_base_type
	.dwattr $C$DW$T$9, DW_AT_encoding(DW_ATE_unsigned)
	.dwattr $C$DW$T$9, DW_AT_name("unsigned short")
	.dwattr $C$DW$T$9, DW_AT_byte_size(0x02)

$C$DW$T$10	.dwtag  DW_TAG_base_type
	.dwattr $C$DW$T$10, DW_AT_encoding(DW_ATE_signed)
	.dwattr $C$DW$T$10, DW_AT_name("int")
	.dwattr $C$DW$T$10, DW_AT_byte_size(0x02)

$C$DW$T$42	.dwtag  DW_TAG_typedef
	.dwattr $C$DW$T$42, DW_AT_name("_Mbstatet")
	.dwattr $C$DW$T$42, DW_AT_type(*$C$DW$T$10)
	.dwattr $C$DW$T$42, DW_AT_language(DW_LANG_C)
	.dwattr $C$DW$T$42, DW_AT_decl_file("C:/ti/ccs1110/ccs/tools/compiler/ti-cgt-msp430_21.6.1.LTS/include/sys/_types.h")
	.dwattr $C$DW$T$42, DW_AT_decl_line(0x8f)
	.dwattr $C$DW$T$42, DW_AT_decl_column(0x0d)

$C$DW$T$43	.dwtag  DW_TAG_typedef
	.dwattr $C$DW$T$43, DW_AT_name("__mbstate_t")
	.dwattr $C$DW$T$43, DW_AT_type(*$C$DW$T$42)
	.dwattr $C$DW$T$43, DW_AT_language(DW_LANG_C)
	.dwattr $C$DW$T$43, DW_AT_decl_file("C:/ti/ccs1110/ccs/tools/compiler/ti-cgt-msp430_21.6.1.LTS/include/sys/_types.h")
	.dwattr $C$DW$T$43, DW_AT_decl_line(0x92)
	.dwattr $C$DW$T$43, DW_AT_decl_column(0x13)

$C$DW$T$44	.dwtag  DW_TAG_typedef
	.dwattr $C$DW$T$44, DW_AT_name("__accmode_t")
	.dwattr $C$DW$T$44, DW_AT_type(*$C$DW$T$10)
	.dwattr $C$DW$T$44, DW_AT_language(DW_LANG_C)
	.dwattr $C$DW$T$44, DW_AT_decl_file("C:/ti/ccs1110/ccs/tools/compiler/ti-cgt-msp430_21.6.1.LTS/include/sys/_types.h")
	.dwattr $C$DW$T$44, DW_AT_decl_line(0x3b)
	.dwattr $C$DW$T$44, DW_AT_decl_column(0x0e)

$C$DW$T$45	.dwtag  DW_TAG_typedef
	.dwattr $C$DW$T$45, DW_AT_name("__cpulevel_t")
	.dwattr $C$DW$T$45, DW_AT_type(*$C$DW$T$10)
	.dwattr $C$DW$T$45, DW_AT_language(DW_LANG_C)
	.dwattr $C$DW$T$45, DW_AT_decl_file("C:/ti/ccs1110/ccs/tools/compiler/ti-cgt-msp430_21.6.1.LTS/include/sys/_types.h")
	.dwattr $C$DW$T$45, DW_AT_decl_line(0x50)
	.dwattr $C$DW$T$45, DW_AT_decl_column(0x0e)

$C$DW$T$46	.dwtag  DW_TAG_typedef
	.dwattr $C$DW$T$46, DW_AT_name("__cpusetid_t")
	.dwattr $C$DW$T$46, DW_AT_type(*$C$DW$T$10)
	.dwattr $C$DW$T$46, DW_AT_language(DW_LANG_C)
	.dwattr $C$DW$T$46, DW_AT_decl_file("C:/ti/ccs1110/ccs/tools/compiler/ti-cgt-msp430_21.6.1.LTS/include/sys/_types.h")
	.dwattr $C$DW$T$46, DW_AT_decl_line(0x51)
	.dwattr $C$DW$T$46, DW_AT_decl_column(0x0e)

$C$DW$T$47	.dwtag  DW_TAG_typedef
	.dwattr $C$DW$T$47, DW_AT_name("__cpuwhich_t")
	.dwattr $C$DW$T$47, DW_AT_type(*$C$DW$T$10)
	.dwattr $C$DW$T$47, DW_AT_language(DW_LANG_C)
	.dwattr $C$DW$T$47, DW_AT_decl_file("C:/ti/ccs1110/ccs/tools/compiler/ti-cgt-msp430_21.6.1.LTS/include/sys/_types.h")
	.dwattr $C$DW$T$47, DW_AT_decl_line(0x4f)
	.dwattr $C$DW$T$47, DW_AT_decl_column(0x0e)

$C$DW$T$48	.dwtag  DW_TAG_typedef
	.dwattr $C$DW$T$48, DW_AT_name("__ct_rune_t")
	.dwattr $C$DW$T$48, DW_AT_type(*$C$DW$T$10)
	.dwattr $C$DW$T$48, DW_AT_language(DW_LANG_C)
	.dwattr $C$DW$T$48, DW_AT_decl_file("C:/ti/ccs1110/ccs/tools/compiler/ti-cgt-msp430_21.6.1.LTS/include/sys/_types.h")
	.dwattr $C$DW$T$48, DW_AT_decl_line(0x69)
	.dwattr $C$DW$T$48, DW_AT_decl_column(0x0e)

$C$DW$T$49	.dwtag  DW_TAG_typedef
	.dwattr $C$DW$T$49, DW_AT_name("__rune_t")
	.dwattr $C$DW$T$49, DW_AT_type(*$C$DW$T$48)
	.dwattr $C$DW$T$49, DW_AT_language(DW_LANG_C)
	.dwattr $C$DW$T$49, DW_AT_decl_file("C:/ti/ccs1110/ccs/tools/compiler/ti-cgt-msp430_21.6.1.LTS/include/sys/_types.h")
	.dwattr $C$DW$T$49, DW_AT_decl_line(0x6c)
	.dwattr $C$DW$T$49, DW_AT_decl_column(0x15)

$C$DW$T$50	.dwtag  DW_TAG_typedef
	.dwattr $C$DW$T$50, DW_AT_name("__wint_t")
	.dwattr $C$DW$T$50, DW_AT_type(*$C$DW$T$48)
	.dwattr $C$DW$T$50, DW_AT_language(DW_LANG_C)
	.dwattr $C$DW$T$50, DW_AT_decl_file("C:/ti/ccs1110/ccs/tools/compiler/ti-cgt-msp430_21.6.1.LTS/include/sys/_types.h")
	.dwattr $C$DW$T$50, DW_AT_decl_line(0x6d)
	.dwattr $C$DW$T$50, DW_AT_decl_column(0x15)

$C$DW$T$51	.dwtag  DW_TAG_typedef
	.dwattr $C$DW$T$51, DW_AT_name("__int16_t")
	.dwattr $C$DW$T$51, DW_AT_type(*$C$DW$T$10)
	.dwattr $C$DW$T$51, DW_AT_language(DW_LANG_C)
	.dwattr $C$DW$T$51, DW_AT_decl_file("C:/ti/ccs1110/ccs/tools/compiler/ti-cgt-msp430_21.6.1.LTS/include/machine/_types.h")
	.dwattr $C$DW$T$51, DW_AT_decl_line(0x38)
	.dwattr $C$DW$T$51, DW_AT_decl_column(0x0f)

$C$DW$T$52	.dwtag  DW_TAG_typedef
	.dwattr $C$DW$T$52, DW_AT_name("__int_fast16_t")
	.dwattr $C$DW$T$52, DW_AT_type(*$C$DW$T$51)
	.dwattr $C$DW$T$52, DW_AT_language(DW_LANG_C)
	.dwattr $C$DW$T$52, DW_AT_decl_file("C:/ti/ccs1110/ccs/tools/compiler/ti-cgt-msp430_21.6.1.LTS/include/machine/_types.h")
	.dwattr $C$DW$T$52, DW_AT_decl_line(0x57)
	.dwattr $C$DW$T$52, DW_AT_decl_column(0x13)

$C$DW$T$53	.dwtag  DW_TAG_typedef
	.dwattr $C$DW$T$53, DW_AT_name("int_fast16_t")
	.dwattr $C$DW$T$53, DW_AT_type(*$C$DW$T$52)
	.dwattr $C$DW$T$53, DW_AT_language(DW_LANG_C)
	.dwattr $C$DW$T$53, DW_AT_decl_file("C:/ti/ccs1110/ccs/tools/compiler/ti-cgt-msp430_21.6.1.LTS/include/sys/stdint.h")
	.dwattr $C$DW$T$53, DW_AT_decl_line(0x35)
	.dwattr $C$DW$T$53, DW_AT_decl_column(0x19)

$C$DW$T$54	.dwtag  DW_TAG_typedef
	.dwattr $C$DW$T$54, DW_AT_name("__int_fast8_t")
	.dwattr $C$DW$T$54, DW_AT_type(*$C$DW$T$51)
	.dwattr $C$DW$T$54, DW_AT_language(DW_LANG_C)
	.dwattr $C$DW$T$54, DW_AT_decl_file("C:/ti/ccs1110/ccs/tools/compiler/ti-cgt-msp430_21.6.1.LTS/include/machine/_types.h")
	.dwattr $C$DW$T$54, DW_AT_decl_line(0x56)
	.dwattr $C$DW$T$54, DW_AT_decl_column(0x13)

$C$DW$T$55	.dwtag  DW_TAG_typedef
	.dwattr $C$DW$T$55, DW_AT_name("int_fast8_t")
	.dwattr $C$DW$T$55, DW_AT_type(*$C$DW$T$54)
	.dwattr $C$DW$T$55, DW_AT_language(DW_LANG_C)
	.dwattr $C$DW$T$55, DW_AT_decl_file("C:/ti/ccs1110/ccs/tools/compiler/ti-cgt-msp430_21.6.1.LTS/include/sys/stdint.h")
	.dwattr $C$DW$T$55, DW_AT_decl_line(0x34)
	.dwattr $C$DW$T$55, DW_AT_decl_column(0x18)

$C$DW$T$56	.dwtag  DW_TAG_typedef
	.dwattr $C$DW$T$56, DW_AT_name("__int_least16_t")
	.dwattr $C$DW$T$56, DW_AT_type(*$C$DW$T$51)
	.dwattr $C$DW$T$56, DW_AT_language(DW_LANG_C)
	.dwattr $C$DW$T$56, DW_AT_decl_file("C:/ti/ccs1110/ccs/tools/compiler/ti-cgt-msp430_21.6.1.LTS/include/machine/_types.h")
	.dwattr $C$DW$T$56, DW_AT_decl_line(0x5b)
	.dwattr $C$DW$T$56, DW_AT_decl_column(0x13)

$C$DW$T$57	.dwtag  DW_TAG_typedef
	.dwattr $C$DW$T$57, DW_AT_name("int_least16_t")
	.dwattr $C$DW$T$57, DW_AT_type(*$C$DW$T$56)
	.dwattr $C$DW$T$57, DW_AT_language(DW_LANG_C)
	.dwattr $C$DW$T$57, DW_AT_decl_file("C:/ti/ccs1110/ccs/tools/compiler/ti-cgt-msp430_21.6.1.LTS/include/sys/stdint.h")
	.dwattr $C$DW$T$57, DW_AT_decl_line(0x2b)
	.dwattr $C$DW$T$57, DW_AT_decl_column(0x1a)

$C$DW$T$58	.dwtag  DW_TAG_typedef
	.dwattr $C$DW$T$58, DW_AT_name("__register_t")
	.dwattr $C$DW$T$58, DW_AT_type(*$C$DW$T$51)
	.dwattr $C$DW$T$58, DW_AT_language(DW_LANG_C)
	.dwattr $C$DW$T$58, DW_AT_decl_file("C:/ti/ccs1110/ccs/tools/compiler/ti-cgt-msp430_21.6.1.LTS/include/machine/_types.h")
	.dwattr $C$DW$T$58, DW_AT_decl_line(0x5f)
	.dwattr $C$DW$T$58, DW_AT_decl_column(0x13)

$C$DW$T$59	.dwtag  DW_TAG_typedef
	.dwattr $C$DW$T$59, DW_AT_name("int16_t")
	.dwattr $C$DW$T$59, DW_AT_type(*$C$DW$T$51)
	.dwattr $C$DW$T$59, DW_AT_language(DW_LANG_C)
	.dwattr $C$DW$T$59, DW_AT_decl_file("C:/ti/ccs1110/ccs/tools/compiler/ti-cgt-msp430_21.6.1.LTS/include/sys/_stdint.h")
	.dwattr $C$DW$T$59, DW_AT_decl_line(0x2b)
	.dwattr $C$DW$T$59, DW_AT_decl_column(0x14)

$C$DW$T$60	.dwtag  DW_TAG_typedef
	.dwattr $C$DW$T$60, DW_AT_name("__nl_item")
	.dwattr $C$DW$T$60, DW_AT_type(*$C$DW$T$10)
	.dwattr $C$DW$T$60, DW_AT_language(DW_LANG_C)
	.dwattr $C$DW$T$60, DW_AT_decl_file("C:/ti/ccs1110/ccs/tools/compiler/ti-cgt-msp430_21.6.1.LTS/include/sys/_types.h")
	.dwattr $C$DW$T$60, DW_AT_decl_line(0x3c)
	.dwattr $C$DW$T$60, DW_AT_decl_column(0x0e)

$C$DW$T$61	.dwtag  DW_TAG_typedef
	.dwattr $C$DW$T$61, DW_AT_name("__ptrdiff_t")
	.dwattr $C$DW$T$61, DW_AT_type(*$C$DW$T$10)
	.dwattr $C$DW$T$61, DW_AT_language(DW_LANG_C)
	.dwattr $C$DW$T$61, DW_AT_decl_file("C:/ti/ccs1110/ccs/tools/compiler/ti-cgt-msp430_21.6.1.LTS/include/machine/_types.h")
	.dwattr $C$DW$T$61, DW_AT_decl_line(0x5e)
	.dwattr $C$DW$T$61, DW_AT_decl_column(0x1c)

$C$DW$T$11	.dwtag  DW_TAG_base_type
	.dwattr $C$DW$T$11, DW_AT_encoding(DW_ATE_unsigned)
	.dwattr $C$DW$T$11, DW_AT_name("unsigned int")
	.dwattr $C$DW$T$11, DW_AT_byte_size(0x02)

$C$DW$T$62	.dwtag  DW_TAG_typedef
	.dwattr $C$DW$T$62, DW_AT_name("___wchar_t")
	.dwattr $C$DW$T$62, DW_AT_type(*$C$DW$T$11)
	.dwattr $C$DW$T$62, DW_AT_language(DW_LANG_C)
	.dwattr $C$DW$T$62, DW_AT_decl_file("C:/ti/ccs1110/ccs/tools/compiler/ti-cgt-msp430_21.6.1.LTS/include/machine/_types.h")
	.dwattr $C$DW$T$62, DW_AT_decl_line(0x7d)
	.dwattr $C$DW$T$62, DW_AT_decl_column(0x1a)

$C$DW$T$63	.dwtag  DW_TAG_typedef
	.dwattr $C$DW$T$63, DW_AT_name("__size_t")
	.dwattr $C$DW$T$63, DW_AT_type(*$C$DW$T$11)
	.dwattr $C$DW$T$63, DW_AT_language(DW_LANG_C)
	.dwattr $C$DW$T$63, DW_AT_decl_file("C:/ti/ccs1110/ccs/tools/compiler/ti-cgt-msp430_21.6.1.LTS/include/machine/_types.h")
	.dwattr $C$DW$T$63, DW_AT_decl_line(0x61)
	.dwattr $C$DW$T$63, DW_AT_decl_column(0x19)

$C$DW$T$25	.dwtag  DW_TAG_typedef
	.dwattr $C$DW$T$25, DW_AT_name("__uint16_t")
	.dwattr $C$DW$T$25, DW_AT_type(*$C$DW$T$11)
	.dwattr $C$DW$T$25, DW_AT_language(DW_LANG_C)
	.dwattr $C$DW$T$25, DW_AT_decl_file("C:/ti/ccs1110/ccs/tools/compiler/ti-cgt-msp430_21.6.1.LTS/include/machine/_types.h")
	.dwattr $C$DW$T$25, DW_AT_decl_line(0x39)
	.dwattr $C$DW$T$25, DW_AT_decl_column(0x17)

$C$DW$T$64	.dwtag  DW_TAG_typedef
	.dwattr $C$DW$T$64, DW_AT_name("__mode_t")
	.dwattr $C$DW$T$64, DW_AT_type(*$C$DW$T$25)
	.dwattr $C$DW$T$64, DW_AT_language(DW_LANG_C)
	.dwattr $C$DW$T$64, DW_AT_decl_file("C:/ti/ccs1110/ccs/tools/compiler/ti-cgt-msp430_21.6.1.LTS/include/sys/_types.h")
	.dwattr $C$DW$T$64, DW_AT_decl_line(0x3a)
	.dwattr $C$DW$T$64, DW_AT_decl_column(0x14)

$C$DW$T$65	.dwtag  DW_TAG_typedef
	.dwattr $C$DW$T$65, DW_AT_name("__u_register_t")
	.dwattr $C$DW$T$65, DW_AT_type(*$C$DW$T$25)
	.dwattr $C$DW$T$65, DW_AT_language(DW_LANG_C)
	.dwattr $C$DW$T$65, DW_AT_decl_file("C:/ti/ccs1110/ccs/tools/compiler/ti-cgt-msp430_21.6.1.LTS/include/machine/_types.h")
	.dwattr $C$DW$T$65, DW_AT_decl_line(0x78)
	.dwattr $C$DW$T$65, DW_AT_decl_column(0x14)

$C$DW$T$66	.dwtag  DW_TAG_typedef
	.dwattr $C$DW$T$66, DW_AT_name("__uint_fast16_t")
	.dwattr $C$DW$T$66, DW_AT_type(*$C$DW$T$25)
	.dwattr $C$DW$T$66, DW_AT_language(DW_LANG_C)
	.dwattr $C$DW$T$66, DW_AT_decl_file("C:/ti/ccs1110/ccs/tools/compiler/ti-cgt-msp430_21.6.1.LTS/include/machine/_types.h")
	.dwattr $C$DW$T$66, DW_AT_decl_line(0x71)
	.dwattr $C$DW$T$66, DW_AT_decl_column(0x14)

$C$DW$T$67	.dwtag  DW_TAG_typedef
	.dwattr $C$DW$T$67, DW_AT_name("uint_fast16_t")
	.dwattr $C$DW$T$67, DW_AT_type(*$C$DW$T$66)
	.dwattr $C$DW$T$67, DW_AT_language(DW_LANG_C)
	.dwattr $C$DW$T$67, DW_AT_decl_file("C:/ti/ccs1110/ccs/tools/compiler/ti-cgt-msp430_21.6.1.LTS/include/sys/stdint.h")
	.dwattr $C$DW$T$67, DW_AT_decl_line(0x3a)
	.dwattr $C$DW$T$67, DW_AT_decl_column(0x1a)

$C$DW$T$68	.dwtag  DW_TAG_typedef
	.dwattr $C$DW$T$68, DW_AT_name("__uint_fast8_t")
	.dwattr $C$DW$T$68, DW_AT_type(*$C$DW$T$25)
	.dwattr $C$DW$T$68, DW_AT_language(DW_LANG_C)
	.dwattr $C$DW$T$68, DW_AT_decl_file("C:/ti/ccs1110/ccs/tools/compiler/ti-cgt-msp430_21.6.1.LTS/include/machine/_types.h")
	.dwattr $C$DW$T$68, DW_AT_decl_line(0x70)
	.dwattr $C$DW$T$68, DW_AT_decl_column(0x14)

$C$DW$T$69	.dwtag  DW_TAG_typedef
	.dwattr $C$DW$T$69, DW_AT_name("uint_fast8_t")
	.dwattr $C$DW$T$69, DW_AT_type(*$C$DW$T$68)
	.dwattr $C$DW$T$69, DW_AT_language(DW_LANG_C)
	.dwattr $C$DW$T$69, DW_AT_decl_file("C:/ti/ccs1110/ccs/tools/compiler/ti-cgt-msp430_21.6.1.LTS/include/sys/stdint.h")
	.dwattr $C$DW$T$69, DW_AT_decl_line(0x39)
	.dwattr $C$DW$T$69, DW_AT_decl_column(0x19)

$C$DW$T$70	.dwtag  DW_TAG_typedef
	.dwattr $C$DW$T$70, DW_AT_name("__uint_least16_t")
	.dwattr $C$DW$T$70, DW_AT_type(*$C$DW$T$25)
	.dwattr $C$DW$T$70, DW_AT_language(DW_LANG_C)
	.dwattr $C$DW$T$70, DW_AT_decl_file("C:/ti/ccs1110/ccs/tools/compiler/ti-cgt-msp430_21.6.1.LTS/include/machine/_types.h")
	.dwattr $C$DW$T$70, DW_AT_decl_line(0x75)
	.dwattr $C$DW$T$70, DW_AT_decl_column(0x14)

$C$DW$T$71	.dwtag  DW_TAG_typedef
	.dwattr $C$DW$T$71, DW_AT_name("__char16_t")
	.dwattr $C$DW$T$71, DW_AT_type(*$C$DW$T$70)
	.dwattr $C$DW$T$71, DW_AT_language(DW_LANG_C)
	.dwattr $C$DW$T$71, DW_AT_decl_file("C:/ti/ccs1110/ccs/tools/compiler/ti-cgt-msp430_21.6.1.LTS/include/sys/_types.h")
	.dwattr $C$DW$T$71, DW_AT_decl_line(0x71)
	.dwattr $C$DW$T$71, DW_AT_decl_column(0x1a)

$C$DW$T$72	.dwtag  DW_TAG_typedef
	.dwattr $C$DW$T$72, DW_AT_name("uint_least16_t")
	.dwattr $C$DW$T$72, DW_AT_type(*$C$DW$T$70)
	.dwattr $C$DW$T$72, DW_AT_language(DW_LANG_C)
	.dwattr $C$DW$T$72, DW_AT_decl_file("C:/ti/ccs1110/ccs/tools/compiler/ti-cgt-msp430_21.6.1.LTS/include/sys/stdint.h")
	.dwattr $C$DW$T$72, DW_AT_decl_line(0x30)
	.dwattr $C$DW$T$72, DW_AT_decl_column(0x1a)

$C$DW$T$26	.dwtag  DW_TAG_typedef
	.dwattr $C$DW$T$26, DW_AT_name("uint16_t")
	.dwattr $C$DW$T$26, DW_AT_type(*$C$DW$T$25)
	.dwattr $C$DW$T$26, DW_AT_language(DW_LANG_C)
	.dwattr $C$DW$T$26, DW_AT_decl_file("C:/ti/ccs1110/ccs/tools/compiler/ti-cgt-msp430_21.6.1.LTS/include/sys/_stdint.h")
	.dwattr $C$DW$T$26, DW_AT_decl_line(0x41)
	.dwattr $C$DW$T$26, DW_AT_decl_column(0x15)

$C$DW$T$74	.dwtag  DW_TAG_const_type
	.dwattr $C$DW$T$74, DW_AT_type(*$C$DW$T$26)


$C$DW$T$75	.dwtag  DW_TAG_array_type
	.dwattr $C$DW$T$75, DW_AT_type(*$C$DW$T$74)
	.dwattr $C$DW$T$75, DW_AT_language(DW_LANG_C)
	.dwattr $C$DW$T$75, DW_AT_byte_size(0x1c)
$C$DW$116	.dwtag  DW_TAG_subrange_type
	.dwattr $C$DW$116, DW_AT_upper_bound(0x0d)

	.dwendtag $C$DW$T$75

$C$DW$T$79	.dwtag  DW_TAG_typedef
	.dwattr $C$DW$T$79, DW_AT_name("__useconds_t")
	.dwattr $C$DW$T$79, DW_AT_type(*$C$DW$T$11)
	.dwattr $C$DW$T$79, DW_AT_language(DW_LANG_C)
	.dwattr $C$DW$T$79, DW_AT_decl_file("C:/ti/ccs1110/ccs/tools/compiler/ti-cgt-msp430_21.6.1.LTS/include/sys/_types.h")
	.dwattr $C$DW$T$79, DW_AT_decl_line(0x4e)
	.dwattr $C$DW$T$79, DW_AT_decl_column(0x16)

$C$DW$T$12	.dwtag  DW_TAG_base_type
	.dwattr $C$DW$T$12, DW_AT_encoding(DW_ATE_signed)
	.dwattr $C$DW$T$12, DW_AT_name("long")
	.dwattr $C$DW$T$12, DW_AT_byte_size(0x04)

$C$DW$T$80	.dwtag  DW_TAG_typedef
	.dwattr $C$DW$T$80, DW_AT_name("__int32_t")
	.dwattr $C$DW$T$80, DW_AT_type(*$C$DW$T$12)
	.dwattr $C$DW$T$80, DW_AT_language(DW_LANG_C)
	.dwattr $C$DW$T$80, DW_AT_decl_file("C:/ti/ccs1110/ccs/tools/compiler/ti-cgt-msp430_21.6.1.LTS/include/machine/_types.h")
	.dwattr $C$DW$T$80, DW_AT_decl_line(0x3a)
	.dwattr $C$DW$T$80, DW_AT_decl_column(0x10)

$C$DW$T$81	.dwtag  DW_TAG_typedef
	.dwattr $C$DW$T$81, DW_AT_name("__blksize_t")
	.dwattr $C$DW$T$81, DW_AT_type(*$C$DW$T$80)
	.dwattr $C$DW$T$81, DW_AT_language(DW_LANG_C)
	.dwattr $C$DW$T$81, DW_AT_decl_file("C:/ti/ccs1110/ccs/tools/compiler/ti-cgt-msp430_21.6.1.LTS/include/sys/_types.h")
	.dwattr $C$DW$T$81, DW_AT_decl_line(0x2f)
	.dwattr $C$DW$T$81, DW_AT_decl_column(0x13)

$C$DW$T$82	.dwtag  DW_TAG_typedef
	.dwattr $C$DW$T$82, DW_AT_name("__clockid_t")
	.dwattr $C$DW$T$82, DW_AT_type(*$C$DW$T$80)
	.dwattr $C$DW$T$82, DW_AT_language(DW_LANG_C)
	.dwattr $C$DW$T$82, DW_AT_decl_file("C:/ti/ccs1110/ccs/tools/compiler/ti-cgt-msp430_21.6.1.LTS/include/sys/_types.h")
	.dwattr $C$DW$T$82, DW_AT_decl_line(0x31)
	.dwattr $C$DW$T$82, DW_AT_decl_column(0x13)

$C$DW$T$83	.dwtag  DW_TAG_typedef
	.dwattr $C$DW$T$83, DW_AT_name("__critical_t")
	.dwattr $C$DW$T$83, DW_AT_type(*$C$DW$T$80)
	.dwattr $C$DW$T$83, DW_AT_language(DW_LANG_C)
	.dwattr $C$DW$T$83, DW_AT_decl_file("C:/ti/ccs1110/ccs/tools/compiler/ti-cgt-msp430_21.6.1.LTS/include/machine/_types.h")
	.dwattr $C$DW$T$83, DW_AT_decl_line(0x4b)
	.dwattr $C$DW$T$83, DW_AT_decl_column(0x13)

$C$DW$T$84	.dwtag  DW_TAG_typedef
	.dwattr $C$DW$T$84, DW_AT_name("__int_fast32_t")
	.dwattr $C$DW$T$84, DW_AT_type(*$C$DW$T$80)
	.dwattr $C$DW$T$84, DW_AT_language(DW_LANG_C)
	.dwattr $C$DW$T$84, DW_AT_decl_file("C:/ti/ccs1110/ccs/tools/compiler/ti-cgt-msp430_21.6.1.LTS/include/machine/_types.h")
	.dwattr $C$DW$T$84, DW_AT_decl_line(0x58)
	.dwattr $C$DW$T$84, DW_AT_decl_column(0x13)

$C$DW$T$85	.dwtag  DW_TAG_typedef
	.dwattr $C$DW$T$85, DW_AT_name("int_fast32_t")
	.dwattr $C$DW$T$85, DW_AT_type(*$C$DW$T$84)
	.dwattr $C$DW$T$85, DW_AT_language(DW_LANG_C)
	.dwattr $C$DW$T$85, DW_AT_decl_file("C:/ti/ccs1110/ccs/tools/compiler/ti-cgt-msp430_21.6.1.LTS/include/sys/stdint.h")
	.dwattr $C$DW$T$85, DW_AT_decl_line(0x36)
	.dwattr $C$DW$T$85, DW_AT_decl_column(0x19)

$C$DW$T$86	.dwtag  DW_TAG_typedef
	.dwattr $C$DW$T$86, DW_AT_name("__int_least32_t")
	.dwattr $C$DW$T$86, DW_AT_type(*$C$DW$T$80)
	.dwattr $C$DW$T$86, DW_AT_language(DW_LANG_C)
	.dwattr $C$DW$T$86, DW_AT_decl_file("C:/ti/ccs1110/ccs/tools/compiler/ti-cgt-msp430_21.6.1.LTS/include/machine/_types.h")
	.dwattr $C$DW$T$86, DW_AT_decl_line(0x5c)
	.dwattr $C$DW$T$86, DW_AT_decl_column(0x13)

$C$DW$T$87	.dwtag  DW_TAG_typedef
	.dwattr $C$DW$T$87, DW_AT_name("int_least32_t")
	.dwattr $C$DW$T$87, DW_AT_type(*$C$DW$T$86)
	.dwattr $C$DW$T$87, DW_AT_language(DW_LANG_C)
	.dwattr $C$DW$T$87, DW_AT_decl_file("C:/ti/ccs1110/ccs/tools/compiler/ti-cgt-msp430_21.6.1.LTS/include/sys/stdint.h")
	.dwattr $C$DW$T$87, DW_AT_decl_line(0x2c)
	.dwattr $C$DW$T$87, DW_AT_decl_column(0x1a)

$C$DW$T$88	.dwtag  DW_TAG_typedef
	.dwattr $C$DW$T$88, DW_AT_name("__intfptr_t")
	.dwattr $C$DW$T$88, DW_AT_type(*$C$DW$T$80)
	.dwattr $C$DW$T$88, DW_AT_language(DW_LANG_C)
	.dwattr $C$DW$T$88, DW_AT_decl_file("C:/ti/ccs1110/ccs/tools/compiler/ti-cgt-msp430_21.6.1.LTS/include/machine/_types.h")
	.dwattr $C$DW$T$88, DW_AT_decl_line(0x4e)
	.dwattr $C$DW$T$88, DW_AT_decl_column(0x13)

$C$DW$T$89	.dwtag  DW_TAG_typedef
	.dwattr $C$DW$T$89, DW_AT_name("__intptr_t")
	.dwattr $C$DW$T$89, DW_AT_type(*$C$DW$T$80)
	.dwattr $C$DW$T$89, DW_AT_language(DW_LANG_C)
	.dwattr $C$DW$T$89, DW_AT_decl_file("C:/ti/ccs1110/ccs/tools/compiler/ti-cgt-msp430_21.6.1.LTS/include/machine/_types.h")
	.dwattr $C$DW$T$89, DW_AT_decl_line(0x51)
	.dwattr $C$DW$T$89, DW_AT_decl_column(0x13)

$C$DW$T$90	.dwtag  DW_TAG_typedef
	.dwattr $C$DW$T$90, DW_AT_name("intptr_t")
	.dwattr $C$DW$T$90, DW_AT_type(*$C$DW$T$89)
	.dwattr $C$DW$T$90, DW_AT_language(DW_LANG_C)
	.dwattr $C$DW$T$90, DW_AT_decl_file("C:/ti/ccs1110/ccs/tools/compiler/ti-cgt-msp430_21.6.1.LTS/include/sys/_stdint.h")
	.dwattr $C$DW$T$90, DW_AT_decl_line(0x50)
	.dwattr $C$DW$T$90, DW_AT_decl_column(0x15)

$C$DW$T$91	.dwtag  DW_TAG_typedef
	.dwattr $C$DW$T$91, DW_AT_name("__lwpid_t")
	.dwattr $C$DW$T$91, DW_AT_type(*$C$DW$T$80)
	.dwattr $C$DW$T$91, DW_AT_language(DW_LANG_C)
	.dwattr $C$DW$T$91, DW_AT_decl_file("C:/ti/ccs1110/ccs/tools/compiler/ti-cgt-msp430_21.6.1.LTS/include/sys/_types.h")
	.dwattr $C$DW$T$91, DW_AT_decl_line(0x39)
	.dwattr $C$DW$T$91, DW_AT_decl_column(0x13)

$C$DW$T$92	.dwtag  DW_TAG_typedef
	.dwattr $C$DW$T$92, DW_AT_name("__pid_t")
	.dwattr $C$DW$T$92, DW_AT_type(*$C$DW$T$80)
	.dwattr $C$DW$T$92, DW_AT_language(DW_LANG_C)
	.dwattr $C$DW$T$92, DW_AT_decl_file("C:/ti/ccs1110/ccs/tools/compiler/ti-cgt-msp430_21.6.1.LTS/include/sys/_types.h")
	.dwattr $C$DW$T$92, DW_AT_decl_line(0x40)
	.dwattr $C$DW$T$92, DW_AT_decl_column(0x13)

$C$DW$T$93	.dwtag  DW_TAG_typedef
	.dwattr $C$DW$T$93, DW_AT_name("__segsz_t")
	.dwattr $C$DW$T$93, DW_AT_type(*$C$DW$T$80)
	.dwattr $C$DW$T$93, DW_AT_language(DW_LANG_C)
	.dwattr $C$DW$T$93, DW_AT_decl_file("C:/ti/ccs1110/ccs/tools/compiler/ti-cgt-msp430_21.6.1.LTS/include/machine/_types.h")
	.dwattr $C$DW$T$93, DW_AT_decl_line(0x60)
	.dwattr $C$DW$T$93, DW_AT_decl_column(0x13)

$C$DW$T$94	.dwtag  DW_TAG_typedef
	.dwattr $C$DW$T$94, DW_AT_name("__ssize_t")
	.dwattr $C$DW$T$94, DW_AT_type(*$C$DW$T$80)
	.dwattr $C$DW$T$94, DW_AT_language(DW_LANG_C)
	.dwattr $C$DW$T$94, DW_AT_decl_file("C:/ti/ccs1110/ccs/tools/compiler/ti-cgt-msp430_21.6.1.LTS/include/machine/_types.h")
	.dwattr $C$DW$T$94, DW_AT_decl_line(0x62)
	.dwattr $C$DW$T$94, DW_AT_decl_column(0x13)

$C$DW$T$95	.dwtag  DW_TAG_typedef
	.dwattr $C$DW$T$95, DW_AT_name("int32_t")
	.dwattr $C$DW$T$95, DW_AT_type(*$C$DW$T$80)
	.dwattr $C$DW$T$95, DW_AT_language(DW_LANG_C)
	.dwattr $C$DW$T$95, DW_AT_decl_file("C:/ti/ccs1110/ccs/tools/compiler/ti-cgt-msp430_21.6.1.LTS/include/sys/_stdint.h")
	.dwattr $C$DW$T$95, DW_AT_decl_line(0x30)
	.dwattr $C$DW$T$95, DW_AT_decl_column(0x14)

$C$DW$T$96	.dwtag  DW_TAG_typedef
	.dwattr $C$DW$T$96, DW_AT_name("__key_t")
	.dwattr $C$DW$T$96, DW_AT_type(*$C$DW$T$12)
	.dwattr $C$DW$T$96, DW_AT_language(DW_LANG_C)
	.dwattr $C$DW$T$96, DW_AT_decl_file("C:/ti/ccs1110/ccs/tools/compiler/ti-cgt-msp430_21.6.1.LTS/include/sys/_types.h")
	.dwattr $C$DW$T$96, DW_AT_decl_line(0x38)
	.dwattr $C$DW$T$96, DW_AT_decl_column(0x0f)

$C$DW$T$97	.dwtag  DW_TAG_typedef
	.dwattr $C$DW$T$97, DW_AT_name("__suseconds_t")
	.dwattr $C$DW$T$97, DW_AT_type(*$C$DW$T$12)
	.dwattr $C$DW$T$97, DW_AT_language(DW_LANG_C)
	.dwattr $C$DW$T$97, DW_AT_decl_file("C:/ti/ccs1110/ccs/tools/compiler/ti-cgt-msp430_21.6.1.LTS/include/sys/_types.h")
	.dwattr $C$DW$T$97, DW_AT_decl_line(0x4a)
	.dwattr $C$DW$T$97, DW_AT_decl_column(0x0f)

$C$DW$T$98	.dwtag  DW_TAG_typedef
	.dwattr $C$DW$T$98, DW_AT_name("_off_t")
	.dwattr $C$DW$T$98, DW_AT_type(*$C$DW$T$12)
	.dwattr $C$DW$T$98, DW_AT_language(DW_LANG_C)
	.dwattr $C$DW$T$98, DW_AT_decl_file("C:/ti/ccs1110/ccs/tools/compiler/ti-cgt-msp430_21.6.1.LTS/include/machine/_types.h")
	.dwattr $C$DW$T$98, DW_AT_decl_line(0x8d)
	.dwattr $C$DW$T$98, DW_AT_decl_column(0x12)

$C$DW$T$99	.dwtag  DW_TAG_typedef
	.dwattr $C$DW$T$99, DW_AT_name("__off_t")
	.dwattr $C$DW$T$99, DW_AT_type(*$C$DW$T$98)
	.dwattr $C$DW$T$99, DW_AT_language(DW_LANG_C)
	.dwattr $C$DW$T$99, DW_AT_decl_file("C:/ti/ccs1110/ccs/tools/compiler/ti-cgt-msp430_21.6.1.LTS/include/sys/_types.h")
	.dwattr $C$DW$T$99, DW_AT_decl_line(0x3e)
	.dwattr $C$DW$T$99, DW_AT_decl_column(0x18)

$C$DW$T$13	.dwtag  DW_TAG_base_type
	.dwattr $C$DW$T$13, DW_AT_encoding(DW_ATE_unsigned)
	.dwattr $C$DW$T$13, DW_AT_name("unsigned long")
	.dwattr $C$DW$T$13, DW_AT_byte_size(0x04)

$C$DW$T$100	.dwtag  DW_TAG_typedef
	.dwattr $C$DW$T$100, DW_AT_name("__uint32_t")
	.dwattr $C$DW$T$100, DW_AT_type(*$C$DW$T$13)
	.dwattr $C$DW$T$100, DW_AT_language(DW_LANG_C)
	.dwattr $C$DW$T$100, DW_AT_decl_file("C:/ti/ccs1110/ccs/tools/compiler/ti-cgt-msp430_21.6.1.LTS/include/machine/_types.h")
	.dwattr $C$DW$T$100, DW_AT_decl_line(0x3b)
	.dwattr $C$DW$T$100, DW_AT_decl_column(0x18)

$C$DW$T$101	.dwtag  DW_TAG_typedef
	.dwattr $C$DW$T$101, DW_AT_name("__clock_t")
	.dwattr $C$DW$T$101, DW_AT_type(*$C$DW$T$100)
	.dwattr $C$DW$T$101, DW_AT_language(DW_LANG_C)
	.dwattr $C$DW$T$101, DW_AT_decl_file("C:/ti/ccs1110/ccs/tools/compiler/ti-cgt-msp430_21.6.1.LTS/include/machine/_types.h")
	.dwattr $C$DW$T$101, DW_AT_decl_line(0x4a)
	.dwattr $C$DW$T$101, DW_AT_decl_column(0x14)

$C$DW$T$102	.dwtag  DW_TAG_typedef
	.dwattr $C$DW$T$102, DW_AT_name("__fflags_t")
	.dwattr $C$DW$T$102, DW_AT_type(*$C$DW$T$100)
	.dwattr $C$DW$T$102, DW_AT_language(DW_LANG_C)
	.dwattr $C$DW$T$102, DW_AT_decl_file("C:/ti/ccs1110/ccs/tools/compiler/ti-cgt-msp430_21.6.1.LTS/include/sys/_types.h")
	.dwattr $C$DW$T$102, DW_AT_decl_line(0x32)
	.dwattr $C$DW$T$102, DW_AT_decl_column(0x14)

$C$DW$T$103	.dwtag  DW_TAG_typedef
	.dwattr $C$DW$T$103, DW_AT_name("__fixpt_t")
	.dwattr $C$DW$T$103, DW_AT_type(*$C$DW$T$100)
	.dwattr $C$DW$T$103, DW_AT_language(DW_LANG_C)
	.dwattr $C$DW$T$103, DW_AT_decl_file("C:/ti/ccs1110/ccs/tools/compiler/ti-cgt-msp430_21.6.1.LTS/include/sys/_types.h")
	.dwattr $C$DW$T$103, DW_AT_decl_line(0x81)
	.dwattr $C$DW$T$103, DW_AT_decl_column(0x14)

$C$DW$T$104	.dwtag  DW_TAG_typedef
	.dwattr $C$DW$T$104, DW_AT_name("__gid_t")
	.dwattr $C$DW$T$104, DW_AT_type(*$C$DW$T$100)
	.dwattr $C$DW$T$104, DW_AT_language(DW_LANG_C)
	.dwattr $C$DW$T$104, DW_AT_decl_file("C:/ti/ccs1110/ccs/tools/compiler/ti-cgt-msp430_21.6.1.LTS/include/sys/_types.h")
	.dwattr $C$DW$T$104, DW_AT_decl_line(0x35)
	.dwattr $C$DW$T$104, DW_AT_decl_column(0x14)

$C$DW$T$105	.dwtag  DW_TAG_typedef
	.dwattr $C$DW$T$105, DW_AT_name("__socklen_t")
	.dwattr $C$DW$T$105, DW_AT_type(*$C$DW$T$100)
	.dwattr $C$DW$T$105, DW_AT_language(DW_LANG_C)
	.dwattr $C$DW$T$105, DW_AT_decl_file("C:/ti/ccs1110/ccs/tools/compiler/ti-cgt-msp430_21.6.1.LTS/include/sys/_types.h")
	.dwattr $C$DW$T$105, DW_AT_decl_line(0x49)
	.dwattr $C$DW$T$105, DW_AT_decl_column(0x14)

$C$DW$T$106	.dwtag  DW_TAG_typedef
	.dwattr $C$DW$T$106, DW_AT_name("__time_t")
	.dwattr $C$DW$T$106, DW_AT_type(*$C$DW$T$100)
	.dwattr $C$DW$T$106, DW_AT_language(DW_LANG_C)
	.dwattr $C$DW$T$106, DW_AT_decl_file("C:/ti/ccs1110/ccs/tools/compiler/ti-cgt-msp430_21.6.1.LTS/include/machine/_types.h")
	.dwattr $C$DW$T$106, DW_AT_decl_line(0x66)
	.dwattr $C$DW$T$106, DW_AT_decl_column(0x19)

$C$DW$T$107	.dwtag  DW_TAG_typedef
	.dwattr $C$DW$T$107, DW_AT_name("__uid_t")
	.dwattr $C$DW$T$107, DW_AT_type(*$C$DW$T$100)
	.dwattr $C$DW$T$107, DW_AT_language(DW_LANG_C)
	.dwattr $C$DW$T$107, DW_AT_decl_file("C:/ti/ccs1110/ccs/tools/compiler/ti-cgt-msp430_21.6.1.LTS/include/sys/_types.h")
	.dwattr $C$DW$T$107, DW_AT_decl_line(0x4d)
	.dwattr $C$DW$T$107, DW_AT_decl_column(0x14)

$C$DW$T$108	.dwtag  DW_TAG_typedef
	.dwattr $C$DW$T$108, DW_AT_name("__uint_fast32_t")
	.dwattr $C$DW$T$108, DW_AT_type(*$C$DW$T$100)
	.dwattr $C$DW$T$108, DW_AT_language(DW_LANG_C)
	.dwattr $C$DW$T$108, DW_AT_decl_file("C:/ti/ccs1110/ccs/tools/compiler/ti-cgt-msp430_21.6.1.LTS/include/machine/_types.h")
	.dwattr $C$DW$T$108, DW_AT_decl_line(0x72)
	.dwattr $C$DW$T$108, DW_AT_decl_column(0x14)

$C$DW$T$109	.dwtag  DW_TAG_typedef
	.dwattr $C$DW$T$109, DW_AT_name("uint_fast32_t")
	.dwattr $C$DW$T$109, DW_AT_type(*$C$DW$T$108)
	.dwattr $C$DW$T$109, DW_AT_language(DW_LANG_C)
	.dwattr $C$DW$T$109, DW_AT_decl_file("C:/ti/ccs1110/ccs/tools/compiler/ti-cgt-msp430_21.6.1.LTS/include/sys/stdint.h")
	.dwattr $C$DW$T$109, DW_AT_decl_line(0x3b)
	.dwattr $C$DW$T$109, DW_AT_decl_column(0x1a)

$C$DW$T$110	.dwtag  DW_TAG_typedef
	.dwattr $C$DW$T$110, DW_AT_name("__uint_least32_t")
	.dwattr $C$DW$T$110, DW_AT_type(*$C$DW$T$100)
	.dwattr $C$DW$T$110, DW_AT_language(DW_LANG_C)
	.dwattr $C$DW$T$110, DW_AT_decl_file("C:/ti/ccs1110/ccs/tools/compiler/ti-cgt-msp430_21.6.1.LTS/include/machine/_types.h")
	.dwattr $C$DW$T$110, DW_AT_decl_line(0x76)
	.dwattr $C$DW$T$110, DW_AT_decl_column(0x14)

$C$DW$T$111	.dwtag  DW_TAG_typedef
	.dwattr $C$DW$T$111, DW_AT_name("__char32_t")
	.dwattr $C$DW$T$111, DW_AT_type(*$C$DW$T$110)
	.dwattr $C$DW$T$111, DW_AT_language(DW_LANG_C)
	.dwattr $C$DW$T$111, DW_AT_decl_file("C:/ti/ccs1110/ccs/tools/compiler/ti-cgt-msp430_21.6.1.LTS/include/sys/_types.h")
	.dwattr $C$DW$T$111, DW_AT_decl_line(0x72)
	.dwattr $C$DW$T$111, DW_AT_decl_column(0x1a)

$C$DW$T$112	.dwtag  DW_TAG_typedef
	.dwattr $C$DW$T$112, DW_AT_name("uint_least32_t")
	.dwattr $C$DW$T$112, DW_AT_type(*$C$DW$T$110)
	.dwattr $C$DW$T$112, DW_AT_language(DW_LANG_C)
	.dwattr $C$DW$T$112, DW_AT_decl_file("C:/ti/ccs1110/ccs/tools/compiler/ti-cgt-msp430_21.6.1.LTS/include/sys/stdint.h")
	.dwattr $C$DW$T$112, DW_AT_decl_line(0x31)
	.dwattr $C$DW$T$112, DW_AT_decl_column(0x1a)

$C$DW$T$113	.dwtag  DW_TAG_typedef
	.dwattr $C$DW$T$113, DW_AT_name("__uintfptr_t")
	.dwattr $C$DW$T$113, DW_AT_type(*$C$DW$T$100)
	.dwattr $C$DW$T$113, DW_AT_language(DW_LANG_C)
	.dwattr $C$DW$T$113, DW_AT_decl_file("C:/ti/ccs1110/ccs/tools/compiler/ti-cgt-msp430_21.6.1.LTS/include/machine/_types.h")
	.dwattr $C$DW$T$113, DW_AT_decl_line(0x68)
	.dwattr $C$DW$T$113, DW_AT_decl_column(0x14)

$C$DW$T$114	.dwtag  DW_TAG_typedef
	.dwattr $C$DW$T$114, DW_AT_name("__uintptr_t")
	.dwattr $C$DW$T$114, DW_AT_type(*$C$DW$T$100)
	.dwattr $C$DW$T$114, DW_AT_language(DW_LANG_C)
	.dwattr $C$DW$T$114, DW_AT_decl_file("C:/ti/ccs1110/ccs/tools/compiler/ti-cgt-msp430_21.6.1.LTS/include/machine/_types.h")
	.dwattr $C$DW$T$114, DW_AT_decl_line(0x6b)
	.dwattr $C$DW$T$114, DW_AT_decl_column(0x14)

$C$DW$T$115	.dwtag  DW_TAG_typedef
	.dwattr $C$DW$T$115, DW_AT_name("uintptr_t")
	.dwattr $C$DW$T$115, DW_AT_type(*$C$DW$T$114)
	.dwattr $C$DW$T$115, DW_AT_language(DW_LANG_C)
	.dwattr $C$DW$T$115, DW_AT_decl_file("C:/ti/ccs1110/ccs/tools/compiler/ti-cgt-msp430_21.6.1.LTS/include/sys/_stdint.h")
	.dwattr $C$DW$T$115, DW_AT_decl_line(0x54)
	.dwattr $C$DW$T$115, DW_AT_decl_column(0x16)

$C$DW$T$116	.dwtag  DW_TAG_typedef
	.dwattr $C$DW$T$116, DW_AT_name("__vm_offset_t")
	.dwattr $C$DW$T$116, DW_AT_type(*$C$DW$T$100)
	.dwattr $C$DW$T$116, DW_AT_language(DW_LANG_C)
	.dwattr $C$DW$T$116, DW_AT_decl_file("C:/ti/ccs1110/ccs/tools/compiler/ti-cgt-msp430_21.6.1.LTS/include/machine/_types.h")
	.dwattr $C$DW$T$116, DW_AT_decl_line(0x79)
	.dwattr $C$DW$T$116, DW_AT_decl_column(0x14)

$C$DW$T$117	.dwtag  DW_TAG_typedef
	.dwattr $C$DW$T$117, DW_AT_name("__vm_paddr_t")
	.dwattr $C$DW$T$117, DW_AT_type(*$C$DW$T$100)
	.dwattr $C$DW$T$117, DW_AT_language(DW_LANG_C)
	.dwattr $C$DW$T$117, DW_AT_decl_file("C:/ti/ccs1110/ccs/tools/compiler/ti-cgt-msp430_21.6.1.LTS/include/machine/_types.h")
	.dwattr $C$DW$T$117, DW_AT_decl_line(0x7a)
	.dwattr $C$DW$T$117, DW_AT_decl_column(0x14)

$C$DW$T$118	.dwtag  DW_TAG_typedef
	.dwattr $C$DW$T$118, DW_AT_name("__vm_size_t")
	.dwattr $C$DW$T$118, DW_AT_type(*$C$DW$T$100)
	.dwattr $C$DW$T$118, DW_AT_language(DW_LANG_C)
	.dwattr $C$DW$T$118, DW_AT_decl_file("C:/ti/ccs1110/ccs/tools/compiler/ti-cgt-msp430_21.6.1.LTS/include/machine/_types.h")
	.dwattr $C$DW$T$118, DW_AT_decl_line(0x7b)
	.dwattr $C$DW$T$118, DW_AT_decl_column(0x14)

$C$DW$T$119	.dwtag  DW_TAG_typedef
	.dwattr $C$DW$T$119, DW_AT_name("uint32_t")
	.dwattr $C$DW$T$119, DW_AT_type(*$C$DW$T$100)
	.dwattr $C$DW$T$119, DW_AT_language(DW_LANG_C)
	.dwattr $C$DW$T$119, DW_AT_decl_file("C:/ti/ccs1110/ccs/tools/compiler/ti-cgt-msp430_21.6.1.LTS/include/sys/_stdint.h")
	.dwattr $C$DW$T$119, DW_AT_decl_line(0x46)
	.dwattr $C$DW$T$119, DW_AT_decl_column(0x15)

$C$DW$T$14	.dwtag  DW_TAG_base_type
	.dwattr $C$DW$T$14, DW_AT_encoding(DW_ATE_signed)
	.dwattr $C$DW$T$14, DW_AT_name("long long")
	.dwattr $C$DW$T$14, DW_AT_byte_size(0x08)

$C$DW$T$120	.dwtag  DW_TAG_typedef
	.dwattr $C$DW$T$120, DW_AT_name("__int64_t")
	.dwattr $C$DW$T$120, DW_AT_type(*$C$DW$T$14)
	.dwattr $C$DW$T$120, DW_AT_language(DW_LANG_C)
	.dwattr $C$DW$T$120, DW_AT_decl_file("C:/ti/ccs1110/ccs/tools/compiler/ti-cgt-msp430_21.6.1.LTS/include/machine/_types.h")
	.dwattr $C$DW$T$120, DW_AT_decl_line(0x40)
	.dwattr $C$DW$T$120, DW_AT_decl_column(0x14)

$C$DW$T$121	.dwtag  DW_TAG_typedef
	.dwattr $C$DW$T$121, DW_AT_name("__blkcnt_t")
	.dwattr $C$DW$T$121, DW_AT_type(*$C$DW$T$120)
	.dwattr $C$DW$T$121, DW_AT_language(DW_LANG_C)
	.dwattr $C$DW$T$121, DW_AT_decl_file("C:/ti/ccs1110/ccs/tools/compiler/ti-cgt-msp430_21.6.1.LTS/include/sys/_types.h")
	.dwattr $C$DW$T$121, DW_AT_decl_line(0x30)
	.dwattr $C$DW$T$121, DW_AT_decl_column(0x13)

$C$DW$T$122	.dwtag  DW_TAG_typedef
	.dwattr $C$DW$T$122, DW_AT_name("__id_t")
	.dwattr $C$DW$T$122, DW_AT_type(*$C$DW$T$120)
	.dwattr $C$DW$T$122, DW_AT_language(DW_LANG_C)
	.dwattr $C$DW$T$122, DW_AT_decl_file("C:/ti/ccs1110/ccs/tools/compiler/ti-cgt-msp430_21.6.1.LTS/include/sys/_types.h")
	.dwattr $C$DW$T$122, DW_AT_decl_line(0x36)
	.dwattr $C$DW$T$122, DW_AT_decl_column(0x13)

$C$DW$T$123	.dwtag  DW_TAG_typedef
	.dwattr $C$DW$T$123, DW_AT_name("__int_fast64_t")
	.dwattr $C$DW$T$123, DW_AT_type(*$C$DW$T$120)
	.dwattr $C$DW$T$123, DW_AT_language(DW_LANG_C)
	.dwattr $C$DW$T$123, DW_AT_decl_file("C:/ti/ccs1110/ccs/tools/compiler/ti-cgt-msp430_21.6.1.LTS/include/machine/_types.h")
	.dwattr $C$DW$T$123, DW_AT_decl_line(0x59)
	.dwattr $C$DW$T$123, DW_AT_decl_column(0x13)

$C$DW$T$124	.dwtag  DW_TAG_typedef
	.dwattr $C$DW$T$124, DW_AT_name("int_fast64_t")
	.dwattr $C$DW$T$124, DW_AT_type(*$C$DW$T$123)
	.dwattr $C$DW$T$124, DW_AT_language(DW_LANG_C)
	.dwattr $C$DW$T$124, DW_AT_decl_file("C:/ti/ccs1110/ccs/tools/compiler/ti-cgt-msp430_21.6.1.LTS/include/sys/stdint.h")
	.dwattr $C$DW$T$124, DW_AT_decl_line(0x37)
	.dwattr $C$DW$T$124, DW_AT_decl_column(0x19)

$C$DW$T$125	.dwtag  DW_TAG_typedef
	.dwattr $C$DW$T$125, DW_AT_name("__int_least64_t")
	.dwattr $C$DW$T$125, DW_AT_type(*$C$DW$T$120)
	.dwattr $C$DW$T$125, DW_AT_language(DW_LANG_C)
	.dwattr $C$DW$T$125, DW_AT_decl_file("C:/ti/ccs1110/ccs/tools/compiler/ti-cgt-msp430_21.6.1.LTS/include/machine/_types.h")
	.dwattr $C$DW$T$125, DW_AT_decl_line(0x5d)
	.dwattr $C$DW$T$125, DW_AT_decl_column(0x13)

$C$DW$T$126	.dwtag  DW_TAG_typedef
	.dwattr $C$DW$T$126, DW_AT_name("int_least64_t")
	.dwattr $C$DW$T$126, DW_AT_type(*$C$DW$T$125)
	.dwattr $C$DW$T$126, DW_AT_language(DW_LANG_C)
	.dwattr $C$DW$T$126, DW_AT_decl_file("C:/ti/ccs1110/ccs/tools/compiler/ti-cgt-msp430_21.6.1.LTS/include/sys/stdint.h")
	.dwattr $C$DW$T$126, DW_AT_decl_line(0x2d)
	.dwattr $C$DW$T$126, DW_AT_decl_column(0x1a)

$C$DW$T$127	.dwtag  DW_TAG_typedef
	.dwattr $C$DW$T$127, DW_AT_name("__intmax_t")
	.dwattr $C$DW$T$127, DW_AT_type(*$C$DW$T$120)
	.dwattr $C$DW$T$127, DW_AT_language(DW_LANG_C)
	.dwattr $C$DW$T$127, DW_AT_decl_file("C:/ti/ccs1110/ccs/tools/compiler/ti-cgt-msp430_21.6.1.LTS/include/machine/_types.h")
	.dwattr $C$DW$T$127, DW_AT_decl_line(0x4f)
	.dwattr $C$DW$T$127, DW_AT_decl_column(0x13)

$C$DW$T$128	.dwtag  DW_TAG_typedef
	.dwattr $C$DW$T$128, DW_AT_name("intmax_t")
	.dwattr $C$DW$T$128, DW_AT_type(*$C$DW$T$127)
	.dwattr $C$DW$T$128, DW_AT_language(DW_LANG_C)
	.dwattr $C$DW$T$128, DW_AT_decl_file("C:/ti/ccs1110/ccs/tools/compiler/ti-cgt-msp430_21.6.1.LTS/include/sys/_stdint.h")
	.dwattr $C$DW$T$128, DW_AT_decl_line(0x58)
	.dwattr $C$DW$T$128, DW_AT_decl_column(0x15)

$C$DW$T$129	.dwtag  DW_TAG_typedef
	.dwattr $C$DW$T$129, DW_AT_name("__off64_t")
	.dwattr $C$DW$T$129, DW_AT_type(*$C$DW$T$120)
	.dwattr $C$DW$T$129, DW_AT_language(DW_LANG_C)
	.dwattr $C$DW$T$129, DW_AT_decl_file("C:/ti/ccs1110/ccs/tools/compiler/ti-cgt-msp430_21.6.1.LTS/include/sys/_types.h")
	.dwattr $C$DW$T$129, DW_AT_decl_line(0x3f)
	.dwattr $C$DW$T$129, DW_AT_decl_column(0x13)

$C$DW$T$130	.dwtag  DW_TAG_typedef
	.dwattr $C$DW$T$130, DW_AT_name("__rlim_t")
	.dwattr $C$DW$T$130, DW_AT_type(*$C$DW$T$120)
	.dwattr $C$DW$T$130, DW_AT_language(DW_LANG_C)
	.dwattr $C$DW$T$130, DW_AT_decl_file("C:/ti/ccs1110/ccs/tools/compiler/ti-cgt-msp430_21.6.1.LTS/include/sys/_types.h")
	.dwattr $C$DW$T$130, DW_AT_decl_line(0x41)
	.dwattr $C$DW$T$130, DW_AT_decl_column(0x13)

$C$DW$T$131	.dwtag  DW_TAG_typedef
	.dwattr $C$DW$T$131, DW_AT_name("int64_t")
	.dwattr $C$DW$T$131, DW_AT_type(*$C$DW$T$120)
	.dwattr $C$DW$T$131, DW_AT_language(DW_LANG_C)
	.dwattr $C$DW$T$131, DW_AT_decl_file("C:/ti/ccs1110/ccs/tools/compiler/ti-cgt-msp430_21.6.1.LTS/include/sys/_stdint.h")
	.dwattr $C$DW$T$131, DW_AT_decl_line(0x35)
	.dwattr $C$DW$T$131, DW_AT_decl_column(0x14)

$C$DW$T$15	.dwtag  DW_TAG_base_type
	.dwattr $C$DW$T$15, DW_AT_encoding(DW_ATE_unsigned)
	.dwattr $C$DW$T$15, DW_AT_name("unsigned long long")
	.dwattr $C$DW$T$15, DW_AT_byte_size(0x08)

$C$DW$T$132	.dwtag  DW_TAG_typedef
	.dwattr $C$DW$T$132, DW_AT_name("__uint64_t")
	.dwattr $C$DW$T$132, DW_AT_type(*$C$DW$T$15)
	.dwattr $C$DW$T$132, DW_AT_language(DW_LANG_C)
	.dwattr $C$DW$T$132, DW_AT_decl_file("C:/ti/ccs1110/ccs/tools/compiler/ti-cgt-msp430_21.6.1.LTS/include/machine/_types.h")
	.dwattr $C$DW$T$132, DW_AT_decl_line(0x45)
	.dwattr $C$DW$T$132, DW_AT_decl_column(0x1c)

$C$DW$T$133	.dwtag  DW_TAG_typedef
	.dwattr $C$DW$T$133, DW_AT_name("__dev_t")
	.dwattr $C$DW$T$133, DW_AT_type(*$C$DW$T$132)
	.dwattr $C$DW$T$133, DW_AT_language(DW_LANG_C)
	.dwattr $C$DW$T$133, DW_AT_decl_file("C:/ti/ccs1110/ccs/tools/compiler/ti-cgt-msp430_21.6.1.LTS/include/sys/_types.h")
	.dwattr $C$DW$T$133, DW_AT_decl_line(0x7f)
	.dwattr $C$DW$T$133, DW_AT_decl_column(0x14)

$C$DW$T$134	.dwtag  DW_TAG_typedef
	.dwattr $C$DW$T$134, DW_AT_name("__fsblkcnt_t")
	.dwattr $C$DW$T$134, DW_AT_type(*$C$DW$T$132)
	.dwattr $C$DW$T$134, DW_AT_language(DW_LANG_C)
	.dwattr $C$DW$T$134, DW_AT_decl_file("C:/ti/ccs1110/ccs/tools/compiler/ti-cgt-msp430_21.6.1.LTS/include/sys/_types.h")
	.dwattr $C$DW$T$134, DW_AT_decl_line(0x33)
	.dwattr $C$DW$T$134, DW_AT_decl_column(0x14)

$C$DW$T$135	.dwtag  DW_TAG_typedef
	.dwattr $C$DW$T$135, DW_AT_name("__fsfilcnt_t")
	.dwattr $C$DW$T$135, DW_AT_type(*$C$DW$T$132)
	.dwattr $C$DW$T$135, DW_AT_language(DW_LANG_C)
	.dwattr $C$DW$T$135, DW_AT_decl_file("C:/ti/ccs1110/ccs/tools/compiler/ti-cgt-msp430_21.6.1.LTS/include/sys/_types.h")
	.dwattr $C$DW$T$135, DW_AT_decl_line(0x34)
	.dwattr $C$DW$T$135, DW_AT_decl_column(0x14)

$C$DW$T$136	.dwtag  DW_TAG_typedef
	.dwattr $C$DW$T$136, DW_AT_name("__ino_t")
	.dwattr $C$DW$T$136, DW_AT_type(*$C$DW$T$132)
	.dwattr $C$DW$T$136, DW_AT_language(DW_LANG_C)
	.dwattr $C$DW$T$136, DW_AT_decl_file("C:/ti/ccs1110/ccs/tools/compiler/ti-cgt-msp430_21.6.1.LTS/include/sys/_types.h")
	.dwattr $C$DW$T$136, DW_AT_decl_line(0x37)
	.dwattr $C$DW$T$136, DW_AT_decl_column(0x14)

$C$DW$T$137	.dwtag  DW_TAG_typedef
	.dwattr $C$DW$T$137, DW_AT_name("__nlink_t")
	.dwattr $C$DW$T$137, DW_AT_type(*$C$DW$T$132)
	.dwattr $C$DW$T$137, DW_AT_language(DW_LANG_C)
	.dwattr $C$DW$T$137, DW_AT_decl_file("C:/ti/ccs1110/ccs/tools/compiler/ti-cgt-msp430_21.6.1.LTS/include/sys/_types.h")
	.dwattr $C$DW$T$137, DW_AT_decl_line(0x3d)
	.dwattr $C$DW$T$137, DW_AT_decl_column(0x14)

$C$DW$T$138	.dwtag  DW_TAG_typedef
	.dwattr $C$DW$T$138, DW_AT_name("__uint_fast64_t")
	.dwattr $C$DW$T$138, DW_AT_type(*$C$DW$T$132)
	.dwattr $C$DW$T$138, DW_AT_language(DW_LANG_C)
	.dwattr $C$DW$T$138, DW_AT_decl_file("C:/ti/ccs1110/ccs/tools/compiler/ti-cgt-msp430_21.6.1.LTS/include/machine/_types.h")
	.dwattr $C$DW$T$138, DW_AT_decl_line(0x73)
	.dwattr $C$DW$T$138, DW_AT_decl_column(0x14)

$C$DW$T$139	.dwtag  DW_TAG_typedef
	.dwattr $C$DW$T$139, DW_AT_name("uint_fast64_t")
	.dwattr $C$DW$T$139, DW_AT_type(*$C$DW$T$138)
	.dwattr $C$DW$T$139, DW_AT_language(DW_LANG_C)
	.dwattr $C$DW$T$139, DW_AT_decl_file("C:/ti/ccs1110/ccs/tools/compiler/ti-cgt-msp430_21.6.1.LTS/include/sys/stdint.h")
	.dwattr $C$DW$T$139, DW_AT_decl_line(0x3c)
	.dwattr $C$DW$T$139, DW_AT_decl_column(0x1a)

$C$DW$T$140	.dwtag  DW_TAG_typedef
	.dwattr $C$DW$T$140, DW_AT_name("__uint_least64_t")
	.dwattr $C$DW$T$140, DW_AT_type(*$C$DW$T$132)
	.dwattr $C$DW$T$140, DW_AT_language(DW_LANG_C)
	.dwattr $C$DW$T$140, DW_AT_decl_file("C:/ti/ccs1110/ccs/tools/compiler/ti-cgt-msp430_21.6.1.LTS/include/machine/_types.h")
	.dwattr $C$DW$T$140, DW_AT_decl_line(0x77)
	.dwattr $C$DW$T$140, DW_AT_decl_column(0x14)

$C$DW$T$141	.dwtag  DW_TAG_typedef
	.dwattr $C$DW$T$141, DW_AT_name("uint_least64_t")
	.dwattr $C$DW$T$141, DW_AT_type(*$C$DW$T$140)
	.dwattr $C$DW$T$141, DW_AT_language(DW_LANG_C)
	.dwattr $C$DW$T$141, DW_AT_decl_file("C:/ti/ccs1110/ccs/tools/compiler/ti-cgt-msp430_21.6.1.LTS/include/sys/stdint.h")
	.dwattr $C$DW$T$141, DW_AT_decl_line(0x32)
	.dwattr $C$DW$T$141, DW_AT_decl_column(0x1a)

$C$DW$T$142	.dwtag  DW_TAG_typedef
	.dwattr $C$DW$T$142, DW_AT_name("__uintmax_t")
	.dwattr $C$DW$T$142, DW_AT_type(*$C$DW$T$132)
	.dwattr $C$DW$T$142, DW_AT_language(DW_LANG_C)
	.dwattr $C$DW$T$142, DW_AT_decl_file("C:/ti/ccs1110/ccs/tools/compiler/ti-cgt-msp430_21.6.1.LTS/include/machine/_types.h")
	.dwattr $C$DW$T$142, DW_AT_decl_line(0x69)
	.dwattr $C$DW$T$142, DW_AT_decl_column(0x14)

$C$DW$T$143	.dwtag  DW_TAG_typedef
	.dwattr $C$DW$T$143, DW_AT_name("__rman_res_t")
	.dwattr $C$DW$T$143, DW_AT_type(*$C$DW$T$142)
	.dwattr $C$DW$T$143, DW_AT_language(DW_LANG_C)
	.dwattr $C$DW$T$143, DW_AT_decl_file("C:/ti/ccs1110/ccs/tools/compiler/ti-cgt-msp430_21.6.1.LTS/include/sys/_types.h")
	.dwattr $C$DW$T$143, DW_AT_decl_line(0x9a)
	.dwattr $C$DW$T$143, DW_AT_decl_column(0x19)

$C$DW$T$144	.dwtag  DW_TAG_typedef
	.dwattr $C$DW$T$144, DW_AT_name("uintmax_t")
	.dwattr $C$DW$T$144, DW_AT_type(*$C$DW$T$142)
	.dwattr $C$DW$T$144, DW_AT_language(DW_LANG_C)
	.dwattr $C$DW$T$144, DW_AT_decl_file("C:/ti/ccs1110/ccs/tools/compiler/ti-cgt-msp430_21.6.1.LTS/include/sys/_stdint.h")
	.dwattr $C$DW$T$144, DW_AT_decl_line(0x5c)
	.dwattr $C$DW$T$144, DW_AT_decl_column(0x16)

$C$DW$T$145	.dwtag  DW_TAG_typedef
	.dwattr $C$DW$T$145, DW_AT_name("uint64_t")
	.dwattr $C$DW$T$145, DW_AT_type(*$C$DW$T$132)
	.dwattr $C$DW$T$145, DW_AT_language(DW_LANG_C)
	.dwattr $C$DW$T$145, DW_AT_decl_file("C:/ti/ccs1110/ccs/tools/compiler/ti-cgt-msp430_21.6.1.LTS/include/sys/_stdint.h")
	.dwattr $C$DW$T$145, DW_AT_decl_line(0x4b)
	.dwattr $C$DW$T$145, DW_AT_decl_column(0x15)

$C$DW$T$16	.dwtag  DW_TAG_base_type
	.dwattr $C$DW$T$16, DW_AT_encoding(DW_ATE_float)
	.dwattr $C$DW$T$16, DW_AT_name("float")
	.dwattr $C$DW$T$16, DW_AT_byte_size(0x04)

$C$DW$T$146	.dwtag  DW_TAG_typedef
	.dwattr $C$DW$T$146, DW_AT_name("__float_t")
	.dwattr $C$DW$T$146, DW_AT_type(*$C$DW$T$16)
	.dwattr $C$DW$T$146, DW_AT_language(DW_LANG_C)
	.dwattr $C$DW$T$146, DW_AT_decl_file("C:/ti/ccs1110/ccs/tools/compiler/ti-cgt-msp430_21.6.1.LTS/include/machine/_types.h")
	.dwattr $C$DW$T$146, DW_AT_decl_line(0x4d)
	.dwattr $C$DW$T$146, DW_AT_decl_column(0x10)

$C$DW$T$17	.dwtag  DW_TAG_base_type
	.dwattr $C$DW$T$17, DW_AT_encoding(DW_ATE_float)
	.dwattr $C$DW$T$17, DW_AT_name("double")
	.dwattr $C$DW$T$17, DW_AT_byte_size(0x08)

$C$DW$T$147	.dwtag  DW_TAG_typedef
	.dwattr $C$DW$T$147, DW_AT_name("__double_t")
	.dwattr $C$DW$T$147, DW_AT_type(*$C$DW$T$17)
	.dwattr $C$DW$T$147, DW_AT_language(DW_LANG_C)
	.dwattr $C$DW$T$147, DW_AT_decl_file("C:/ti/ccs1110/ccs/tools/compiler/ti-cgt-msp430_21.6.1.LTS/include/machine/_types.h")
	.dwattr $C$DW$T$147, DW_AT_decl_line(0x4c)
	.dwattr $C$DW$T$147, DW_AT_decl_column(0x11)

$C$DW$T$18	.dwtag  DW_TAG_base_type
	.dwattr $C$DW$T$18, DW_AT_encoding(DW_ATE_float)
	.dwattr $C$DW$T$18, DW_AT_name("long double")
	.dwattr $C$DW$T$18, DW_AT_byte_size(0x08)

$C$DW$T$149	.dwtag  DW_TAG_pointer_type
	.dwattr $C$DW$T$149, DW_AT_type(*$C$DW$T$6)
	.dwattr $C$DW$T$149, DW_AT_address_class(0x10)

$C$DW$T$150	.dwtag  DW_TAG_typedef
	.dwattr $C$DW$T$150, DW_AT_name("__va_list")
	.dwattr $C$DW$T$150, DW_AT_type(*$C$DW$T$149)
	.dwattr $C$DW$T$150, DW_AT_language(DW_LANG_C)
	.dwattr $C$DW$T$150, DW_AT_decl_file("C:/ti/ccs1110/ccs/tools/compiler/ti-cgt-msp430_21.6.1.LTS/include/machine/_types.h")
	.dwattr $C$DW$T$150, DW_AT_decl_line(0x92)
	.dwattr $C$DW$T$150, DW_AT_decl_column(0x0f)


$C$DW$T$19	.dwtag  DW_TAG_structure_type
	.dwattr $C$DW$T$19, DW_AT_name("__mq")
	.dwattr $C$DW$T$19, DW_AT_declaration
	.dwattr $C$DW$T$19, DW_AT_decl_file("C:/ti/ccs1110/ccs/tools/compiler/ti-cgt-msp430_21.6.1.LTS/include/sys/_types.h")
	.dwattr $C$DW$T$19, DW_AT_decl_line(0x4c)
	.dwattr $C$DW$T$19, DW_AT_decl_column(0x10)
	.dwendtag $C$DW$T$19

$C$DW$T$151	.dwtag  DW_TAG_pointer_type
	.dwattr $C$DW$T$151, DW_AT_type(*$C$DW$T$19)
	.dwattr $C$DW$T$151, DW_AT_address_class(0x10)

$C$DW$T$152	.dwtag  DW_TAG_typedef
	.dwattr $C$DW$T$152, DW_AT_name("__mqd_t")
	.dwattr $C$DW$T$152, DW_AT_type(*$C$DW$T$151)
	.dwattr $C$DW$T$152, DW_AT_language(DW_LANG_C)
	.dwattr $C$DW$T$152, DW_AT_decl_file("C:/ti/ccs1110/ccs/tools/compiler/ti-cgt-msp430_21.6.1.LTS/include/sys/_types.h")
	.dwattr $C$DW$T$152, DW_AT_decl_line(0x4c)
	.dwattr $C$DW$T$152, DW_AT_decl_column(0x16)


$C$DW$T$20	.dwtag  DW_TAG_structure_type
	.dwattr $C$DW$T$20, DW_AT_name("__timer")
	.dwattr $C$DW$T$20, DW_AT_declaration
	.dwattr $C$DW$T$20, DW_AT_decl_file("C:/ti/ccs1110/ccs/tools/compiler/ti-cgt-msp430_21.6.1.LTS/include/sys/_types.h")
	.dwattr $C$DW$T$20, DW_AT_decl_line(0x4b)
	.dwattr $C$DW$T$20, DW_AT_decl_column(0x10)
	.dwendtag $C$DW$T$20

$C$DW$T$153	.dwtag  DW_TAG_pointer_type
	.dwattr $C$DW$T$153, DW_AT_type(*$C$DW$T$20)
	.dwattr $C$DW$T$153, DW_AT_address_class(0x10)

$C$DW$T$154	.dwtag  DW_TAG_typedef
	.dwattr $C$DW$T$154, DW_AT_name("__timer_t")
	.dwattr $C$DW$T$154, DW_AT_type(*$C$DW$T$153)
	.dwattr $C$DW$T$154, DW_AT_language(DW_LANG_C)
	.dwattr $C$DW$T$154, DW_AT_decl_file("C:/ti/ccs1110/ccs/tools/compiler/ti-cgt-msp430_21.6.1.LTS/include/sys/_types.h")
	.dwattr $C$DW$T$154, DW_AT_decl_line(0x4b)
	.dwattr $C$DW$T$154, DW_AT_decl_column(0x19)

	.dwattr $C$DW$CU, DW_AT_language(DW_LANG_C)

;***************************************************************
;* DWARF CIE ENTRIES                                           *
;***************************************************************

$C$DW$CIE	.dwcie 16
	.dwcfi	cfa_register, 1
	.dwcfi	cfa_offset, 0
	.dwcfi	same_value, 0
	.dwcfi	same_value, 1
	.dwcfi	same_value, 3
	.dwcfi	same_value, 4
	.dwcfi	same_value, 5
	.dwcfi	same_value, 6
	.dwcfi	same_value, 7
	.dwcfi	same_value, 8
	.dwcfi	same_value, 9
	.dwcfi	same_value, 10
	.dwendentry

;***************************************************************
;* DWARF REGISTER MAP                                          *
;***************************************************************

$C$DW$117	.dwtag  DW_TAG_TI_assign_register
	.dwattr $C$DW$117, DW_AT_name("PC")
	.dwattr $C$DW$117, DW_AT_location[DW_OP_reg0]

$C$DW$118	.dwtag  DW_TAG_TI_assign_register
	.dwattr $C$DW$118, DW_AT_name("SP")
	.dwattr $C$DW$118, DW_AT_location[DW_OP_reg1]

$C$DW$119	.dwtag  DW_TAG_TI_assign_register
	.dwattr $C$DW$119, DW_AT_name("SR")
	.dwattr $C$DW$119, DW_AT_location[DW_OP_reg2]

$C$DW$120	.dwtag  DW_TAG_TI_assign_register
	.dwattr $C$DW$120, DW_AT_name("CG")
	.dwattr $C$DW$120, DW_AT_location[DW_OP_reg3]

$C$DW$121	.dwtag  DW_TAG_TI_assign_register
	.dwattr $C$DW$121, DW_AT_name("r4")
	.dwattr $C$DW$121, DW_AT_location[DW_OP_reg4]

$C$DW$122	.dwtag  DW_TAG_TI_assign_register
	.dwattr $C$DW$122, DW_AT_name("r5")
	.dwattr $C$DW$122, DW_AT_location[DW_OP_reg5]

$C$DW$123	.dwtag  DW_TAG_TI_assign_register
	.dwattr $C$DW$123, DW_AT_name("r6")
	.dwattr $C$DW$123, DW_AT_location[DW_OP_reg6]

$C$DW$124	.dwtag  DW_TAG_TI_assign_register
	.dwattr $C$DW$124, DW_AT_name("r7")
	.dwattr $C$DW$124, DW_AT_location[DW_OP_reg7]

$C$DW$125	.dwtag  DW_TAG_TI_assign_register
	.dwattr $C$DW$125, DW_AT_name("r8")
	.dwattr $C$DW$125, DW_AT_location[DW_OP_reg8]

$C$DW$126	.dwtag  DW_TAG_TI_assign_register
	.dwattr $C$DW$126, DW_AT_name("r9")
	.dwattr $C$DW$126, DW_AT_location[DW_OP_reg9]

$C$DW$127	.dwtag  DW_TAG_TI_assign_register
	.dwattr $C$DW$127, DW_AT_name("r10")
	.dwattr $C$DW$127, DW_AT_location[DW_OP_reg10]

$C$DW$128	.dwtag  DW_TAG_TI_assign_register
	.dwattr $C$DW$128, DW_AT_name("r11")
	.dwattr $C$DW$128, DW_AT_location[DW_OP_reg11]

$C$DW$129	.dwtag  DW_TAG_TI_assign_register
	.dwattr $C$DW$129, DW_AT_name("r12")
	.dwattr $C$DW$129, DW_AT_location[DW_OP_reg12]

$C$DW$130	.dwtag  DW_TAG_TI_assign_register
	.dwattr $C$DW$130, DW_AT_name("r13")
	.dwattr $C$DW$130, DW_AT_location[DW_OP_reg13]

$C$DW$131	.dwtag  DW_TAG_TI_assign_register
	.dwattr $C$DW$131, DW_AT_name("r14")
	.dwattr $C$DW$131, DW_AT_location[DW_OP_reg14]

$C$DW$132	.dwtag  DW_TAG_TI_assign_register
	.dwattr $C$DW$132, DW_AT_name("r15")
	.dwattr $C$DW$132, DW_AT_location[DW_OP_reg15]

$C$DW$133	.dwtag  DW_TAG_TI_assign_register
	.dwattr $C$DW$133, DW_AT_name("CIE_RETA")
	.dwattr $C$DW$133, DW_AT_location[DW_OP_reg16]

	.dwendtag $C$DW$CU

