;******************************************************************************
;* MSP430 G3 C/C++ Codegen                                              PC v21.6.1.LTS *
;* Date/Time created: Wed Nov 30 16:35:36 2022                                *
;******************************************************************************
	.compiler_opts --abi=eabi --diag_wrap=off --hll_source=on --mem_model:code=large --mem_model:data=small --object_format=elf --silicon_errata=CPU21 --silicon_errata=CPU22 --silicon_errata=CPU40 --silicon_version=mspx --symdebug:dwarf --symdebug:dwarf_version=3 

$C$DW$CU	.dwtag  DW_TAG_compile_unit
	.dwattr $C$DW$CU, DW_AT_name("../driverlib/MSP430FR2xx_4xx/lcd_e.c")
	.dwattr $C$DW$CU, DW_AT_producer("TI MSP430 G3 C/C++ Codegen PC v21.6.1.LTS Copyright (c) 2003-2018 Texas Instruments Incorporated")
	.dwattr $C$DW$CU, DW_AT_TI_version(0x01)
	.dwattr $C$DW$CU, DW_AT_comp_dir("C:\ccs_challengespace\MSP430_LCD_display\Debug")
	.global	LCD_E_INIT_PARAM
	.sect	".const:LCD_E_INIT_PARAM"
	.align	2
	.elfsym	LCD_E_INIT_PARAM,SYM_SIZE(10)
LCD_E_INIT_PARAM:
	.bits		0,16
			; LCD_E_INIT_PARAM.clockSource @ 0
	.bits		0,16
			; LCD_E_INIT_PARAM.clockDivider @ 16
	.bits		0,16
			; LCD_E_INIT_PARAM.muxRate @ 32
	.bits		0,16
			; LCD_E_INIT_PARAM.waveforms @ 48
	.bits		0,16
			; LCD_E_INIT_PARAM.segments @ 64

$C$DW$1	.dwtag  DW_TAG_variable
	.dwattr $C$DW$1, DW_AT_name("LCD_E_INIT_PARAM")
	.dwattr $C$DW$1, DW_AT_TI_symbol_name("LCD_E_INIT_PARAM")
	.dwattr $C$DW$1, DW_AT_location[DW_OP_addr LCD_E_INIT_PARAM]
	.dwattr $C$DW$1, DW_AT_type(*$C$DW$T$27)
	.dwattr $C$DW$1, DW_AT_external
	.dwattr $C$DW$1, DW_AT_decl_file("../driverlib/MSP430FR2xx_4xx/lcd_e.c")
	.dwattr $C$DW$1, DW_AT_decl_line(0x5b)
	.dwattr $C$DW$1, DW_AT_decl_column(0x17)

;	C:\ti\ccs1110\ccs\tools\compiler\ti-cgt-msp430_21.6.1.LTS\bin\acpia430.exe -@C:\\Users\\DAVID~1.AND\\AppData\\Local\\Temp\\{CC9CC7B3-C021-4EE0-A81F-FCD7A1D0463C} 
	.sect	".text:setLCDFunction"
	.clink

$C$DW$2	.dwtag  DW_TAG_subprogram
	.dwattr $C$DW$2, DW_AT_name("setLCDFunction")
	.dwattr $C$DW$2, DW_AT_low_pc(setLCDFunction)
	.dwattr $C$DW$2, DW_AT_high_pc(0x00)
	.dwattr $C$DW$2, DW_AT_TI_symbol_name("setLCDFunction")
	.dwattr $C$DW$2, DW_AT_TI_begin_file("../driverlib/MSP430FR2xx_4xx/lcd_e.c")
	.dwattr $C$DW$2, DW_AT_TI_begin_line(0x63)
	.dwattr $C$DW$2, DW_AT_TI_begin_column(0x0d)
	.dwattr $C$DW$2, DW_AT_decl_file("../driverlib/MSP430FR2xx_4xx/lcd_e.c")
	.dwattr $C$DW$2, DW_AT_decl_line(0x63)
	.dwattr $C$DW$2, DW_AT_decl_column(0x0d)
	.dwattr $C$DW$2, DW_AT_TI_max_frame_size(0x0a)
	.dwpsn	file "../driverlib/MSP430FR2xx_4xx/lcd_e.c",line 100,column 1,is_stmt,address setLCDFunction,isa 0

	.dwfde $C$DW$CIE, setLCDFunction
$C$DW$3	.dwtag  DW_TAG_formal_parameter
	.dwattr $C$DW$3, DW_AT_name("baseAddress")
	.dwattr $C$DW$3, DW_AT_TI_symbol_name("baseAddress")
	.dwattr $C$DW$3, DW_AT_type(*$C$DW$T$23)
	.dwattr $C$DW$3, DW_AT_location[DW_OP_reg12]

$C$DW$4	.dwtag  DW_TAG_formal_parameter
	.dwattr $C$DW$4, DW_AT_name("index")
	.dwattr $C$DW$4, DW_AT_TI_symbol_name("index")
	.dwattr $C$DW$4, DW_AT_type(*$C$DW$T$30)
	.dwattr $C$DW$4, DW_AT_location[DW_OP_reg13]

$C$DW$5	.dwtag  DW_TAG_formal_parameter
	.dwattr $C$DW$5, DW_AT_name("value")
	.dwattr $C$DW$5, DW_AT_TI_symbol_name("value")
	.dwattr $C$DW$5, DW_AT_type(*$C$DW$T$23)
	.dwattr $C$DW$5, DW_AT_location[DW_OP_reg14]


;*****************************************************************************
;* FUNCTION NAME: setLCDFunction                                             *
;*                                                                           *
;*   Regs Modified     : SP,SR,r15                                           *
;*   Regs Used         : SP,SR,r12,r13,r14,r15                               *
;*   Local Frame Size  : 0 Args + 6 Auto + 0 Save = 6 byte                   *
;*****************************************************************************
setLCDFunction:
;* --------------------------------------------------------------------------*
	.dwcfi	cfa_offset, 4
	.dwcfi	save_reg_to_mem, 16, -4
        SUB.W     #6,SP                 ; [] 
	.dwcfi	cfa_offset, 10
$C$DW$6	.dwtag  DW_TAG_variable
	.dwattr $C$DW$6, DW_AT_name("baseAddress")
	.dwattr $C$DW$6, DW_AT_TI_symbol_name("baseAddress")
	.dwattr $C$DW$6, DW_AT_type(*$C$DW$T$23)
	.dwattr $C$DW$6, DW_AT_location[DW_OP_breg1 0]

$C$DW$7	.dwtag  DW_TAG_variable
	.dwattr $C$DW$7, DW_AT_name("value")
	.dwattr $C$DW$7, DW_AT_TI_symbol_name("value")
	.dwattr $C$DW$7, DW_AT_type(*$C$DW$T$23)
	.dwattr $C$DW$7, DW_AT_location[DW_OP_breg1 2]

$C$DW$8	.dwtag  DW_TAG_variable
	.dwattr $C$DW$8, DW_AT_name("index")
	.dwattr $C$DW$8, DW_AT_TI_symbol_name("index")
	.dwattr $C$DW$8, DW_AT_type(*$C$DW$T$30)
	.dwattr $C$DW$8, DW_AT_location[DW_OP_breg1 4]

        MOV.W     r14,2(SP)             ; [] |100| 
        MOV.B     r13,4(SP)             ; [] |100| 
        MOV.W     r12,0(SP)             ; [] |100| 
	.dwpsn	file "../driverlib/MSP430FR2xx_4xx/lcd_e.c",line 101,column 5,is_stmt,isa 0
        JMP       $C$L4                 ; [] |101| 
                                          ; [] |101| 
;* --------------------------------------------------------------------------*
$C$L1:    
	.dwpsn	file "../driverlib/MSP430FR2xx_4xx/lcd_e.c",line 103,column 9,is_stmt,isa 0
        MOV.W     #10,r15               ; [] |103| 
        ADD.W     0(SP),r15             ; [] |103| 
        OR.W      2(SP),0(r15)          ; [] |103| 
	.dwpsn	file "../driverlib/MSP430FR2xx_4xx/lcd_e.c",line 104,column 9,is_stmt,isa 0
        JMP       $C$L5                 ; [] |104| 
                                          ; [] |104| 
;* --------------------------------------------------------------------------*
$C$L2:    
	.dwpsn	file "../driverlib/MSP430FR2xx_4xx/lcd_e.c",line 106,column 9,is_stmt,isa 0
        MOV.W     #12,r15               ; [] |106| 
        ADD.W     0(SP),r15             ; [] |106| 
        OR.W      2(SP),0(r15)          ; [] |106| 
	.dwpsn	file "../driverlib/MSP430FR2xx_4xx/lcd_e.c",line 107,column 9,is_stmt,isa 0
        JMP       $C$L5                 ; [] |107| 
                                          ; [] |107| 
;* --------------------------------------------------------------------------*
$C$L3:    
	.dwpsn	file "../driverlib/MSP430FR2xx_4xx/lcd_e.c",line 109,column 9,is_stmt,isa 0
        MOV.W     #14,r15               ; [] |109| 
        ADD.W     0(SP),r15             ; [] |109| 
        OR.W      2(SP),0(r15)          ; [] |109| 
	.dwpsn	file "../driverlib/MSP430FR2xx_4xx/lcd_e.c",line 110,column 9,is_stmt,isa 0
        JMP       $C$L5                 ; [] |110| 
                                          ; [] |110| 
;* --------------------------------------------------------------------------*
;* --------------------------------------------------------------------------*
$C$L4:    
	.dwpsn	file "../driverlib/MSP430FR2xx_4xx/lcd_e.c",line 101,column 5,is_stmt,isa 0
        MOV.B     4(SP),r15             ; [] |101| 
        TST.W     r15                   ; [] |101| 
        JEQ       $C$L1                 ; [] |101| 
                                          ; [] |101| 
;* --------------------------------------------------------------------------*
        SUB.W     #1,r15                ; [] |101| 
        JEQ       $C$L2                 ; [] |101| 
                                          ; [] |101| 
;* --------------------------------------------------------------------------*
        SUB.W     #1,r15                ; [] |101| 
        JEQ       $C$L3                 ; [] |101| 
                                          ; [] |101| 
;* --------------------------------------------------------------------------*
        JMP       $C$L5                 ; [] |101| 
                                          ; [] |101| 
;* --------------------------------------------------------------------------*
;* --------------------------------------------------------------------------*
$C$L5:    
        ADD.W     #6,SP                 ; [] 
	.dwcfi	cfa_offset, 4
$C$DW$9	.dwtag  DW_TAG_TI_branch
	.dwattr $C$DW$9, DW_AT_low_pc(0x00)
	.dwattr $C$DW$9, DW_AT_TI_return

        RETA      ; [] 
        ; [] 
	.dwattr $C$DW$2, DW_AT_TI_end_file("../driverlib/MSP430FR2xx_4xx/lcd_e.c")
	.dwattr $C$DW$2, DW_AT_TI_end_line(0x71)
	.dwattr $C$DW$2, DW_AT_TI_end_column(0x01)
	.dwendentry
	.dwendtag $C$DW$2

	.sect	".text:LCD_E_init"
	.clink
	.global	LCD_E_init

$C$DW$10	.dwtag  DW_TAG_subprogram
	.dwattr $C$DW$10, DW_AT_name("LCD_E_init")
	.dwattr $C$DW$10, DW_AT_low_pc(LCD_E_init)
	.dwattr $C$DW$10, DW_AT_high_pc(0x00)
	.dwattr $C$DW$10, DW_AT_TI_symbol_name("LCD_E_init")
	.dwattr $C$DW$10, DW_AT_external
	.dwattr $C$DW$10, DW_AT_TI_begin_file("../driverlib/MSP430FR2xx_4xx/lcd_e.c")
	.dwattr $C$DW$10, DW_AT_TI_begin_line(0x73)
	.dwattr $C$DW$10, DW_AT_TI_begin_column(0x06)
	.dwattr $C$DW$10, DW_AT_decl_file("../driverlib/MSP430FR2xx_4xx/lcd_e.c")
	.dwattr $C$DW$10, DW_AT_decl_line(0x73)
	.dwattr $C$DW$10, DW_AT_decl_column(0x06)
	.dwattr $C$DW$10, DW_AT_TI_max_frame_size(0x08)
	.dwpsn	file "../driverlib/MSP430FR2xx_4xx/lcd_e.c",line 117,column 1,is_stmt,address LCD_E_init,isa 0

	.dwfde $C$DW$CIE, LCD_E_init
$C$DW$11	.dwtag  DW_TAG_formal_parameter
	.dwattr $C$DW$11, DW_AT_name("baseAddress")
	.dwattr $C$DW$11, DW_AT_TI_symbol_name("baseAddress")
	.dwattr $C$DW$11, DW_AT_type(*$C$DW$T$23)
	.dwattr $C$DW$11, DW_AT_location[DW_OP_reg12]

$C$DW$12	.dwtag  DW_TAG_formal_parameter
	.dwattr $C$DW$12, DW_AT_name("initParams")
	.dwattr $C$DW$12, DW_AT_TI_symbol_name("initParams")
	.dwattr $C$DW$12, DW_AT_type(*$C$DW$T$28)
	.dwattr $C$DW$12, DW_AT_location[DW_OP_reg13]


;*****************************************************************************
;* FUNCTION NAME: LCD_E_init                                                 *
;*                                                                           *
;*   Regs Modified     : SP,SR,r14,r15                                       *
;*   Regs Used         : SP,SR,r12,r13,r14,r15                               *
;*   Local Frame Size  : 0 Args + 4 Auto + 0 Save = 4 byte                   *
;*****************************************************************************
LCD_E_init:
;* --------------------------------------------------------------------------*
	.dwcfi	cfa_offset, 4
	.dwcfi	save_reg_to_mem, 16, -4
        SUB.W     #4,SP                 ; [] 
	.dwcfi	cfa_offset, 8
$C$DW$13	.dwtag  DW_TAG_variable
	.dwattr $C$DW$13, DW_AT_name("baseAddress")
	.dwattr $C$DW$13, DW_AT_TI_symbol_name("baseAddress")
	.dwattr $C$DW$13, DW_AT_type(*$C$DW$T$23)
	.dwattr $C$DW$13, DW_AT_location[DW_OP_breg1 0]

$C$DW$14	.dwtag  DW_TAG_variable
	.dwattr $C$DW$14, DW_AT_name("initParams")
	.dwattr $C$DW$14, DW_AT_TI_symbol_name("initParams")
	.dwattr $C$DW$14, DW_AT_type(*$C$DW$T$28)
	.dwattr $C$DW$14, DW_AT_location[DW_OP_breg1 2]

        MOV.W     r13,2(SP)             ; [] |117| 
        MOV.W     r12,0(SP)             ; [] |117| 
	.dwpsn	file "../driverlib/MSP430FR2xx_4xx/lcd_e.c",line 118,column 5,is_stmt,isa 0
        MOV.W     0(SP),r15             ; [] |118| 
        BIC.W     #1,0(r15)             ; [] |118| 
	.dwpsn	file "../driverlib/MSP430FR2xx_4xx/lcd_e.c",line 119,column 5,is_stmt,isa 0
        MOV.W     0(SP),r15             ; [] |119| 
        AND.W     #1793,0(r15)          ; [] |119| 
	.dwpsn	file "../driverlib/MSP430FR2xx_4xx/lcd_e.c",line 121,column 5,is_stmt,isa 0
        MOV.W     0(SP),r14             ; [] |121| 
        MOV.W     2(SP),r15             ; [] |121| 
        OR.W      4(r15),0(r14)         ; [] |121| 
	.dwpsn	file "../driverlib/MSP430FR2xx_4xx/lcd_e.c",line 122,column 5,is_stmt,isa 0
        MOV.W     0(SP),r14             ; [] |122| 
        MOV.W     2(SP),r15             ; [] |122| 
        OR.W      @r15,0(r14)           ; [] |122| 
	.dwpsn	file "../driverlib/MSP430FR2xx_4xx/lcd_e.c",line 123,column 5,is_stmt,isa 0
        MOV.W     0(SP),r14             ; [] |123| 
        MOV.W     2(SP),r15             ; [] |123| 
        OR.W      6(r15),0(r14)         ; [] |123| 
	.dwpsn	file "../driverlib/MSP430FR2xx_4xx/lcd_e.c",line 124,column 5,is_stmt,isa 0
        MOV.W     0(SP),r14             ; [] |124| 
        MOV.W     2(SP),r15             ; [] |124| 
        OR.W      8(r15),0(r14)         ; [] |124| 
	.dwpsn	file "../driverlib/MSP430FR2xx_4xx/lcd_e.c",line 125,column 5,is_stmt,isa 0
        MOV.W     0(SP),r14             ; [] |125| 
        MOV.W     2(SP),r15             ; [] |125| 
        OR.W      2(r15),0(r14)         ; [] |125| 
	.dwpsn	file "../driverlib/MSP430FR2xx_4xx/lcd_e.c",line 126,column 1,is_stmt,isa 0
        ADD.W     #4,SP                 ; [] 
	.dwcfi	cfa_offset, 4
$C$DW$15	.dwtag  DW_TAG_TI_branch
	.dwattr $C$DW$15, DW_AT_low_pc(0x00)
	.dwattr $C$DW$15, DW_AT_TI_return

        RETA      ; [] 
        ; [] 
	.dwattr $C$DW$10, DW_AT_TI_end_file("../driverlib/MSP430FR2xx_4xx/lcd_e.c")
	.dwattr $C$DW$10, DW_AT_TI_end_line(0x7e)
	.dwattr $C$DW$10, DW_AT_TI_end_column(0x01)
	.dwendentry
	.dwendtag $C$DW$10

	.sect	".text:LCD_E_on"
	.clink
	.global	LCD_E_on

$C$DW$16	.dwtag  DW_TAG_subprogram
	.dwattr $C$DW$16, DW_AT_name("LCD_E_on")
	.dwattr $C$DW$16, DW_AT_low_pc(LCD_E_on)
	.dwattr $C$DW$16, DW_AT_high_pc(0x00)
	.dwattr $C$DW$16, DW_AT_TI_symbol_name("LCD_E_on")
	.dwattr $C$DW$16, DW_AT_external
	.dwattr $C$DW$16, DW_AT_TI_begin_file("../driverlib/MSP430FR2xx_4xx/lcd_e.c")
	.dwattr $C$DW$16, DW_AT_TI_begin_line(0x80)
	.dwattr $C$DW$16, DW_AT_TI_begin_column(0x06)
	.dwattr $C$DW$16, DW_AT_decl_file("../driverlib/MSP430FR2xx_4xx/lcd_e.c")
	.dwattr $C$DW$16, DW_AT_decl_line(0x80)
	.dwattr $C$DW$16, DW_AT_decl_column(0x06)
	.dwattr $C$DW$16, DW_AT_TI_max_frame_size(0x06)
	.dwpsn	file "../driverlib/MSP430FR2xx_4xx/lcd_e.c",line 129,column 1,is_stmt,address LCD_E_on,isa 0

	.dwfde $C$DW$CIE, LCD_E_on
$C$DW$17	.dwtag  DW_TAG_formal_parameter
	.dwattr $C$DW$17, DW_AT_name("baseAddress")
	.dwattr $C$DW$17, DW_AT_TI_symbol_name("baseAddress")
	.dwattr $C$DW$17, DW_AT_type(*$C$DW$T$23)
	.dwattr $C$DW$17, DW_AT_location[DW_OP_reg12]


;*****************************************************************************
;* FUNCTION NAME: LCD_E_on                                                   *
;*                                                                           *
;*   Regs Modified     : SP,SR,r15                                           *
;*   Regs Used         : SP,SR,r12,r15                                       *
;*   Local Frame Size  : 0 Args + 2 Auto + 0 Save = 2 byte                   *
;*****************************************************************************
LCD_E_on:
;* --------------------------------------------------------------------------*
	.dwcfi	cfa_offset, 4
	.dwcfi	save_reg_to_mem, 16, -4
        SUB.W     #2,SP                 ; [] 
	.dwcfi	cfa_offset, 6
$C$DW$18	.dwtag  DW_TAG_variable
	.dwattr $C$DW$18, DW_AT_name("baseAddress")
	.dwattr $C$DW$18, DW_AT_TI_symbol_name("baseAddress")
	.dwattr $C$DW$18, DW_AT_type(*$C$DW$T$23)
	.dwattr $C$DW$18, DW_AT_location[DW_OP_breg1 0]

        MOV.W     r12,0(SP)             ; [] |129| 
	.dwpsn	file "../driverlib/MSP430FR2xx_4xx/lcd_e.c",line 130,column 5,is_stmt,isa 0
        OR.W      #4096,&0x164          ; [] |130| 
	.dwpsn	file "../driverlib/MSP430FR2xx_4xx/lcd_e.c",line 131,column 5,is_stmt,isa 0
        MOV.W     0(SP),r15             ; [] |131| 
        OR.W      #1,0(r15)             ; [] |131| 
	.dwpsn	file "../driverlib/MSP430FR2xx_4xx/lcd_e.c",line 132,column 1,is_stmt,isa 0
        ADD.W     #2,SP                 ; [] 
	.dwcfi	cfa_offset, 4
$C$DW$19	.dwtag  DW_TAG_TI_branch
	.dwattr $C$DW$19, DW_AT_low_pc(0x00)
	.dwattr $C$DW$19, DW_AT_TI_return

        RETA      ; [] 
        ; [] 
	.dwattr $C$DW$16, DW_AT_TI_end_file("../driverlib/MSP430FR2xx_4xx/lcd_e.c")
	.dwattr $C$DW$16, DW_AT_TI_end_line(0x84)
	.dwattr $C$DW$16, DW_AT_TI_end_column(0x01)
	.dwendentry
	.dwendtag $C$DW$16

	.sect	".text:LCD_E_off"
	.clink
	.global	LCD_E_off

$C$DW$20	.dwtag  DW_TAG_subprogram
	.dwattr $C$DW$20, DW_AT_name("LCD_E_off")
	.dwattr $C$DW$20, DW_AT_low_pc(LCD_E_off)
	.dwattr $C$DW$20, DW_AT_high_pc(0x00)
	.dwattr $C$DW$20, DW_AT_TI_symbol_name("LCD_E_off")
	.dwattr $C$DW$20, DW_AT_external
	.dwattr $C$DW$20, DW_AT_TI_begin_file("../driverlib/MSP430FR2xx_4xx/lcd_e.c")
	.dwattr $C$DW$20, DW_AT_TI_begin_line(0x86)
	.dwattr $C$DW$20, DW_AT_TI_begin_column(0x06)
	.dwattr $C$DW$20, DW_AT_decl_file("../driverlib/MSP430FR2xx_4xx/lcd_e.c")
	.dwattr $C$DW$20, DW_AT_decl_line(0x86)
	.dwattr $C$DW$20, DW_AT_decl_column(0x06)
	.dwattr $C$DW$20, DW_AT_TI_max_frame_size(0x06)
	.dwpsn	file "../driverlib/MSP430FR2xx_4xx/lcd_e.c",line 135,column 1,is_stmt,address LCD_E_off,isa 0

	.dwfde $C$DW$CIE, LCD_E_off
$C$DW$21	.dwtag  DW_TAG_formal_parameter
	.dwattr $C$DW$21, DW_AT_name("baseAddress")
	.dwattr $C$DW$21, DW_AT_TI_symbol_name("baseAddress")
	.dwattr $C$DW$21, DW_AT_type(*$C$DW$T$23)
	.dwattr $C$DW$21, DW_AT_location[DW_OP_reg12]


;*****************************************************************************
;* FUNCTION NAME: LCD_E_off                                                  *
;*                                                                           *
;*   Regs Modified     : SP,SR,r15                                           *
;*   Regs Used         : SP,SR,r12,r15                                       *
;*   Local Frame Size  : 0 Args + 2 Auto + 0 Save = 2 byte                   *
;*****************************************************************************
LCD_E_off:
;* --------------------------------------------------------------------------*
	.dwcfi	cfa_offset, 4
	.dwcfi	save_reg_to_mem, 16, -4
        SUB.W     #2,SP                 ; [] 
	.dwcfi	cfa_offset, 6
$C$DW$22	.dwtag  DW_TAG_variable
	.dwattr $C$DW$22, DW_AT_name("baseAddress")
	.dwattr $C$DW$22, DW_AT_TI_symbol_name("baseAddress")
	.dwattr $C$DW$22, DW_AT_type(*$C$DW$T$23)
	.dwattr $C$DW$22, DW_AT_location[DW_OP_breg1 0]

        MOV.W     r12,0(SP)             ; [] |135| 
	.dwpsn	file "../driverlib/MSP430FR2xx_4xx/lcd_e.c",line 136,column 5,is_stmt,isa 0
        AND.W     #61439,&0x164         ; [] |136| 
	.dwpsn	file "../driverlib/MSP430FR2xx_4xx/lcd_e.c",line 137,column 5,is_stmt,isa 0
        MOV.W     0(SP),r15             ; [] |137| 
        BIC.W     #1,0(r15)             ; [] |137| 
	.dwpsn	file "../driverlib/MSP430FR2xx_4xx/lcd_e.c",line 138,column 1,is_stmt,isa 0
        ADD.W     #2,SP                 ; [] 
	.dwcfi	cfa_offset, 4
$C$DW$23	.dwtag  DW_TAG_TI_branch
	.dwattr $C$DW$23, DW_AT_low_pc(0x00)
	.dwattr $C$DW$23, DW_AT_TI_return

        RETA      ; [] 
        ; [] 
	.dwattr $C$DW$20, DW_AT_TI_end_file("../driverlib/MSP430FR2xx_4xx/lcd_e.c")
	.dwattr $C$DW$20, DW_AT_TI_end_line(0x8a)
	.dwattr $C$DW$20, DW_AT_TI_end_column(0x01)
	.dwendentry
	.dwendtag $C$DW$20

	.sect	".text:LCD_E_clearInterrupt"
	.clink
	.global	LCD_E_clearInterrupt

$C$DW$24	.dwtag  DW_TAG_subprogram
	.dwattr $C$DW$24, DW_AT_name("LCD_E_clearInterrupt")
	.dwattr $C$DW$24, DW_AT_low_pc(LCD_E_clearInterrupt)
	.dwattr $C$DW$24, DW_AT_high_pc(0x00)
	.dwattr $C$DW$24, DW_AT_TI_symbol_name("LCD_E_clearInterrupt")
	.dwattr $C$DW$24, DW_AT_external
	.dwattr $C$DW$24, DW_AT_TI_begin_file("../driverlib/MSP430FR2xx_4xx/lcd_e.c")
	.dwattr $C$DW$24, DW_AT_TI_begin_line(0x8c)
	.dwattr $C$DW$24, DW_AT_TI_begin_column(0x06)
	.dwattr $C$DW$24, DW_AT_decl_file("../driverlib/MSP430FR2xx_4xx/lcd_e.c")
	.dwattr $C$DW$24, DW_AT_decl_line(0x8c)
	.dwattr $C$DW$24, DW_AT_decl_column(0x06)
	.dwattr $C$DW$24, DW_AT_TI_max_frame_size(0x08)
	.dwpsn	file "../driverlib/MSP430FR2xx_4xx/lcd_e.c",line 141,column 1,is_stmt,address LCD_E_clearInterrupt,isa 0

	.dwfde $C$DW$CIE, LCD_E_clearInterrupt
$C$DW$25	.dwtag  DW_TAG_formal_parameter
	.dwattr $C$DW$25, DW_AT_name("baseAddress")
	.dwattr $C$DW$25, DW_AT_TI_symbol_name("baseAddress")
	.dwattr $C$DW$25, DW_AT_type(*$C$DW$T$23)
	.dwattr $C$DW$25, DW_AT_location[DW_OP_reg12]

$C$DW$26	.dwtag  DW_TAG_formal_parameter
	.dwattr $C$DW$26, DW_AT_name("mask")
	.dwattr $C$DW$26, DW_AT_TI_symbol_name("mask")
	.dwattr $C$DW$26, DW_AT_type(*$C$DW$T$23)
	.dwattr $C$DW$26, DW_AT_location[DW_OP_reg13]


;*****************************************************************************
;* FUNCTION NAME: LCD_E_clearInterrupt                                       *
;*                                                                           *
;*   Regs Modified     : SP,SR,r15                                           *
;*   Regs Used         : SP,SR,r12,r13,r15                                   *
;*   Local Frame Size  : 0 Args + 4 Auto + 0 Save = 4 byte                   *
;*****************************************************************************
LCD_E_clearInterrupt:
;* --------------------------------------------------------------------------*
	.dwcfi	cfa_offset, 4
	.dwcfi	save_reg_to_mem, 16, -4
        SUB.W     #4,SP                 ; [] 
	.dwcfi	cfa_offset, 8
$C$DW$27	.dwtag  DW_TAG_variable
	.dwattr $C$DW$27, DW_AT_name("baseAddress")
	.dwattr $C$DW$27, DW_AT_TI_symbol_name("baseAddress")
	.dwattr $C$DW$27, DW_AT_type(*$C$DW$T$23)
	.dwattr $C$DW$27, DW_AT_location[DW_OP_breg1 0]

$C$DW$28	.dwtag  DW_TAG_variable
	.dwattr $C$DW$28, DW_AT_name("mask")
	.dwattr $C$DW$28, DW_AT_TI_symbol_name("mask")
	.dwattr $C$DW$28, DW_AT_type(*$C$DW$T$23)
	.dwattr $C$DW$28, DW_AT_location[DW_OP_breg1 2]

        MOV.W     r13,2(SP)             ; [] |141| 
        MOV.W     r12,0(SP)             ; [] |141| 
	.dwpsn	file "../driverlib/MSP430FR2xx_4xx/lcd_e.c",line 142,column 5,is_stmt,isa 0
        MOV.W     #2,r15                ; [] |142| 
        ADD.W     0(SP),r15             ; [] |142| 
        BIC.B     3(SP),0(r15)          ; [] |142| 
	.dwpsn	file "../driverlib/MSP430FR2xx_4xx/lcd_e.c",line 143,column 1,is_stmt,isa 0
        ADD.W     #4,SP                 ; [] 
	.dwcfi	cfa_offset, 4
$C$DW$29	.dwtag  DW_TAG_TI_branch
	.dwattr $C$DW$29, DW_AT_low_pc(0x00)
	.dwattr $C$DW$29, DW_AT_TI_return

        RETA      ; [] 
        ; [] 
	.dwattr $C$DW$24, DW_AT_TI_end_file("../driverlib/MSP430FR2xx_4xx/lcd_e.c")
	.dwattr $C$DW$24, DW_AT_TI_end_line(0x8f)
	.dwattr $C$DW$24, DW_AT_TI_end_column(0x01)
	.dwendentry
	.dwendtag $C$DW$24

	.sect	".text:LCD_E_getInterruptStatus"
	.clink
	.global	LCD_E_getInterruptStatus

$C$DW$30	.dwtag  DW_TAG_subprogram
	.dwattr $C$DW$30, DW_AT_name("LCD_E_getInterruptStatus")
	.dwattr $C$DW$30, DW_AT_low_pc(LCD_E_getInterruptStatus)
	.dwattr $C$DW$30, DW_AT_high_pc(0x00)
	.dwattr $C$DW$30, DW_AT_TI_symbol_name("LCD_E_getInterruptStatus")
	.dwattr $C$DW$30, DW_AT_external
	.dwattr $C$DW$30, DW_AT_type(*$C$DW$T$23)
	.dwattr $C$DW$30, DW_AT_TI_begin_file("../driverlib/MSP430FR2xx_4xx/lcd_e.c")
	.dwattr $C$DW$30, DW_AT_TI_begin_line(0x91)
	.dwattr $C$DW$30, DW_AT_TI_begin_column(0x0a)
	.dwattr $C$DW$30, DW_AT_decl_file("../driverlib/MSP430FR2xx_4xx/lcd_e.c")
	.dwattr $C$DW$30, DW_AT_decl_line(0x91)
	.dwattr $C$DW$30, DW_AT_decl_column(0x0a)
	.dwattr $C$DW$30, DW_AT_TI_max_frame_size(0x08)
	.dwpsn	file "../driverlib/MSP430FR2xx_4xx/lcd_e.c",line 146,column 1,is_stmt,address LCD_E_getInterruptStatus,isa 0

	.dwfde $C$DW$CIE, LCD_E_getInterruptStatus
$C$DW$31	.dwtag  DW_TAG_formal_parameter
	.dwattr $C$DW$31, DW_AT_name("baseAddress")
	.dwattr $C$DW$31, DW_AT_TI_symbol_name("baseAddress")
	.dwattr $C$DW$31, DW_AT_type(*$C$DW$T$23)
	.dwattr $C$DW$31, DW_AT_location[DW_OP_reg12]

$C$DW$32	.dwtag  DW_TAG_formal_parameter
	.dwattr $C$DW$32, DW_AT_name("mask")
	.dwattr $C$DW$32, DW_AT_TI_symbol_name("mask")
	.dwattr $C$DW$32, DW_AT_type(*$C$DW$T$23)
	.dwattr $C$DW$32, DW_AT_location[DW_OP_reg13]


;*****************************************************************************
;* FUNCTION NAME: LCD_E_getInterruptStatus                                   *
;*                                                                           *
;*   Regs Modified     : SP,SR,r12,r15                                       *
;*   Regs Used         : SP,SR,r12,r13,r15                                   *
;*   Local Frame Size  : 0 Args + 4 Auto + 0 Save = 4 byte                   *
;*****************************************************************************
LCD_E_getInterruptStatus:
;* --------------------------------------------------------------------------*
	.dwcfi	cfa_offset, 4
	.dwcfi	save_reg_to_mem, 16, -4
        SUB.W     #4,SP                 ; [] 
	.dwcfi	cfa_offset, 8
$C$DW$33	.dwtag  DW_TAG_variable
	.dwattr $C$DW$33, DW_AT_name("baseAddress")
	.dwattr $C$DW$33, DW_AT_TI_symbol_name("baseAddress")
	.dwattr $C$DW$33, DW_AT_type(*$C$DW$T$23)
	.dwattr $C$DW$33, DW_AT_location[DW_OP_breg1 0]

$C$DW$34	.dwtag  DW_TAG_variable
	.dwattr $C$DW$34, DW_AT_name("mask")
	.dwattr $C$DW$34, DW_AT_TI_symbol_name("mask")
	.dwattr $C$DW$34, DW_AT_type(*$C$DW$T$23)
	.dwattr $C$DW$34, DW_AT_location[DW_OP_breg1 2]

        MOV.W     r13,2(SP)             ; [] |146| 
        MOV.W     r12,0(SP)             ; [] |146| 
	.dwpsn	file "../driverlib/MSP430FR2xx_4xx/lcd_e.c",line 147,column 5,is_stmt,isa 0
        MOV.B     2(r12),r15            ; [] |147| 
        MOVA      r13,r12               ; [] 
        SWPB      r12                   ; [] |147| 
        MOV.B     r12,r12               ; [] |147| 
        AND.W     r15,r12               ; [] |147| 
	.dwpsn	file "../driverlib/MSP430FR2xx_4xx/lcd_e.c",line 148,column 1,is_stmt,isa 0
        ADD.W     #4,SP                 ; [] 
	.dwcfi	cfa_offset, 4
$C$DW$35	.dwtag  DW_TAG_TI_branch
	.dwattr $C$DW$35, DW_AT_low_pc(0x00)
	.dwattr $C$DW$35, DW_AT_TI_return

        RETA      ; [] 
        ; [] 
	.dwattr $C$DW$30, DW_AT_TI_end_file("../driverlib/MSP430FR2xx_4xx/lcd_e.c")
	.dwattr $C$DW$30, DW_AT_TI_end_line(0x94)
	.dwattr $C$DW$30, DW_AT_TI_end_column(0x01)
	.dwendentry
	.dwendtag $C$DW$30

	.sect	".text:LCD_E_enableInterrupt"
	.clink
	.global	LCD_E_enableInterrupt

$C$DW$36	.dwtag  DW_TAG_subprogram
	.dwattr $C$DW$36, DW_AT_name("LCD_E_enableInterrupt")
	.dwattr $C$DW$36, DW_AT_low_pc(LCD_E_enableInterrupt)
	.dwattr $C$DW$36, DW_AT_high_pc(0x00)
	.dwattr $C$DW$36, DW_AT_TI_symbol_name("LCD_E_enableInterrupt")
	.dwattr $C$DW$36, DW_AT_external
	.dwattr $C$DW$36, DW_AT_TI_begin_file("../driverlib/MSP430FR2xx_4xx/lcd_e.c")
	.dwattr $C$DW$36, DW_AT_TI_begin_line(0x96)
	.dwattr $C$DW$36, DW_AT_TI_begin_column(0x06)
	.dwattr $C$DW$36, DW_AT_decl_file("../driverlib/MSP430FR2xx_4xx/lcd_e.c")
	.dwattr $C$DW$36, DW_AT_decl_line(0x96)
	.dwattr $C$DW$36, DW_AT_decl_column(0x06)
	.dwattr $C$DW$36, DW_AT_TI_max_frame_size(0x08)
	.dwpsn	file "../driverlib/MSP430FR2xx_4xx/lcd_e.c",line 151,column 1,is_stmt,address LCD_E_enableInterrupt,isa 0

	.dwfde $C$DW$CIE, LCD_E_enableInterrupt
$C$DW$37	.dwtag  DW_TAG_formal_parameter
	.dwattr $C$DW$37, DW_AT_name("baseAddress")
	.dwattr $C$DW$37, DW_AT_TI_symbol_name("baseAddress")
	.dwattr $C$DW$37, DW_AT_type(*$C$DW$T$23)
	.dwattr $C$DW$37, DW_AT_location[DW_OP_reg12]

$C$DW$38	.dwtag  DW_TAG_formal_parameter
	.dwattr $C$DW$38, DW_AT_name("mask")
	.dwattr $C$DW$38, DW_AT_TI_symbol_name("mask")
	.dwattr $C$DW$38, DW_AT_type(*$C$DW$T$23)
	.dwattr $C$DW$38, DW_AT_location[DW_OP_reg13]


;*****************************************************************************
;* FUNCTION NAME: LCD_E_enableInterrupt                                      *
;*                                                                           *
;*   Regs Modified     : SP,SR,r15                                           *
;*   Regs Used         : SP,SR,r12,r13,r15                                   *
;*   Local Frame Size  : 0 Args + 4 Auto + 0 Save = 4 byte                   *
;*****************************************************************************
LCD_E_enableInterrupt:
;* --------------------------------------------------------------------------*
	.dwcfi	cfa_offset, 4
	.dwcfi	save_reg_to_mem, 16, -4
        SUB.W     #4,SP                 ; [] 
	.dwcfi	cfa_offset, 8
$C$DW$39	.dwtag  DW_TAG_variable
	.dwattr $C$DW$39, DW_AT_name("baseAddress")
	.dwattr $C$DW$39, DW_AT_TI_symbol_name("baseAddress")
	.dwattr $C$DW$39, DW_AT_type(*$C$DW$T$23)
	.dwattr $C$DW$39, DW_AT_location[DW_OP_breg1 0]

$C$DW$40	.dwtag  DW_TAG_variable
	.dwattr $C$DW$40, DW_AT_name("mask")
	.dwattr $C$DW$40, DW_AT_TI_symbol_name("mask")
	.dwattr $C$DW$40, DW_AT_type(*$C$DW$T$23)
	.dwattr $C$DW$40, DW_AT_location[DW_OP_breg1 2]

        MOV.W     r13,2(SP)             ; [] |151| 
        MOV.W     r12,0(SP)             ; [] |151| 
	.dwpsn	file "../driverlib/MSP430FR2xx_4xx/lcd_e.c",line 152,column 5,is_stmt,isa 0
        MOV.W     #2,r15                ; [] |152| 
        ADD.W     0(SP),r15             ; [] |152| 
        OR.W      2(SP),0(r15)          ; [] |152| 
	.dwpsn	file "../driverlib/MSP430FR2xx_4xx/lcd_e.c",line 153,column 1,is_stmt,isa 0
        ADD.W     #4,SP                 ; [] 
	.dwcfi	cfa_offset, 4
$C$DW$41	.dwtag  DW_TAG_TI_branch
	.dwattr $C$DW$41, DW_AT_low_pc(0x00)
	.dwattr $C$DW$41, DW_AT_TI_return

        RETA      ; [] 
        ; [] 
	.dwattr $C$DW$36, DW_AT_TI_end_file("../driverlib/MSP430FR2xx_4xx/lcd_e.c")
	.dwattr $C$DW$36, DW_AT_TI_end_line(0x99)
	.dwattr $C$DW$36, DW_AT_TI_end_column(0x01)
	.dwendentry
	.dwendtag $C$DW$36

	.sect	".text:LCD_E_disableInterrupt"
	.clink
	.global	LCD_E_disableInterrupt

$C$DW$42	.dwtag  DW_TAG_subprogram
	.dwattr $C$DW$42, DW_AT_name("LCD_E_disableInterrupt")
	.dwattr $C$DW$42, DW_AT_low_pc(LCD_E_disableInterrupt)
	.dwattr $C$DW$42, DW_AT_high_pc(0x00)
	.dwattr $C$DW$42, DW_AT_TI_symbol_name("LCD_E_disableInterrupt")
	.dwattr $C$DW$42, DW_AT_external
	.dwattr $C$DW$42, DW_AT_TI_begin_file("../driverlib/MSP430FR2xx_4xx/lcd_e.c")
	.dwattr $C$DW$42, DW_AT_TI_begin_line(0x9b)
	.dwattr $C$DW$42, DW_AT_TI_begin_column(0x06)
	.dwattr $C$DW$42, DW_AT_decl_file("../driverlib/MSP430FR2xx_4xx/lcd_e.c")
	.dwattr $C$DW$42, DW_AT_decl_line(0x9b)
	.dwattr $C$DW$42, DW_AT_decl_column(0x06)
	.dwattr $C$DW$42, DW_AT_TI_max_frame_size(0x08)
	.dwpsn	file "../driverlib/MSP430FR2xx_4xx/lcd_e.c",line 156,column 1,is_stmt,address LCD_E_disableInterrupt,isa 0

	.dwfde $C$DW$CIE, LCD_E_disableInterrupt
$C$DW$43	.dwtag  DW_TAG_formal_parameter
	.dwattr $C$DW$43, DW_AT_name("baseAddress")
	.dwattr $C$DW$43, DW_AT_TI_symbol_name("baseAddress")
	.dwattr $C$DW$43, DW_AT_type(*$C$DW$T$23)
	.dwattr $C$DW$43, DW_AT_location[DW_OP_reg12]

$C$DW$44	.dwtag  DW_TAG_formal_parameter
	.dwattr $C$DW$44, DW_AT_name("mask")
	.dwattr $C$DW$44, DW_AT_TI_symbol_name("mask")
	.dwattr $C$DW$44, DW_AT_type(*$C$DW$T$23)
	.dwattr $C$DW$44, DW_AT_location[DW_OP_reg13]


;*****************************************************************************
;* FUNCTION NAME: LCD_E_disableInterrupt                                     *
;*                                                                           *
;*   Regs Modified     : SP,SR,r15                                           *
;*   Regs Used         : SP,SR,r12,r13,r15                                   *
;*   Local Frame Size  : 0 Args + 4 Auto + 0 Save = 4 byte                   *
;*****************************************************************************
LCD_E_disableInterrupt:
;* --------------------------------------------------------------------------*
	.dwcfi	cfa_offset, 4
	.dwcfi	save_reg_to_mem, 16, -4
        SUB.W     #4,SP                 ; [] 
	.dwcfi	cfa_offset, 8
$C$DW$45	.dwtag  DW_TAG_variable
	.dwattr $C$DW$45, DW_AT_name("baseAddress")
	.dwattr $C$DW$45, DW_AT_TI_symbol_name("baseAddress")
	.dwattr $C$DW$45, DW_AT_type(*$C$DW$T$23)
	.dwattr $C$DW$45, DW_AT_location[DW_OP_breg1 0]

$C$DW$46	.dwtag  DW_TAG_variable
	.dwattr $C$DW$46, DW_AT_name("mask")
	.dwattr $C$DW$46, DW_AT_TI_symbol_name("mask")
	.dwattr $C$DW$46, DW_AT_type(*$C$DW$T$23)
	.dwattr $C$DW$46, DW_AT_location[DW_OP_breg1 2]

        MOV.W     r13,2(SP)             ; [] |156| 
        MOV.W     r12,0(SP)             ; [] |156| 
	.dwpsn	file "../driverlib/MSP430FR2xx_4xx/lcd_e.c",line 157,column 5,is_stmt,isa 0
        MOV.W     #2,r15                ; [] |157| 
        ADD.W     0(SP),r15             ; [] |157| 
        BIC.W     2(SP),0(r15)          ; [] |157| 
	.dwpsn	file "../driverlib/MSP430FR2xx_4xx/lcd_e.c",line 158,column 1,is_stmt,isa 0
        ADD.W     #4,SP                 ; [] 
	.dwcfi	cfa_offset, 4
$C$DW$47	.dwtag  DW_TAG_TI_branch
	.dwattr $C$DW$47, DW_AT_low_pc(0x00)
	.dwattr $C$DW$47, DW_AT_TI_return

        RETA      ; [] 
        ; [] 
	.dwattr $C$DW$42, DW_AT_TI_end_file("../driverlib/MSP430FR2xx_4xx/lcd_e.c")
	.dwattr $C$DW$42, DW_AT_TI_end_line(0x9e)
	.dwattr $C$DW$42, DW_AT_TI_end_column(0x01)
	.dwendentry
	.dwendtag $C$DW$42

	.sect	".text:LCD_E_clearAllMemory"
	.clink
	.global	LCD_E_clearAllMemory

$C$DW$48	.dwtag  DW_TAG_subprogram
	.dwattr $C$DW$48, DW_AT_name("LCD_E_clearAllMemory")
	.dwattr $C$DW$48, DW_AT_low_pc(LCD_E_clearAllMemory)
	.dwattr $C$DW$48, DW_AT_high_pc(0x00)
	.dwattr $C$DW$48, DW_AT_TI_symbol_name("LCD_E_clearAllMemory")
	.dwattr $C$DW$48, DW_AT_external
	.dwattr $C$DW$48, DW_AT_TI_begin_file("../driverlib/MSP430FR2xx_4xx/lcd_e.c")
	.dwattr $C$DW$48, DW_AT_TI_begin_line(0xa0)
	.dwattr $C$DW$48, DW_AT_TI_begin_column(0x06)
	.dwattr $C$DW$48, DW_AT_decl_file("../driverlib/MSP430FR2xx_4xx/lcd_e.c")
	.dwattr $C$DW$48, DW_AT_decl_line(0xa0)
	.dwattr $C$DW$48, DW_AT_decl_column(0x06)
	.dwattr $C$DW$48, DW_AT_TI_max_frame_size(0x06)
	.dwpsn	file "../driverlib/MSP430FR2xx_4xx/lcd_e.c",line 161,column 1,is_stmt,address LCD_E_clearAllMemory,isa 0

	.dwfde $C$DW$CIE, LCD_E_clearAllMemory
$C$DW$49	.dwtag  DW_TAG_formal_parameter
	.dwattr $C$DW$49, DW_AT_name("baseAddress")
	.dwattr $C$DW$49, DW_AT_TI_symbol_name("baseAddress")
	.dwattr $C$DW$49, DW_AT_type(*$C$DW$T$23)
	.dwattr $C$DW$49, DW_AT_location[DW_OP_reg12]


;*****************************************************************************
;* FUNCTION NAME: LCD_E_clearAllMemory                                       *
;*                                                                           *
;*   Regs Modified     : SP,SR,r15                                           *
;*   Regs Used         : SP,SR,r12,r15                                       *
;*   Local Frame Size  : 0 Args + 2 Auto + 0 Save = 2 byte                   *
;*****************************************************************************
LCD_E_clearAllMemory:
;* --------------------------------------------------------------------------*
	.dwcfi	cfa_offset, 4
	.dwcfi	save_reg_to_mem, 16, -4
        SUB.W     #2,SP                 ; [] 
	.dwcfi	cfa_offset, 6
$C$DW$50	.dwtag  DW_TAG_variable
	.dwattr $C$DW$50, DW_AT_name("baseAddress")
	.dwattr $C$DW$50, DW_AT_TI_symbol_name("baseAddress")
	.dwattr $C$DW$50, DW_AT_type(*$C$DW$T$23)
	.dwattr $C$DW$50, DW_AT_location[DW_OP_breg1 0]

        MOV.W     r12,0(SP)             ; [] |161| 
	.dwpsn	file "../driverlib/MSP430FR2xx_4xx/lcd_e.c",line 162,column 4,is_stmt,isa 0
        MOV.W     #6,r15                ; [] |162| 
        ADD.W     0(SP),r15             ; [] |162| 
        OR.W      #2,0(r15)             ; [] |162| 
	.dwpsn	file "../driverlib/MSP430FR2xx_4xx/lcd_e.c",line 163,column 1,is_stmt,isa 0
        ADD.W     #2,SP                 ; [] 
	.dwcfi	cfa_offset, 4
$C$DW$51	.dwtag  DW_TAG_TI_branch
	.dwattr $C$DW$51, DW_AT_low_pc(0x00)
	.dwattr $C$DW$51, DW_AT_TI_return

        RETA      ; [] 
        ; [] 
	.dwattr $C$DW$48, DW_AT_TI_end_file("../driverlib/MSP430FR2xx_4xx/lcd_e.c")
	.dwattr $C$DW$48, DW_AT_TI_end_line(0xa3)
	.dwattr $C$DW$48, DW_AT_TI_end_column(0x01)
	.dwendentry
	.dwendtag $C$DW$48

	.sect	".text:LCD_E_clearAllBlinkingMemory"
	.clink
	.global	LCD_E_clearAllBlinkingMemory

$C$DW$52	.dwtag  DW_TAG_subprogram
	.dwattr $C$DW$52, DW_AT_name("LCD_E_clearAllBlinkingMemory")
	.dwattr $C$DW$52, DW_AT_low_pc(LCD_E_clearAllBlinkingMemory)
	.dwattr $C$DW$52, DW_AT_high_pc(0x00)
	.dwattr $C$DW$52, DW_AT_TI_symbol_name("LCD_E_clearAllBlinkingMemory")
	.dwattr $C$DW$52, DW_AT_external
	.dwattr $C$DW$52, DW_AT_TI_begin_file("../driverlib/MSP430FR2xx_4xx/lcd_e.c")
	.dwattr $C$DW$52, DW_AT_TI_begin_line(0xa5)
	.dwattr $C$DW$52, DW_AT_TI_begin_column(0x06)
	.dwattr $C$DW$52, DW_AT_decl_file("../driverlib/MSP430FR2xx_4xx/lcd_e.c")
	.dwattr $C$DW$52, DW_AT_decl_line(0xa5)
	.dwattr $C$DW$52, DW_AT_decl_column(0x06)
	.dwattr $C$DW$52, DW_AT_TI_max_frame_size(0x06)
	.dwpsn	file "../driverlib/MSP430FR2xx_4xx/lcd_e.c",line 166,column 1,is_stmt,address LCD_E_clearAllBlinkingMemory,isa 0

	.dwfde $C$DW$CIE, LCD_E_clearAllBlinkingMemory
$C$DW$53	.dwtag  DW_TAG_formal_parameter
	.dwattr $C$DW$53, DW_AT_name("baseAddress")
	.dwattr $C$DW$53, DW_AT_TI_symbol_name("baseAddress")
	.dwattr $C$DW$53, DW_AT_type(*$C$DW$T$23)
	.dwattr $C$DW$53, DW_AT_location[DW_OP_reg12]


;*****************************************************************************
;* FUNCTION NAME: LCD_E_clearAllBlinkingMemory                               *
;*                                                                           *
;*   Regs Modified     : SP,SR,r15                                           *
;*   Regs Used         : SP,SR,r12,r15                                       *
;*   Local Frame Size  : 0 Args + 2 Auto + 0 Save = 2 byte                   *
;*****************************************************************************
LCD_E_clearAllBlinkingMemory:
;* --------------------------------------------------------------------------*
	.dwcfi	cfa_offset, 4
	.dwcfi	save_reg_to_mem, 16, -4
        SUB.W     #2,SP                 ; [] 
	.dwcfi	cfa_offset, 6
$C$DW$54	.dwtag  DW_TAG_variable
	.dwattr $C$DW$54, DW_AT_name("baseAddress")
	.dwattr $C$DW$54, DW_AT_TI_symbol_name("baseAddress")
	.dwattr $C$DW$54, DW_AT_type(*$C$DW$T$23)
	.dwattr $C$DW$54, DW_AT_location[DW_OP_breg1 0]

        MOV.W     r12,0(SP)             ; [] |166| 
	.dwpsn	file "../driverlib/MSP430FR2xx_4xx/lcd_e.c",line 167,column 5,is_stmt,isa 0
        MOV.W     #6,r15                ; [] |167| 
        ADD.W     0(SP),r15             ; [] |167| 
        OR.W      #4,0(r15)             ; [] |167| 
	.dwpsn	file "../driverlib/MSP430FR2xx_4xx/lcd_e.c",line 168,column 1,is_stmt,isa 0
        ADD.W     #2,SP                 ; [] 
	.dwcfi	cfa_offset, 4
$C$DW$55	.dwtag  DW_TAG_TI_branch
	.dwattr $C$DW$55, DW_AT_low_pc(0x00)
	.dwattr $C$DW$55, DW_AT_TI_return

        RETA      ; [] 
        ; [] 
	.dwattr $C$DW$52, DW_AT_TI_end_file("../driverlib/MSP430FR2xx_4xx/lcd_e.c")
	.dwattr $C$DW$52, DW_AT_TI_end_line(0xa8)
	.dwattr $C$DW$52, DW_AT_TI_end_column(0x01)
	.dwendentry
	.dwendtag $C$DW$52

	.sect	".text:LCD_E_selectDisplayMemory"
	.clink
	.global	LCD_E_selectDisplayMemory

$C$DW$56	.dwtag  DW_TAG_subprogram
	.dwattr $C$DW$56, DW_AT_name("LCD_E_selectDisplayMemory")
	.dwattr $C$DW$56, DW_AT_low_pc(LCD_E_selectDisplayMemory)
	.dwattr $C$DW$56, DW_AT_high_pc(0x00)
	.dwattr $C$DW$56, DW_AT_TI_symbol_name("LCD_E_selectDisplayMemory")
	.dwattr $C$DW$56, DW_AT_external
	.dwattr $C$DW$56, DW_AT_TI_begin_file("../driverlib/MSP430FR2xx_4xx/lcd_e.c")
	.dwattr $C$DW$56, DW_AT_TI_begin_line(0xaa)
	.dwattr $C$DW$56, DW_AT_TI_begin_column(0x06)
	.dwattr $C$DW$56, DW_AT_decl_file("../driverlib/MSP430FR2xx_4xx/lcd_e.c")
	.dwattr $C$DW$56, DW_AT_decl_line(0xaa)
	.dwattr $C$DW$56, DW_AT_decl_column(0x06)
	.dwattr $C$DW$56, DW_AT_TI_max_frame_size(0x08)
	.dwpsn	file "../driverlib/MSP430FR2xx_4xx/lcd_e.c",line 171,column 1,is_stmt,address LCD_E_selectDisplayMemory,isa 0

	.dwfde $C$DW$CIE, LCD_E_selectDisplayMemory
$C$DW$57	.dwtag  DW_TAG_formal_parameter
	.dwattr $C$DW$57, DW_AT_name("baseAddress")
	.dwattr $C$DW$57, DW_AT_TI_symbol_name("baseAddress")
	.dwattr $C$DW$57, DW_AT_type(*$C$DW$T$23)
	.dwattr $C$DW$57, DW_AT_location[DW_OP_reg12]

$C$DW$58	.dwtag  DW_TAG_formal_parameter
	.dwattr $C$DW$58, DW_AT_name("displayMemory")
	.dwattr $C$DW$58, DW_AT_TI_symbol_name("displayMemory")
	.dwattr $C$DW$58, DW_AT_type(*$C$DW$T$23)
	.dwattr $C$DW$58, DW_AT_location[DW_OP_reg13]


;*****************************************************************************
;* FUNCTION NAME: LCD_E_selectDisplayMemory                                  *
;*                                                                           *
;*   Regs Modified     : SP,SR,r15                                           *
;*   Regs Used         : SP,SR,r12,r13,r15                                   *
;*   Local Frame Size  : 0 Args + 4 Auto + 0 Save = 4 byte                   *
;*****************************************************************************
LCD_E_selectDisplayMemory:
;* --------------------------------------------------------------------------*
	.dwcfi	cfa_offset, 4
	.dwcfi	save_reg_to_mem, 16, -4
        SUB.W     #4,SP                 ; [] 
	.dwcfi	cfa_offset, 8
$C$DW$59	.dwtag  DW_TAG_variable
	.dwattr $C$DW$59, DW_AT_name("baseAddress")
	.dwattr $C$DW$59, DW_AT_TI_symbol_name("baseAddress")
	.dwattr $C$DW$59, DW_AT_type(*$C$DW$T$23)
	.dwattr $C$DW$59, DW_AT_location[DW_OP_breg1 0]

$C$DW$60	.dwtag  DW_TAG_variable
	.dwattr $C$DW$60, DW_AT_name("displayMemory")
	.dwattr $C$DW$60, DW_AT_TI_symbol_name("displayMemory")
	.dwattr $C$DW$60, DW_AT_type(*$C$DW$T$23)
	.dwattr $C$DW$60, DW_AT_location[DW_OP_breg1 2]

        MOV.W     r13,2(SP)             ; [] |171| 
        MOV.W     r12,0(SP)             ; [] |171| 
	.dwpsn	file "../driverlib/MSP430FR2xx_4xx/lcd_e.c",line 172,column 5,is_stmt,isa 0
        MOV.W     #6,r15                ; [] |172| 
        ADD.W     0(SP),r15             ; [] |172| 
        BIC.W     #1,0(r15)             ; [] |172| 
	.dwpsn	file "../driverlib/MSP430FR2xx_4xx/lcd_e.c",line 173,column 5,is_stmt,isa 0
        MOV.W     #6,r15                ; [] |173| 
        ADD.W     0(SP),r15             ; [] |173| 
        OR.W      2(SP),0(r15)          ; [] |173| 
	.dwpsn	file "../driverlib/MSP430FR2xx_4xx/lcd_e.c",line 174,column 1,is_stmt,isa 0
        ADD.W     #4,SP                 ; [] 
	.dwcfi	cfa_offset, 4
$C$DW$61	.dwtag  DW_TAG_TI_branch
	.dwattr $C$DW$61, DW_AT_low_pc(0x00)
	.dwattr $C$DW$61, DW_AT_TI_return

        RETA      ; [] 
        ; [] 
	.dwattr $C$DW$56, DW_AT_TI_end_file("../driverlib/MSP430FR2xx_4xx/lcd_e.c")
	.dwattr $C$DW$56, DW_AT_TI_end_line(0xae)
	.dwattr $C$DW$56, DW_AT_TI_end_column(0x01)
	.dwendentry
	.dwendtag $C$DW$56

	.sect	".text:LCD_E_setBlinkingControl"
	.clink
	.global	LCD_E_setBlinkingControl

$C$DW$62	.dwtag  DW_TAG_subprogram
	.dwattr $C$DW$62, DW_AT_name("LCD_E_setBlinkingControl")
	.dwattr $C$DW$62, DW_AT_low_pc(LCD_E_setBlinkingControl)
	.dwattr $C$DW$62, DW_AT_high_pc(0x00)
	.dwattr $C$DW$62, DW_AT_TI_symbol_name("LCD_E_setBlinkingControl")
	.dwattr $C$DW$62, DW_AT_external
	.dwattr $C$DW$62, DW_AT_TI_begin_file("../driverlib/MSP430FR2xx_4xx/lcd_e.c")
	.dwattr $C$DW$62, DW_AT_TI_begin_line(0xb0)
	.dwattr $C$DW$62, DW_AT_TI_begin_column(0x06)
	.dwattr $C$DW$62, DW_AT_decl_file("../driverlib/MSP430FR2xx_4xx/lcd_e.c")
	.dwattr $C$DW$62, DW_AT_decl_line(0xb0)
	.dwattr $C$DW$62, DW_AT_decl_column(0x06)
	.dwattr $C$DW$62, DW_AT_TI_max_frame_size(0x0a)
	.dwpsn	file "../driverlib/MSP430FR2xx_4xx/lcd_e.c",line 178,column 1,is_stmt,address LCD_E_setBlinkingControl,isa 0

	.dwfde $C$DW$CIE, LCD_E_setBlinkingControl
$C$DW$63	.dwtag  DW_TAG_formal_parameter
	.dwattr $C$DW$63, DW_AT_name("baseAddress")
	.dwattr $C$DW$63, DW_AT_TI_symbol_name("baseAddress")
	.dwattr $C$DW$63, DW_AT_type(*$C$DW$T$23)
	.dwattr $C$DW$63, DW_AT_location[DW_OP_reg12]

$C$DW$64	.dwtag  DW_TAG_formal_parameter
	.dwattr $C$DW$64, DW_AT_name("clockPrescalar")
	.dwattr $C$DW$64, DW_AT_TI_symbol_name("clockPrescalar")
	.dwattr $C$DW$64, DW_AT_type(*$C$DW$T$23)
	.dwattr $C$DW$64, DW_AT_location[DW_OP_reg13]

$C$DW$65	.dwtag  DW_TAG_formal_parameter
	.dwattr $C$DW$65, DW_AT_name("mode")
	.dwattr $C$DW$65, DW_AT_TI_symbol_name("mode")
	.dwattr $C$DW$65, DW_AT_type(*$C$DW$T$23)
	.dwattr $C$DW$65, DW_AT_location[DW_OP_reg14]


;*****************************************************************************
;* FUNCTION NAME: LCD_E_setBlinkingControl                                   *
;*                                                                           *
;*   Regs Modified     : SP,SR,r14,r15                                       *
;*   Regs Used         : SP,SR,r12,r13,r14,r15                               *
;*   Local Frame Size  : 0 Args + 6 Auto + 0 Save = 6 byte                   *
;*****************************************************************************
LCD_E_setBlinkingControl:
;* --------------------------------------------------------------------------*
	.dwcfi	cfa_offset, 4
	.dwcfi	save_reg_to_mem, 16, -4
        SUB.W     #6,SP                 ; [] 
	.dwcfi	cfa_offset, 10
$C$DW$66	.dwtag  DW_TAG_variable
	.dwattr $C$DW$66, DW_AT_name("baseAddress")
	.dwattr $C$DW$66, DW_AT_TI_symbol_name("baseAddress")
	.dwattr $C$DW$66, DW_AT_type(*$C$DW$T$23)
	.dwattr $C$DW$66, DW_AT_location[DW_OP_breg1 0]

$C$DW$67	.dwtag  DW_TAG_variable
	.dwattr $C$DW$67, DW_AT_name("clockPrescalar")
	.dwattr $C$DW$67, DW_AT_TI_symbol_name("clockPrescalar")
	.dwattr $C$DW$67, DW_AT_type(*$C$DW$T$23)
	.dwattr $C$DW$67, DW_AT_location[DW_OP_breg1 2]

$C$DW$68	.dwtag  DW_TAG_variable
	.dwattr $C$DW$68, DW_AT_name("mode")
	.dwattr $C$DW$68, DW_AT_TI_symbol_name("mode")
	.dwattr $C$DW$68, DW_AT_type(*$C$DW$T$23)
	.dwattr $C$DW$68, DW_AT_location[DW_OP_breg1 4]

        MOV.W     r14,4(SP)             ; [] |178| 
        MOV.W     r13,2(SP)             ; [] |178| 
        MOV.W     r12,0(SP)             ; [] |178| 
	.dwpsn	file "../driverlib/MSP430FR2xx_4xx/lcd_e.c",line 179,column 5,is_stmt,isa 0
        MOV.W     #4,r15                ; [] |179| 
        ADD.W     0(SP),r15             ; [] |179| 
        AND.W     #65504,0(r15)         ; [] |179| 
	.dwpsn	file "../driverlib/MSP430FR2xx_4xx/lcd_e.c",line 182,column 5,is_stmt,isa 0
        MOV.W     #4,r15                ; [] |182| 
        ADD.W     0(SP),r15             ; [] |182| 
        MOV.W     2(SP),r14             ; [] |182| 
        OR.W      @r15,r14              ; [] |182| 
        OR.W      4(SP),r14             ; [] |182| 
        MOV.W     r14,0(r15)            ; [] |182| 
	.dwpsn	file "../driverlib/MSP430FR2xx_4xx/lcd_e.c",line 183,column 1,is_stmt,isa 0
        ADD.W     #6,SP                 ; [] 
	.dwcfi	cfa_offset, 4
$C$DW$69	.dwtag  DW_TAG_TI_branch
	.dwattr $C$DW$69, DW_AT_low_pc(0x00)
	.dwattr $C$DW$69, DW_AT_TI_return

        RETA      ; [] 
        ; [] 
	.dwattr $C$DW$62, DW_AT_TI_end_file("../driverlib/MSP430FR2xx_4xx/lcd_e.c")
	.dwattr $C$DW$62, DW_AT_TI_end_line(0xb7)
	.dwattr $C$DW$62, DW_AT_TI_end_column(0x01)
	.dwendentry
	.dwendtag $C$DW$62

	.sect	".text:LCD_E_enableChargePump"
	.clink
	.global	LCD_E_enableChargePump

$C$DW$70	.dwtag  DW_TAG_subprogram
	.dwattr $C$DW$70, DW_AT_name("LCD_E_enableChargePump")
	.dwattr $C$DW$70, DW_AT_low_pc(LCD_E_enableChargePump)
	.dwattr $C$DW$70, DW_AT_high_pc(0x00)
	.dwattr $C$DW$70, DW_AT_TI_symbol_name("LCD_E_enableChargePump")
	.dwattr $C$DW$70, DW_AT_external
	.dwattr $C$DW$70, DW_AT_TI_begin_file("../driverlib/MSP430FR2xx_4xx/lcd_e.c")
	.dwattr $C$DW$70, DW_AT_TI_begin_line(0xb9)
	.dwattr $C$DW$70, DW_AT_TI_begin_column(0x06)
	.dwattr $C$DW$70, DW_AT_decl_file("../driverlib/MSP430FR2xx_4xx/lcd_e.c")
	.dwattr $C$DW$70, DW_AT_decl_line(0xb9)
	.dwattr $C$DW$70, DW_AT_decl_column(0x06)
	.dwattr $C$DW$70, DW_AT_TI_max_frame_size(0x06)
	.dwpsn	file "../driverlib/MSP430FR2xx_4xx/lcd_e.c",line 186,column 1,is_stmt,address LCD_E_enableChargePump,isa 0

	.dwfde $C$DW$CIE, LCD_E_enableChargePump
$C$DW$71	.dwtag  DW_TAG_formal_parameter
	.dwattr $C$DW$71, DW_AT_name("baseAddress")
	.dwattr $C$DW$71, DW_AT_TI_symbol_name("baseAddress")
	.dwattr $C$DW$71, DW_AT_type(*$C$DW$T$23)
	.dwattr $C$DW$71, DW_AT_location[DW_OP_reg12]


;*****************************************************************************
;* FUNCTION NAME: LCD_E_enableChargePump                                     *
;*                                                                           *
;*   Regs Modified     : SP,SR,r15                                           *
;*   Regs Used         : SP,SR,r12,r15                                       *
;*   Local Frame Size  : 0 Args + 2 Auto + 0 Save = 2 byte                   *
;*****************************************************************************
LCD_E_enableChargePump:
;* --------------------------------------------------------------------------*
	.dwcfi	cfa_offset, 4
	.dwcfi	save_reg_to_mem, 16, -4
        SUB.W     #2,SP                 ; [] 
	.dwcfi	cfa_offset, 6
$C$DW$72	.dwtag  DW_TAG_variable
	.dwattr $C$DW$72, DW_AT_name("baseAddress")
	.dwattr $C$DW$72, DW_AT_TI_symbol_name("baseAddress")
	.dwattr $C$DW$72, DW_AT_type(*$C$DW$T$23)
	.dwattr $C$DW$72, DW_AT_location[DW_OP_breg1 0]

        MOV.W     r12,0(SP)             ; [] |186| 
	.dwpsn	file "../driverlib/MSP430FR2xx_4xx/lcd_e.c",line 187,column 5,is_stmt,isa 0
        MOV.W     #8,r15                ; [] |187| 
        ADD.W     0(SP),r15             ; [] |187| 
        OR.W      #128,0(r15)           ; [] |187| 
	.dwpsn	file "../driverlib/MSP430FR2xx_4xx/lcd_e.c",line 188,column 1,is_stmt,isa 0
        ADD.W     #2,SP                 ; [] 
	.dwcfi	cfa_offset, 4
$C$DW$73	.dwtag  DW_TAG_TI_branch
	.dwattr $C$DW$73, DW_AT_low_pc(0x00)
	.dwattr $C$DW$73, DW_AT_TI_return

        RETA      ; [] 
        ; [] 
	.dwattr $C$DW$70, DW_AT_TI_end_file("../driverlib/MSP430FR2xx_4xx/lcd_e.c")
	.dwattr $C$DW$70, DW_AT_TI_end_line(0xbc)
	.dwattr $C$DW$70, DW_AT_TI_end_column(0x01)
	.dwendentry
	.dwendtag $C$DW$70

	.sect	".text:LCD_E_disableChargePump"
	.clink
	.global	LCD_E_disableChargePump

$C$DW$74	.dwtag  DW_TAG_subprogram
	.dwattr $C$DW$74, DW_AT_name("LCD_E_disableChargePump")
	.dwattr $C$DW$74, DW_AT_low_pc(LCD_E_disableChargePump)
	.dwattr $C$DW$74, DW_AT_high_pc(0x00)
	.dwattr $C$DW$74, DW_AT_TI_symbol_name("LCD_E_disableChargePump")
	.dwattr $C$DW$74, DW_AT_external
	.dwattr $C$DW$74, DW_AT_TI_begin_file("../driverlib/MSP430FR2xx_4xx/lcd_e.c")
	.dwattr $C$DW$74, DW_AT_TI_begin_line(0xbe)
	.dwattr $C$DW$74, DW_AT_TI_begin_column(0x06)
	.dwattr $C$DW$74, DW_AT_decl_file("../driverlib/MSP430FR2xx_4xx/lcd_e.c")
	.dwattr $C$DW$74, DW_AT_decl_line(0xbe)
	.dwattr $C$DW$74, DW_AT_decl_column(0x06)
	.dwattr $C$DW$74, DW_AT_TI_max_frame_size(0x06)
	.dwpsn	file "../driverlib/MSP430FR2xx_4xx/lcd_e.c",line 191,column 1,is_stmt,address LCD_E_disableChargePump,isa 0

	.dwfde $C$DW$CIE, LCD_E_disableChargePump
$C$DW$75	.dwtag  DW_TAG_formal_parameter
	.dwattr $C$DW$75, DW_AT_name("baseAddress")
	.dwattr $C$DW$75, DW_AT_TI_symbol_name("baseAddress")
	.dwattr $C$DW$75, DW_AT_type(*$C$DW$T$23)
	.dwattr $C$DW$75, DW_AT_location[DW_OP_reg12]


;*****************************************************************************
;* FUNCTION NAME: LCD_E_disableChargePump                                    *
;*                                                                           *
;*   Regs Modified     : SP,SR,r15                                           *
;*   Regs Used         : SP,SR,r12,r15                                       *
;*   Local Frame Size  : 0 Args + 2 Auto + 0 Save = 2 byte                   *
;*****************************************************************************
LCD_E_disableChargePump:
;* --------------------------------------------------------------------------*
	.dwcfi	cfa_offset, 4
	.dwcfi	save_reg_to_mem, 16, -4
        SUB.W     #2,SP                 ; [] 
	.dwcfi	cfa_offset, 6
$C$DW$76	.dwtag  DW_TAG_variable
	.dwattr $C$DW$76, DW_AT_name("baseAddress")
	.dwattr $C$DW$76, DW_AT_TI_symbol_name("baseAddress")
	.dwattr $C$DW$76, DW_AT_type(*$C$DW$T$23)
	.dwattr $C$DW$76, DW_AT_location[DW_OP_breg1 0]

        MOV.W     r12,0(SP)             ; [] |191| 
	.dwpsn	file "../driverlib/MSP430FR2xx_4xx/lcd_e.c",line 192,column 5,is_stmt,isa 0
        MOV.W     #8,r15                ; [] |192| 
        ADD.W     0(SP),r15             ; [] |192| 
        AND.W     #65407,0(r15)         ; [] |192| 
	.dwpsn	file "../driverlib/MSP430FR2xx_4xx/lcd_e.c",line 193,column 1,is_stmt,isa 0
        ADD.W     #2,SP                 ; [] 
	.dwcfi	cfa_offset, 4
$C$DW$77	.dwtag  DW_TAG_TI_branch
	.dwattr $C$DW$77, DW_AT_low_pc(0x00)
	.dwattr $C$DW$77, DW_AT_TI_return

        RETA      ; [] 
        ; [] 
	.dwattr $C$DW$74, DW_AT_TI_end_file("../driverlib/MSP430FR2xx_4xx/lcd_e.c")
	.dwattr $C$DW$74, DW_AT_TI_end_line(0xc1)
	.dwattr $C$DW$74, DW_AT_TI_end_column(0x01)
	.dwendentry
	.dwendtag $C$DW$74

	.sect	".text:LCD_E_setChargePumpFreq"
	.clink
	.global	LCD_E_setChargePumpFreq

$C$DW$78	.dwtag  DW_TAG_subprogram
	.dwattr $C$DW$78, DW_AT_name("LCD_E_setChargePumpFreq")
	.dwattr $C$DW$78, DW_AT_low_pc(LCD_E_setChargePumpFreq)
	.dwattr $C$DW$78, DW_AT_high_pc(0x00)
	.dwattr $C$DW$78, DW_AT_TI_symbol_name("LCD_E_setChargePumpFreq")
	.dwattr $C$DW$78, DW_AT_external
	.dwattr $C$DW$78, DW_AT_TI_begin_file("../driverlib/MSP430FR2xx_4xx/lcd_e.c")
	.dwattr $C$DW$78, DW_AT_TI_begin_line(0xc3)
	.dwattr $C$DW$78, DW_AT_TI_begin_column(0x06)
	.dwattr $C$DW$78, DW_AT_decl_file("../driverlib/MSP430FR2xx_4xx/lcd_e.c")
	.dwattr $C$DW$78, DW_AT_decl_line(0xc3)
	.dwattr $C$DW$78, DW_AT_decl_column(0x06)
	.dwattr $C$DW$78, DW_AT_TI_max_frame_size(0x08)
	.dwpsn	file "../driverlib/MSP430FR2xx_4xx/lcd_e.c",line 196,column 1,is_stmt,address LCD_E_setChargePumpFreq,isa 0

	.dwfde $C$DW$CIE, LCD_E_setChargePumpFreq
$C$DW$79	.dwtag  DW_TAG_formal_parameter
	.dwattr $C$DW$79, DW_AT_name("baseAddress")
	.dwattr $C$DW$79, DW_AT_TI_symbol_name("baseAddress")
	.dwattr $C$DW$79, DW_AT_type(*$C$DW$T$23)
	.dwattr $C$DW$79, DW_AT_location[DW_OP_reg12]

$C$DW$80	.dwtag  DW_TAG_formal_parameter
	.dwattr $C$DW$80, DW_AT_name("freq")
	.dwattr $C$DW$80, DW_AT_TI_symbol_name("freq")
	.dwattr $C$DW$80, DW_AT_type(*$C$DW$T$23)
	.dwattr $C$DW$80, DW_AT_location[DW_OP_reg13]


;*****************************************************************************
;* FUNCTION NAME: LCD_E_setChargePumpFreq                                    *
;*                                                                           *
;*   Regs Modified     : SP,SR,r15                                           *
;*   Regs Used         : SP,SR,r12,r13,r15                                   *
;*   Local Frame Size  : 0 Args + 4 Auto + 0 Save = 4 byte                   *
;*****************************************************************************
LCD_E_setChargePumpFreq:
;* --------------------------------------------------------------------------*
	.dwcfi	cfa_offset, 4
	.dwcfi	save_reg_to_mem, 16, -4
        SUB.W     #4,SP                 ; [] 
	.dwcfi	cfa_offset, 8
$C$DW$81	.dwtag  DW_TAG_variable
	.dwattr $C$DW$81, DW_AT_name("baseAddress")
	.dwattr $C$DW$81, DW_AT_TI_symbol_name("baseAddress")
	.dwattr $C$DW$81, DW_AT_type(*$C$DW$T$23)
	.dwattr $C$DW$81, DW_AT_location[DW_OP_breg1 0]

$C$DW$82	.dwtag  DW_TAG_variable
	.dwattr $C$DW$82, DW_AT_name("freq")
	.dwattr $C$DW$82, DW_AT_TI_symbol_name("freq")
	.dwattr $C$DW$82, DW_AT_type(*$C$DW$T$23)
	.dwattr $C$DW$82, DW_AT_location[DW_OP_breg1 2]

        MOV.W     r13,2(SP)             ; [] |196| 
        MOV.W     r12,0(SP)             ; [] |196| 
	.dwpsn	file "../driverlib/MSP430FR2xx_4xx/lcd_e.c",line 197,column 5,is_stmt,isa 0
        MOV.W     #8,r15                ; [] |197| 
        ADD.W     0(SP),r15             ; [] |197| 
        AND.W     #4095,0(r15)          ; [] |197| 
	.dwpsn	file "../driverlib/MSP430FR2xx_4xx/lcd_e.c",line 200,column 5,is_stmt,isa 0
        MOV.W     #8,r15                ; [] |200| 
        ADD.W     0(SP),r15             ; [] |200| 
        OR.W      2(SP),0(r15)          ; [] |200| 
	.dwpsn	file "../driverlib/MSP430FR2xx_4xx/lcd_e.c",line 201,column 1,is_stmt,isa 0
        ADD.W     #4,SP                 ; [] 
	.dwcfi	cfa_offset, 4
$C$DW$83	.dwtag  DW_TAG_TI_branch
	.dwattr $C$DW$83, DW_AT_low_pc(0x00)
	.dwattr $C$DW$83, DW_AT_TI_return

        RETA      ; [] 
        ; [] 
	.dwattr $C$DW$78, DW_AT_TI_end_file("../driverlib/MSP430FR2xx_4xx/lcd_e.c")
	.dwattr $C$DW$78, DW_AT_TI_end_line(0xc9)
	.dwattr $C$DW$78, DW_AT_TI_end_column(0x01)
	.dwendentry
	.dwendtag $C$DW$78

	.sect	".text:LCD_E_setVLCDSource"
	.clink
	.global	LCD_E_setVLCDSource

$C$DW$84	.dwtag  DW_TAG_subprogram
	.dwattr $C$DW$84, DW_AT_name("LCD_E_setVLCDSource")
	.dwattr $C$DW$84, DW_AT_low_pc(LCD_E_setVLCDSource)
	.dwattr $C$DW$84, DW_AT_high_pc(0x00)
	.dwattr $C$DW$84, DW_AT_TI_symbol_name("LCD_E_setVLCDSource")
	.dwattr $C$DW$84, DW_AT_external
	.dwattr $C$DW$84, DW_AT_TI_begin_file("../driverlib/MSP430FR2xx_4xx/lcd_e.c")
	.dwattr $C$DW$84, DW_AT_TI_begin_line(0xcb)
	.dwattr $C$DW$84, DW_AT_TI_begin_column(0x06)
	.dwattr $C$DW$84, DW_AT_decl_file("../driverlib/MSP430FR2xx_4xx/lcd_e.c")
	.dwattr $C$DW$84, DW_AT_decl_line(0xcb)
	.dwattr $C$DW$84, DW_AT_decl_column(0x06)
	.dwattr $C$DW$84, DW_AT_TI_max_frame_size(0x0a)
	.dwpsn	file "../driverlib/MSP430FR2xx_4xx/lcd_e.c",line 205,column 1,is_stmt,address LCD_E_setVLCDSource,isa 0

	.dwfde $C$DW$CIE, LCD_E_setVLCDSource
$C$DW$85	.dwtag  DW_TAG_formal_parameter
	.dwattr $C$DW$85, DW_AT_name("baseAddress")
	.dwattr $C$DW$85, DW_AT_TI_symbol_name("baseAddress")
	.dwattr $C$DW$85, DW_AT_type(*$C$DW$T$23)
	.dwattr $C$DW$85, DW_AT_location[DW_OP_reg12]

$C$DW$86	.dwtag  DW_TAG_formal_parameter
	.dwattr $C$DW$86, DW_AT_name("r13Source")
	.dwattr $C$DW$86, DW_AT_TI_symbol_name("r13Source")
	.dwattr $C$DW$86, DW_AT_type(*$C$DW$T$23)
	.dwattr $C$DW$86, DW_AT_location[DW_OP_reg13]

$C$DW$87	.dwtag  DW_TAG_formal_parameter
	.dwattr $C$DW$87, DW_AT_name("r33Source")
	.dwattr $C$DW$87, DW_AT_TI_symbol_name("r33Source")
	.dwattr $C$DW$87, DW_AT_type(*$C$DW$T$23)
	.dwattr $C$DW$87, DW_AT_location[DW_OP_reg14]


;*****************************************************************************
;* FUNCTION NAME: LCD_E_setVLCDSource                                        *
;*                                                                           *
;*   Regs Modified     : SP,SR,r14,r15                                       *
;*   Regs Used         : SP,SR,r12,r13,r14,r15                               *
;*   Local Frame Size  : 0 Args + 6 Auto + 0 Save = 6 byte                   *
;*****************************************************************************
LCD_E_setVLCDSource:
;* --------------------------------------------------------------------------*
	.dwcfi	cfa_offset, 4
	.dwcfi	save_reg_to_mem, 16, -4
        SUB.W     #6,SP                 ; [] 
	.dwcfi	cfa_offset, 10
$C$DW$88	.dwtag  DW_TAG_variable
	.dwattr $C$DW$88, DW_AT_name("baseAddress")
	.dwattr $C$DW$88, DW_AT_TI_symbol_name("baseAddress")
	.dwattr $C$DW$88, DW_AT_type(*$C$DW$T$23)
	.dwattr $C$DW$88, DW_AT_location[DW_OP_breg1 0]

$C$DW$89	.dwtag  DW_TAG_variable
	.dwattr $C$DW$89, DW_AT_name("r13Source")
	.dwattr $C$DW$89, DW_AT_TI_symbol_name("r13Source")
	.dwattr $C$DW$89, DW_AT_type(*$C$DW$T$23)
	.dwattr $C$DW$89, DW_AT_location[DW_OP_breg1 2]

$C$DW$90	.dwtag  DW_TAG_variable
	.dwattr $C$DW$90, DW_AT_name("r33Source")
	.dwattr $C$DW$90, DW_AT_TI_symbol_name("r33Source")
	.dwattr $C$DW$90, DW_AT_type(*$C$DW$T$23)
	.dwattr $C$DW$90, DW_AT_location[DW_OP_breg1 4]

        MOV.W     r14,4(SP)             ; [] |205| 
        MOV.W     r13,2(SP)             ; [] |205| 
        MOV.W     r12,0(SP)             ; [] |205| 
	.dwpsn	file "../driverlib/MSP430FR2xx_4xx/lcd_e.c",line 206,column 5,is_stmt,isa 0
        MOV.W     #8,r15                ; [] |206| 
        ADD.W     0(SP),r15             ; [] |206| 
        AND.W     #65502,0(r15)         ; [] |206| 
	.dwpsn	file "../driverlib/MSP430FR2xx_4xx/lcd_e.c",line 208,column 5,is_stmt,isa 0
        MOV.W     #8,r15                ; [] |208| 
        ADD.W     0(SP),r15             ; [] |208| 
        MOV.W     2(SP),r14             ; [] |208| 
        OR.W      @r15,r14              ; [] |208| 
        OR.W      4(SP),r14             ; [] |208| 
        MOV.W     r14,0(r15)            ; [] |208| 
	.dwpsn	file "../driverlib/MSP430FR2xx_4xx/lcd_e.c",line 209,column 1,is_stmt,isa 0
        ADD.W     #6,SP                 ; [] 
	.dwcfi	cfa_offset, 4
$C$DW$91	.dwtag  DW_TAG_TI_branch
	.dwattr $C$DW$91, DW_AT_low_pc(0x00)
	.dwattr $C$DW$91, DW_AT_TI_return

        RETA      ; [] 
        ; [] 
	.dwattr $C$DW$84, DW_AT_TI_end_file("../driverlib/MSP430FR2xx_4xx/lcd_e.c")
	.dwattr $C$DW$84, DW_AT_TI_end_line(0xd1)
	.dwattr $C$DW$84, DW_AT_TI_end_column(0x01)
	.dwendentry
	.dwendtag $C$DW$84

	.sect	".text:LCD_E_setVLCDVoltage"
	.clink
	.global	LCD_E_setVLCDVoltage

$C$DW$92	.dwtag  DW_TAG_subprogram
	.dwattr $C$DW$92, DW_AT_name("LCD_E_setVLCDVoltage")
	.dwattr $C$DW$92, DW_AT_low_pc(LCD_E_setVLCDVoltage)
	.dwattr $C$DW$92, DW_AT_high_pc(0x00)
	.dwattr $C$DW$92, DW_AT_TI_symbol_name("LCD_E_setVLCDVoltage")
	.dwattr $C$DW$92, DW_AT_external
	.dwattr $C$DW$92, DW_AT_TI_begin_file("../driverlib/MSP430FR2xx_4xx/lcd_e.c")
	.dwattr $C$DW$92, DW_AT_TI_begin_line(0xd3)
	.dwattr $C$DW$92, DW_AT_TI_begin_column(0x06)
	.dwattr $C$DW$92, DW_AT_decl_file("../driverlib/MSP430FR2xx_4xx/lcd_e.c")
	.dwattr $C$DW$92, DW_AT_decl_line(0xd3)
	.dwattr $C$DW$92, DW_AT_decl_column(0x06)
	.dwattr $C$DW$92, DW_AT_TI_max_frame_size(0x08)
	.dwpsn	file "../driverlib/MSP430FR2xx_4xx/lcd_e.c",line 212,column 1,is_stmt,address LCD_E_setVLCDVoltage,isa 0

	.dwfde $C$DW$CIE, LCD_E_setVLCDVoltage
$C$DW$93	.dwtag  DW_TAG_formal_parameter
	.dwattr $C$DW$93, DW_AT_name("baseAddress")
	.dwattr $C$DW$93, DW_AT_TI_symbol_name("baseAddress")
	.dwattr $C$DW$93, DW_AT_type(*$C$DW$T$23)
	.dwattr $C$DW$93, DW_AT_location[DW_OP_reg12]

$C$DW$94	.dwtag  DW_TAG_formal_parameter
	.dwattr $C$DW$94, DW_AT_name("voltage")
	.dwattr $C$DW$94, DW_AT_TI_symbol_name("voltage")
	.dwattr $C$DW$94, DW_AT_type(*$C$DW$T$23)
	.dwattr $C$DW$94, DW_AT_location[DW_OP_reg13]


;*****************************************************************************
;* FUNCTION NAME: LCD_E_setVLCDVoltage                                       *
;*                                                                           *
;*   Regs Modified     : SP,SR,r15                                           *
;*   Regs Used         : SP,SR,r12,r13,r15                                   *
;*   Local Frame Size  : 0 Args + 4 Auto + 0 Save = 4 byte                   *
;*****************************************************************************
LCD_E_setVLCDVoltage:
;* --------------------------------------------------------------------------*
	.dwcfi	cfa_offset, 4
	.dwcfi	save_reg_to_mem, 16, -4
        SUB.W     #4,SP                 ; [] 
	.dwcfi	cfa_offset, 8
$C$DW$95	.dwtag  DW_TAG_variable
	.dwattr $C$DW$95, DW_AT_name("baseAddress")
	.dwattr $C$DW$95, DW_AT_TI_symbol_name("baseAddress")
	.dwattr $C$DW$95, DW_AT_type(*$C$DW$T$23)
	.dwattr $C$DW$95, DW_AT_location[DW_OP_breg1 0]

$C$DW$96	.dwtag  DW_TAG_variable
	.dwattr $C$DW$96, DW_AT_name("voltage")
	.dwattr $C$DW$96, DW_AT_TI_symbol_name("voltage")
	.dwattr $C$DW$96, DW_AT_type(*$C$DW$T$23)
	.dwattr $C$DW$96, DW_AT_location[DW_OP_breg1 2]

        MOV.W     r13,2(SP)             ; [] |212| 
        MOV.W     r12,0(SP)             ; [] |212| 
	.dwpsn	file "../driverlib/MSP430FR2xx_4xx/lcd_e.c",line 213,column 5,is_stmt,isa 0
        MOV.W     #8,r15                ; [] |213| 
        ADD.W     0(SP),r15             ; [] |213| 
        AND.W     #61695,0(r15)         ; [] |213| 
	.dwpsn	file "../driverlib/MSP430FR2xx_4xx/lcd_e.c",line 215,column 5,is_stmt,isa 0
        MOV.W     #8,r15                ; [] |215| 
        ADD.W     0(SP),r15             ; [] |215| 
        OR.W      2(SP),0(r15)          ; [] |215| 
	.dwpsn	file "../driverlib/MSP430FR2xx_4xx/lcd_e.c",line 216,column 1,is_stmt,isa 0
        ADD.W     #4,SP                 ; [] 
	.dwcfi	cfa_offset, 4
$C$DW$97	.dwtag  DW_TAG_TI_branch
	.dwattr $C$DW$97, DW_AT_low_pc(0x00)
	.dwattr $C$DW$97, DW_AT_TI_return

        RETA      ; [] 
        ; [] 
	.dwattr $C$DW$92, DW_AT_TI_end_file("../driverlib/MSP430FR2xx_4xx/lcd_e.c")
	.dwattr $C$DW$92, DW_AT_TI_end_line(0xd8)
	.dwattr $C$DW$92, DW_AT_TI_end_column(0x01)
	.dwendentry
	.dwendtag $C$DW$92

	.sect	".text:LCD_E_setReferenceMode"
	.clink
	.global	LCD_E_setReferenceMode

$C$DW$98	.dwtag  DW_TAG_subprogram
	.dwattr $C$DW$98, DW_AT_name("LCD_E_setReferenceMode")
	.dwattr $C$DW$98, DW_AT_low_pc(LCD_E_setReferenceMode)
	.dwattr $C$DW$98, DW_AT_high_pc(0x00)
	.dwattr $C$DW$98, DW_AT_TI_symbol_name("LCD_E_setReferenceMode")
	.dwattr $C$DW$98, DW_AT_external
	.dwattr $C$DW$98, DW_AT_TI_begin_file("../driverlib/MSP430FR2xx_4xx/lcd_e.c")
	.dwattr $C$DW$98, DW_AT_TI_begin_line(0xda)
	.dwattr $C$DW$98, DW_AT_TI_begin_column(0x06)
	.dwattr $C$DW$98, DW_AT_decl_file("../driverlib/MSP430FR2xx_4xx/lcd_e.c")
	.dwattr $C$DW$98, DW_AT_decl_line(0xda)
	.dwattr $C$DW$98, DW_AT_decl_column(0x06)
	.dwattr $C$DW$98, DW_AT_TI_max_frame_size(0x08)
	.dwpsn	file "../driverlib/MSP430FR2xx_4xx/lcd_e.c",line 219,column 1,is_stmt,address LCD_E_setReferenceMode,isa 0

	.dwfde $C$DW$CIE, LCD_E_setReferenceMode
$C$DW$99	.dwtag  DW_TAG_formal_parameter
	.dwattr $C$DW$99, DW_AT_name("baseAddress")
	.dwattr $C$DW$99, DW_AT_TI_symbol_name("baseAddress")
	.dwattr $C$DW$99, DW_AT_type(*$C$DW$T$23)
	.dwattr $C$DW$99, DW_AT_location[DW_OP_reg12]

$C$DW$100	.dwtag  DW_TAG_formal_parameter
	.dwattr $C$DW$100, DW_AT_name("mode")
	.dwattr $C$DW$100, DW_AT_TI_symbol_name("mode")
	.dwattr $C$DW$100, DW_AT_type(*$C$DW$T$23)
	.dwattr $C$DW$100, DW_AT_location[DW_OP_reg13]


;*****************************************************************************
;* FUNCTION NAME: LCD_E_setReferenceMode                                     *
;*                                                                           *
;*   Regs Modified     : SP,SR,r15                                           *
;*   Regs Used         : SP,SR,r12,r13,r15                                   *
;*   Local Frame Size  : 0 Args + 4 Auto + 0 Save = 4 byte                   *
;*****************************************************************************
LCD_E_setReferenceMode:
;* --------------------------------------------------------------------------*
	.dwcfi	cfa_offset, 4
	.dwcfi	save_reg_to_mem, 16, -4
        SUB.W     #4,SP                 ; [] 
	.dwcfi	cfa_offset, 8
$C$DW$101	.dwtag  DW_TAG_variable
	.dwattr $C$DW$101, DW_AT_name("baseAddress")
	.dwattr $C$DW$101, DW_AT_TI_symbol_name("baseAddress")
	.dwattr $C$DW$101, DW_AT_type(*$C$DW$T$23)
	.dwattr $C$DW$101, DW_AT_location[DW_OP_breg1 0]

$C$DW$102	.dwtag  DW_TAG_variable
	.dwattr $C$DW$102, DW_AT_name("mode")
	.dwattr $C$DW$102, DW_AT_TI_symbol_name("mode")
	.dwattr $C$DW$102, DW_AT_type(*$C$DW$T$23)
	.dwattr $C$DW$102, DW_AT_location[DW_OP_breg1 2]

        MOV.W     r13,2(SP)             ; [] |219| 
        MOV.W     r12,0(SP)             ; [] |219| 
	.dwpsn	file "../driverlib/MSP430FR2xx_4xx/lcd_e.c",line 220,column 5,is_stmt,isa 0
        MOV.W     #8,r15                ; [] |220| 
        ADD.W     0(SP),r15             ; [] |220| 
        BIC.W     #1,0(r15)             ; [] |220| 
	.dwpsn	file "../driverlib/MSP430FR2xx_4xx/lcd_e.c",line 222,column 5,is_stmt,isa 0
        MOV.W     #8,r15                ; [] |222| 
        ADD.W     0(SP),r15             ; [] |222| 
        OR.W      2(SP),0(r15)          ; [] |222| 
	.dwpsn	file "../driverlib/MSP430FR2xx_4xx/lcd_e.c",line 223,column 1,is_stmt,isa 0
        ADD.W     #4,SP                 ; [] 
	.dwcfi	cfa_offset, 4
$C$DW$103	.dwtag  DW_TAG_TI_branch
	.dwattr $C$DW$103, DW_AT_low_pc(0x00)
	.dwattr $C$DW$103, DW_AT_TI_return

        RETA      ; [] 
        ; [] 
	.dwattr $C$DW$98, DW_AT_TI_end_file("../driverlib/MSP430FR2xx_4xx/lcd_e.c")
	.dwattr $C$DW$98, DW_AT_TI_end_line(0xdf)
	.dwattr $C$DW$98, DW_AT_TI_end_column(0x01)
	.dwendentry
	.dwendtag $C$DW$98

	.sect	".text:LCD_E_setPinAsLCDFunction"
	.clink
	.global	LCD_E_setPinAsLCDFunction

$C$DW$104	.dwtag  DW_TAG_subprogram
	.dwattr $C$DW$104, DW_AT_name("LCD_E_setPinAsLCDFunction")
	.dwattr $C$DW$104, DW_AT_low_pc(LCD_E_setPinAsLCDFunction)
	.dwattr $C$DW$104, DW_AT_high_pc(0x00)
	.dwattr $C$DW$104, DW_AT_TI_symbol_name("LCD_E_setPinAsLCDFunction")
	.dwattr $C$DW$104, DW_AT_external
	.dwattr $C$DW$104, DW_AT_TI_begin_file("../driverlib/MSP430FR2xx_4xx/lcd_e.c")
	.dwattr $C$DW$104, DW_AT_TI_begin_line(0xe1)
	.dwattr $C$DW$104, DW_AT_TI_begin_column(0x06)
	.dwattr $C$DW$104, DW_AT_decl_file("../driverlib/MSP430FR2xx_4xx/lcd_e.c")
	.dwattr $C$DW$104, DW_AT_decl_line(0xe1)
	.dwattr $C$DW$104, DW_AT_decl_column(0x06)
	.dwattr $C$DW$104, DW_AT_TI_max_frame_size(0x0a)
	.dwpsn	file "../driverlib/MSP430FR2xx_4xx/lcd_e.c",line 226,column 1,is_stmt,address LCD_E_setPinAsLCDFunction,isa 0

	.dwfde $C$DW$CIE, LCD_E_setPinAsLCDFunction
$C$DW$105	.dwtag  DW_TAG_formal_parameter
	.dwattr $C$DW$105, DW_AT_name("baseAddress")
	.dwattr $C$DW$105, DW_AT_TI_symbol_name("baseAddress")
	.dwattr $C$DW$105, DW_AT_type(*$C$DW$T$23)
	.dwattr $C$DW$105, DW_AT_location[DW_OP_reg12]

$C$DW$106	.dwtag  DW_TAG_formal_parameter
	.dwattr $C$DW$106, DW_AT_name("pin")
	.dwattr $C$DW$106, DW_AT_TI_symbol_name("pin")
	.dwattr $C$DW$106, DW_AT_type(*$C$DW$T$30)
	.dwattr $C$DW$106, DW_AT_location[DW_OP_reg13]


;*****************************************************************************
;* FUNCTION NAME: LCD_E_setPinAsLCDFunction                                  *
;*                                                                           *
;*   Regs Modified     : SP,SR,r12,r13,r14,r15                               *
;*   Regs Used         : SP,SR,r12,r13,r14,r15                               *
;*   Local Frame Size  : 0 Args + 6 Auto + 0 Save = 6 byte                   *
;*****************************************************************************
LCD_E_setPinAsLCDFunction:
;* --------------------------------------------------------------------------*
	.dwcfi	cfa_offset, 4
	.dwcfi	save_reg_to_mem, 16, -4
        SUB.W     #6,SP                 ; [] 
	.dwcfi	cfa_offset, 10
$C$DW$107	.dwtag  DW_TAG_variable
	.dwattr $C$DW$107, DW_AT_name("baseAddress")
	.dwattr $C$DW$107, DW_AT_TI_symbol_name("baseAddress")
	.dwattr $C$DW$107, DW_AT_type(*$C$DW$T$23)
	.dwattr $C$DW$107, DW_AT_location[DW_OP_breg1 0]

$C$DW$108	.dwtag  DW_TAG_variable
	.dwattr $C$DW$108, DW_AT_name("val")
	.dwattr $C$DW$108, DW_AT_TI_symbol_name("val")
	.dwattr $C$DW$108, DW_AT_type(*$C$DW$T$23)
	.dwattr $C$DW$108, DW_AT_location[DW_OP_breg1 2]

$C$DW$109	.dwtag  DW_TAG_variable
	.dwattr $C$DW$109, DW_AT_name("pin")
	.dwattr $C$DW$109, DW_AT_TI_symbol_name("pin")
	.dwattr $C$DW$109, DW_AT_type(*$C$DW$T$30)
	.dwattr $C$DW$109, DW_AT_location[DW_OP_breg1 4]

$C$DW$110	.dwtag  DW_TAG_variable
	.dwattr $C$DW$110, DW_AT_name("idx")
	.dwattr $C$DW$110, DW_AT_TI_symbol_name("idx")
	.dwattr $C$DW$110, DW_AT_type(*$C$DW$T$30)
	.dwattr $C$DW$110, DW_AT_location[DW_OP_breg1 5]

        MOV.B     r13,4(SP)             ; [] |226| 
        MOV.W     r12,0(SP)             ; [] |226| 
	.dwpsn	file "../driverlib/MSP430FR2xx_4xx/lcd_e.c",line 227,column 5,is_stmt,isa 0
        MOV.W     0(SP),r15             ; [] |227| 
        BIC.W     #1,0(r15)             ; [] |227| 
	.dwpsn	file "../driverlib/MSP430FR2xx_4xx/lcd_e.c",line 229,column 17,is_stmt,isa 0
        MOV.B     4(SP),r15             ; [] |229| 
        RRUM.W    #4,r15                ; [] |229| 
        MOV.B     r15,5(SP)             ; [] |229| 
	.dwpsn	file "../driverlib/MSP430FR2xx_4xx/lcd_e.c",line 230,column 18,is_stmt,isa 0
        MOV.B     4(SP),r13             ; [] |230| 
        AND.W     #15,r13               ; [] |230| 
        MOV.W     #1,r12                ; [] |230| 
$C$DW$111	.dwtag  DW_TAG_TI_branch
	.dwattr $C$DW$111, DW_AT_low_pc(0x00)
	.dwattr $C$DW$111, DW_AT_name("__mspabi_slli")
	.dwattr $C$DW$111, DW_AT_TI_call

        CALLA     #__mspabi_slli        ; [] |230| 
                                          ; [] |230| 
        MOVA      r12,r14               ; [] |230| 
        MOV.W     r14,2(SP)             ; [] |230| 
	.dwpsn	file "../driverlib/MSP430FR2xx_4xx/lcd_e.c",line 232,column 5,is_stmt,isa 0
        MOV.W     0(SP),r12             ; [] |232| 
        MOV.B     5(SP),r13             ; [] |232| 
$C$DW$112	.dwtag  DW_TAG_TI_branch
	.dwattr $C$DW$112, DW_AT_low_pc(0x00)
	.dwattr $C$DW$112, DW_AT_name("setLCDFunction")
	.dwattr $C$DW$112, DW_AT_TI_call

        CALLA     #setLCDFunction       ; [] |232| 
                                          ; [] |232| 
	.dwpsn	file "../driverlib/MSP430FR2xx_4xx/lcd_e.c",line 233,column 1,is_stmt,isa 0
        ADD.W     #6,SP                 ; [] 
	.dwcfi	cfa_offset, 4
$C$DW$113	.dwtag  DW_TAG_TI_branch
	.dwattr $C$DW$113, DW_AT_low_pc(0x00)
	.dwattr $C$DW$113, DW_AT_TI_return

        RETA      ; [] 
        ; [] 
	.dwattr $C$DW$104, DW_AT_TI_end_file("../driverlib/MSP430FR2xx_4xx/lcd_e.c")
	.dwattr $C$DW$104, DW_AT_TI_end_line(0xe9)
	.dwattr $C$DW$104, DW_AT_TI_end_column(0x01)
	.dwendentry
	.dwendtag $C$DW$104

	.sect	".text:LCD_E_setPinAsPortFunction"
	.clink
	.global	LCD_E_setPinAsPortFunction

$C$DW$114	.dwtag  DW_TAG_subprogram
	.dwattr $C$DW$114, DW_AT_name("LCD_E_setPinAsPortFunction")
	.dwattr $C$DW$114, DW_AT_low_pc(LCD_E_setPinAsPortFunction)
	.dwattr $C$DW$114, DW_AT_high_pc(0x00)
	.dwattr $C$DW$114, DW_AT_TI_symbol_name("LCD_E_setPinAsPortFunction")
	.dwattr $C$DW$114, DW_AT_external
	.dwattr $C$DW$114, DW_AT_TI_begin_file("../driverlib/MSP430FR2xx_4xx/lcd_e.c")
	.dwattr $C$DW$114, DW_AT_TI_begin_line(0xeb)
	.dwattr $C$DW$114, DW_AT_TI_begin_column(0x06)
	.dwattr $C$DW$114, DW_AT_decl_file("../driverlib/MSP430FR2xx_4xx/lcd_e.c")
	.dwattr $C$DW$114, DW_AT_decl_line(0xeb)
	.dwattr $C$DW$114, DW_AT_decl_column(0x06)
	.dwattr $C$DW$114, DW_AT_TI_max_frame_size(0x0a)
	.dwpsn	file "../driverlib/MSP430FR2xx_4xx/lcd_e.c",line 236,column 1,is_stmt,address LCD_E_setPinAsPortFunction,isa 0

	.dwfde $C$DW$CIE, LCD_E_setPinAsPortFunction
$C$DW$115	.dwtag  DW_TAG_formal_parameter
	.dwattr $C$DW$115, DW_AT_name("baseAddress")
	.dwattr $C$DW$115, DW_AT_TI_symbol_name("baseAddress")
	.dwattr $C$DW$115, DW_AT_type(*$C$DW$T$23)
	.dwattr $C$DW$115, DW_AT_location[DW_OP_reg12]

$C$DW$116	.dwtag  DW_TAG_formal_parameter
	.dwattr $C$DW$116, DW_AT_name("pin")
	.dwattr $C$DW$116, DW_AT_TI_symbol_name("pin")
	.dwattr $C$DW$116, DW_AT_type(*$C$DW$T$30)
	.dwattr $C$DW$116, DW_AT_location[DW_OP_reg13]


;*****************************************************************************
;* FUNCTION NAME: LCD_E_setPinAsPortFunction                                 *
;*                                                                           *
;*   Regs Modified     : SP,SR,r12,r13,r15                                   *
;*   Regs Used         : SP,SR,r12,r13,r15                                   *
;*   Local Frame Size  : 0 Args + 6 Auto + 0 Save = 6 byte                   *
;*****************************************************************************
LCD_E_setPinAsPortFunction:
;* --------------------------------------------------------------------------*
	.dwcfi	cfa_offset, 4
	.dwcfi	save_reg_to_mem, 16, -4
        SUB.W     #6,SP                 ; [] 
	.dwcfi	cfa_offset, 10
$C$DW$117	.dwtag  DW_TAG_variable
	.dwattr $C$DW$117, DW_AT_name("baseAddress")
	.dwattr $C$DW$117, DW_AT_TI_symbol_name("baseAddress")
	.dwattr $C$DW$117, DW_AT_type(*$C$DW$T$23)
	.dwattr $C$DW$117, DW_AT_location[DW_OP_breg1 0]

$C$DW$118	.dwtag  DW_TAG_variable
	.dwattr $C$DW$118, DW_AT_name("val")
	.dwattr $C$DW$118, DW_AT_TI_symbol_name("val")
	.dwattr $C$DW$118, DW_AT_type(*$C$DW$T$23)
	.dwattr $C$DW$118, DW_AT_location[DW_OP_breg1 2]

$C$DW$119	.dwtag  DW_TAG_variable
	.dwattr $C$DW$119, DW_AT_name("pin")
	.dwattr $C$DW$119, DW_AT_TI_symbol_name("pin")
	.dwattr $C$DW$119, DW_AT_type(*$C$DW$T$30)
	.dwattr $C$DW$119, DW_AT_location[DW_OP_breg1 4]

$C$DW$120	.dwtag  DW_TAG_variable
	.dwattr $C$DW$120, DW_AT_name("idx")
	.dwattr $C$DW$120, DW_AT_TI_symbol_name("idx")
	.dwattr $C$DW$120, DW_AT_type(*$C$DW$T$30)
	.dwattr $C$DW$120, DW_AT_location[DW_OP_breg1 5]

        MOV.B     r13,4(SP)             ; [] |236| 
        MOV.W     r12,0(SP)             ; [] |236| 
	.dwpsn	file "../driverlib/MSP430FR2xx_4xx/lcd_e.c",line 237,column 5,is_stmt,isa 0
        MOV.W     0(SP),r15             ; [] |237| 
        BIC.W     #1,0(r15)             ; [] |237| 
	.dwpsn	file "../driverlib/MSP430FR2xx_4xx/lcd_e.c",line 239,column 17,is_stmt,isa 0
        MOV.B     4(SP),r15             ; [] |239| 
        RRUM.W    #4,r15                ; [] |239| 
        MOV.B     r15,5(SP)             ; [] |239| 
	.dwpsn	file "../driverlib/MSP430FR2xx_4xx/lcd_e.c",line 240,column 18,is_stmt,isa 0
        MOV.B     4(SP),r13             ; [] |240| 
        AND.W     #15,r13               ; [] |240| 
        MOV.W     #1,r12                ; [] |240| 
$C$DW$121	.dwtag  DW_TAG_TI_branch
	.dwattr $C$DW$121, DW_AT_low_pc(0x00)
	.dwattr $C$DW$121, DW_AT_name("__mspabi_slli")
	.dwattr $C$DW$121, DW_AT_TI_call

        CALLA     #__mspabi_slli        ; [] |240| 
                                          ; [] |240| 
        MOV.W     r12,2(SP)             ; [] |240| 
	.dwpsn	file "../driverlib/MSP430FR2xx_4xx/lcd_e.c",line 242,column 5,is_stmt,isa 0
        JMP       $C$L9                 ; [] |242| 
                                          ; [] |242| 
;* --------------------------------------------------------------------------*
$C$L6:    
	.dwpsn	file "../driverlib/MSP430FR2xx_4xx/lcd_e.c",line 244,column 13,is_stmt,isa 0
        MOV.W     #10,r15               ; [] |244| 
        ADD.W     0(SP),r15             ; [] |244| 
        BIC.W     2(SP),0(r15)          ; [] |244| 
	.dwpsn	file "../driverlib/MSP430FR2xx_4xx/lcd_e.c",line 245,column 13,is_stmt,isa 0
        JMP       $C$L10                ; [] |245| 
                                          ; [] |245| 
;* --------------------------------------------------------------------------*
$C$L7:    
	.dwpsn	file "../driverlib/MSP430FR2xx_4xx/lcd_e.c",line 247,column 13,is_stmt,isa 0
        MOV.W     #12,r15               ; [] |247| 
        ADD.W     0(SP),r15             ; [] |247| 
        BIC.W     2(SP),0(r15)          ; [] |247| 
	.dwpsn	file "../driverlib/MSP430FR2xx_4xx/lcd_e.c",line 248,column 13,is_stmt,isa 0
        JMP       $C$L10                ; [] |248| 
                                          ; [] |248| 
;* --------------------------------------------------------------------------*
$C$L8:    
	.dwpsn	file "../driverlib/MSP430FR2xx_4xx/lcd_e.c",line 250,column 13,is_stmt,isa 0
        MOV.W     #14,r15               ; [] |250| 
        ADD.W     0(SP),r15             ; [] |250| 
        BIC.W     2(SP),0(r15)          ; [] |250| 
	.dwpsn	file "../driverlib/MSP430FR2xx_4xx/lcd_e.c",line 251,column 13,is_stmt,isa 0
        JMP       $C$L10                ; [] |251| 
                                          ; [] |251| 
;* --------------------------------------------------------------------------*
;* --------------------------------------------------------------------------*
$C$L9:    
	.dwpsn	file "../driverlib/MSP430FR2xx_4xx/lcd_e.c",line 242,column 5,is_stmt,isa 0
        MOV.B     5(SP),r15             ; [] |242| 
        TST.W     r15                   ; [] |242| 
        JEQ       $C$L6                 ; [] |242| 
                                          ; [] |242| 
;* --------------------------------------------------------------------------*
        SUB.W     #1,r15                ; [] |242| 
        JEQ       $C$L7                 ; [] |242| 
                                          ; [] |242| 
;* --------------------------------------------------------------------------*
        SUB.W     #1,r15                ; [] |242| 
        JEQ       $C$L8                 ; [] |242| 
                                          ; [] |242| 
;* --------------------------------------------------------------------------*
        JMP       $C$L10                ; [] |242| 
                                          ; [] |242| 
;* --------------------------------------------------------------------------*
;* --------------------------------------------------------------------------*
$C$L10:    
        ADD.W     #6,SP                 ; [] 
	.dwcfi	cfa_offset, 4
$C$DW$122	.dwtag  DW_TAG_TI_branch
	.dwattr $C$DW$122, DW_AT_low_pc(0x00)
	.dwattr $C$DW$122, DW_AT_TI_return

        RETA      ; [] 
        ; [] 
	.dwattr $C$DW$114, DW_AT_TI_end_file("../driverlib/MSP430FR2xx_4xx/lcd_e.c")
	.dwattr $C$DW$114, DW_AT_TI_end_line(0xfe)
	.dwattr $C$DW$114, DW_AT_TI_end_column(0x01)
	.dwendentry
	.dwendtag $C$DW$114

	.sect	".text:LCD_E_setPinAsLCDFunctionEx"
	.clink
	.global	LCD_E_setPinAsLCDFunctionEx

$C$DW$123	.dwtag  DW_TAG_subprogram
	.dwattr $C$DW$123, DW_AT_name("LCD_E_setPinAsLCDFunctionEx")
	.dwattr $C$DW$123, DW_AT_low_pc(LCD_E_setPinAsLCDFunctionEx)
	.dwattr $C$DW$123, DW_AT_high_pc(0x00)
	.dwattr $C$DW$123, DW_AT_TI_symbol_name("LCD_E_setPinAsLCDFunctionEx")
	.dwattr $C$DW$123, DW_AT_external
	.dwattr $C$DW$123, DW_AT_TI_begin_file("../driverlib/MSP430FR2xx_4xx/lcd_e.c")
	.dwattr $C$DW$123, DW_AT_TI_begin_line(0x100)
	.dwattr $C$DW$123, DW_AT_TI_begin_column(0x06)
	.dwattr $C$DW$123, DW_AT_decl_file("../driverlib/MSP430FR2xx_4xx/lcd_e.c")
	.dwattr $C$DW$123, DW_AT_decl_line(0x100)
	.dwattr $C$DW$123, DW_AT_decl_column(0x06)
	.dwattr $C$DW$123, DW_AT_TI_max_frame_size(0x10)
	.dwpsn	file "../driverlib/MSP430FR2xx_4xx/lcd_e.c",line 259,column 1,is_stmt,address LCD_E_setPinAsLCDFunctionEx,isa 0

	.dwfde $C$DW$CIE, LCD_E_setPinAsLCDFunctionEx
$C$DW$124	.dwtag  DW_TAG_formal_parameter
	.dwattr $C$DW$124, DW_AT_name("baseAddress")
	.dwattr $C$DW$124, DW_AT_TI_symbol_name("baseAddress")
	.dwattr $C$DW$124, DW_AT_type(*$C$DW$T$23)
	.dwattr $C$DW$124, DW_AT_location[DW_OP_reg12]

$C$DW$125	.dwtag  DW_TAG_formal_parameter
	.dwattr $C$DW$125, DW_AT_name("startPin")
	.dwattr $C$DW$125, DW_AT_TI_symbol_name("startPin")
	.dwattr $C$DW$125, DW_AT_type(*$C$DW$T$30)
	.dwattr $C$DW$125, DW_AT_location[DW_OP_reg13]

$C$DW$126	.dwtag  DW_TAG_formal_parameter
	.dwattr $C$DW$126, DW_AT_name("endPin")
	.dwattr $C$DW$126, DW_AT_TI_symbol_name("endPin")
	.dwattr $C$DW$126, DW_AT_type(*$C$DW$T$30)
	.dwattr $C$DW$126, DW_AT_location[DW_OP_reg14]


;*****************************************************************************
;* FUNCTION NAME: LCD_E_setPinAsLCDFunctionEx                                *
;*                                                                           *
;*   Regs Modified     : SP,SR,r12,r13,r14,r15                               *
;*   Regs Used         : SP,SR,r12,r13,r14,r15                               *
;*   Local Frame Size  : 0 Args + 12 Auto + 0 Save = 12 byte                 *
;*****************************************************************************
LCD_E_setPinAsLCDFunctionEx:
;* --------------------------------------------------------------------------*
	.dwcfi	cfa_offset, 4
	.dwcfi	save_reg_to_mem, 16, -4
        SUB.W     #12,SP                ; [] 
	.dwcfi	cfa_offset, 16
$C$DW$127	.dwtag  DW_TAG_variable
	.dwattr $C$DW$127, DW_AT_name("baseAddress")
	.dwattr $C$DW$127, DW_AT_TI_symbol_name("baseAddress")
	.dwattr $C$DW$127, DW_AT_type(*$C$DW$T$23)
	.dwattr $C$DW$127, DW_AT_location[DW_OP_breg1 0]

$C$DW$128	.dwtag  DW_TAG_variable
	.dwattr $C$DW$128, DW_AT_name("val")
	.dwattr $C$DW$128, DW_AT_TI_symbol_name("val")
	.dwattr $C$DW$128, DW_AT_type(*$C$DW$T$23)
	.dwattr $C$DW$128, DW_AT_location[DW_OP_breg1 2]

$C$DW$129	.dwtag  DW_TAG_variable
	.dwattr $C$DW$129, DW_AT_name("startPin")
	.dwattr $C$DW$129, DW_AT_TI_symbol_name("startPin")
	.dwattr $C$DW$129, DW_AT_type(*$C$DW$T$30)
	.dwattr $C$DW$129, DW_AT_location[DW_OP_breg1 4]

$C$DW$130	.dwtag  DW_TAG_variable
	.dwattr $C$DW$130, DW_AT_name("endPin")
	.dwattr $C$DW$130, DW_AT_TI_symbol_name("endPin")
	.dwattr $C$DW$130, DW_AT_type(*$C$DW$T$30)
	.dwattr $C$DW$130, DW_AT_location[DW_OP_breg1 5]

$C$DW$131	.dwtag  DW_TAG_variable
	.dwattr $C$DW$131, DW_AT_name("startIdx")
	.dwattr $C$DW$131, DW_AT_TI_symbol_name("startIdx")
	.dwattr $C$DW$131, DW_AT_type(*$C$DW$T$30)
	.dwattr $C$DW$131, DW_AT_location[DW_OP_breg1 6]

$C$DW$132	.dwtag  DW_TAG_variable
	.dwattr $C$DW$132, DW_AT_name("endIdx")
	.dwattr $C$DW$132, DW_AT_TI_symbol_name("endIdx")
	.dwattr $C$DW$132, DW_AT_type(*$C$DW$T$30)
	.dwattr $C$DW$132, DW_AT_location[DW_OP_breg1 7]

$C$DW$133	.dwtag  DW_TAG_variable
	.dwattr $C$DW$133, DW_AT_name("startPos")
	.dwattr $C$DW$133, DW_AT_TI_symbol_name("startPos")
	.dwattr $C$DW$133, DW_AT_type(*$C$DW$T$30)
	.dwattr $C$DW$133, DW_AT_location[DW_OP_breg1 8]

$C$DW$134	.dwtag  DW_TAG_variable
	.dwattr $C$DW$134, DW_AT_name("endPos")
	.dwattr $C$DW$134, DW_AT_TI_symbol_name("endPos")
	.dwattr $C$DW$134, DW_AT_type(*$C$DW$T$30)
	.dwattr $C$DW$134, DW_AT_location[DW_OP_breg1 9]

$C$DW$135	.dwtag  DW_TAG_variable
	.dwattr $C$DW$135, DW_AT_name("i")
	.dwattr $C$DW$135, DW_AT_TI_symbol_name("i")
	.dwattr $C$DW$135, DW_AT_type(*$C$DW$T$30)
	.dwattr $C$DW$135, DW_AT_location[DW_OP_breg1 10]

        MOV.B     r14,5(SP)             ; [] |259| 
        MOV.B     r13,4(SP)             ; [] |259| 
        MOV.W     r12,0(SP)             ; [] |259| 
	.dwpsn	file "../driverlib/MSP430FR2xx_4xx/lcd_e.c",line 260,column 22,is_stmt,isa 0
        MOV.B     4(SP),r15             ; [] |260| 
        RRUM.W    #4,r15                ; [] |260| 
        MOV.B     r15,6(SP)             ; [] |260| 
	.dwpsn	file "../driverlib/MSP430FR2xx_4xx/lcd_e.c",line 261,column 20,is_stmt,isa 0
        MOV.B     5(SP),r15             ; [] |261| 
        RRUM.W    #4,r15                ; [] |261| 
        MOV.B     r15,7(SP)             ; [] |261| 
	.dwpsn	file "../driverlib/MSP430FR2xx_4xx/lcd_e.c",line 262,column 22,is_stmt,isa 0
        MOV.W     #15,r15               ; [] |262| 
        AND.B     4(SP),r15             ; [] |262| 
        MOV.B     r15,8(SP)             ; [] |262| 
	.dwpsn	file "../driverlib/MSP430FR2xx_4xx/lcd_e.c",line 263,column 20,is_stmt,isa 0
        MOV.W     #15,r15               ; [] |263| 
        AND.B     5(SP),r15             ; [] |263| 
        MOV.B     r15,9(SP)             ; [] |263| 
	.dwpsn	file "../driverlib/MSP430FR2xx_4xx/lcd_e.c",line 264,column 18,is_stmt,isa 0
        MOV.W     #0,2(SP)              ; [] |264| 
	.dwpsn	file "../driverlib/MSP430FR2xx_4xx/lcd_e.c",line 265,column 15,is_stmt,isa 0
        MOV.B     #0,10(SP)             ; [] |265| 
	.dwpsn	file "../driverlib/MSP430FR2xx_4xx/lcd_e.c",line 267,column 5,is_stmt,isa 0
        MOV.W     0(SP),r15             ; [] |267| 
        BIC.W     #1,0(r15)             ; [] |267| 
	.dwpsn	file "../driverlib/MSP430FR2xx_4xx/lcd_e.c",line 269,column 5,is_stmt,isa 0
        CMP.B     7(SP),6(SP)           ; [] |269| 
        JNE       $C$L11                ; [] |269| 
                                          ; [] |269| 
;* --------------------------------------------------------------------------*
	.dwpsn	file "../driverlib/MSP430FR2xx_4xx/lcd_e.c",line 270,column 9,is_stmt,isa 0
        MOV.B     9(SP),r15             ; [] |270| 
        MOV.W     #15,r13               ; [] |270| 
        SUB.W     r15,r13               ; [] |270| 
        MOV.W     #65535,r12            ; [] |270| 
$C$DW$136	.dwtag  DW_TAG_TI_branch
	.dwattr $C$DW$136, DW_AT_low_pc(0x00)
	.dwattr $C$DW$136, DW_AT_name("__mspabi_srli")
	.dwattr $C$DW$136, DW_AT_TI_call

        CALLA     #__mspabi_srli        ; [] |270| 
                                          ; [] |270| 
        MOVA      r12,r14               ; [] |270| 
        MOV.B     8(SP),r13             ; [] |270| 
        MOV.W     #65535,r12            ; [] |270| 
$C$DW$137	.dwtag  DW_TAG_TI_branch
	.dwattr $C$DW$137, DW_AT_low_pc(0x00)
	.dwattr $C$DW$137, DW_AT_name("__mspabi_slli")
	.dwattr $C$DW$137, DW_AT_TI_call

        CALLA     #__mspabi_slli        ; [] |270| 
                                          ; [] |270| 
        AND.W     r12,r14               ; [] |270| 
        MOV.W     r14,2(SP)             ; [] |270| 
	.dwpsn	file "../driverlib/MSP430FR2xx_4xx/lcd_e.c",line 272,column 9,is_stmt,isa 0
        MOV.W     0(SP),r12             ; [] |272| 
        MOV.B     6(SP),r13             ; [] |272| 
$C$DW$138	.dwtag  DW_TAG_TI_branch
	.dwattr $C$DW$138, DW_AT_low_pc(0x00)
	.dwattr $C$DW$138, DW_AT_name("setLCDFunction")
	.dwattr $C$DW$138, DW_AT_TI_call

        CALLA     #setLCDFunction       ; [] |272| 
                                          ; [] |272| 
        JMP       $C$L14                ; [] 
                                          ; [] 
;* --------------------------------------------------------------------------*
$C$L11:    
	.dwpsn	file "../driverlib/MSP430FR2xx_4xx/lcd_e.c",line 276,column 9,is_stmt,isa 0
        MOV.B     9(SP),r15             ; [] |276| 
        MOV.W     #15,r13               ; [] |276| 
        SUB.W     r15,r13               ; [] |276| 
        MOV.W     #65535,r12            ; [] |276| 
$C$DW$139	.dwtag  DW_TAG_TI_branch
	.dwattr $C$DW$139, DW_AT_low_pc(0x00)
	.dwattr $C$DW$139, DW_AT_name("__mspabi_srli")
	.dwattr $C$DW$139, DW_AT_TI_call

        CALLA     #__mspabi_srli        ; [] |276| 
                                          ; [] |276| 
        MOVA      r12,r14               ; [] |276| 
        MOV.W     r14,2(SP)             ; [] |276| 
	.dwpsn	file "../driverlib/MSP430FR2xx_4xx/lcd_e.c",line 277,column 9,is_stmt,isa 0
        MOV.W     0(SP),r12             ; [] |277| 
        MOV.B     7(SP),r13             ; [] |277| 
$C$DW$140	.dwtag  DW_TAG_TI_branch
	.dwattr $C$DW$140, DW_AT_low_pc(0x00)
	.dwattr $C$DW$140, DW_AT_name("setLCDFunction")
	.dwattr $C$DW$140, DW_AT_TI_call

        CALLA     #setLCDFunction       ; [] |277| 
                                          ; [] |277| 
	.dwpsn	file "../driverlib/MSP430FR2xx_4xx/lcd_e.c",line 279,column 14,is_stmt,isa 0
        MOV.B     7(SP),r15             ; [] |279| 
        SUB.B     #1,r15                ; [] |279| 
        MOV.B     r15,10(SP)            ; [] |279| 
        JMP       $C$L13                ; [] |279| 
                                          ; [] |279| 
;* --------------------------------------------------------------------------*
$C$L12:    
	.dwpsn	file "../driverlib/MSP430FR2xx_4xx/lcd_e.c",line 280,column 13,is_stmt,isa 0
        MOV.W     0(SP),r12             ; [] |280| 
        MOV.B     10(SP),r13            ; [] |280| 
        MOV.W     #65535,r14            ; [] |280| 
$C$DW$141	.dwtag  DW_TAG_TI_branch
	.dwattr $C$DW$141, DW_AT_low_pc(0x00)
	.dwattr $C$DW$141, DW_AT_name("setLCDFunction")
	.dwattr $C$DW$141, DW_AT_TI_call

        CALLA     #setLCDFunction       ; [] |280| 
                                          ; [] |280| 
	.dwpsn	file "../driverlib/MSP430FR2xx_4xx/lcd_e.c",line 279,column 38,is_stmt,isa 0
        SUB.B     #1,10(SP)             ; [] |279| 
;* --------------------------------------------------------------------------*
;*   BEGIN LOOP $C$L13
;* --------------------------------------------------------------------------*
$C$L13:    
	.dwpsn	file "../driverlib/MSP430FR2xx_4xx/lcd_e.c",line 279,column 26,is_stmt,isa 0
        CMP.B     10(SP),6(SP)          ; [] |279| 
        JLO       $C$L12                ; [] |279| 
                                          ; [] |279| 
;* --------------------------------------------------------------------------*
	.dwpsn	file "../driverlib/MSP430FR2xx_4xx/lcd_e.c",line 283,column 9,is_stmt,isa 0
        MOV.B     8(SP),r13             ; [] |283| 
        MOV.W     #65535,r12            ; [] |283| 
$C$DW$142	.dwtag  DW_TAG_TI_branch
	.dwattr $C$DW$142, DW_AT_low_pc(0x00)
	.dwattr $C$DW$142, DW_AT_name("__mspabi_slli")
	.dwattr $C$DW$142, DW_AT_TI_call

        CALLA     #__mspabi_slli        ; [] |283| 
                                          ; [] |283| 
        MOVA      r12,r14               ; [] |283| 
        MOV.W     r14,2(SP)             ; [] |283| 
	.dwpsn	file "../driverlib/MSP430FR2xx_4xx/lcd_e.c",line 284,column 9,is_stmt,isa 0
        MOV.W     0(SP),r12             ; [] |284| 
        MOV.B     6(SP),r13             ; [] |284| 
$C$DW$143	.dwtag  DW_TAG_TI_branch
	.dwattr $C$DW$143, DW_AT_low_pc(0x00)
	.dwattr $C$DW$143, DW_AT_name("setLCDFunction")
	.dwattr $C$DW$143, DW_AT_TI_call

        CALLA     #setLCDFunction       ; [] |284| 
                                          ; [] |284| 
	.dwpsn	file "../driverlib/MSP430FR2xx_4xx/lcd_e.c",line 286,column 1,is_stmt,isa 0
;* --------------------------------------------------------------------------*
$C$L14:    
        ADD.W     #12,SP                ; [] 
	.dwcfi	cfa_offset, 4
$C$DW$144	.dwtag  DW_TAG_TI_branch
	.dwattr $C$DW$144, DW_AT_low_pc(0x00)
	.dwattr $C$DW$144, DW_AT_TI_return

        RETA      ; [] 
        ; [] 
	.dwattr $C$DW$123, DW_AT_TI_end_file("../driverlib/MSP430FR2xx_4xx/lcd_e.c")
	.dwattr $C$DW$123, DW_AT_TI_end_line(0x11e)
	.dwattr $C$DW$123, DW_AT_TI_end_column(0x01)
	.dwendentry
	.dwendtag $C$DW$123

	.sect	".text:LCD_E_setPinAsCOM"
	.clink
	.global	LCD_E_setPinAsCOM

$C$DW$145	.dwtag  DW_TAG_subprogram
	.dwattr $C$DW$145, DW_AT_name("LCD_E_setPinAsCOM")
	.dwattr $C$DW$145, DW_AT_low_pc(LCD_E_setPinAsCOM)
	.dwattr $C$DW$145, DW_AT_high_pc(0x00)
	.dwattr $C$DW$145, DW_AT_TI_symbol_name("LCD_E_setPinAsCOM")
	.dwattr $C$DW$145, DW_AT_external
	.dwattr $C$DW$145, DW_AT_TI_begin_file("../driverlib/MSP430FR2xx_4xx/lcd_e.c")
	.dwattr $C$DW$145, DW_AT_TI_begin_line(0x120)
	.dwattr $C$DW$145, DW_AT_TI_begin_column(0x06)
	.dwattr $C$DW$145, DW_AT_decl_file("../driverlib/MSP430FR2xx_4xx/lcd_e.c")
	.dwattr $C$DW$145, DW_AT_decl_line(0x120)
	.dwattr $C$DW$145, DW_AT_decl_column(0x06)
	.dwattr $C$DW$145, DW_AT_TI_max_frame_size(0x0c)
	.dwpsn	file "../driverlib/MSP430FR2xx_4xx/lcd_e.c",line 289,column 1,is_stmt,address LCD_E_setPinAsCOM,isa 0

	.dwfde $C$DW$CIE, LCD_E_setPinAsCOM
$C$DW$146	.dwtag  DW_TAG_formal_parameter
	.dwattr $C$DW$146, DW_AT_name("baseAddress")
	.dwattr $C$DW$146, DW_AT_TI_symbol_name("baseAddress")
	.dwattr $C$DW$146, DW_AT_type(*$C$DW$T$23)
	.dwattr $C$DW$146, DW_AT_location[DW_OP_reg12]

$C$DW$147	.dwtag  DW_TAG_formal_parameter
	.dwattr $C$DW$147, DW_AT_name("pin")
	.dwattr $C$DW$147, DW_AT_TI_symbol_name("pin")
	.dwattr $C$DW$147, DW_AT_type(*$C$DW$T$30)
	.dwattr $C$DW$147, DW_AT_location[DW_OP_reg13]

$C$DW$148	.dwtag  DW_TAG_formal_parameter
	.dwattr $C$DW$148, DW_AT_name("com")
	.dwattr $C$DW$148, DW_AT_TI_symbol_name("com")
	.dwattr $C$DW$148, DW_AT_type(*$C$DW$T$30)
	.dwattr $C$DW$148, DW_AT_location[DW_OP_reg14]


;*****************************************************************************
;* FUNCTION NAME: LCD_E_setPinAsCOM                                          *
;*                                                                           *
;*   Regs Modified     : SP,SR,r11,r12,r13,r14,r15                           *
;*   Regs Used         : SP,SR,r11,r12,r13,r14,r15                           *
;*   Local Frame Size  : 0 Args + 8 Auto + 0 Save = 8 byte                   *
;*****************************************************************************
LCD_E_setPinAsCOM:
;* --------------------------------------------------------------------------*
	.dwcfi	cfa_offset, 4
	.dwcfi	save_reg_to_mem, 16, -4
        SUB.W     #8,SP                 ; [] 
	.dwcfi	cfa_offset, 12
$C$DW$149	.dwtag  DW_TAG_variable
	.dwattr $C$DW$149, DW_AT_name("baseAddress")
	.dwattr $C$DW$149, DW_AT_TI_symbol_name("baseAddress")
	.dwattr $C$DW$149, DW_AT_type(*$C$DW$T$23)
	.dwattr $C$DW$149, DW_AT_location[DW_OP_breg1 0]

$C$DW$150	.dwtag  DW_TAG_variable
	.dwattr $C$DW$150, DW_AT_name("val")
	.dwattr $C$DW$150, DW_AT_TI_symbol_name("val")
	.dwattr $C$DW$150, DW_AT_type(*$C$DW$T$23)
	.dwattr $C$DW$150, DW_AT_location[DW_OP_breg1 2]

$C$DW$151	.dwtag  DW_TAG_variable
	.dwattr $C$DW$151, DW_AT_name("pin")
	.dwattr $C$DW$151, DW_AT_TI_symbol_name("pin")
	.dwattr $C$DW$151, DW_AT_type(*$C$DW$T$30)
	.dwattr $C$DW$151, DW_AT_location[DW_OP_breg1 4]

$C$DW$152	.dwtag  DW_TAG_variable
	.dwattr $C$DW$152, DW_AT_name("com")
	.dwattr $C$DW$152, DW_AT_TI_symbol_name("com")
	.dwattr $C$DW$152, DW_AT_type(*$C$DW$T$30)
	.dwattr $C$DW$152, DW_AT_location[DW_OP_breg1 5]

$C$DW$153	.dwtag  DW_TAG_variable
	.dwattr $C$DW$153, DW_AT_name("idx")
	.dwattr $C$DW$153, DW_AT_TI_symbol_name("idx")
	.dwattr $C$DW$153, DW_AT_type(*$C$DW$T$30)
	.dwattr $C$DW$153, DW_AT_location[DW_OP_breg1 6]

$C$DW$154	.dwtag  DW_TAG_variable
	.dwattr $C$DW$154, DW_AT_name("muxRate")
	.dwattr $C$DW$154, DW_AT_TI_symbol_name("muxRate")
	.dwattr $C$DW$154, DW_AT_type(*$C$DW$T$30)
	.dwattr $C$DW$154, DW_AT_location[DW_OP_breg1 7]

        MOV.B     r14,5(SP)             ; [] |289| 
        MOV.B     r13,4(SP)             ; [] |289| 
        MOV.W     r12,0(SP)             ; [] |289| 
	.dwpsn	file "../driverlib/MSP430FR2xx_4xx/lcd_e.c",line 290,column 5,is_stmt,isa 0
        MOV.W     0(SP),r15             ; [] |290| 
        BIC.W     #1,0(r15)             ; [] |290| 
	.dwpsn	file "../driverlib/MSP430FR2xx_4xx/lcd_e.c",line 292,column 17,is_stmt,isa 0
        MOV.B     4(SP),r15             ; [] |292| 
        RRUM.W    #4,r15                ; [] |292| 
        MOV.B     r15,6(SP)             ; [] |292| 
	.dwpsn	file "../driverlib/MSP430FR2xx_4xx/lcd_e.c",line 293,column 18,is_stmt,isa 0
        MOV.B     4(SP),r13             ; [] |293| 
        AND.W     #15,r13               ; [] |293| 
        MOV.W     #1,r12                ; [] |293| 
$C$DW$155	.dwtag  DW_TAG_TI_branch
	.dwattr $C$DW$155, DW_AT_low_pc(0x00)
	.dwattr $C$DW$155, DW_AT_name("__mspabi_slli")
	.dwattr $C$DW$155, DW_AT_TI_call

        CALLA     #__mspabi_slli        ; [] |293| 
                                          ; [] |293| 
        MOV.W     r12,2(SP)             ; [] |293| 
	.dwpsn	file "../driverlib/MSP430FR2xx_4xx/lcd_e.c",line 294,column 21,is_stmt,isa 0
        MOV.W     0(SP),r15             ; [] |294| 
        MOV.W     @r15,r15              ; [] |294| 
        AND.B     #56,r15               ; [] |294| 
        MOV.B     r15,7(SP)             ; [] |294| 
	.dwpsn	file "../driverlib/MSP430FR2xx_4xx/lcd_e.c",line 296,column 5,is_stmt,isa 0
        JMP       $C$L18                ; [] |296| 
                                          ; [] |296| 
;* --------------------------------------------------------------------------*
$C$L15:    
	.dwpsn	file "../driverlib/MSP430FR2xx_4xx/lcd_e.c",line 298,column 13,is_stmt,isa 0
        MOV.W     #20,r15               ; [] |298| 
        ADD.W     0(SP),r15             ; [] |298| 
        OR.W      2(SP),0(r15)          ; [] |298| 
	.dwpsn	file "../driverlib/MSP430FR2xx_4xx/lcd_e.c",line 299,column 13,is_stmt,isa 0
        JMP       $C$L19                ; [] |299| 
                                          ; [] |299| 
;* --------------------------------------------------------------------------*
$C$L16:    
	.dwpsn	file "../driverlib/MSP430FR2xx_4xx/lcd_e.c",line 301,column 13,is_stmt,isa 0
        MOV.W     #22,r15               ; [] |301| 
        ADD.W     0(SP),r15             ; [] |301| 
        OR.W      2(SP),0(r15)          ; [] |301| 
	.dwpsn	file "../driverlib/MSP430FR2xx_4xx/lcd_e.c",line 302,column 13,is_stmt,isa 0
        JMP       $C$L19                ; [] |302| 
                                          ; [] |302| 
;* --------------------------------------------------------------------------*
$C$L17:    
	.dwpsn	file "../driverlib/MSP430FR2xx_4xx/lcd_e.c",line 304,column 13,is_stmt,isa 0
        MOV.W     #24,r15               ; [] |304| 
        ADD.W     0(SP),r15             ; [] |304| 
        OR.W      2(SP),0(r15)          ; [] |304| 
	.dwpsn	file "../driverlib/MSP430FR2xx_4xx/lcd_e.c",line 305,column 13,is_stmt,isa 0
        JMP       $C$L19                ; [] |305| 
                                          ; [] |305| 
;* --------------------------------------------------------------------------*
;* --------------------------------------------------------------------------*
$C$L18:    
	.dwpsn	file "../driverlib/MSP430FR2xx_4xx/lcd_e.c",line 296,column 5,is_stmt,isa 0
        MOV.B     6(SP),r15             ; [] |296| 
        TST.W     r15                   ; [] |296| 
        JEQ       $C$L15                ; [] |296| 
                                          ; [] |296| 
;* --------------------------------------------------------------------------*
        SUB.W     #1,r15                ; [] |296| 
        JEQ       $C$L16                ; [] |296| 
                                          ; [] |296| 
;* --------------------------------------------------------------------------*
        SUB.W     #1,r15                ; [] |296| 
        JEQ       $C$L17                ; [] |296| 
                                          ; [] |296| 
;* --------------------------------------------------------------------------*
$C$L19:    
	.dwpsn	file "../driverlib/MSP430FR2xx_4xx/lcd_e.c",line 310,column 5,is_stmt,isa 0
        CMP.B     #25,7(SP)             ; [] |310| 
        JHS       $C$L21                ; [] |310| 
                                          ; [] |310| 
;* --------------------------------------------------------------------------*
	.dwpsn	file "../driverlib/MSP430FR2xx_4xx/lcd_e.c",line 311,column 9,is_stmt,isa 0
        BIT.B     #1,4(SP)              ; [] |311| 
        JEQ       $C$L20                ; [] |311| 
                                          ; [] |311| 
;* --------------------------------------------------------------------------*
	.dwpsn	file "../driverlib/MSP430FR2xx_4xx/lcd_e.c",line 312,column 13,is_stmt,isa 0
        MOV.B     4(SP),r12             ; [] |312| 
        MOV.W     #2,r13                ; [] |312| 
$C$DW$156	.dwtag  DW_TAG_TI_branch
	.dwattr $C$DW$156, DW_AT_low_pc(0x00)
	.dwattr $C$DW$156, DW_AT_name("__mspabi_divi")
	.dwattr $C$DW$156, DW_AT_TI_call

        CALLA     #__mspabi_divi        ; [] |312| 
                                          ; [] |312| 
        ADD.W     0(SP),r12             ; [] |312| 
        ADD.W     #32,r12               ; [] |312| 
        MOV.B     5(SP),r15             ; [] |312| 
        RPT #4 || RLAX.B r15 ; [] |312| 
        OR.B      r15,0(r12)            ; [] |312| 
	.dwpsn	file "../driverlib/MSP430FR2xx_4xx/lcd_e.c",line 313,column 13,is_stmt,isa 0
        MOV.B     4(SP),r12             ; [] |313| 
        MOV.W     #2,r13                ; [] |313| 
$C$DW$157	.dwtag  DW_TAG_TI_branch
	.dwattr $C$DW$157, DW_AT_low_pc(0x00)
	.dwattr $C$DW$157, DW_AT_name("__mspabi_divi")
	.dwattr $C$DW$157, DW_AT_TI_call

        CALLA     #__mspabi_divi        ; [] |313| 
                                          ; [] |313| 
        ADD.W     0(SP),r12             ; [] |313| 
        ADD.W     #64,r12               ; [] |313| 
        MOV.B     5(SP),r15             ; [] |313| 
        RPT #4 || RLAX.B r15 ; [] |313| 
        OR.B      r15,0(r12)            ; [] |313| 
        JMP       $C$L22                ; [] 
                                          ; [] 
;* --------------------------------------------------------------------------*
$C$L20:    
	.dwpsn	file "../driverlib/MSP430FR2xx_4xx/lcd_e.c",line 316,column 13,is_stmt,isa 0
        MOV.B     4(SP),r12             ; [] |316| 
        MOV.W     #2,r13                ; [] |316| 
$C$DW$158	.dwtag  DW_TAG_TI_branch
	.dwattr $C$DW$158, DW_AT_low_pc(0x00)
	.dwattr $C$DW$158, DW_AT_name("__mspabi_divi")
	.dwattr $C$DW$158, DW_AT_TI_call

        CALLA     #__mspabi_divi        ; [] |316| 
                                          ; [] |316| 
        ADD.W     0(SP),r12             ; [] |316| 
        ADD.W     #32,r12               ; [] |316| 
        MOV.W     #15,r15               ; [] |316| 
        AND.B     5(SP),r15             ; [] |316| 
        OR.B      r15,0(r12)            ; [] |316| 
	.dwpsn	file "../driverlib/MSP430FR2xx_4xx/lcd_e.c",line 317,column 13,is_stmt,isa 0
        MOV.B     4(SP),r12             ; [] |317| 
        MOV.W     #2,r13                ; [] |317| 
$C$DW$159	.dwtag  DW_TAG_TI_branch
	.dwattr $C$DW$159, DW_AT_low_pc(0x00)
	.dwattr $C$DW$159, DW_AT_name("__mspabi_divi")
	.dwattr $C$DW$159, DW_AT_TI_call

        CALLA     #__mspabi_divi        ; [] |317| 
                                          ; [] |317| 
        ADD.W     0(SP),r12             ; [] |317| 
        ADD.W     #64,r12               ; [] |317| 
        MOV.W     #15,r15               ; [] |317| 
        AND.B     5(SP),r15             ; [] |317| 
        OR.B      r15,0(r12)            ; [] |317| 
        JMP       $C$L22                ; [] 
                                          ; [] 
;* --------------------------------------------------------------------------*
$C$L21:    
	.dwpsn	file "../driverlib/MSP430FR2xx_4xx/lcd_e.c",line 322,column 9,is_stmt,isa 0
        MOV.B     4(SP),r15             ; [] |322| 
        ADD.W     0(SP),r15             ; [] |322| 
        ADD.W     #32,r15               ; [] |322| 
        OR.B      5(SP),0(r15)          ; [] |322| 
	.dwpsn	file "../driverlib/MSP430FR2xx_4xx/lcd_e.c",line 323,column 9,is_stmt,isa 0
        MOV.B     4(SP),r15             ; [] |323| 
        ADD.W     0(SP),r15             ; [] |323| 
        ADD.W     #64,r15               ; [] |323| 
        OR.B      5(SP),0(r15)          ; [] |323| 
	.dwpsn	file "../driverlib/MSP430FR2xx_4xx/lcd_e.c",line 325,column 1,is_stmt,isa 0
;* --------------------------------------------------------------------------*
$C$L22:    
        ADD.W     #8,SP                 ; [] 
	.dwcfi	cfa_offset, 4
$C$DW$160	.dwtag  DW_TAG_TI_branch
	.dwattr $C$DW$160, DW_AT_low_pc(0x00)
	.dwattr $C$DW$160, DW_AT_TI_return

        RETA      ; [] 
        ; [] 
	.dwattr $C$DW$145, DW_AT_TI_end_file("../driverlib/MSP430FR2xx_4xx/lcd_e.c")
	.dwattr $C$DW$145, DW_AT_TI_end_line(0x145)
	.dwattr $C$DW$145, DW_AT_TI_end_column(0x01)
	.dwendentry
	.dwendtag $C$DW$145

	.sect	".text:LCD_E_setPinAsSEG"
	.clink
	.global	LCD_E_setPinAsSEG

$C$DW$161	.dwtag  DW_TAG_subprogram
	.dwattr $C$DW$161, DW_AT_name("LCD_E_setPinAsSEG")
	.dwattr $C$DW$161, DW_AT_low_pc(LCD_E_setPinAsSEG)
	.dwattr $C$DW$161, DW_AT_high_pc(0x00)
	.dwattr $C$DW$161, DW_AT_TI_symbol_name("LCD_E_setPinAsSEG")
	.dwattr $C$DW$161, DW_AT_external
	.dwattr $C$DW$161, DW_AT_TI_begin_file("../driverlib/MSP430FR2xx_4xx/lcd_e.c")
	.dwattr $C$DW$161, DW_AT_TI_begin_line(0x147)
	.dwattr $C$DW$161, DW_AT_TI_begin_column(0x06)
	.dwattr $C$DW$161, DW_AT_decl_file("../driverlib/MSP430FR2xx_4xx/lcd_e.c")
	.dwattr $C$DW$161, DW_AT_decl_line(0x147)
	.dwattr $C$DW$161, DW_AT_decl_column(0x06)
	.dwattr $C$DW$161, DW_AT_TI_max_frame_size(0x0a)
	.dwpsn	file "../driverlib/MSP430FR2xx_4xx/lcd_e.c",line 328,column 1,is_stmt,address LCD_E_setPinAsSEG,isa 0

	.dwfde $C$DW$CIE, LCD_E_setPinAsSEG
$C$DW$162	.dwtag  DW_TAG_formal_parameter
	.dwattr $C$DW$162, DW_AT_name("baseAddress")
	.dwattr $C$DW$162, DW_AT_TI_symbol_name("baseAddress")
	.dwattr $C$DW$162, DW_AT_type(*$C$DW$T$23)
	.dwattr $C$DW$162, DW_AT_location[DW_OP_reg12]

$C$DW$163	.dwtag  DW_TAG_formal_parameter
	.dwattr $C$DW$163, DW_AT_name("pin")
	.dwattr $C$DW$163, DW_AT_TI_symbol_name("pin")
	.dwattr $C$DW$163, DW_AT_type(*$C$DW$T$30)
	.dwattr $C$DW$163, DW_AT_location[DW_OP_reg13]


;*****************************************************************************
;* FUNCTION NAME: LCD_E_setPinAsSEG                                          *
;*                                                                           *
;*   Regs Modified     : SP,SR,r12,r13,r15                                   *
;*   Regs Used         : SP,SR,r12,r13,r15                                   *
;*   Local Frame Size  : 0 Args + 6 Auto + 0 Save = 6 byte                   *
;*****************************************************************************
LCD_E_setPinAsSEG:
;* --------------------------------------------------------------------------*
	.dwcfi	cfa_offset, 4
	.dwcfi	save_reg_to_mem, 16, -4
        SUB.W     #6,SP                 ; [] 
	.dwcfi	cfa_offset, 10
$C$DW$164	.dwtag  DW_TAG_variable
	.dwattr $C$DW$164, DW_AT_name("baseAddress")
	.dwattr $C$DW$164, DW_AT_TI_symbol_name("baseAddress")
	.dwattr $C$DW$164, DW_AT_type(*$C$DW$T$23)
	.dwattr $C$DW$164, DW_AT_location[DW_OP_breg1 0]

$C$DW$165	.dwtag  DW_TAG_variable
	.dwattr $C$DW$165, DW_AT_name("val")
	.dwattr $C$DW$165, DW_AT_TI_symbol_name("val")
	.dwattr $C$DW$165, DW_AT_type(*$C$DW$T$23)
	.dwattr $C$DW$165, DW_AT_location[DW_OP_breg1 2]

$C$DW$166	.dwtag  DW_TAG_variable
	.dwattr $C$DW$166, DW_AT_name("pin")
	.dwattr $C$DW$166, DW_AT_TI_symbol_name("pin")
	.dwattr $C$DW$166, DW_AT_type(*$C$DW$T$30)
	.dwattr $C$DW$166, DW_AT_location[DW_OP_breg1 4]

$C$DW$167	.dwtag  DW_TAG_variable
	.dwattr $C$DW$167, DW_AT_name("idx")
	.dwattr $C$DW$167, DW_AT_TI_symbol_name("idx")
	.dwattr $C$DW$167, DW_AT_type(*$C$DW$T$30)
	.dwattr $C$DW$167, DW_AT_location[DW_OP_breg1 5]

        MOV.B     r13,4(SP)             ; [] |328| 
        MOV.W     r12,0(SP)             ; [] |328| 
	.dwpsn	file "../driverlib/MSP430FR2xx_4xx/lcd_e.c",line 330,column 5,is_stmt,isa 0
        MOV.W     0(SP),r15             ; [] |330| 
        BIC.W     #1,0(r15)             ; [] |330| 
	.dwpsn	file "../driverlib/MSP430FR2xx_4xx/lcd_e.c",line 332,column 17,is_stmt,isa 0
        MOV.B     4(SP),r15             ; [] |332| 
        RRUM.W    #4,r15                ; [] |332| 
        MOV.B     r15,5(SP)             ; [] |332| 
	.dwpsn	file "../driverlib/MSP430FR2xx_4xx/lcd_e.c",line 333,column 18,is_stmt,isa 0
        MOV.B     4(SP),r13             ; [] |333| 
        AND.W     #15,r13               ; [] |333| 
        MOV.W     #1,r12                ; [] |333| 
$C$DW$168	.dwtag  DW_TAG_TI_branch
	.dwattr $C$DW$168, DW_AT_low_pc(0x00)
	.dwattr $C$DW$168, DW_AT_name("__mspabi_slli")
	.dwattr $C$DW$168, DW_AT_TI_call

        CALLA     #__mspabi_slli        ; [] |333| 
                                          ; [] |333| 
        MOV.W     r12,2(SP)             ; [] |333| 
	.dwpsn	file "../driverlib/MSP430FR2xx_4xx/lcd_e.c",line 335,column 5,is_stmt,isa 0
        JMP       $C$L26                ; [] |335| 
                                          ; [] |335| 
;* --------------------------------------------------------------------------*
$C$L23:    
	.dwpsn	file "../driverlib/MSP430FR2xx_4xx/lcd_e.c",line 337,column 13,is_stmt,isa 0
        MOV.W     #20,r15               ; [] |337| 
        ADD.W     0(SP),r15             ; [] |337| 
        BIC.W     2(SP),0(r15)          ; [] |337| 
	.dwpsn	file "../driverlib/MSP430FR2xx_4xx/lcd_e.c",line 338,column 13,is_stmt,isa 0
        JMP       $C$L27                ; [] |338| 
                                          ; [] |338| 
;* --------------------------------------------------------------------------*
$C$L24:    
	.dwpsn	file "../driverlib/MSP430FR2xx_4xx/lcd_e.c",line 340,column 13,is_stmt,isa 0
        MOV.W     #22,r15               ; [] |340| 
        ADD.W     0(SP),r15             ; [] |340| 
        BIC.W     2(SP),0(r15)          ; [] |340| 
	.dwpsn	file "../driverlib/MSP430FR2xx_4xx/lcd_e.c",line 341,column 13,is_stmt,isa 0
        JMP       $C$L27                ; [] |341| 
                                          ; [] |341| 
;* --------------------------------------------------------------------------*
$C$L25:    
	.dwpsn	file "../driverlib/MSP430FR2xx_4xx/lcd_e.c",line 343,column 13,is_stmt,isa 0
        MOV.W     #24,r15               ; [] |343| 
        ADD.W     0(SP),r15             ; [] |343| 
        BIC.W     2(SP),0(r15)          ; [] |343| 
	.dwpsn	file "../driverlib/MSP430FR2xx_4xx/lcd_e.c",line 344,column 13,is_stmt,isa 0
        JMP       $C$L27                ; [] |344| 
                                          ; [] |344| 
;* --------------------------------------------------------------------------*
;* --------------------------------------------------------------------------*
$C$L26:    
	.dwpsn	file "../driverlib/MSP430FR2xx_4xx/lcd_e.c",line 335,column 5,is_stmt,isa 0
        MOV.B     5(SP),r15             ; [] |335| 
        TST.W     r15                   ; [] |335| 
        JEQ       $C$L23                ; [] |335| 
                                          ; [] |335| 
;* --------------------------------------------------------------------------*
        SUB.W     #1,r15                ; [] |335| 
        JEQ       $C$L24                ; [] |335| 
                                          ; [] |335| 
;* --------------------------------------------------------------------------*
        SUB.W     #1,r15                ; [] |335| 
        JEQ       $C$L25                ; [] |335| 
                                          ; [] |335| 
;* --------------------------------------------------------------------------*
        JMP       $C$L27                ; [] |335| 
                                          ; [] |335| 
;* --------------------------------------------------------------------------*
;* --------------------------------------------------------------------------*
$C$L27:    
        ADD.W     #6,SP                 ; [] 
	.dwcfi	cfa_offset, 4
$C$DW$169	.dwtag  DW_TAG_TI_branch
	.dwattr $C$DW$169, DW_AT_low_pc(0x00)
	.dwattr $C$DW$169, DW_AT_TI_return

        RETA      ; [] 
        ; [] 
	.dwattr $C$DW$161, DW_AT_TI_end_file("../driverlib/MSP430FR2xx_4xx/lcd_e.c")
	.dwattr $C$DW$161, DW_AT_TI_end_line(0x15b)
	.dwattr $C$DW$161, DW_AT_TI_end_column(0x01)
	.dwendentry
	.dwendtag $C$DW$161

	.sect	".text:LCD_E_setMemory"
	.clink
	.global	LCD_E_setMemory

$C$DW$170	.dwtag  DW_TAG_subprogram
	.dwattr $C$DW$170, DW_AT_name("LCD_E_setMemory")
	.dwattr $C$DW$170, DW_AT_low_pc(LCD_E_setMemory)
	.dwattr $C$DW$170, DW_AT_high_pc(0x00)
	.dwattr $C$DW$170, DW_AT_TI_symbol_name("LCD_E_setMemory")
	.dwattr $C$DW$170, DW_AT_external
	.dwattr $C$DW$170, DW_AT_TI_begin_file("../driverlib/MSP430FR2xx_4xx/lcd_e.c")
	.dwattr $C$DW$170, DW_AT_TI_begin_line(0x15d)
	.dwattr $C$DW$170, DW_AT_TI_begin_column(0x06)
	.dwattr $C$DW$170, DW_AT_decl_file("../driverlib/MSP430FR2xx_4xx/lcd_e.c")
	.dwattr $C$DW$170, DW_AT_decl_line(0x15d)
	.dwattr $C$DW$170, DW_AT_decl_column(0x06)
	.dwattr $C$DW$170, DW_AT_TI_max_frame_size(0x08)
	.dwpsn	file "../driverlib/MSP430FR2xx_4xx/lcd_e.c",line 350,column 1,is_stmt,address LCD_E_setMemory,isa 0

	.dwfde $C$DW$CIE, LCD_E_setMemory
$C$DW$171	.dwtag  DW_TAG_formal_parameter
	.dwattr $C$DW$171, DW_AT_name("baseAddress")
	.dwattr $C$DW$171, DW_AT_TI_symbol_name("baseAddress")
	.dwattr $C$DW$171, DW_AT_type(*$C$DW$T$23)
	.dwattr $C$DW$171, DW_AT_location[DW_OP_reg12]

$C$DW$172	.dwtag  DW_TAG_formal_parameter
	.dwattr $C$DW$172, DW_AT_name("memory")
	.dwattr $C$DW$172, DW_AT_TI_symbol_name("memory")
	.dwattr $C$DW$172, DW_AT_type(*$C$DW$T$30)
	.dwattr $C$DW$172, DW_AT_location[DW_OP_reg13]

$C$DW$173	.dwtag  DW_TAG_formal_parameter
	.dwattr $C$DW$173, DW_AT_name("mask")
	.dwattr $C$DW$173, DW_AT_TI_symbol_name("mask")
	.dwattr $C$DW$173, DW_AT_type(*$C$DW$T$30)
	.dwattr $C$DW$173, DW_AT_location[DW_OP_reg14]


;*****************************************************************************
;* FUNCTION NAME: LCD_E_setMemory                                            *
;*                                                                           *
;*   Regs Modified     : SP,SR,r15                                           *
;*   Regs Used         : SP,SR,r12,r13,r14,r15                               *
;*   Local Frame Size  : 0 Args + 4 Auto + 0 Save = 4 byte                   *
;*****************************************************************************
LCD_E_setMemory:
;* --------------------------------------------------------------------------*
	.dwcfi	cfa_offset, 4
	.dwcfi	save_reg_to_mem, 16, -4
        SUB.W     #4,SP                 ; [] 
	.dwcfi	cfa_offset, 8
$C$DW$174	.dwtag  DW_TAG_variable
	.dwattr $C$DW$174, DW_AT_name("baseAddress")
	.dwattr $C$DW$174, DW_AT_TI_symbol_name("baseAddress")
	.dwattr $C$DW$174, DW_AT_type(*$C$DW$T$23)
	.dwattr $C$DW$174, DW_AT_location[DW_OP_breg1 0]

$C$DW$175	.dwtag  DW_TAG_variable
	.dwattr $C$DW$175, DW_AT_name("memory")
	.dwattr $C$DW$175, DW_AT_TI_symbol_name("memory")
	.dwattr $C$DW$175, DW_AT_type(*$C$DW$T$30)
	.dwattr $C$DW$175, DW_AT_location[DW_OP_breg1 2]

$C$DW$176	.dwtag  DW_TAG_variable
	.dwattr $C$DW$176, DW_AT_name("mask")
	.dwattr $C$DW$176, DW_AT_TI_symbol_name("mask")
	.dwattr $C$DW$176, DW_AT_type(*$C$DW$T$30)
	.dwattr $C$DW$176, DW_AT_location[DW_OP_breg1 3]

        MOV.B     r14,3(SP)             ; [] |350| 
        MOV.B     r13,2(SP)             ; [] |350| 
        MOV.W     r12,0(SP)             ; [] |350| 
	.dwpsn	file "../driverlib/MSP430FR2xx_4xx/lcd_e.c",line 351,column 5,is_stmt,isa 0
        MOV.B     2(SP),r15             ; [] |351| 
        ADD.W     0(SP),r15             ; [] |351| 
        MOV.B     3(SP),32(r15)         ; [] |351| 
	.dwpsn	file "../driverlib/MSP430FR2xx_4xx/lcd_e.c",line 352,column 1,is_stmt,isa 0
        ADD.W     #4,SP                 ; [] 
	.dwcfi	cfa_offset, 4
$C$DW$177	.dwtag  DW_TAG_TI_branch
	.dwattr $C$DW$177, DW_AT_low_pc(0x00)
	.dwattr $C$DW$177, DW_AT_TI_return

        RETA      ; [] 
        ; [] 
	.dwattr $C$DW$170, DW_AT_TI_end_file("../driverlib/MSP430FR2xx_4xx/lcd_e.c")
	.dwattr $C$DW$170, DW_AT_TI_end_line(0x160)
	.dwattr $C$DW$170, DW_AT_TI_end_column(0x01)
	.dwendentry
	.dwendtag $C$DW$170

	.sect	".text:LCD_E_updateMemory"
	.clink
	.global	LCD_E_updateMemory

$C$DW$178	.dwtag  DW_TAG_subprogram
	.dwattr $C$DW$178, DW_AT_name("LCD_E_updateMemory")
	.dwattr $C$DW$178, DW_AT_low_pc(LCD_E_updateMemory)
	.dwattr $C$DW$178, DW_AT_high_pc(0x00)
	.dwattr $C$DW$178, DW_AT_TI_symbol_name("LCD_E_updateMemory")
	.dwattr $C$DW$178, DW_AT_external
	.dwattr $C$DW$178, DW_AT_TI_begin_file("../driverlib/MSP430FR2xx_4xx/lcd_e.c")
	.dwattr $C$DW$178, DW_AT_TI_begin_line(0x162)
	.dwattr $C$DW$178, DW_AT_TI_begin_column(0x06)
	.dwattr $C$DW$178, DW_AT_decl_file("../driverlib/MSP430FR2xx_4xx/lcd_e.c")
	.dwattr $C$DW$178, DW_AT_decl_line(0x162)
	.dwattr $C$DW$178, DW_AT_decl_column(0x06)
	.dwattr $C$DW$178, DW_AT_TI_max_frame_size(0x08)
	.dwpsn	file "../driverlib/MSP430FR2xx_4xx/lcd_e.c",line 355,column 1,is_stmt,address LCD_E_updateMemory,isa 0

	.dwfde $C$DW$CIE, LCD_E_updateMemory
$C$DW$179	.dwtag  DW_TAG_formal_parameter
	.dwattr $C$DW$179, DW_AT_name("baseAddress")
	.dwattr $C$DW$179, DW_AT_TI_symbol_name("baseAddress")
	.dwattr $C$DW$179, DW_AT_type(*$C$DW$T$23)
	.dwattr $C$DW$179, DW_AT_location[DW_OP_reg12]

$C$DW$180	.dwtag  DW_TAG_formal_parameter
	.dwattr $C$DW$180, DW_AT_name("memory")
	.dwattr $C$DW$180, DW_AT_TI_symbol_name("memory")
	.dwattr $C$DW$180, DW_AT_type(*$C$DW$T$30)
	.dwattr $C$DW$180, DW_AT_location[DW_OP_reg13]

$C$DW$181	.dwtag  DW_TAG_formal_parameter
	.dwattr $C$DW$181, DW_AT_name("mask")
	.dwattr $C$DW$181, DW_AT_TI_symbol_name("mask")
	.dwattr $C$DW$181, DW_AT_type(*$C$DW$T$30)
	.dwattr $C$DW$181, DW_AT_location[DW_OP_reg14]


;*****************************************************************************
;* FUNCTION NAME: LCD_E_updateMemory                                         *
;*                                                                           *
;*   Regs Modified     : SP,SR,r15                                           *
;*   Regs Used         : SP,SR,r12,r13,r14,r15                               *
;*   Local Frame Size  : 0 Args + 4 Auto + 0 Save = 4 byte                   *
;*****************************************************************************
LCD_E_updateMemory:
;* --------------------------------------------------------------------------*
	.dwcfi	cfa_offset, 4
	.dwcfi	save_reg_to_mem, 16, -4
        SUB.W     #4,SP                 ; [] 
	.dwcfi	cfa_offset, 8
$C$DW$182	.dwtag  DW_TAG_variable
	.dwattr $C$DW$182, DW_AT_name("baseAddress")
	.dwattr $C$DW$182, DW_AT_TI_symbol_name("baseAddress")
	.dwattr $C$DW$182, DW_AT_type(*$C$DW$T$23)
	.dwattr $C$DW$182, DW_AT_location[DW_OP_breg1 0]

$C$DW$183	.dwtag  DW_TAG_variable
	.dwattr $C$DW$183, DW_AT_name("memory")
	.dwattr $C$DW$183, DW_AT_TI_symbol_name("memory")
	.dwattr $C$DW$183, DW_AT_type(*$C$DW$T$30)
	.dwattr $C$DW$183, DW_AT_location[DW_OP_breg1 2]

$C$DW$184	.dwtag  DW_TAG_variable
	.dwattr $C$DW$184, DW_AT_name("mask")
	.dwattr $C$DW$184, DW_AT_TI_symbol_name("mask")
	.dwattr $C$DW$184, DW_AT_type(*$C$DW$T$30)
	.dwattr $C$DW$184, DW_AT_location[DW_OP_breg1 3]

        MOV.B     r14,3(SP)             ; [] |355| 
        MOV.B     r13,2(SP)             ; [] |355| 
        MOV.W     r12,0(SP)             ; [] |355| 
	.dwpsn	file "../driverlib/MSP430FR2xx_4xx/lcd_e.c",line 356,column 5,is_stmt,isa 0
        MOV.B     2(SP),r15             ; [] |356| 
        ADD.W     0(SP),r15             ; [] |356| 
        ADD.W     #32,r15               ; [] |356| 
        OR.B      3(SP),0(r15)          ; [] |356| 
	.dwpsn	file "../driverlib/MSP430FR2xx_4xx/lcd_e.c",line 357,column 1,is_stmt,isa 0
        ADD.W     #4,SP                 ; [] 
	.dwcfi	cfa_offset, 4
$C$DW$185	.dwtag  DW_TAG_TI_branch
	.dwattr $C$DW$185, DW_AT_low_pc(0x00)
	.dwattr $C$DW$185, DW_AT_TI_return

        RETA      ; [] 
        ; [] 
	.dwattr $C$DW$178, DW_AT_TI_end_file("../driverlib/MSP430FR2xx_4xx/lcd_e.c")
	.dwattr $C$DW$178, DW_AT_TI_end_line(0x165)
	.dwattr $C$DW$178, DW_AT_TI_end_column(0x01)
	.dwendentry
	.dwendtag $C$DW$178

	.sect	".text:LCD_E_toggleMemory"
	.clink
	.global	LCD_E_toggleMemory

$C$DW$186	.dwtag  DW_TAG_subprogram
	.dwattr $C$DW$186, DW_AT_name("LCD_E_toggleMemory")
	.dwattr $C$DW$186, DW_AT_low_pc(LCD_E_toggleMemory)
	.dwattr $C$DW$186, DW_AT_high_pc(0x00)
	.dwattr $C$DW$186, DW_AT_TI_symbol_name("LCD_E_toggleMemory")
	.dwattr $C$DW$186, DW_AT_external
	.dwattr $C$DW$186, DW_AT_TI_begin_file("../driverlib/MSP430FR2xx_4xx/lcd_e.c")
	.dwattr $C$DW$186, DW_AT_TI_begin_line(0x167)
	.dwattr $C$DW$186, DW_AT_TI_begin_column(0x06)
	.dwattr $C$DW$186, DW_AT_decl_file("../driverlib/MSP430FR2xx_4xx/lcd_e.c")
	.dwattr $C$DW$186, DW_AT_decl_line(0x167)
	.dwattr $C$DW$186, DW_AT_decl_column(0x06)
	.dwattr $C$DW$186, DW_AT_TI_max_frame_size(0x08)
	.dwpsn	file "../driverlib/MSP430FR2xx_4xx/lcd_e.c",line 360,column 1,is_stmt,address LCD_E_toggleMemory,isa 0

	.dwfde $C$DW$CIE, LCD_E_toggleMemory
$C$DW$187	.dwtag  DW_TAG_formal_parameter
	.dwattr $C$DW$187, DW_AT_name("baseAddress")
	.dwattr $C$DW$187, DW_AT_TI_symbol_name("baseAddress")
	.dwattr $C$DW$187, DW_AT_type(*$C$DW$T$23)
	.dwattr $C$DW$187, DW_AT_location[DW_OP_reg12]

$C$DW$188	.dwtag  DW_TAG_formal_parameter
	.dwattr $C$DW$188, DW_AT_name("memory")
	.dwattr $C$DW$188, DW_AT_TI_symbol_name("memory")
	.dwattr $C$DW$188, DW_AT_type(*$C$DW$T$30)
	.dwattr $C$DW$188, DW_AT_location[DW_OP_reg13]

$C$DW$189	.dwtag  DW_TAG_formal_parameter
	.dwattr $C$DW$189, DW_AT_name("mask")
	.dwattr $C$DW$189, DW_AT_TI_symbol_name("mask")
	.dwattr $C$DW$189, DW_AT_type(*$C$DW$T$30)
	.dwattr $C$DW$189, DW_AT_location[DW_OP_reg14]


;*****************************************************************************
;* FUNCTION NAME: LCD_E_toggleMemory                                         *
;*                                                                           *
;*   Regs Modified     : SP,SR,r15                                           *
;*   Regs Used         : SP,SR,r12,r13,r14,r15                               *
;*   Local Frame Size  : 0 Args + 4 Auto + 0 Save = 4 byte                   *
;*****************************************************************************
LCD_E_toggleMemory:
;* --------------------------------------------------------------------------*
	.dwcfi	cfa_offset, 4
	.dwcfi	save_reg_to_mem, 16, -4
        SUB.W     #4,SP                 ; [] 
	.dwcfi	cfa_offset, 8
$C$DW$190	.dwtag  DW_TAG_variable
	.dwattr $C$DW$190, DW_AT_name("baseAddress")
	.dwattr $C$DW$190, DW_AT_TI_symbol_name("baseAddress")
	.dwattr $C$DW$190, DW_AT_type(*$C$DW$T$23)
	.dwattr $C$DW$190, DW_AT_location[DW_OP_breg1 0]

$C$DW$191	.dwtag  DW_TAG_variable
	.dwattr $C$DW$191, DW_AT_name("memory")
	.dwattr $C$DW$191, DW_AT_TI_symbol_name("memory")
	.dwattr $C$DW$191, DW_AT_type(*$C$DW$T$30)
	.dwattr $C$DW$191, DW_AT_location[DW_OP_breg1 2]

$C$DW$192	.dwtag  DW_TAG_variable
	.dwattr $C$DW$192, DW_AT_name("mask")
	.dwattr $C$DW$192, DW_AT_TI_symbol_name("mask")
	.dwattr $C$DW$192, DW_AT_type(*$C$DW$T$30)
	.dwattr $C$DW$192, DW_AT_location[DW_OP_breg1 3]

        MOV.B     r14,3(SP)             ; [] |360| 
        MOV.B     r13,2(SP)             ; [] |360| 
        MOV.W     r12,0(SP)             ; [] |360| 
	.dwpsn	file "../driverlib/MSP430FR2xx_4xx/lcd_e.c",line 361,column 5,is_stmt,isa 0
        MOV.B     2(SP),r15             ; [] |361| 
        ADD.W     0(SP),r15             ; [] |361| 
        ADD.W     #32,r15               ; [] |361| 
        XOR.B     3(SP),0(r15)          ; [] |361| 
	.dwpsn	file "../driverlib/MSP430FR2xx_4xx/lcd_e.c",line 362,column 1,is_stmt,isa 0
        ADD.W     #4,SP                 ; [] 
	.dwcfi	cfa_offset, 4
$C$DW$193	.dwtag  DW_TAG_TI_branch
	.dwattr $C$DW$193, DW_AT_low_pc(0x00)
	.dwattr $C$DW$193, DW_AT_TI_return

        RETA      ; [] 
        ; [] 
	.dwattr $C$DW$186, DW_AT_TI_end_file("../driverlib/MSP430FR2xx_4xx/lcd_e.c")
	.dwattr $C$DW$186, DW_AT_TI_end_line(0x16a)
	.dwattr $C$DW$186, DW_AT_TI_end_column(0x01)
	.dwendentry
	.dwendtag $C$DW$186

	.sect	".text:LCD_E_clearMemory"
	.clink
	.global	LCD_E_clearMemory

$C$DW$194	.dwtag  DW_TAG_subprogram
	.dwattr $C$DW$194, DW_AT_name("LCD_E_clearMemory")
	.dwattr $C$DW$194, DW_AT_low_pc(LCD_E_clearMemory)
	.dwattr $C$DW$194, DW_AT_high_pc(0x00)
	.dwattr $C$DW$194, DW_AT_TI_symbol_name("LCD_E_clearMemory")
	.dwattr $C$DW$194, DW_AT_external
	.dwattr $C$DW$194, DW_AT_TI_begin_file("../driverlib/MSP430FR2xx_4xx/lcd_e.c")
	.dwattr $C$DW$194, DW_AT_TI_begin_line(0x16c)
	.dwattr $C$DW$194, DW_AT_TI_begin_column(0x06)
	.dwattr $C$DW$194, DW_AT_decl_file("../driverlib/MSP430FR2xx_4xx/lcd_e.c")
	.dwattr $C$DW$194, DW_AT_decl_line(0x16c)
	.dwattr $C$DW$194, DW_AT_decl_column(0x06)
	.dwattr $C$DW$194, DW_AT_TI_max_frame_size(0x08)
	.dwpsn	file "../driverlib/MSP430FR2xx_4xx/lcd_e.c",line 365,column 1,is_stmt,address LCD_E_clearMemory,isa 0

	.dwfde $C$DW$CIE, LCD_E_clearMemory
$C$DW$195	.dwtag  DW_TAG_formal_parameter
	.dwattr $C$DW$195, DW_AT_name("baseAddress")
	.dwattr $C$DW$195, DW_AT_TI_symbol_name("baseAddress")
	.dwattr $C$DW$195, DW_AT_type(*$C$DW$T$23)
	.dwattr $C$DW$195, DW_AT_location[DW_OP_reg12]

$C$DW$196	.dwtag  DW_TAG_formal_parameter
	.dwattr $C$DW$196, DW_AT_name("memory")
	.dwattr $C$DW$196, DW_AT_TI_symbol_name("memory")
	.dwattr $C$DW$196, DW_AT_type(*$C$DW$T$30)
	.dwattr $C$DW$196, DW_AT_location[DW_OP_reg13]

$C$DW$197	.dwtag  DW_TAG_formal_parameter
	.dwattr $C$DW$197, DW_AT_name("mask")
	.dwattr $C$DW$197, DW_AT_TI_symbol_name("mask")
	.dwattr $C$DW$197, DW_AT_type(*$C$DW$T$30)
	.dwattr $C$DW$197, DW_AT_location[DW_OP_reg14]


;*****************************************************************************
;* FUNCTION NAME: LCD_E_clearMemory                                          *
;*                                                                           *
;*   Regs Modified     : SP,SR,r15                                           *
;*   Regs Used         : SP,SR,r12,r13,r14,r15                               *
;*   Local Frame Size  : 0 Args + 4 Auto + 0 Save = 4 byte                   *
;*****************************************************************************
LCD_E_clearMemory:
;* --------------------------------------------------------------------------*
	.dwcfi	cfa_offset, 4
	.dwcfi	save_reg_to_mem, 16, -4
        SUB.W     #4,SP                 ; [] 
	.dwcfi	cfa_offset, 8
$C$DW$198	.dwtag  DW_TAG_variable
	.dwattr $C$DW$198, DW_AT_name("baseAddress")
	.dwattr $C$DW$198, DW_AT_TI_symbol_name("baseAddress")
	.dwattr $C$DW$198, DW_AT_type(*$C$DW$T$23)
	.dwattr $C$DW$198, DW_AT_location[DW_OP_breg1 0]

$C$DW$199	.dwtag  DW_TAG_variable
	.dwattr $C$DW$199, DW_AT_name("memory")
	.dwattr $C$DW$199, DW_AT_TI_symbol_name("memory")
	.dwattr $C$DW$199, DW_AT_type(*$C$DW$T$30)
	.dwattr $C$DW$199, DW_AT_location[DW_OP_breg1 2]

$C$DW$200	.dwtag  DW_TAG_variable
	.dwattr $C$DW$200, DW_AT_name("mask")
	.dwattr $C$DW$200, DW_AT_TI_symbol_name("mask")
	.dwattr $C$DW$200, DW_AT_type(*$C$DW$T$30)
	.dwattr $C$DW$200, DW_AT_location[DW_OP_breg1 3]

        MOV.B     r14,3(SP)             ; [] |365| 
        MOV.B     r13,2(SP)             ; [] |365| 
        MOV.W     r12,0(SP)             ; [] |365| 
	.dwpsn	file "../driverlib/MSP430FR2xx_4xx/lcd_e.c",line 366,column 5,is_stmt,isa 0
        MOV.B     2(SP),r15             ; [] |366| 
        ADD.W     0(SP),r15             ; [] |366| 
        ADD.W     #32,r15               ; [] |366| 
        BIC.B     3(SP),0(r15)          ; [] |366| 
	.dwpsn	file "../driverlib/MSP430FR2xx_4xx/lcd_e.c",line 367,column 1,is_stmt,isa 0
        ADD.W     #4,SP                 ; [] 
	.dwcfi	cfa_offset, 4
$C$DW$201	.dwtag  DW_TAG_TI_branch
	.dwattr $C$DW$201, DW_AT_low_pc(0x00)
	.dwattr $C$DW$201, DW_AT_TI_return

        RETA      ; [] 
        ; [] 
	.dwattr $C$DW$194, DW_AT_TI_end_file("../driverlib/MSP430FR2xx_4xx/lcd_e.c")
	.dwattr $C$DW$194, DW_AT_TI_end_line(0x16f)
	.dwattr $C$DW$194, DW_AT_TI_end_column(0x01)
	.dwendentry
	.dwendtag $C$DW$194

	.sect	".text:LCD_E_setBlinkingMemory"
	.clink
	.global	LCD_E_setBlinkingMemory

$C$DW$202	.dwtag  DW_TAG_subprogram
	.dwattr $C$DW$202, DW_AT_name("LCD_E_setBlinkingMemory")
	.dwattr $C$DW$202, DW_AT_low_pc(LCD_E_setBlinkingMemory)
	.dwattr $C$DW$202, DW_AT_high_pc(0x00)
	.dwattr $C$DW$202, DW_AT_TI_symbol_name("LCD_E_setBlinkingMemory")
	.dwattr $C$DW$202, DW_AT_external
	.dwattr $C$DW$202, DW_AT_TI_begin_file("../driverlib/MSP430FR2xx_4xx/lcd_e.c")
	.dwattr $C$DW$202, DW_AT_TI_begin_line(0x171)
	.dwattr $C$DW$202, DW_AT_TI_begin_column(0x06)
	.dwattr $C$DW$202, DW_AT_decl_file("../driverlib/MSP430FR2xx_4xx/lcd_e.c")
	.dwattr $C$DW$202, DW_AT_decl_line(0x171)
	.dwattr $C$DW$202, DW_AT_decl_column(0x06)
	.dwattr $C$DW$202, DW_AT_TI_max_frame_size(0x08)
	.dwpsn	file "../driverlib/MSP430FR2xx_4xx/lcd_e.c",line 370,column 1,is_stmt,address LCD_E_setBlinkingMemory,isa 0

	.dwfde $C$DW$CIE, LCD_E_setBlinkingMemory
$C$DW$203	.dwtag  DW_TAG_formal_parameter
	.dwattr $C$DW$203, DW_AT_name("baseAddress")
	.dwattr $C$DW$203, DW_AT_TI_symbol_name("baseAddress")
	.dwattr $C$DW$203, DW_AT_type(*$C$DW$T$23)
	.dwattr $C$DW$203, DW_AT_location[DW_OP_reg12]

$C$DW$204	.dwtag  DW_TAG_formal_parameter
	.dwattr $C$DW$204, DW_AT_name("memory")
	.dwattr $C$DW$204, DW_AT_TI_symbol_name("memory")
	.dwattr $C$DW$204, DW_AT_type(*$C$DW$T$30)
	.dwattr $C$DW$204, DW_AT_location[DW_OP_reg13]

$C$DW$205	.dwtag  DW_TAG_formal_parameter
	.dwattr $C$DW$205, DW_AT_name("mask")
	.dwattr $C$DW$205, DW_AT_TI_symbol_name("mask")
	.dwattr $C$DW$205, DW_AT_type(*$C$DW$T$30)
	.dwattr $C$DW$205, DW_AT_location[DW_OP_reg14]


;*****************************************************************************
;* FUNCTION NAME: LCD_E_setBlinkingMemory                                    *
;*                                                                           *
;*   Regs Modified     : SP,SR,r15                                           *
;*   Regs Used         : SP,SR,r12,r13,r14,r15                               *
;*   Local Frame Size  : 0 Args + 4 Auto + 0 Save = 4 byte                   *
;*****************************************************************************
LCD_E_setBlinkingMemory:
;* --------------------------------------------------------------------------*
	.dwcfi	cfa_offset, 4
	.dwcfi	save_reg_to_mem, 16, -4
        SUB.W     #4,SP                 ; [] 
	.dwcfi	cfa_offset, 8
$C$DW$206	.dwtag  DW_TAG_variable
	.dwattr $C$DW$206, DW_AT_name("baseAddress")
	.dwattr $C$DW$206, DW_AT_TI_symbol_name("baseAddress")
	.dwattr $C$DW$206, DW_AT_type(*$C$DW$T$23)
	.dwattr $C$DW$206, DW_AT_location[DW_OP_breg1 0]

$C$DW$207	.dwtag  DW_TAG_variable
	.dwattr $C$DW$207, DW_AT_name("memory")
	.dwattr $C$DW$207, DW_AT_TI_symbol_name("memory")
	.dwattr $C$DW$207, DW_AT_type(*$C$DW$T$30)
	.dwattr $C$DW$207, DW_AT_location[DW_OP_breg1 2]

$C$DW$208	.dwtag  DW_TAG_variable
	.dwattr $C$DW$208, DW_AT_name("mask")
	.dwattr $C$DW$208, DW_AT_TI_symbol_name("mask")
	.dwattr $C$DW$208, DW_AT_type(*$C$DW$T$30)
	.dwattr $C$DW$208, DW_AT_location[DW_OP_breg1 3]

        MOV.B     r14,3(SP)             ; [] |370| 
        MOV.B     r13,2(SP)             ; [] |370| 
        MOV.W     r12,0(SP)             ; [] |370| 
	.dwpsn	file "../driverlib/MSP430FR2xx_4xx/lcd_e.c",line 371,column 5,is_stmt,isa 0
        MOV.B     2(SP),r15             ; [] |371| 
        ADD.W     0(SP),r15             ; [] |371| 
        MOV.B     3(SP),64(r15)         ; [] |371| 
	.dwpsn	file "../driverlib/MSP430FR2xx_4xx/lcd_e.c",line 372,column 1,is_stmt,isa 0
        ADD.W     #4,SP                 ; [] 
	.dwcfi	cfa_offset, 4
$C$DW$209	.dwtag  DW_TAG_TI_branch
	.dwattr $C$DW$209, DW_AT_low_pc(0x00)
	.dwattr $C$DW$209, DW_AT_TI_return

        RETA      ; [] 
        ; [] 
	.dwattr $C$DW$202, DW_AT_TI_end_file("../driverlib/MSP430FR2xx_4xx/lcd_e.c")
	.dwattr $C$DW$202, DW_AT_TI_end_line(0x174)
	.dwattr $C$DW$202, DW_AT_TI_end_column(0x01)
	.dwendentry
	.dwendtag $C$DW$202

	.sect	".text:LCD_E_updateBlinkingMemory"
	.clink
	.global	LCD_E_updateBlinkingMemory

$C$DW$210	.dwtag  DW_TAG_subprogram
	.dwattr $C$DW$210, DW_AT_name("LCD_E_updateBlinkingMemory")
	.dwattr $C$DW$210, DW_AT_low_pc(LCD_E_updateBlinkingMemory)
	.dwattr $C$DW$210, DW_AT_high_pc(0x00)
	.dwattr $C$DW$210, DW_AT_TI_symbol_name("LCD_E_updateBlinkingMemory")
	.dwattr $C$DW$210, DW_AT_external
	.dwattr $C$DW$210, DW_AT_TI_begin_file("../driverlib/MSP430FR2xx_4xx/lcd_e.c")
	.dwattr $C$DW$210, DW_AT_TI_begin_line(0x176)
	.dwattr $C$DW$210, DW_AT_TI_begin_column(0x06)
	.dwattr $C$DW$210, DW_AT_decl_file("../driverlib/MSP430FR2xx_4xx/lcd_e.c")
	.dwattr $C$DW$210, DW_AT_decl_line(0x176)
	.dwattr $C$DW$210, DW_AT_decl_column(0x06)
	.dwattr $C$DW$210, DW_AT_TI_max_frame_size(0x08)
	.dwpsn	file "../driverlib/MSP430FR2xx_4xx/lcd_e.c",line 375,column 1,is_stmt,address LCD_E_updateBlinkingMemory,isa 0

	.dwfde $C$DW$CIE, LCD_E_updateBlinkingMemory
$C$DW$211	.dwtag  DW_TAG_formal_parameter
	.dwattr $C$DW$211, DW_AT_name("baseAddress")
	.dwattr $C$DW$211, DW_AT_TI_symbol_name("baseAddress")
	.dwattr $C$DW$211, DW_AT_type(*$C$DW$T$23)
	.dwattr $C$DW$211, DW_AT_location[DW_OP_reg12]

$C$DW$212	.dwtag  DW_TAG_formal_parameter
	.dwattr $C$DW$212, DW_AT_name("memory")
	.dwattr $C$DW$212, DW_AT_TI_symbol_name("memory")
	.dwattr $C$DW$212, DW_AT_type(*$C$DW$T$30)
	.dwattr $C$DW$212, DW_AT_location[DW_OP_reg13]

$C$DW$213	.dwtag  DW_TAG_formal_parameter
	.dwattr $C$DW$213, DW_AT_name("mask")
	.dwattr $C$DW$213, DW_AT_TI_symbol_name("mask")
	.dwattr $C$DW$213, DW_AT_type(*$C$DW$T$30)
	.dwattr $C$DW$213, DW_AT_location[DW_OP_reg14]


;*****************************************************************************
;* FUNCTION NAME: LCD_E_updateBlinkingMemory                                 *
;*                                                                           *
;*   Regs Modified     : SP,SR,r15                                           *
;*   Regs Used         : SP,SR,r12,r13,r14,r15                               *
;*   Local Frame Size  : 0 Args + 4 Auto + 0 Save = 4 byte                   *
;*****************************************************************************
LCD_E_updateBlinkingMemory:
;* --------------------------------------------------------------------------*
	.dwcfi	cfa_offset, 4
	.dwcfi	save_reg_to_mem, 16, -4
        SUB.W     #4,SP                 ; [] 
	.dwcfi	cfa_offset, 8
$C$DW$214	.dwtag  DW_TAG_variable
	.dwattr $C$DW$214, DW_AT_name("baseAddress")
	.dwattr $C$DW$214, DW_AT_TI_symbol_name("baseAddress")
	.dwattr $C$DW$214, DW_AT_type(*$C$DW$T$23)
	.dwattr $C$DW$214, DW_AT_location[DW_OP_breg1 0]

$C$DW$215	.dwtag  DW_TAG_variable
	.dwattr $C$DW$215, DW_AT_name("memory")
	.dwattr $C$DW$215, DW_AT_TI_symbol_name("memory")
	.dwattr $C$DW$215, DW_AT_type(*$C$DW$T$30)
	.dwattr $C$DW$215, DW_AT_location[DW_OP_breg1 2]

$C$DW$216	.dwtag  DW_TAG_variable
	.dwattr $C$DW$216, DW_AT_name("mask")
	.dwattr $C$DW$216, DW_AT_TI_symbol_name("mask")
	.dwattr $C$DW$216, DW_AT_type(*$C$DW$T$30)
	.dwattr $C$DW$216, DW_AT_location[DW_OP_breg1 3]

        MOV.B     r14,3(SP)             ; [] |375| 
        MOV.B     r13,2(SP)             ; [] |375| 
        MOV.W     r12,0(SP)             ; [] |375| 
	.dwpsn	file "../driverlib/MSP430FR2xx_4xx/lcd_e.c",line 376,column 5,is_stmt,isa 0
        MOV.B     2(SP),r15             ; [] |376| 
        ADD.W     0(SP),r15             ; [] |376| 
        ADD.W     #64,r15               ; [] |376| 
        OR.B      3(SP),0(r15)          ; [] |376| 
	.dwpsn	file "../driverlib/MSP430FR2xx_4xx/lcd_e.c",line 377,column 1,is_stmt,isa 0
        ADD.W     #4,SP                 ; [] 
	.dwcfi	cfa_offset, 4
$C$DW$217	.dwtag  DW_TAG_TI_branch
	.dwattr $C$DW$217, DW_AT_low_pc(0x00)
	.dwattr $C$DW$217, DW_AT_TI_return

        RETA      ; [] 
        ; [] 
	.dwattr $C$DW$210, DW_AT_TI_end_file("../driverlib/MSP430FR2xx_4xx/lcd_e.c")
	.dwattr $C$DW$210, DW_AT_TI_end_line(0x179)
	.dwattr $C$DW$210, DW_AT_TI_end_column(0x01)
	.dwendentry
	.dwendtag $C$DW$210

	.sect	".text:LCD_E_toggleBlinkingMemory"
	.clink
	.global	LCD_E_toggleBlinkingMemory

$C$DW$218	.dwtag  DW_TAG_subprogram
	.dwattr $C$DW$218, DW_AT_name("LCD_E_toggleBlinkingMemory")
	.dwattr $C$DW$218, DW_AT_low_pc(LCD_E_toggleBlinkingMemory)
	.dwattr $C$DW$218, DW_AT_high_pc(0x00)
	.dwattr $C$DW$218, DW_AT_TI_symbol_name("LCD_E_toggleBlinkingMemory")
	.dwattr $C$DW$218, DW_AT_external
	.dwattr $C$DW$218, DW_AT_TI_begin_file("../driverlib/MSP430FR2xx_4xx/lcd_e.c")
	.dwattr $C$DW$218, DW_AT_TI_begin_line(0x17b)
	.dwattr $C$DW$218, DW_AT_TI_begin_column(0x06)
	.dwattr $C$DW$218, DW_AT_decl_file("../driverlib/MSP430FR2xx_4xx/lcd_e.c")
	.dwattr $C$DW$218, DW_AT_decl_line(0x17b)
	.dwattr $C$DW$218, DW_AT_decl_column(0x06)
	.dwattr $C$DW$218, DW_AT_TI_max_frame_size(0x08)
	.dwpsn	file "../driverlib/MSP430FR2xx_4xx/lcd_e.c",line 380,column 1,is_stmt,address LCD_E_toggleBlinkingMemory,isa 0

	.dwfde $C$DW$CIE, LCD_E_toggleBlinkingMemory
$C$DW$219	.dwtag  DW_TAG_formal_parameter
	.dwattr $C$DW$219, DW_AT_name("baseAddress")
	.dwattr $C$DW$219, DW_AT_TI_symbol_name("baseAddress")
	.dwattr $C$DW$219, DW_AT_type(*$C$DW$T$23)
	.dwattr $C$DW$219, DW_AT_location[DW_OP_reg12]

$C$DW$220	.dwtag  DW_TAG_formal_parameter
	.dwattr $C$DW$220, DW_AT_name("memory")
	.dwattr $C$DW$220, DW_AT_TI_symbol_name("memory")
	.dwattr $C$DW$220, DW_AT_type(*$C$DW$T$30)
	.dwattr $C$DW$220, DW_AT_location[DW_OP_reg13]

$C$DW$221	.dwtag  DW_TAG_formal_parameter
	.dwattr $C$DW$221, DW_AT_name("mask")
	.dwattr $C$DW$221, DW_AT_TI_symbol_name("mask")
	.dwattr $C$DW$221, DW_AT_type(*$C$DW$T$30)
	.dwattr $C$DW$221, DW_AT_location[DW_OP_reg14]


;*****************************************************************************
;* FUNCTION NAME: LCD_E_toggleBlinkingMemory                                 *
;*                                                                           *
;*   Regs Modified     : SP,SR,r15                                           *
;*   Regs Used         : SP,SR,r12,r13,r14,r15                               *
;*   Local Frame Size  : 0 Args + 4 Auto + 0 Save = 4 byte                   *
;*****************************************************************************
LCD_E_toggleBlinkingMemory:
;* --------------------------------------------------------------------------*
	.dwcfi	cfa_offset, 4
	.dwcfi	save_reg_to_mem, 16, -4
        SUB.W     #4,SP                 ; [] 
	.dwcfi	cfa_offset, 8
$C$DW$222	.dwtag  DW_TAG_variable
	.dwattr $C$DW$222, DW_AT_name("baseAddress")
	.dwattr $C$DW$222, DW_AT_TI_symbol_name("baseAddress")
	.dwattr $C$DW$222, DW_AT_type(*$C$DW$T$23)
	.dwattr $C$DW$222, DW_AT_location[DW_OP_breg1 0]

$C$DW$223	.dwtag  DW_TAG_variable
	.dwattr $C$DW$223, DW_AT_name("memory")
	.dwattr $C$DW$223, DW_AT_TI_symbol_name("memory")
	.dwattr $C$DW$223, DW_AT_type(*$C$DW$T$30)
	.dwattr $C$DW$223, DW_AT_location[DW_OP_breg1 2]

$C$DW$224	.dwtag  DW_TAG_variable
	.dwattr $C$DW$224, DW_AT_name("mask")
	.dwattr $C$DW$224, DW_AT_TI_symbol_name("mask")
	.dwattr $C$DW$224, DW_AT_type(*$C$DW$T$30)
	.dwattr $C$DW$224, DW_AT_location[DW_OP_breg1 3]

        MOV.B     r14,3(SP)             ; [] |380| 
        MOV.B     r13,2(SP)             ; [] |380| 
        MOV.W     r12,0(SP)             ; [] |380| 
	.dwpsn	file "../driverlib/MSP430FR2xx_4xx/lcd_e.c",line 381,column 5,is_stmt,isa 0
        MOV.B     2(SP),r15             ; [] |381| 
        ADD.W     0(SP),r15             ; [] |381| 
        ADD.W     #64,r15               ; [] |381| 
        XOR.B     3(SP),0(r15)          ; [] |381| 
	.dwpsn	file "../driverlib/MSP430FR2xx_4xx/lcd_e.c",line 382,column 1,is_stmt,isa 0
        ADD.W     #4,SP                 ; [] 
	.dwcfi	cfa_offset, 4
$C$DW$225	.dwtag  DW_TAG_TI_branch
	.dwattr $C$DW$225, DW_AT_low_pc(0x00)
	.dwattr $C$DW$225, DW_AT_TI_return

        RETA      ; [] 
        ; [] 
	.dwattr $C$DW$218, DW_AT_TI_end_file("../driverlib/MSP430FR2xx_4xx/lcd_e.c")
	.dwattr $C$DW$218, DW_AT_TI_end_line(0x17e)
	.dwattr $C$DW$218, DW_AT_TI_end_column(0x01)
	.dwendentry
	.dwendtag $C$DW$218

	.sect	".text:LCD_E_clearBlinkingMemory"
	.clink
	.global	LCD_E_clearBlinkingMemory

$C$DW$226	.dwtag  DW_TAG_subprogram
	.dwattr $C$DW$226, DW_AT_name("LCD_E_clearBlinkingMemory")
	.dwattr $C$DW$226, DW_AT_low_pc(LCD_E_clearBlinkingMemory)
	.dwattr $C$DW$226, DW_AT_high_pc(0x00)
	.dwattr $C$DW$226, DW_AT_TI_symbol_name("LCD_E_clearBlinkingMemory")
	.dwattr $C$DW$226, DW_AT_external
	.dwattr $C$DW$226, DW_AT_TI_begin_file("../driverlib/MSP430FR2xx_4xx/lcd_e.c")
	.dwattr $C$DW$226, DW_AT_TI_begin_line(0x180)
	.dwattr $C$DW$226, DW_AT_TI_begin_column(0x06)
	.dwattr $C$DW$226, DW_AT_decl_file("../driverlib/MSP430FR2xx_4xx/lcd_e.c")
	.dwattr $C$DW$226, DW_AT_decl_line(0x180)
	.dwattr $C$DW$226, DW_AT_decl_column(0x06)
	.dwattr $C$DW$226, DW_AT_TI_max_frame_size(0x08)
	.dwpsn	file "../driverlib/MSP430FR2xx_4xx/lcd_e.c",line 385,column 1,is_stmt,address LCD_E_clearBlinkingMemory,isa 0

	.dwfde $C$DW$CIE, LCD_E_clearBlinkingMemory
$C$DW$227	.dwtag  DW_TAG_formal_parameter
	.dwattr $C$DW$227, DW_AT_name("baseAddress")
	.dwattr $C$DW$227, DW_AT_TI_symbol_name("baseAddress")
	.dwattr $C$DW$227, DW_AT_type(*$C$DW$T$23)
	.dwattr $C$DW$227, DW_AT_location[DW_OP_reg12]

$C$DW$228	.dwtag  DW_TAG_formal_parameter
	.dwattr $C$DW$228, DW_AT_name("memory")
	.dwattr $C$DW$228, DW_AT_TI_symbol_name("memory")
	.dwattr $C$DW$228, DW_AT_type(*$C$DW$T$30)
	.dwattr $C$DW$228, DW_AT_location[DW_OP_reg13]

$C$DW$229	.dwtag  DW_TAG_formal_parameter
	.dwattr $C$DW$229, DW_AT_name("mask")
	.dwattr $C$DW$229, DW_AT_TI_symbol_name("mask")
	.dwattr $C$DW$229, DW_AT_type(*$C$DW$T$30)
	.dwattr $C$DW$229, DW_AT_location[DW_OP_reg14]


;*****************************************************************************
;* FUNCTION NAME: LCD_E_clearBlinkingMemory                                  *
;*                                                                           *
;*   Regs Modified     : SP,SR,r15                                           *
;*   Regs Used         : SP,SR,r12,r13,r14,r15                               *
;*   Local Frame Size  : 0 Args + 4 Auto + 0 Save = 4 byte                   *
;*****************************************************************************
LCD_E_clearBlinkingMemory:
;* --------------------------------------------------------------------------*
	.dwcfi	cfa_offset, 4
	.dwcfi	save_reg_to_mem, 16, -4
        SUB.W     #4,SP                 ; [] 
	.dwcfi	cfa_offset, 8
$C$DW$230	.dwtag  DW_TAG_variable
	.dwattr $C$DW$230, DW_AT_name("baseAddress")
	.dwattr $C$DW$230, DW_AT_TI_symbol_name("baseAddress")
	.dwattr $C$DW$230, DW_AT_type(*$C$DW$T$23)
	.dwattr $C$DW$230, DW_AT_location[DW_OP_breg1 0]

$C$DW$231	.dwtag  DW_TAG_variable
	.dwattr $C$DW$231, DW_AT_name("memory")
	.dwattr $C$DW$231, DW_AT_TI_symbol_name("memory")
	.dwattr $C$DW$231, DW_AT_type(*$C$DW$T$30)
	.dwattr $C$DW$231, DW_AT_location[DW_OP_breg1 2]

$C$DW$232	.dwtag  DW_TAG_variable
	.dwattr $C$DW$232, DW_AT_name("mask")
	.dwattr $C$DW$232, DW_AT_TI_symbol_name("mask")
	.dwattr $C$DW$232, DW_AT_type(*$C$DW$T$30)
	.dwattr $C$DW$232, DW_AT_location[DW_OP_breg1 3]

        MOV.B     r14,3(SP)             ; [] |385| 
        MOV.B     r13,2(SP)             ; [] |385| 
        MOV.W     r12,0(SP)             ; [] |385| 
	.dwpsn	file "../driverlib/MSP430FR2xx_4xx/lcd_e.c",line 386,column 5,is_stmt,isa 0
        MOV.B     2(SP),r15             ; [] |386| 
        ADD.W     0(SP),r15             ; [] |386| 
        ADD.W     #64,r15               ; [] |386| 
        BIC.B     3(SP),0(r15)          ; [] |386| 
	.dwpsn	file "../driverlib/MSP430FR2xx_4xx/lcd_e.c",line 387,column 1,is_stmt,isa 0
        ADD.W     #4,SP                 ; [] 
	.dwcfi	cfa_offset, 4
$C$DW$233	.dwtag  DW_TAG_TI_branch
	.dwattr $C$DW$233, DW_AT_low_pc(0x00)
	.dwattr $C$DW$233, DW_AT_TI_return

        RETA      ; [] 
        ; [] 
	.dwattr $C$DW$226, DW_AT_TI_end_file("../driverlib/MSP430FR2xx_4xx/lcd_e.c")
	.dwattr $C$DW$226, DW_AT_TI_end_line(0x183)
	.dwattr $C$DW$226, DW_AT_TI_end_column(0x01)
	.dwendentry
	.dwendtag $C$DW$226

;*****************************************************************************
;* UNDEFINED EXTERNAL REFERENCES                                             *
;*****************************************************************************
	.global	__mspabi_slli
	.global	__mspabi_srli
	.global	__mspabi_divi

;******************************************************************************
;* BUILD ATTRIBUTES                                                           *
;******************************************************************************
	.battr "TI", Tag_File, 1, Tag_LOCKIO_INFO(1)
	.battr "TI", Tag_File, 1, Tag_WAITSTATE_INFO(2)
	.battr "TI", Tag_File, 1, Tag_HW_MPY_ISR_INFO(1)
	.battr "TI", Tag_File, 1, Tag_HW_MPY_INLINE_INFO(1)
	.battr "mspabi", Tag_File, 1, Tag_enum_size(3)

;******************************************************************************
;* TYPE INFORMATION                                                           *
;******************************************************************************

$C$DW$T$21	.dwtag  DW_TAG_structure_type
	.dwattr $C$DW$T$21, DW_AT_byte_size(0x10)
$C$DW$234	.dwtag  DW_TAG_member
	.dwattr $C$DW$234, DW_AT_type(*$C$DW$T$14)
	.dwattr $C$DW$234, DW_AT_name("__max_align1")
	.dwattr $C$DW$234, DW_AT_TI_symbol_name("__max_align1")
	.dwattr $C$DW$234, DW_AT_data_member_location[DW_OP_plus_uconst 0x0]
	.dwattr $C$DW$234, DW_AT_accessibility(DW_ACCESS_public)
	.dwattr $C$DW$234, DW_AT_decl_file("C:/ti/ccs1110/ccs/tools/compiler/ti-cgt-msp430_21.6.1.LTS/include/sys/_types.h")
	.dwattr $C$DW$234, DW_AT_decl_line(0x7b)
	.dwattr $C$DW$234, DW_AT_decl_column(0x0c)

$C$DW$235	.dwtag  DW_TAG_member
	.dwattr $C$DW$235, DW_AT_type(*$C$DW$T$18)
	.dwattr $C$DW$235, DW_AT_name("__max_align2")
	.dwattr $C$DW$235, DW_AT_TI_symbol_name("__max_align2")
	.dwattr $C$DW$235, DW_AT_data_member_location[DW_OP_plus_uconst 0x8]
	.dwattr $C$DW$235, DW_AT_accessibility(DW_ACCESS_public)
	.dwattr $C$DW$235, DW_AT_decl_file("C:/ti/ccs1110/ccs/tools/compiler/ti-cgt-msp430_21.6.1.LTS/include/sys/_types.h")
	.dwattr $C$DW$235, DW_AT_decl_line(0x7c)
	.dwattr $C$DW$235, DW_AT_decl_column(0x0e)

	.dwattr $C$DW$T$21, DW_AT_decl_file("C:/ti/ccs1110/ccs/tools/compiler/ti-cgt-msp430_21.6.1.LTS/include/sys/_types.h")
	.dwattr $C$DW$T$21, DW_AT_decl_line(0x7a)
	.dwattr $C$DW$T$21, DW_AT_decl_column(0x10)
	.dwendtag $C$DW$T$21

$C$DW$T$25	.dwtag  DW_TAG_typedef
	.dwattr $C$DW$T$25, DW_AT_name("__max_align_t")
	.dwattr $C$DW$T$25, DW_AT_type(*$C$DW$T$21)
	.dwattr $C$DW$T$25, DW_AT_language(DW_LANG_C)
	.dwattr $C$DW$T$25, DW_AT_decl_file("C:/ti/ccs1110/ccs/tools/compiler/ti-cgt-msp430_21.6.1.LTS/include/sys/_types.h")
	.dwattr $C$DW$T$25, DW_AT_decl_line(0x7d)
	.dwattr $C$DW$T$25, DW_AT_decl_column(0x03)


$C$DW$T$24	.dwtag  DW_TAG_structure_type
	.dwattr $C$DW$T$24, DW_AT_name("LCD_E_initParam")
	.dwattr $C$DW$T$24, DW_AT_byte_size(0x0a)
$C$DW$236	.dwtag  DW_TAG_member
	.dwattr $C$DW$236, DW_AT_type(*$C$DW$T$23)
	.dwattr $C$DW$236, DW_AT_name("clockSource")
	.dwattr $C$DW$236, DW_AT_TI_symbol_name("clockSource")
	.dwattr $C$DW$236, DW_AT_data_member_location[DW_OP_plus_uconst 0x0]
	.dwattr $C$DW$236, DW_AT_accessibility(DW_ACCESS_public)
	.dwattr $C$DW$236, DW_AT_decl_file("..\driverlib\MSP430FR2xx_4xx\lcd_e.h")
	.dwattr $C$DW$236, DW_AT_decl_line(0x25)
	.dwattr $C$DW$236, DW_AT_decl_column(0x0e)

$C$DW$237	.dwtag  DW_TAG_member
	.dwattr $C$DW$237, DW_AT_type(*$C$DW$T$23)
	.dwattr $C$DW$237, DW_AT_name("clockDivider")
	.dwattr $C$DW$237, DW_AT_TI_symbol_name("clockDivider")
	.dwattr $C$DW$237, DW_AT_data_member_location[DW_OP_plus_uconst 0x2]
	.dwattr $C$DW$237, DW_AT_accessibility(DW_ACCESS_public)
	.dwattr $C$DW$237, DW_AT_decl_file("..\driverlib\MSP430FR2xx_4xx\lcd_e.h")
	.dwattr $C$DW$237, DW_AT_decl_line(0x48)
	.dwattr $C$DW$237, DW_AT_decl_column(0x0e)

$C$DW$238	.dwtag  DW_TAG_member
	.dwattr $C$DW$238, DW_AT_type(*$C$DW$T$23)
	.dwattr $C$DW$238, DW_AT_name("muxRate")
	.dwattr $C$DW$238, DW_AT_TI_symbol_name("muxRate")
	.dwattr $C$DW$238, DW_AT_data_member_location[DW_OP_plus_uconst 0x4]
	.dwattr $C$DW$238, DW_AT_accessibility(DW_ACCESS_public)
	.dwattr $C$DW$238, DW_AT_decl_file("..\driverlib\MSP430FR2xx_4xx\lcd_e.h")
	.dwattr $C$DW$238, DW_AT_decl_line(0x53)
	.dwattr $C$DW$238, DW_AT_decl_column(0x0e)

$C$DW$239	.dwtag  DW_TAG_member
	.dwattr $C$DW$239, DW_AT_type(*$C$DW$T$23)
	.dwattr $C$DW$239, DW_AT_name("waveforms")
	.dwattr $C$DW$239, DW_AT_TI_symbol_name("waveforms")
	.dwattr $C$DW$239, DW_AT_data_member_location[DW_OP_plus_uconst 0x6]
	.dwattr $C$DW$239, DW_AT_accessibility(DW_ACCESS_public)
	.dwattr $C$DW$239, DW_AT_decl_file("..\driverlib\MSP430FR2xx_4xx\lcd_e.h")
	.dwattr $C$DW$239, DW_AT_decl_line(0x58)
	.dwattr $C$DW$239, DW_AT_decl_column(0x0e)

$C$DW$240	.dwtag  DW_TAG_member
	.dwattr $C$DW$240, DW_AT_type(*$C$DW$T$23)
	.dwattr $C$DW$240, DW_AT_name("segments")
	.dwattr $C$DW$240, DW_AT_TI_symbol_name("segments")
	.dwattr $C$DW$240, DW_AT_data_member_location[DW_OP_plus_uconst 0x8]
	.dwattr $C$DW$240, DW_AT_accessibility(DW_ACCESS_public)
	.dwattr $C$DW$240, DW_AT_decl_file("..\driverlib\MSP430FR2xx_4xx\lcd_e.h")
	.dwattr $C$DW$240, DW_AT_decl_line(0x5d)
	.dwattr $C$DW$240, DW_AT_decl_column(0x0e)

	.dwattr $C$DW$T$24, DW_AT_decl_file("..\driverlib\MSP430FR2xx_4xx\lcd_e.h")
	.dwattr $C$DW$T$24, DW_AT_decl_line(0x1f)
	.dwattr $C$DW$T$24, DW_AT_decl_column(0x10)
	.dwendtag $C$DW$T$24

$C$DW$T$26	.dwtag  DW_TAG_typedef
	.dwattr $C$DW$T$26, DW_AT_name("LCD_E_initParam")
	.dwattr $C$DW$T$26, DW_AT_type(*$C$DW$T$24)
	.dwattr $C$DW$T$26, DW_AT_language(DW_LANG_C)
	.dwattr $C$DW$T$26, DW_AT_decl_file("..\driverlib\MSP430FR2xx_4xx\lcd_e.h")
	.dwattr $C$DW$T$26, DW_AT_decl_line(0x5e)
	.dwattr $C$DW$T$26, DW_AT_decl_column(0x03)

$C$DW$T$27	.dwtag  DW_TAG_const_type
	.dwattr $C$DW$T$27, DW_AT_type(*$C$DW$T$26)

$C$DW$T$28	.dwtag  DW_TAG_pointer_type
	.dwattr $C$DW$T$28, DW_AT_type(*$C$DW$T$26)
	.dwattr $C$DW$T$28, DW_AT_address_class(0x10)

$C$DW$T$2	.dwtag  DW_TAG_unspecified_type
	.dwattr $C$DW$T$2, DW_AT_name("void")


$C$DW$T$39	.dwtag  DW_TAG_subroutine_type
	.dwattr $C$DW$T$39, DW_AT_language(DW_LANG_C)
	.dwendtag $C$DW$T$39

$C$DW$T$40	.dwtag  DW_TAG_pointer_type
	.dwattr $C$DW$T$40, DW_AT_type(*$C$DW$T$39)
	.dwattr $C$DW$T$40, DW_AT_address_class(0x14)

$C$DW$T$41	.dwtag  DW_TAG_typedef
	.dwattr $C$DW$T$41, DW_AT_name("__SFR_FARPTR")
	.dwattr $C$DW$T$41, DW_AT_type(*$C$DW$T$40)
	.dwattr $C$DW$T$41, DW_AT_language(DW_LANG_C)
	.dwattr $C$DW$T$41, DW_AT_decl_file("C:\ti\ccs1110\ccs\ccs_base\msp430\include\msp430fr4133.h")
	.dwattr $C$DW$T$41, DW_AT_decl_line(0x46)
	.dwattr $C$DW$T$41, DW_AT_decl_column(0x11)

$C$DW$T$4	.dwtag  DW_TAG_base_type
	.dwattr $C$DW$T$4, DW_AT_encoding(DW_ATE_boolean)
	.dwattr $C$DW$T$4, DW_AT_name("bool")
	.dwattr $C$DW$T$4, DW_AT_byte_size(0x01)

$C$DW$T$5	.dwtag  DW_TAG_base_type
	.dwattr $C$DW$T$5, DW_AT_encoding(DW_ATE_signed_char)
	.dwattr $C$DW$T$5, DW_AT_name("signed char")
	.dwattr $C$DW$T$5, DW_AT_byte_size(0x01)

$C$DW$T$42	.dwtag  DW_TAG_typedef
	.dwattr $C$DW$T$42, DW_AT_name("__int8_t")
	.dwattr $C$DW$T$42, DW_AT_type(*$C$DW$T$5)
	.dwattr $C$DW$T$42, DW_AT_language(DW_LANG_C)
	.dwattr $C$DW$T$42, DW_AT_decl_file("C:/ti/ccs1110/ccs/tools/compiler/ti-cgt-msp430_21.6.1.LTS/include/machine/_types.h")
	.dwattr $C$DW$T$42, DW_AT_decl_line(0x36)
	.dwattr $C$DW$T$42, DW_AT_decl_column(0x16)

$C$DW$T$43	.dwtag  DW_TAG_typedef
	.dwattr $C$DW$T$43, DW_AT_name("__int_least8_t")
	.dwattr $C$DW$T$43, DW_AT_type(*$C$DW$T$42)
	.dwattr $C$DW$T$43, DW_AT_language(DW_LANG_C)
	.dwattr $C$DW$T$43, DW_AT_decl_file("C:/ti/ccs1110/ccs/tools/compiler/ti-cgt-msp430_21.6.1.LTS/include/machine/_types.h")
	.dwattr $C$DW$T$43, DW_AT_decl_line(0x5a)
	.dwattr $C$DW$T$43, DW_AT_decl_column(0x12)

$C$DW$T$44	.dwtag  DW_TAG_typedef
	.dwattr $C$DW$T$44, DW_AT_name("int_least8_t")
	.dwattr $C$DW$T$44, DW_AT_type(*$C$DW$T$43)
	.dwattr $C$DW$T$44, DW_AT_language(DW_LANG_C)
	.dwattr $C$DW$T$44, DW_AT_decl_file("C:/ti/ccs1110/ccs/tools/compiler/ti-cgt-msp430_21.6.1.LTS/include/sys/stdint.h")
	.dwattr $C$DW$T$44, DW_AT_decl_line(0x2a)
	.dwattr $C$DW$T$44, DW_AT_decl_column(0x19)

$C$DW$T$45	.dwtag  DW_TAG_typedef
	.dwattr $C$DW$T$45, DW_AT_name("int8_t")
	.dwattr $C$DW$T$45, DW_AT_type(*$C$DW$T$42)
	.dwattr $C$DW$T$45, DW_AT_language(DW_LANG_C)
	.dwattr $C$DW$T$45, DW_AT_decl_file("C:/ti/ccs1110/ccs/tools/compiler/ti-cgt-msp430_21.6.1.LTS/include/sys/_stdint.h")
	.dwattr $C$DW$T$45, DW_AT_decl_line(0x25)
	.dwattr $C$DW$T$45, DW_AT_decl_column(0x13)

$C$DW$T$6	.dwtag  DW_TAG_base_type
	.dwattr $C$DW$T$6, DW_AT_encoding(DW_ATE_unsigned_char)
	.dwattr $C$DW$T$6, DW_AT_name("unsigned char")
	.dwattr $C$DW$T$6, DW_AT_byte_size(0x01)

$C$DW$T$29	.dwtag  DW_TAG_typedef
	.dwattr $C$DW$T$29, DW_AT_name("__uint8_t")
	.dwattr $C$DW$T$29, DW_AT_type(*$C$DW$T$6)
	.dwattr $C$DW$T$29, DW_AT_language(DW_LANG_C)
	.dwattr $C$DW$T$29, DW_AT_decl_file("C:/ti/ccs1110/ccs/tools/compiler/ti-cgt-msp430_21.6.1.LTS/include/machine/_types.h")
	.dwattr $C$DW$T$29, DW_AT_decl_line(0x37)
	.dwattr $C$DW$T$29, DW_AT_decl_column(0x18)

$C$DW$T$46	.dwtag  DW_TAG_typedef
	.dwattr $C$DW$T$46, DW_AT_name("__sa_family_t")
	.dwattr $C$DW$T$46, DW_AT_type(*$C$DW$T$29)
	.dwattr $C$DW$T$46, DW_AT_language(DW_LANG_C)
	.dwattr $C$DW$T$46, DW_AT_decl_file("C:/ti/ccs1110/ccs/tools/compiler/ti-cgt-msp430_21.6.1.LTS/include/sys/_types.h")
	.dwattr $C$DW$T$46, DW_AT_decl_line(0x47)
	.dwattr $C$DW$T$46, DW_AT_decl_column(0x13)

$C$DW$T$47	.dwtag  DW_TAG_typedef
	.dwattr $C$DW$T$47, DW_AT_name("__uint_least8_t")
	.dwattr $C$DW$T$47, DW_AT_type(*$C$DW$T$29)
	.dwattr $C$DW$T$47, DW_AT_language(DW_LANG_C)
	.dwattr $C$DW$T$47, DW_AT_decl_file("C:/ti/ccs1110/ccs/tools/compiler/ti-cgt-msp430_21.6.1.LTS/include/machine/_types.h")
	.dwattr $C$DW$T$47, DW_AT_decl_line(0x74)
	.dwattr $C$DW$T$47, DW_AT_decl_column(0x13)

$C$DW$T$48	.dwtag  DW_TAG_typedef
	.dwattr $C$DW$T$48, DW_AT_name("uint_least8_t")
	.dwattr $C$DW$T$48, DW_AT_type(*$C$DW$T$47)
	.dwattr $C$DW$T$48, DW_AT_language(DW_LANG_C)
	.dwattr $C$DW$T$48, DW_AT_decl_file("C:/ti/ccs1110/ccs/tools/compiler/ti-cgt-msp430_21.6.1.LTS/include/sys/stdint.h")
	.dwattr $C$DW$T$48, DW_AT_decl_line(0x2f)
	.dwattr $C$DW$T$48, DW_AT_decl_column(0x1a)

$C$DW$T$30	.dwtag  DW_TAG_typedef
	.dwattr $C$DW$T$30, DW_AT_name("uint8_t")
	.dwattr $C$DW$T$30, DW_AT_type(*$C$DW$T$29)
	.dwattr $C$DW$T$30, DW_AT_language(DW_LANG_C)
	.dwattr $C$DW$T$30, DW_AT_decl_file("C:/ti/ccs1110/ccs/tools/compiler/ti-cgt-msp430_21.6.1.LTS/include/sys/_stdint.h")
	.dwattr $C$DW$T$30, DW_AT_decl_line(0x3b)
	.dwattr $C$DW$T$30, DW_AT_decl_column(0x14)

$C$DW$T$7	.dwtag  DW_TAG_base_type
	.dwattr $C$DW$T$7, DW_AT_encoding(DW_ATE_signed_char)
	.dwattr $C$DW$T$7, DW_AT_name("wchar_t")
	.dwattr $C$DW$T$7, DW_AT_byte_size(0x02)

$C$DW$T$8	.dwtag  DW_TAG_base_type
	.dwattr $C$DW$T$8, DW_AT_encoding(DW_ATE_signed)
	.dwattr $C$DW$T$8, DW_AT_name("short")
	.dwattr $C$DW$T$8, DW_AT_byte_size(0x02)

$C$DW$T$9	.dwtag  DW_TAG_base_type
	.dwattr $C$DW$T$9, DW_AT_encoding(DW_ATE_unsigned)
	.dwattr $C$DW$T$9, DW_AT_name("unsigned short")
	.dwattr $C$DW$T$9, DW_AT_byte_size(0x02)

$C$DW$T$10	.dwtag  DW_TAG_base_type
	.dwattr $C$DW$T$10, DW_AT_encoding(DW_ATE_signed)
	.dwattr $C$DW$T$10, DW_AT_name("int")
	.dwattr $C$DW$T$10, DW_AT_byte_size(0x02)

$C$DW$T$51	.dwtag  DW_TAG_typedef
	.dwattr $C$DW$T$51, DW_AT_name("_Mbstatet")
	.dwattr $C$DW$T$51, DW_AT_type(*$C$DW$T$10)
	.dwattr $C$DW$T$51, DW_AT_language(DW_LANG_C)
	.dwattr $C$DW$T$51, DW_AT_decl_file("C:/ti/ccs1110/ccs/tools/compiler/ti-cgt-msp430_21.6.1.LTS/include/sys/_types.h")
	.dwattr $C$DW$T$51, DW_AT_decl_line(0x8f)
	.dwattr $C$DW$T$51, DW_AT_decl_column(0x0d)

$C$DW$T$52	.dwtag  DW_TAG_typedef
	.dwattr $C$DW$T$52, DW_AT_name("__mbstate_t")
	.dwattr $C$DW$T$52, DW_AT_type(*$C$DW$T$51)
	.dwattr $C$DW$T$52, DW_AT_language(DW_LANG_C)
	.dwattr $C$DW$T$52, DW_AT_decl_file("C:/ti/ccs1110/ccs/tools/compiler/ti-cgt-msp430_21.6.1.LTS/include/sys/_types.h")
	.dwattr $C$DW$T$52, DW_AT_decl_line(0x92)
	.dwattr $C$DW$T$52, DW_AT_decl_column(0x13)

$C$DW$T$53	.dwtag  DW_TAG_typedef
	.dwattr $C$DW$T$53, DW_AT_name("__accmode_t")
	.dwattr $C$DW$T$53, DW_AT_type(*$C$DW$T$10)
	.dwattr $C$DW$T$53, DW_AT_language(DW_LANG_C)
	.dwattr $C$DW$T$53, DW_AT_decl_file("C:/ti/ccs1110/ccs/tools/compiler/ti-cgt-msp430_21.6.1.LTS/include/sys/_types.h")
	.dwattr $C$DW$T$53, DW_AT_decl_line(0x3b)
	.dwattr $C$DW$T$53, DW_AT_decl_column(0x0e)

$C$DW$T$54	.dwtag  DW_TAG_typedef
	.dwattr $C$DW$T$54, DW_AT_name("__cpulevel_t")
	.dwattr $C$DW$T$54, DW_AT_type(*$C$DW$T$10)
	.dwattr $C$DW$T$54, DW_AT_language(DW_LANG_C)
	.dwattr $C$DW$T$54, DW_AT_decl_file("C:/ti/ccs1110/ccs/tools/compiler/ti-cgt-msp430_21.6.1.LTS/include/sys/_types.h")
	.dwattr $C$DW$T$54, DW_AT_decl_line(0x50)
	.dwattr $C$DW$T$54, DW_AT_decl_column(0x0e)

$C$DW$T$55	.dwtag  DW_TAG_typedef
	.dwattr $C$DW$T$55, DW_AT_name("__cpusetid_t")
	.dwattr $C$DW$T$55, DW_AT_type(*$C$DW$T$10)
	.dwattr $C$DW$T$55, DW_AT_language(DW_LANG_C)
	.dwattr $C$DW$T$55, DW_AT_decl_file("C:/ti/ccs1110/ccs/tools/compiler/ti-cgt-msp430_21.6.1.LTS/include/sys/_types.h")
	.dwattr $C$DW$T$55, DW_AT_decl_line(0x51)
	.dwattr $C$DW$T$55, DW_AT_decl_column(0x0e)

$C$DW$T$56	.dwtag  DW_TAG_typedef
	.dwattr $C$DW$T$56, DW_AT_name("__cpuwhich_t")
	.dwattr $C$DW$T$56, DW_AT_type(*$C$DW$T$10)
	.dwattr $C$DW$T$56, DW_AT_language(DW_LANG_C)
	.dwattr $C$DW$T$56, DW_AT_decl_file("C:/ti/ccs1110/ccs/tools/compiler/ti-cgt-msp430_21.6.1.LTS/include/sys/_types.h")
	.dwattr $C$DW$T$56, DW_AT_decl_line(0x4f)
	.dwattr $C$DW$T$56, DW_AT_decl_column(0x0e)

$C$DW$T$57	.dwtag  DW_TAG_typedef
	.dwattr $C$DW$T$57, DW_AT_name("__ct_rune_t")
	.dwattr $C$DW$T$57, DW_AT_type(*$C$DW$T$10)
	.dwattr $C$DW$T$57, DW_AT_language(DW_LANG_C)
	.dwattr $C$DW$T$57, DW_AT_decl_file("C:/ti/ccs1110/ccs/tools/compiler/ti-cgt-msp430_21.6.1.LTS/include/sys/_types.h")
	.dwattr $C$DW$T$57, DW_AT_decl_line(0x69)
	.dwattr $C$DW$T$57, DW_AT_decl_column(0x0e)

$C$DW$T$58	.dwtag  DW_TAG_typedef
	.dwattr $C$DW$T$58, DW_AT_name("__rune_t")
	.dwattr $C$DW$T$58, DW_AT_type(*$C$DW$T$57)
	.dwattr $C$DW$T$58, DW_AT_language(DW_LANG_C)
	.dwattr $C$DW$T$58, DW_AT_decl_file("C:/ti/ccs1110/ccs/tools/compiler/ti-cgt-msp430_21.6.1.LTS/include/sys/_types.h")
	.dwattr $C$DW$T$58, DW_AT_decl_line(0x6c)
	.dwattr $C$DW$T$58, DW_AT_decl_column(0x15)

$C$DW$T$59	.dwtag  DW_TAG_typedef
	.dwattr $C$DW$T$59, DW_AT_name("__wint_t")
	.dwattr $C$DW$T$59, DW_AT_type(*$C$DW$T$57)
	.dwattr $C$DW$T$59, DW_AT_language(DW_LANG_C)
	.dwattr $C$DW$T$59, DW_AT_decl_file("C:/ti/ccs1110/ccs/tools/compiler/ti-cgt-msp430_21.6.1.LTS/include/sys/_types.h")
	.dwattr $C$DW$T$59, DW_AT_decl_line(0x6d)
	.dwattr $C$DW$T$59, DW_AT_decl_column(0x15)

$C$DW$T$60	.dwtag  DW_TAG_typedef
	.dwattr $C$DW$T$60, DW_AT_name("__int16_t")
	.dwattr $C$DW$T$60, DW_AT_type(*$C$DW$T$10)
	.dwattr $C$DW$T$60, DW_AT_language(DW_LANG_C)
	.dwattr $C$DW$T$60, DW_AT_decl_file("C:/ti/ccs1110/ccs/tools/compiler/ti-cgt-msp430_21.6.1.LTS/include/machine/_types.h")
	.dwattr $C$DW$T$60, DW_AT_decl_line(0x38)
	.dwattr $C$DW$T$60, DW_AT_decl_column(0x0f)

$C$DW$T$61	.dwtag  DW_TAG_typedef
	.dwattr $C$DW$T$61, DW_AT_name("__int_fast16_t")
	.dwattr $C$DW$T$61, DW_AT_type(*$C$DW$T$60)
	.dwattr $C$DW$T$61, DW_AT_language(DW_LANG_C)
	.dwattr $C$DW$T$61, DW_AT_decl_file("C:/ti/ccs1110/ccs/tools/compiler/ti-cgt-msp430_21.6.1.LTS/include/machine/_types.h")
	.dwattr $C$DW$T$61, DW_AT_decl_line(0x57)
	.dwattr $C$DW$T$61, DW_AT_decl_column(0x13)

$C$DW$T$62	.dwtag  DW_TAG_typedef
	.dwattr $C$DW$T$62, DW_AT_name("int_fast16_t")
	.dwattr $C$DW$T$62, DW_AT_type(*$C$DW$T$61)
	.dwattr $C$DW$T$62, DW_AT_language(DW_LANG_C)
	.dwattr $C$DW$T$62, DW_AT_decl_file("C:/ti/ccs1110/ccs/tools/compiler/ti-cgt-msp430_21.6.1.LTS/include/sys/stdint.h")
	.dwattr $C$DW$T$62, DW_AT_decl_line(0x35)
	.dwattr $C$DW$T$62, DW_AT_decl_column(0x19)

$C$DW$T$63	.dwtag  DW_TAG_typedef
	.dwattr $C$DW$T$63, DW_AT_name("__int_fast8_t")
	.dwattr $C$DW$T$63, DW_AT_type(*$C$DW$T$60)
	.dwattr $C$DW$T$63, DW_AT_language(DW_LANG_C)
	.dwattr $C$DW$T$63, DW_AT_decl_file("C:/ti/ccs1110/ccs/tools/compiler/ti-cgt-msp430_21.6.1.LTS/include/machine/_types.h")
	.dwattr $C$DW$T$63, DW_AT_decl_line(0x56)
	.dwattr $C$DW$T$63, DW_AT_decl_column(0x13)

$C$DW$T$64	.dwtag  DW_TAG_typedef
	.dwattr $C$DW$T$64, DW_AT_name("int_fast8_t")
	.dwattr $C$DW$T$64, DW_AT_type(*$C$DW$T$63)
	.dwattr $C$DW$T$64, DW_AT_language(DW_LANG_C)
	.dwattr $C$DW$T$64, DW_AT_decl_file("C:/ti/ccs1110/ccs/tools/compiler/ti-cgt-msp430_21.6.1.LTS/include/sys/stdint.h")
	.dwattr $C$DW$T$64, DW_AT_decl_line(0x34)
	.dwattr $C$DW$T$64, DW_AT_decl_column(0x18)

$C$DW$T$65	.dwtag  DW_TAG_typedef
	.dwattr $C$DW$T$65, DW_AT_name("__int_least16_t")
	.dwattr $C$DW$T$65, DW_AT_type(*$C$DW$T$60)
	.dwattr $C$DW$T$65, DW_AT_language(DW_LANG_C)
	.dwattr $C$DW$T$65, DW_AT_decl_file("C:/ti/ccs1110/ccs/tools/compiler/ti-cgt-msp430_21.6.1.LTS/include/machine/_types.h")
	.dwattr $C$DW$T$65, DW_AT_decl_line(0x5b)
	.dwattr $C$DW$T$65, DW_AT_decl_column(0x13)

$C$DW$T$66	.dwtag  DW_TAG_typedef
	.dwattr $C$DW$T$66, DW_AT_name("int_least16_t")
	.dwattr $C$DW$T$66, DW_AT_type(*$C$DW$T$65)
	.dwattr $C$DW$T$66, DW_AT_language(DW_LANG_C)
	.dwattr $C$DW$T$66, DW_AT_decl_file("C:/ti/ccs1110/ccs/tools/compiler/ti-cgt-msp430_21.6.1.LTS/include/sys/stdint.h")
	.dwattr $C$DW$T$66, DW_AT_decl_line(0x2b)
	.dwattr $C$DW$T$66, DW_AT_decl_column(0x1a)

$C$DW$T$67	.dwtag  DW_TAG_typedef
	.dwattr $C$DW$T$67, DW_AT_name("__register_t")
	.dwattr $C$DW$T$67, DW_AT_type(*$C$DW$T$60)
	.dwattr $C$DW$T$67, DW_AT_language(DW_LANG_C)
	.dwattr $C$DW$T$67, DW_AT_decl_file("C:/ti/ccs1110/ccs/tools/compiler/ti-cgt-msp430_21.6.1.LTS/include/machine/_types.h")
	.dwattr $C$DW$T$67, DW_AT_decl_line(0x5f)
	.dwattr $C$DW$T$67, DW_AT_decl_column(0x13)

$C$DW$T$68	.dwtag  DW_TAG_typedef
	.dwattr $C$DW$T$68, DW_AT_name("int16_t")
	.dwattr $C$DW$T$68, DW_AT_type(*$C$DW$T$60)
	.dwattr $C$DW$T$68, DW_AT_language(DW_LANG_C)
	.dwattr $C$DW$T$68, DW_AT_decl_file("C:/ti/ccs1110/ccs/tools/compiler/ti-cgt-msp430_21.6.1.LTS/include/sys/_stdint.h")
	.dwattr $C$DW$T$68, DW_AT_decl_line(0x2b)
	.dwattr $C$DW$T$68, DW_AT_decl_column(0x14)

$C$DW$T$69	.dwtag  DW_TAG_typedef
	.dwattr $C$DW$T$69, DW_AT_name("__nl_item")
	.dwattr $C$DW$T$69, DW_AT_type(*$C$DW$T$10)
	.dwattr $C$DW$T$69, DW_AT_language(DW_LANG_C)
	.dwattr $C$DW$T$69, DW_AT_decl_file("C:/ti/ccs1110/ccs/tools/compiler/ti-cgt-msp430_21.6.1.LTS/include/sys/_types.h")
	.dwattr $C$DW$T$69, DW_AT_decl_line(0x3c)
	.dwattr $C$DW$T$69, DW_AT_decl_column(0x0e)

$C$DW$T$70	.dwtag  DW_TAG_typedef
	.dwattr $C$DW$T$70, DW_AT_name("__ptrdiff_t")
	.dwattr $C$DW$T$70, DW_AT_type(*$C$DW$T$10)
	.dwattr $C$DW$T$70, DW_AT_language(DW_LANG_C)
	.dwattr $C$DW$T$70, DW_AT_decl_file("C:/ti/ccs1110/ccs/tools/compiler/ti-cgt-msp430_21.6.1.LTS/include/machine/_types.h")
	.dwattr $C$DW$T$70, DW_AT_decl_line(0x5e)
	.dwattr $C$DW$T$70, DW_AT_decl_column(0x1c)

$C$DW$T$11	.dwtag  DW_TAG_base_type
	.dwattr $C$DW$T$11, DW_AT_encoding(DW_ATE_unsigned)
	.dwattr $C$DW$T$11, DW_AT_name("unsigned int")
	.dwattr $C$DW$T$11, DW_AT_byte_size(0x02)

$C$DW$T$71	.dwtag  DW_TAG_typedef
	.dwattr $C$DW$T$71, DW_AT_name("___wchar_t")
	.dwattr $C$DW$T$71, DW_AT_type(*$C$DW$T$11)
	.dwattr $C$DW$T$71, DW_AT_language(DW_LANG_C)
	.dwattr $C$DW$T$71, DW_AT_decl_file("C:/ti/ccs1110/ccs/tools/compiler/ti-cgt-msp430_21.6.1.LTS/include/machine/_types.h")
	.dwattr $C$DW$T$71, DW_AT_decl_line(0x7d)
	.dwattr $C$DW$T$71, DW_AT_decl_column(0x1a)

$C$DW$T$72	.dwtag  DW_TAG_typedef
	.dwattr $C$DW$T$72, DW_AT_name("__size_t")
	.dwattr $C$DW$T$72, DW_AT_type(*$C$DW$T$11)
	.dwattr $C$DW$T$72, DW_AT_language(DW_LANG_C)
	.dwattr $C$DW$T$72, DW_AT_decl_file("C:/ti/ccs1110/ccs/tools/compiler/ti-cgt-msp430_21.6.1.LTS/include/machine/_types.h")
	.dwattr $C$DW$T$72, DW_AT_decl_line(0x61)
	.dwattr $C$DW$T$72, DW_AT_decl_column(0x19)

$C$DW$T$22	.dwtag  DW_TAG_typedef
	.dwattr $C$DW$T$22, DW_AT_name("__uint16_t")
	.dwattr $C$DW$T$22, DW_AT_type(*$C$DW$T$11)
	.dwattr $C$DW$T$22, DW_AT_language(DW_LANG_C)
	.dwattr $C$DW$T$22, DW_AT_decl_file("C:/ti/ccs1110/ccs/tools/compiler/ti-cgt-msp430_21.6.1.LTS/include/machine/_types.h")
	.dwattr $C$DW$T$22, DW_AT_decl_line(0x39)
	.dwattr $C$DW$T$22, DW_AT_decl_column(0x17)

$C$DW$T$73	.dwtag  DW_TAG_typedef
	.dwattr $C$DW$T$73, DW_AT_name("__mode_t")
	.dwattr $C$DW$T$73, DW_AT_type(*$C$DW$T$22)
	.dwattr $C$DW$T$73, DW_AT_language(DW_LANG_C)
	.dwattr $C$DW$T$73, DW_AT_decl_file("C:/ti/ccs1110/ccs/tools/compiler/ti-cgt-msp430_21.6.1.LTS/include/sys/_types.h")
	.dwattr $C$DW$T$73, DW_AT_decl_line(0x3a)
	.dwattr $C$DW$T$73, DW_AT_decl_column(0x14)

$C$DW$T$74	.dwtag  DW_TAG_typedef
	.dwattr $C$DW$T$74, DW_AT_name("__u_register_t")
	.dwattr $C$DW$T$74, DW_AT_type(*$C$DW$T$22)
	.dwattr $C$DW$T$74, DW_AT_language(DW_LANG_C)
	.dwattr $C$DW$T$74, DW_AT_decl_file("C:/ti/ccs1110/ccs/tools/compiler/ti-cgt-msp430_21.6.1.LTS/include/machine/_types.h")
	.dwattr $C$DW$T$74, DW_AT_decl_line(0x78)
	.dwattr $C$DW$T$74, DW_AT_decl_column(0x14)

$C$DW$T$75	.dwtag  DW_TAG_typedef
	.dwattr $C$DW$T$75, DW_AT_name("__uint_fast16_t")
	.dwattr $C$DW$T$75, DW_AT_type(*$C$DW$T$22)
	.dwattr $C$DW$T$75, DW_AT_language(DW_LANG_C)
	.dwattr $C$DW$T$75, DW_AT_decl_file("C:/ti/ccs1110/ccs/tools/compiler/ti-cgt-msp430_21.6.1.LTS/include/machine/_types.h")
	.dwattr $C$DW$T$75, DW_AT_decl_line(0x71)
	.dwattr $C$DW$T$75, DW_AT_decl_column(0x14)

$C$DW$T$76	.dwtag  DW_TAG_typedef
	.dwattr $C$DW$T$76, DW_AT_name("uint_fast16_t")
	.dwattr $C$DW$T$76, DW_AT_type(*$C$DW$T$75)
	.dwattr $C$DW$T$76, DW_AT_language(DW_LANG_C)
	.dwattr $C$DW$T$76, DW_AT_decl_file("C:/ti/ccs1110/ccs/tools/compiler/ti-cgt-msp430_21.6.1.LTS/include/sys/stdint.h")
	.dwattr $C$DW$T$76, DW_AT_decl_line(0x3a)
	.dwattr $C$DW$T$76, DW_AT_decl_column(0x1a)

$C$DW$T$77	.dwtag  DW_TAG_typedef
	.dwattr $C$DW$T$77, DW_AT_name("__uint_fast8_t")
	.dwattr $C$DW$T$77, DW_AT_type(*$C$DW$T$22)
	.dwattr $C$DW$T$77, DW_AT_language(DW_LANG_C)
	.dwattr $C$DW$T$77, DW_AT_decl_file("C:/ti/ccs1110/ccs/tools/compiler/ti-cgt-msp430_21.6.1.LTS/include/machine/_types.h")
	.dwattr $C$DW$T$77, DW_AT_decl_line(0x70)
	.dwattr $C$DW$T$77, DW_AT_decl_column(0x14)

$C$DW$T$78	.dwtag  DW_TAG_typedef
	.dwattr $C$DW$T$78, DW_AT_name("uint_fast8_t")
	.dwattr $C$DW$T$78, DW_AT_type(*$C$DW$T$77)
	.dwattr $C$DW$T$78, DW_AT_language(DW_LANG_C)
	.dwattr $C$DW$T$78, DW_AT_decl_file("C:/ti/ccs1110/ccs/tools/compiler/ti-cgt-msp430_21.6.1.LTS/include/sys/stdint.h")
	.dwattr $C$DW$T$78, DW_AT_decl_line(0x39)
	.dwattr $C$DW$T$78, DW_AT_decl_column(0x19)

$C$DW$T$79	.dwtag  DW_TAG_typedef
	.dwattr $C$DW$T$79, DW_AT_name("__uint_least16_t")
	.dwattr $C$DW$T$79, DW_AT_type(*$C$DW$T$22)
	.dwattr $C$DW$T$79, DW_AT_language(DW_LANG_C)
	.dwattr $C$DW$T$79, DW_AT_decl_file("C:/ti/ccs1110/ccs/tools/compiler/ti-cgt-msp430_21.6.1.LTS/include/machine/_types.h")
	.dwattr $C$DW$T$79, DW_AT_decl_line(0x75)
	.dwattr $C$DW$T$79, DW_AT_decl_column(0x14)

$C$DW$T$80	.dwtag  DW_TAG_typedef
	.dwattr $C$DW$T$80, DW_AT_name("__char16_t")
	.dwattr $C$DW$T$80, DW_AT_type(*$C$DW$T$79)
	.dwattr $C$DW$T$80, DW_AT_language(DW_LANG_C)
	.dwattr $C$DW$T$80, DW_AT_decl_file("C:/ti/ccs1110/ccs/tools/compiler/ti-cgt-msp430_21.6.1.LTS/include/sys/_types.h")
	.dwattr $C$DW$T$80, DW_AT_decl_line(0x71)
	.dwattr $C$DW$T$80, DW_AT_decl_column(0x1a)

$C$DW$T$81	.dwtag  DW_TAG_typedef
	.dwattr $C$DW$T$81, DW_AT_name("uint_least16_t")
	.dwattr $C$DW$T$81, DW_AT_type(*$C$DW$T$79)
	.dwattr $C$DW$T$81, DW_AT_language(DW_LANG_C)
	.dwattr $C$DW$T$81, DW_AT_decl_file("C:/ti/ccs1110/ccs/tools/compiler/ti-cgt-msp430_21.6.1.LTS/include/sys/stdint.h")
	.dwattr $C$DW$T$81, DW_AT_decl_line(0x30)
	.dwattr $C$DW$T$81, DW_AT_decl_column(0x1a)

$C$DW$T$23	.dwtag  DW_TAG_typedef
	.dwattr $C$DW$T$23, DW_AT_name("uint16_t")
	.dwattr $C$DW$T$23, DW_AT_type(*$C$DW$T$22)
	.dwattr $C$DW$T$23, DW_AT_language(DW_LANG_C)
	.dwattr $C$DW$T$23, DW_AT_decl_file("C:/ti/ccs1110/ccs/tools/compiler/ti-cgt-msp430_21.6.1.LTS/include/sys/_stdint.h")
	.dwattr $C$DW$T$23, DW_AT_decl_line(0x41)
	.dwattr $C$DW$T$23, DW_AT_decl_column(0x15)

$C$DW$T$85	.dwtag  DW_TAG_typedef
	.dwattr $C$DW$T$85, DW_AT_name("__useconds_t")
	.dwattr $C$DW$T$85, DW_AT_type(*$C$DW$T$11)
	.dwattr $C$DW$T$85, DW_AT_language(DW_LANG_C)
	.dwattr $C$DW$T$85, DW_AT_decl_file("C:/ti/ccs1110/ccs/tools/compiler/ti-cgt-msp430_21.6.1.LTS/include/sys/_types.h")
	.dwattr $C$DW$T$85, DW_AT_decl_line(0x4e)
	.dwattr $C$DW$T$85, DW_AT_decl_column(0x16)

$C$DW$T$12	.dwtag  DW_TAG_base_type
	.dwattr $C$DW$T$12, DW_AT_encoding(DW_ATE_signed)
	.dwattr $C$DW$T$12, DW_AT_name("long")
	.dwattr $C$DW$T$12, DW_AT_byte_size(0x04)

$C$DW$T$86	.dwtag  DW_TAG_typedef
	.dwattr $C$DW$T$86, DW_AT_name("__int32_t")
	.dwattr $C$DW$T$86, DW_AT_type(*$C$DW$T$12)
	.dwattr $C$DW$T$86, DW_AT_language(DW_LANG_C)
	.dwattr $C$DW$T$86, DW_AT_decl_file("C:/ti/ccs1110/ccs/tools/compiler/ti-cgt-msp430_21.6.1.LTS/include/machine/_types.h")
	.dwattr $C$DW$T$86, DW_AT_decl_line(0x3a)
	.dwattr $C$DW$T$86, DW_AT_decl_column(0x10)

$C$DW$T$87	.dwtag  DW_TAG_typedef
	.dwattr $C$DW$T$87, DW_AT_name("__blksize_t")
	.dwattr $C$DW$T$87, DW_AT_type(*$C$DW$T$86)
	.dwattr $C$DW$T$87, DW_AT_language(DW_LANG_C)
	.dwattr $C$DW$T$87, DW_AT_decl_file("C:/ti/ccs1110/ccs/tools/compiler/ti-cgt-msp430_21.6.1.LTS/include/sys/_types.h")
	.dwattr $C$DW$T$87, DW_AT_decl_line(0x2f)
	.dwattr $C$DW$T$87, DW_AT_decl_column(0x13)

$C$DW$T$88	.dwtag  DW_TAG_typedef
	.dwattr $C$DW$T$88, DW_AT_name("__clockid_t")
	.dwattr $C$DW$T$88, DW_AT_type(*$C$DW$T$86)
	.dwattr $C$DW$T$88, DW_AT_language(DW_LANG_C)
	.dwattr $C$DW$T$88, DW_AT_decl_file("C:/ti/ccs1110/ccs/tools/compiler/ti-cgt-msp430_21.6.1.LTS/include/sys/_types.h")
	.dwattr $C$DW$T$88, DW_AT_decl_line(0x31)
	.dwattr $C$DW$T$88, DW_AT_decl_column(0x13)

$C$DW$T$89	.dwtag  DW_TAG_typedef
	.dwattr $C$DW$T$89, DW_AT_name("__critical_t")
	.dwattr $C$DW$T$89, DW_AT_type(*$C$DW$T$86)
	.dwattr $C$DW$T$89, DW_AT_language(DW_LANG_C)
	.dwattr $C$DW$T$89, DW_AT_decl_file("C:/ti/ccs1110/ccs/tools/compiler/ti-cgt-msp430_21.6.1.LTS/include/machine/_types.h")
	.dwattr $C$DW$T$89, DW_AT_decl_line(0x4b)
	.dwattr $C$DW$T$89, DW_AT_decl_column(0x13)

$C$DW$T$90	.dwtag  DW_TAG_typedef
	.dwattr $C$DW$T$90, DW_AT_name("__int_fast32_t")
	.dwattr $C$DW$T$90, DW_AT_type(*$C$DW$T$86)
	.dwattr $C$DW$T$90, DW_AT_language(DW_LANG_C)
	.dwattr $C$DW$T$90, DW_AT_decl_file("C:/ti/ccs1110/ccs/tools/compiler/ti-cgt-msp430_21.6.1.LTS/include/machine/_types.h")
	.dwattr $C$DW$T$90, DW_AT_decl_line(0x58)
	.dwattr $C$DW$T$90, DW_AT_decl_column(0x13)

$C$DW$T$91	.dwtag  DW_TAG_typedef
	.dwattr $C$DW$T$91, DW_AT_name("int_fast32_t")
	.dwattr $C$DW$T$91, DW_AT_type(*$C$DW$T$90)
	.dwattr $C$DW$T$91, DW_AT_language(DW_LANG_C)
	.dwattr $C$DW$T$91, DW_AT_decl_file("C:/ti/ccs1110/ccs/tools/compiler/ti-cgt-msp430_21.6.1.LTS/include/sys/stdint.h")
	.dwattr $C$DW$T$91, DW_AT_decl_line(0x36)
	.dwattr $C$DW$T$91, DW_AT_decl_column(0x19)

$C$DW$T$92	.dwtag  DW_TAG_typedef
	.dwattr $C$DW$T$92, DW_AT_name("__int_least32_t")
	.dwattr $C$DW$T$92, DW_AT_type(*$C$DW$T$86)
	.dwattr $C$DW$T$92, DW_AT_language(DW_LANG_C)
	.dwattr $C$DW$T$92, DW_AT_decl_file("C:/ti/ccs1110/ccs/tools/compiler/ti-cgt-msp430_21.6.1.LTS/include/machine/_types.h")
	.dwattr $C$DW$T$92, DW_AT_decl_line(0x5c)
	.dwattr $C$DW$T$92, DW_AT_decl_column(0x13)

$C$DW$T$93	.dwtag  DW_TAG_typedef
	.dwattr $C$DW$T$93, DW_AT_name("int_least32_t")
	.dwattr $C$DW$T$93, DW_AT_type(*$C$DW$T$92)
	.dwattr $C$DW$T$93, DW_AT_language(DW_LANG_C)
	.dwattr $C$DW$T$93, DW_AT_decl_file("C:/ti/ccs1110/ccs/tools/compiler/ti-cgt-msp430_21.6.1.LTS/include/sys/stdint.h")
	.dwattr $C$DW$T$93, DW_AT_decl_line(0x2c)
	.dwattr $C$DW$T$93, DW_AT_decl_column(0x1a)

$C$DW$T$94	.dwtag  DW_TAG_typedef
	.dwattr $C$DW$T$94, DW_AT_name("__intfptr_t")
	.dwattr $C$DW$T$94, DW_AT_type(*$C$DW$T$86)
	.dwattr $C$DW$T$94, DW_AT_language(DW_LANG_C)
	.dwattr $C$DW$T$94, DW_AT_decl_file("C:/ti/ccs1110/ccs/tools/compiler/ti-cgt-msp430_21.6.1.LTS/include/machine/_types.h")
	.dwattr $C$DW$T$94, DW_AT_decl_line(0x4e)
	.dwattr $C$DW$T$94, DW_AT_decl_column(0x13)

$C$DW$T$95	.dwtag  DW_TAG_typedef
	.dwattr $C$DW$T$95, DW_AT_name("__intptr_t")
	.dwattr $C$DW$T$95, DW_AT_type(*$C$DW$T$86)
	.dwattr $C$DW$T$95, DW_AT_language(DW_LANG_C)
	.dwattr $C$DW$T$95, DW_AT_decl_file("C:/ti/ccs1110/ccs/tools/compiler/ti-cgt-msp430_21.6.1.LTS/include/machine/_types.h")
	.dwattr $C$DW$T$95, DW_AT_decl_line(0x51)
	.dwattr $C$DW$T$95, DW_AT_decl_column(0x13)

$C$DW$T$96	.dwtag  DW_TAG_typedef
	.dwattr $C$DW$T$96, DW_AT_name("intptr_t")
	.dwattr $C$DW$T$96, DW_AT_type(*$C$DW$T$95)
	.dwattr $C$DW$T$96, DW_AT_language(DW_LANG_C)
	.dwattr $C$DW$T$96, DW_AT_decl_file("C:/ti/ccs1110/ccs/tools/compiler/ti-cgt-msp430_21.6.1.LTS/include/sys/_stdint.h")
	.dwattr $C$DW$T$96, DW_AT_decl_line(0x50)
	.dwattr $C$DW$T$96, DW_AT_decl_column(0x15)

$C$DW$T$97	.dwtag  DW_TAG_typedef
	.dwattr $C$DW$T$97, DW_AT_name("__lwpid_t")
	.dwattr $C$DW$T$97, DW_AT_type(*$C$DW$T$86)
	.dwattr $C$DW$T$97, DW_AT_language(DW_LANG_C)
	.dwattr $C$DW$T$97, DW_AT_decl_file("C:/ti/ccs1110/ccs/tools/compiler/ti-cgt-msp430_21.6.1.LTS/include/sys/_types.h")
	.dwattr $C$DW$T$97, DW_AT_decl_line(0x39)
	.dwattr $C$DW$T$97, DW_AT_decl_column(0x13)

$C$DW$T$98	.dwtag  DW_TAG_typedef
	.dwattr $C$DW$T$98, DW_AT_name("__pid_t")
	.dwattr $C$DW$T$98, DW_AT_type(*$C$DW$T$86)
	.dwattr $C$DW$T$98, DW_AT_language(DW_LANG_C)
	.dwattr $C$DW$T$98, DW_AT_decl_file("C:/ti/ccs1110/ccs/tools/compiler/ti-cgt-msp430_21.6.1.LTS/include/sys/_types.h")
	.dwattr $C$DW$T$98, DW_AT_decl_line(0x40)
	.dwattr $C$DW$T$98, DW_AT_decl_column(0x13)

$C$DW$T$99	.dwtag  DW_TAG_typedef
	.dwattr $C$DW$T$99, DW_AT_name("__segsz_t")
	.dwattr $C$DW$T$99, DW_AT_type(*$C$DW$T$86)
	.dwattr $C$DW$T$99, DW_AT_language(DW_LANG_C)
	.dwattr $C$DW$T$99, DW_AT_decl_file("C:/ti/ccs1110/ccs/tools/compiler/ti-cgt-msp430_21.6.1.LTS/include/machine/_types.h")
	.dwattr $C$DW$T$99, DW_AT_decl_line(0x60)
	.dwattr $C$DW$T$99, DW_AT_decl_column(0x13)

$C$DW$T$100	.dwtag  DW_TAG_typedef
	.dwattr $C$DW$T$100, DW_AT_name("__ssize_t")
	.dwattr $C$DW$T$100, DW_AT_type(*$C$DW$T$86)
	.dwattr $C$DW$T$100, DW_AT_language(DW_LANG_C)
	.dwattr $C$DW$T$100, DW_AT_decl_file("C:/ti/ccs1110/ccs/tools/compiler/ti-cgt-msp430_21.6.1.LTS/include/machine/_types.h")
	.dwattr $C$DW$T$100, DW_AT_decl_line(0x62)
	.dwattr $C$DW$T$100, DW_AT_decl_column(0x13)

$C$DW$T$101	.dwtag  DW_TAG_typedef
	.dwattr $C$DW$T$101, DW_AT_name("int32_t")
	.dwattr $C$DW$T$101, DW_AT_type(*$C$DW$T$86)
	.dwattr $C$DW$T$101, DW_AT_language(DW_LANG_C)
	.dwattr $C$DW$T$101, DW_AT_decl_file("C:/ti/ccs1110/ccs/tools/compiler/ti-cgt-msp430_21.6.1.LTS/include/sys/_stdint.h")
	.dwattr $C$DW$T$101, DW_AT_decl_line(0x30)
	.dwattr $C$DW$T$101, DW_AT_decl_column(0x14)

$C$DW$T$102	.dwtag  DW_TAG_typedef
	.dwattr $C$DW$T$102, DW_AT_name("__key_t")
	.dwattr $C$DW$T$102, DW_AT_type(*$C$DW$T$12)
	.dwattr $C$DW$T$102, DW_AT_language(DW_LANG_C)
	.dwattr $C$DW$T$102, DW_AT_decl_file("C:/ti/ccs1110/ccs/tools/compiler/ti-cgt-msp430_21.6.1.LTS/include/sys/_types.h")
	.dwattr $C$DW$T$102, DW_AT_decl_line(0x38)
	.dwattr $C$DW$T$102, DW_AT_decl_column(0x0f)

$C$DW$T$103	.dwtag  DW_TAG_typedef
	.dwattr $C$DW$T$103, DW_AT_name("__suseconds_t")
	.dwattr $C$DW$T$103, DW_AT_type(*$C$DW$T$12)
	.dwattr $C$DW$T$103, DW_AT_language(DW_LANG_C)
	.dwattr $C$DW$T$103, DW_AT_decl_file("C:/ti/ccs1110/ccs/tools/compiler/ti-cgt-msp430_21.6.1.LTS/include/sys/_types.h")
	.dwattr $C$DW$T$103, DW_AT_decl_line(0x4a)
	.dwattr $C$DW$T$103, DW_AT_decl_column(0x0f)

$C$DW$T$104	.dwtag  DW_TAG_typedef
	.dwattr $C$DW$T$104, DW_AT_name("_off_t")
	.dwattr $C$DW$T$104, DW_AT_type(*$C$DW$T$12)
	.dwattr $C$DW$T$104, DW_AT_language(DW_LANG_C)
	.dwattr $C$DW$T$104, DW_AT_decl_file("C:/ti/ccs1110/ccs/tools/compiler/ti-cgt-msp430_21.6.1.LTS/include/machine/_types.h")
	.dwattr $C$DW$T$104, DW_AT_decl_line(0x8d)
	.dwattr $C$DW$T$104, DW_AT_decl_column(0x12)

$C$DW$T$105	.dwtag  DW_TAG_typedef
	.dwattr $C$DW$T$105, DW_AT_name("__off_t")
	.dwattr $C$DW$T$105, DW_AT_type(*$C$DW$T$104)
	.dwattr $C$DW$T$105, DW_AT_language(DW_LANG_C)
	.dwattr $C$DW$T$105, DW_AT_decl_file("C:/ti/ccs1110/ccs/tools/compiler/ti-cgt-msp430_21.6.1.LTS/include/sys/_types.h")
	.dwattr $C$DW$T$105, DW_AT_decl_line(0x3e)
	.dwattr $C$DW$T$105, DW_AT_decl_column(0x18)

$C$DW$T$13	.dwtag  DW_TAG_base_type
	.dwattr $C$DW$T$13, DW_AT_encoding(DW_ATE_unsigned)
	.dwattr $C$DW$T$13, DW_AT_name("unsigned long")
	.dwattr $C$DW$T$13, DW_AT_byte_size(0x04)

$C$DW$T$106	.dwtag  DW_TAG_typedef
	.dwattr $C$DW$T$106, DW_AT_name("__uint32_t")
	.dwattr $C$DW$T$106, DW_AT_type(*$C$DW$T$13)
	.dwattr $C$DW$T$106, DW_AT_language(DW_LANG_C)
	.dwattr $C$DW$T$106, DW_AT_decl_file("C:/ti/ccs1110/ccs/tools/compiler/ti-cgt-msp430_21.6.1.LTS/include/machine/_types.h")
	.dwattr $C$DW$T$106, DW_AT_decl_line(0x3b)
	.dwattr $C$DW$T$106, DW_AT_decl_column(0x18)

$C$DW$T$107	.dwtag  DW_TAG_typedef
	.dwattr $C$DW$T$107, DW_AT_name("__clock_t")
	.dwattr $C$DW$T$107, DW_AT_type(*$C$DW$T$106)
	.dwattr $C$DW$T$107, DW_AT_language(DW_LANG_C)
	.dwattr $C$DW$T$107, DW_AT_decl_file("C:/ti/ccs1110/ccs/tools/compiler/ti-cgt-msp430_21.6.1.LTS/include/machine/_types.h")
	.dwattr $C$DW$T$107, DW_AT_decl_line(0x4a)
	.dwattr $C$DW$T$107, DW_AT_decl_column(0x14)

$C$DW$T$108	.dwtag  DW_TAG_typedef
	.dwattr $C$DW$T$108, DW_AT_name("__fflags_t")
	.dwattr $C$DW$T$108, DW_AT_type(*$C$DW$T$106)
	.dwattr $C$DW$T$108, DW_AT_language(DW_LANG_C)
	.dwattr $C$DW$T$108, DW_AT_decl_file("C:/ti/ccs1110/ccs/tools/compiler/ti-cgt-msp430_21.6.1.LTS/include/sys/_types.h")
	.dwattr $C$DW$T$108, DW_AT_decl_line(0x32)
	.dwattr $C$DW$T$108, DW_AT_decl_column(0x14)

$C$DW$T$109	.dwtag  DW_TAG_typedef
	.dwattr $C$DW$T$109, DW_AT_name("__fixpt_t")
	.dwattr $C$DW$T$109, DW_AT_type(*$C$DW$T$106)
	.dwattr $C$DW$T$109, DW_AT_language(DW_LANG_C)
	.dwattr $C$DW$T$109, DW_AT_decl_file("C:/ti/ccs1110/ccs/tools/compiler/ti-cgt-msp430_21.6.1.LTS/include/sys/_types.h")
	.dwattr $C$DW$T$109, DW_AT_decl_line(0x81)
	.dwattr $C$DW$T$109, DW_AT_decl_column(0x14)

$C$DW$T$110	.dwtag  DW_TAG_typedef
	.dwattr $C$DW$T$110, DW_AT_name("__gid_t")
	.dwattr $C$DW$T$110, DW_AT_type(*$C$DW$T$106)
	.dwattr $C$DW$T$110, DW_AT_language(DW_LANG_C)
	.dwattr $C$DW$T$110, DW_AT_decl_file("C:/ti/ccs1110/ccs/tools/compiler/ti-cgt-msp430_21.6.1.LTS/include/sys/_types.h")
	.dwattr $C$DW$T$110, DW_AT_decl_line(0x35)
	.dwattr $C$DW$T$110, DW_AT_decl_column(0x14)

$C$DW$T$111	.dwtag  DW_TAG_typedef
	.dwattr $C$DW$T$111, DW_AT_name("__socklen_t")
	.dwattr $C$DW$T$111, DW_AT_type(*$C$DW$T$106)
	.dwattr $C$DW$T$111, DW_AT_language(DW_LANG_C)
	.dwattr $C$DW$T$111, DW_AT_decl_file("C:/ti/ccs1110/ccs/tools/compiler/ti-cgt-msp430_21.6.1.LTS/include/sys/_types.h")
	.dwattr $C$DW$T$111, DW_AT_decl_line(0x49)
	.dwattr $C$DW$T$111, DW_AT_decl_column(0x14)

$C$DW$T$112	.dwtag  DW_TAG_typedef
	.dwattr $C$DW$T$112, DW_AT_name("__time_t")
	.dwattr $C$DW$T$112, DW_AT_type(*$C$DW$T$106)
	.dwattr $C$DW$T$112, DW_AT_language(DW_LANG_C)
	.dwattr $C$DW$T$112, DW_AT_decl_file("C:/ti/ccs1110/ccs/tools/compiler/ti-cgt-msp430_21.6.1.LTS/include/machine/_types.h")
	.dwattr $C$DW$T$112, DW_AT_decl_line(0x66)
	.dwattr $C$DW$T$112, DW_AT_decl_column(0x19)

$C$DW$T$113	.dwtag  DW_TAG_typedef
	.dwattr $C$DW$T$113, DW_AT_name("__uid_t")
	.dwattr $C$DW$T$113, DW_AT_type(*$C$DW$T$106)
	.dwattr $C$DW$T$113, DW_AT_language(DW_LANG_C)
	.dwattr $C$DW$T$113, DW_AT_decl_file("C:/ti/ccs1110/ccs/tools/compiler/ti-cgt-msp430_21.6.1.LTS/include/sys/_types.h")
	.dwattr $C$DW$T$113, DW_AT_decl_line(0x4d)
	.dwattr $C$DW$T$113, DW_AT_decl_column(0x14)

$C$DW$T$114	.dwtag  DW_TAG_typedef
	.dwattr $C$DW$T$114, DW_AT_name("__uint_fast32_t")
	.dwattr $C$DW$T$114, DW_AT_type(*$C$DW$T$106)
	.dwattr $C$DW$T$114, DW_AT_language(DW_LANG_C)
	.dwattr $C$DW$T$114, DW_AT_decl_file("C:/ti/ccs1110/ccs/tools/compiler/ti-cgt-msp430_21.6.1.LTS/include/machine/_types.h")
	.dwattr $C$DW$T$114, DW_AT_decl_line(0x72)
	.dwattr $C$DW$T$114, DW_AT_decl_column(0x14)

$C$DW$T$115	.dwtag  DW_TAG_typedef
	.dwattr $C$DW$T$115, DW_AT_name("uint_fast32_t")
	.dwattr $C$DW$T$115, DW_AT_type(*$C$DW$T$114)
	.dwattr $C$DW$T$115, DW_AT_language(DW_LANG_C)
	.dwattr $C$DW$T$115, DW_AT_decl_file("C:/ti/ccs1110/ccs/tools/compiler/ti-cgt-msp430_21.6.1.LTS/include/sys/stdint.h")
	.dwattr $C$DW$T$115, DW_AT_decl_line(0x3b)
	.dwattr $C$DW$T$115, DW_AT_decl_column(0x1a)

$C$DW$T$116	.dwtag  DW_TAG_typedef
	.dwattr $C$DW$T$116, DW_AT_name("__uint_least32_t")
	.dwattr $C$DW$T$116, DW_AT_type(*$C$DW$T$106)
	.dwattr $C$DW$T$116, DW_AT_language(DW_LANG_C)
	.dwattr $C$DW$T$116, DW_AT_decl_file("C:/ti/ccs1110/ccs/tools/compiler/ti-cgt-msp430_21.6.1.LTS/include/machine/_types.h")
	.dwattr $C$DW$T$116, DW_AT_decl_line(0x76)
	.dwattr $C$DW$T$116, DW_AT_decl_column(0x14)

$C$DW$T$117	.dwtag  DW_TAG_typedef
	.dwattr $C$DW$T$117, DW_AT_name("__char32_t")
	.dwattr $C$DW$T$117, DW_AT_type(*$C$DW$T$116)
	.dwattr $C$DW$T$117, DW_AT_language(DW_LANG_C)
	.dwattr $C$DW$T$117, DW_AT_decl_file("C:/ti/ccs1110/ccs/tools/compiler/ti-cgt-msp430_21.6.1.LTS/include/sys/_types.h")
	.dwattr $C$DW$T$117, DW_AT_decl_line(0x72)
	.dwattr $C$DW$T$117, DW_AT_decl_column(0x1a)

$C$DW$T$118	.dwtag  DW_TAG_typedef
	.dwattr $C$DW$T$118, DW_AT_name("uint_least32_t")
	.dwattr $C$DW$T$118, DW_AT_type(*$C$DW$T$116)
	.dwattr $C$DW$T$118, DW_AT_language(DW_LANG_C)
	.dwattr $C$DW$T$118, DW_AT_decl_file("C:/ti/ccs1110/ccs/tools/compiler/ti-cgt-msp430_21.6.1.LTS/include/sys/stdint.h")
	.dwattr $C$DW$T$118, DW_AT_decl_line(0x31)
	.dwattr $C$DW$T$118, DW_AT_decl_column(0x1a)

$C$DW$T$119	.dwtag  DW_TAG_typedef
	.dwattr $C$DW$T$119, DW_AT_name("__uintfptr_t")
	.dwattr $C$DW$T$119, DW_AT_type(*$C$DW$T$106)
	.dwattr $C$DW$T$119, DW_AT_language(DW_LANG_C)
	.dwattr $C$DW$T$119, DW_AT_decl_file("C:/ti/ccs1110/ccs/tools/compiler/ti-cgt-msp430_21.6.1.LTS/include/machine/_types.h")
	.dwattr $C$DW$T$119, DW_AT_decl_line(0x68)
	.dwattr $C$DW$T$119, DW_AT_decl_column(0x14)

$C$DW$T$120	.dwtag  DW_TAG_typedef
	.dwattr $C$DW$T$120, DW_AT_name("__uintptr_t")
	.dwattr $C$DW$T$120, DW_AT_type(*$C$DW$T$106)
	.dwattr $C$DW$T$120, DW_AT_language(DW_LANG_C)
	.dwattr $C$DW$T$120, DW_AT_decl_file("C:/ti/ccs1110/ccs/tools/compiler/ti-cgt-msp430_21.6.1.LTS/include/machine/_types.h")
	.dwattr $C$DW$T$120, DW_AT_decl_line(0x6b)
	.dwattr $C$DW$T$120, DW_AT_decl_column(0x14)

$C$DW$T$121	.dwtag  DW_TAG_typedef
	.dwattr $C$DW$T$121, DW_AT_name("uintptr_t")
	.dwattr $C$DW$T$121, DW_AT_type(*$C$DW$T$120)
	.dwattr $C$DW$T$121, DW_AT_language(DW_LANG_C)
	.dwattr $C$DW$T$121, DW_AT_decl_file("C:/ti/ccs1110/ccs/tools/compiler/ti-cgt-msp430_21.6.1.LTS/include/sys/_stdint.h")
	.dwattr $C$DW$T$121, DW_AT_decl_line(0x54)
	.dwattr $C$DW$T$121, DW_AT_decl_column(0x16)

$C$DW$T$122	.dwtag  DW_TAG_typedef
	.dwattr $C$DW$T$122, DW_AT_name("__vm_offset_t")
	.dwattr $C$DW$T$122, DW_AT_type(*$C$DW$T$106)
	.dwattr $C$DW$T$122, DW_AT_language(DW_LANG_C)
	.dwattr $C$DW$T$122, DW_AT_decl_file("C:/ti/ccs1110/ccs/tools/compiler/ti-cgt-msp430_21.6.1.LTS/include/machine/_types.h")
	.dwattr $C$DW$T$122, DW_AT_decl_line(0x79)
	.dwattr $C$DW$T$122, DW_AT_decl_column(0x14)

$C$DW$T$123	.dwtag  DW_TAG_typedef
	.dwattr $C$DW$T$123, DW_AT_name("__vm_paddr_t")
	.dwattr $C$DW$T$123, DW_AT_type(*$C$DW$T$106)
	.dwattr $C$DW$T$123, DW_AT_language(DW_LANG_C)
	.dwattr $C$DW$T$123, DW_AT_decl_file("C:/ti/ccs1110/ccs/tools/compiler/ti-cgt-msp430_21.6.1.LTS/include/machine/_types.h")
	.dwattr $C$DW$T$123, DW_AT_decl_line(0x7a)
	.dwattr $C$DW$T$123, DW_AT_decl_column(0x14)

$C$DW$T$124	.dwtag  DW_TAG_typedef
	.dwattr $C$DW$T$124, DW_AT_name("__vm_size_t")
	.dwattr $C$DW$T$124, DW_AT_type(*$C$DW$T$106)
	.dwattr $C$DW$T$124, DW_AT_language(DW_LANG_C)
	.dwattr $C$DW$T$124, DW_AT_decl_file("C:/ti/ccs1110/ccs/tools/compiler/ti-cgt-msp430_21.6.1.LTS/include/machine/_types.h")
	.dwattr $C$DW$T$124, DW_AT_decl_line(0x7b)
	.dwattr $C$DW$T$124, DW_AT_decl_column(0x14)

$C$DW$T$125	.dwtag  DW_TAG_typedef
	.dwattr $C$DW$T$125, DW_AT_name("uint32_t")
	.dwattr $C$DW$T$125, DW_AT_type(*$C$DW$T$106)
	.dwattr $C$DW$T$125, DW_AT_language(DW_LANG_C)
	.dwattr $C$DW$T$125, DW_AT_decl_file("C:/ti/ccs1110/ccs/tools/compiler/ti-cgt-msp430_21.6.1.LTS/include/sys/_stdint.h")
	.dwattr $C$DW$T$125, DW_AT_decl_line(0x46)
	.dwattr $C$DW$T$125, DW_AT_decl_column(0x15)

$C$DW$T$14	.dwtag  DW_TAG_base_type
	.dwattr $C$DW$T$14, DW_AT_encoding(DW_ATE_signed)
	.dwattr $C$DW$T$14, DW_AT_name("long long")
	.dwattr $C$DW$T$14, DW_AT_byte_size(0x08)

$C$DW$T$126	.dwtag  DW_TAG_typedef
	.dwattr $C$DW$T$126, DW_AT_name("__int64_t")
	.dwattr $C$DW$T$126, DW_AT_type(*$C$DW$T$14)
	.dwattr $C$DW$T$126, DW_AT_language(DW_LANG_C)
	.dwattr $C$DW$T$126, DW_AT_decl_file("C:/ti/ccs1110/ccs/tools/compiler/ti-cgt-msp430_21.6.1.LTS/include/machine/_types.h")
	.dwattr $C$DW$T$126, DW_AT_decl_line(0x40)
	.dwattr $C$DW$T$126, DW_AT_decl_column(0x14)

$C$DW$T$127	.dwtag  DW_TAG_typedef
	.dwattr $C$DW$T$127, DW_AT_name("__blkcnt_t")
	.dwattr $C$DW$T$127, DW_AT_type(*$C$DW$T$126)
	.dwattr $C$DW$T$127, DW_AT_language(DW_LANG_C)
	.dwattr $C$DW$T$127, DW_AT_decl_file("C:/ti/ccs1110/ccs/tools/compiler/ti-cgt-msp430_21.6.1.LTS/include/sys/_types.h")
	.dwattr $C$DW$T$127, DW_AT_decl_line(0x30)
	.dwattr $C$DW$T$127, DW_AT_decl_column(0x13)

$C$DW$T$128	.dwtag  DW_TAG_typedef
	.dwattr $C$DW$T$128, DW_AT_name("__id_t")
	.dwattr $C$DW$T$128, DW_AT_type(*$C$DW$T$126)
	.dwattr $C$DW$T$128, DW_AT_language(DW_LANG_C)
	.dwattr $C$DW$T$128, DW_AT_decl_file("C:/ti/ccs1110/ccs/tools/compiler/ti-cgt-msp430_21.6.1.LTS/include/sys/_types.h")
	.dwattr $C$DW$T$128, DW_AT_decl_line(0x36)
	.dwattr $C$DW$T$128, DW_AT_decl_column(0x13)

$C$DW$T$129	.dwtag  DW_TAG_typedef
	.dwattr $C$DW$T$129, DW_AT_name("__int_fast64_t")
	.dwattr $C$DW$T$129, DW_AT_type(*$C$DW$T$126)
	.dwattr $C$DW$T$129, DW_AT_language(DW_LANG_C)
	.dwattr $C$DW$T$129, DW_AT_decl_file("C:/ti/ccs1110/ccs/tools/compiler/ti-cgt-msp430_21.6.1.LTS/include/machine/_types.h")
	.dwattr $C$DW$T$129, DW_AT_decl_line(0x59)
	.dwattr $C$DW$T$129, DW_AT_decl_column(0x13)

$C$DW$T$130	.dwtag  DW_TAG_typedef
	.dwattr $C$DW$T$130, DW_AT_name("int_fast64_t")
	.dwattr $C$DW$T$130, DW_AT_type(*$C$DW$T$129)
	.dwattr $C$DW$T$130, DW_AT_language(DW_LANG_C)
	.dwattr $C$DW$T$130, DW_AT_decl_file("C:/ti/ccs1110/ccs/tools/compiler/ti-cgt-msp430_21.6.1.LTS/include/sys/stdint.h")
	.dwattr $C$DW$T$130, DW_AT_decl_line(0x37)
	.dwattr $C$DW$T$130, DW_AT_decl_column(0x19)

$C$DW$T$131	.dwtag  DW_TAG_typedef
	.dwattr $C$DW$T$131, DW_AT_name("__int_least64_t")
	.dwattr $C$DW$T$131, DW_AT_type(*$C$DW$T$126)
	.dwattr $C$DW$T$131, DW_AT_language(DW_LANG_C)
	.dwattr $C$DW$T$131, DW_AT_decl_file("C:/ti/ccs1110/ccs/tools/compiler/ti-cgt-msp430_21.6.1.LTS/include/machine/_types.h")
	.dwattr $C$DW$T$131, DW_AT_decl_line(0x5d)
	.dwattr $C$DW$T$131, DW_AT_decl_column(0x13)

$C$DW$T$132	.dwtag  DW_TAG_typedef
	.dwattr $C$DW$T$132, DW_AT_name("int_least64_t")
	.dwattr $C$DW$T$132, DW_AT_type(*$C$DW$T$131)
	.dwattr $C$DW$T$132, DW_AT_language(DW_LANG_C)
	.dwattr $C$DW$T$132, DW_AT_decl_file("C:/ti/ccs1110/ccs/tools/compiler/ti-cgt-msp430_21.6.1.LTS/include/sys/stdint.h")
	.dwattr $C$DW$T$132, DW_AT_decl_line(0x2d)
	.dwattr $C$DW$T$132, DW_AT_decl_column(0x1a)

$C$DW$T$133	.dwtag  DW_TAG_typedef
	.dwattr $C$DW$T$133, DW_AT_name("__intmax_t")
	.dwattr $C$DW$T$133, DW_AT_type(*$C$DW$T$126)
	.dwattr $C$DW$T$133, DW_AT_language(DW_LANG_C)
	.dwattr $C$DW$T$133, DW_AT_decl_file("C:/ti/ccs1110/ccs/tools/compiler/ti-cgt-msp430_21.6.1.LTS/include/machine/_types.h")
	.dwattr $C$DW$T$133, DW_AT_decl_line(0x4f)
	.dwattr $C$DW$T$133, DW_AT_decl_column(0x13)

$C$DW$T$134	.dwtag  DW_TAG_typedef
	.dwattr $C$DW$T$134, DW_AT_name("intmax_t")
	.dwattr $C$DW$T$134, DW_AT_type(*$C$DW$T$133)
	.dwattr $C$DW$T$134, DW_AT_language(DW_LANG_C)
	.dwattr $C$DW$T$134, DW_AT_decl_file("C:/ti/ccs1110/ccs/tools/compiler/ti-cgt-msp430_21.6.1.LTS/include/sys/_stdint.h")
	.dwattr $C$DW$T$134, DW_AT_decl_line(0x58)
	.dwattr $C$DW$T$134, DW_AT_decl_column(0x15)

$C$DW$T$135	.dwtag  DW_TAG_typedef
	.dwattr $C$DW$T$135, DW_AT_name("__off64_t")
	.dwattr $C$DW$T$135, DW_AT_type(*$C$DW$T$126)
	.dwattr $C$DW$T$135, DW_AT_language(DW_LANG_C)
	.dwattr $C$DW$T$135, DW_AT_decl_file("C:/ti/ccs1110/ccs/tools/compiler/ti-cgt-msp430_21.6.1.LTS/include/sys/_types.h")
	.dwattr $C$DW$T$135, DW_AT_decl_line(0x3f)
	.dwattr $C$DW$T$135, DW_AT_decl_column(0x13)

$C$DW$T$136	.dwtag  DW_TAG_typedef
	.dwattr $C$DW$T$136, DW_AT_name("__rlim_t")
	.dwattr $C$DW$T$136, DW_AT_type(*$C$DW$T$126)
	.dwattr $C$DW$T$136, DW_AT_language(DW_LANG_C)
	.dwattr $C$DW$T$136, DW_AT_decl_file("C:/ti/ccs1110/ccs/tools/compiler/ti-cgt-msp430_21.6.1.LTS/include/sys/_types.h")
	.dwattr $C$DW$T$136, DW_AT_decl_line(0x41)
	.dwattr $C$DW$T$136, DW_AT_decl_column(0x13)

$C$DW$T$137	.dwtag  DW_TAG_typedef
	.dwattr $C$DW$T$137, DW_AT_name("int64_t")
	.dwattr $C$DW$T$137, DW_AT_type(*$C$DW$T$126)
	.dwattr $C$DW$T$137, DW_AT_language(DW_LANG_C)
	.dwattr $C$DW$T$137, DW_AT_decl_file("C:/ti/ccs1110/ccs/tools/compiler/ti-cgt-msp430_21.6.1.LTS/include/sys/_stdint.h")
	.dwattr $C$DW$T$137, DW_AT_decl_line(0x35)
	.dwattr $C$DW$T$137, DW_AT_decl_column(0x14)

$C$DW$T$15	.dwtag  DW_TAG_base_type
	.dwattr $C$DW$T$15, DW_AT_encoding(DW_ATE_unsigned)
	.dwattr $C$DW$T$15, DW_AT_name("unsigned long long")
	.dwattr $C$DW$T$15, DW_AT_byte_size(0x08)

$C$DW$T$138	.dwtag  DW_TAG_typedef
	.dwattr $C$DW$T$138, DW_AT_name("__uint64_t")
	.dwattr $C$DW$T$138, DW_AT_type(*$C$DW$T$15)
	.dwattr $C$DW$T$138, DW_AT_language(DW_LANG_C)
	.dwattr $C$DW$T$138, DW_AT_decl_file("C:/ti/ccs1110/ccs/tools/compiler/ti-cgt-msp430_21.6.1.LTS/include/machine/_types.h")
	.dwattr $C$DW$T$138, DW_AT_decl_line(0x45)
	.dwattr $C$DW$T$138, DW_AT_decl_column(0x1c)

$C$DW$T$139	.dwtag  DW_TAG_typedef
	.dwattr $C$DW$T$139, DW_AT_name("__dev_t")
	.dwattr $C$DW$T$139, DW_AT_type(*$C$DW$T$138)
	.dwattr $C$DW$T$139, DW_AT_language(DW_LANG_C)
	.dwattr $C$DW$T$139, DW_AT_decl_file("C:/ti/ccs1110/ccs/tools/compiler/ti-cgt-msp430_21.6.1.LTS/include/sys/_types.h")
	.dwattr $C$DW$T$139, DW_AT_decl_line(0x7f)
	.dwattr $C$DW$T$139, DW_AT_decl_column(0x14)

$C$DW$T$140	.dwtag  DW_TAG_typedef
	.dwattr $C$DW$T$140, DW_AT_name("__fsblkcnt_t")
	.dwattr $C$DW$T$140, DW_AT_type(*$C$DW$T$138)
	.dwattr $C$DW$T$140, DW_AT_language(DW_LANG_C)
	.dwattr $C$DW$T$140, DW_AT_decl_file("C:/ti/ccs1110/ccs/tools/compiler/ti-cgt-msp430_21.6.1.LTS/include/sys/_types.h")
	.dwattr $C$DW$T$140, DW_AT_decl_line(0x33)
	.dwattr $C$DW$T$140, DW_AT_decl_column(0x14)

$C$DW$T$141	.dwtag  DW_TAG_typedef
	.dwattr $C$DW$T$141, DW_AT_name("__fsfilcnt_t")
	.dwattr $C$DW$T$141, DW_AT_type(*$C$DW$T$138)
	.dwattr $C$DW$T$141, DW_AT_language(DW_LANG_C)
	.dwattr $C$DW$T$141, DW_AT_decl_file("C:/ti/ccs1110/ccs/tools/compiler/ti-cgt-msp430_21.6.1.LTS/include/sys/_types.h")
	.dwattr $C$DW$T$141, DW_AT_decl_line(0x34)
	.dwattr $C$DW$T$141, DW_AT_decl_column(0x14)

$C$DW$T$142	.dwtag  DW_TAG_typedef
	.dwattr $C$DW$T$142, DW_AT_name("__ino_t")
	.dwattr $C$DW$T$142, DW_AT_type(*$C$DW$T$138)
	.dwattr $C$DW$T$142, DW_AT_language(DW_LANG_C)
	.dwattr $C$DW$T$142, DW_AT_decl_file("C:/ti/ccs1110/ccs/tools/compiler/ti-cgt-msp430_21.6.1.LTS/include/sys/_types.h")
	.dwattr $C$DW$T$142, DW_AT_decl_line(0x37)
	.dwattr $C$DW$T$142, DW_AT_decl_column(0x14)

$C$DW$T$143	.dwtag  DW_TAG_typedef
	.dwattr $C$DW$T$143, DW_AT_name("__nlink_t")
	.dwattr $C$DW$T$143, DW_AT_type(*$C$DW$T$138)
	.dwattr $C$DW$T$143, DW_AT_language(DW_LANG_C)
	.dwattr $C$DW$T$143, DW_AT_decl_file("C:/ti/ccs1110/ccs/tools/compiler/ti-cgt-msp430_21.6.1.LTS/include/sys/_types.h")
	.dwattr $C$DW$T$143, DW_AT_decl_line(0x3d)
	.dwattr $C$DW$T$143, DW_AT_decl_column(0x14)

$C$DW$T$144	.dwtag  DW_TAG_typedef
	.dwattr $C$DW$T$144, DW_AT_name("__uint_fast64_t")
	.dwattr $C$DW$T$144, DW_AT_type(*$C$DW$T$138)
	.dwattr $C$DW$T$144, DW_AT_language(DW_LANG_C)
	.dwattr $C$DW$T$144, DW_AT_decl_file("C:/ti/ccs1110/ccs/tools/compiler/ti-cgt-msp430_21.6.1.LTS/include/machine/_types.h")
	.dwattr $C$DW$T$144, DW_AT_decl_line(0x73)
	.dwattr $C$DW$T$144, DW_AT_decl_column(0x14)

$C$DW$T$145	.dwtag  DW_TAG_typedef
	.dwattr $C$DW$T$145, DW_AT_name("uint_fast64_t")
	.dwattr $C$DW$T$145, DW_AT_type(*$C$DW$T$144)
	.dwattr $C$DW$T$145, DW_AT_language(DW_LANG_C)
	.dwattr $C$DW$T$145, DW_AT_decl_file("C:/ti/ccs1110/ccs/tools/compiler/ti-cgt-msp430_21.6.1.LTS/include/sys/stdint.h")
	.dwattr $C$DW$T$145, DW_AT_decl_line(0x3c)
	.dwattr $C$DW$T$145, DW_AT_decl_column(0x1a)

$C$DW$T$146	.dwtag  DW_TAG_typedef
	.dwattr $C$DW$T$146, DW_AT_name("__uint_least64_t")
	.dwattr $C$DW$T$146, DW_AT_type(*$C$DW$T$138)
	.dwattr $C$DW$T$146, DW_AT_language(DW_LANG_C)
	.dwattr $C$DW$T$146, DW_AT_decl_file("C:/ti/ccs1110/ccs/tools/compiler/ti-cgt-msp430_21.6.1.LTS/include/machine/_types.h")
	.dwattr $C$DW$T$146, DW_AT_decl_line(0x77)
	.dwattr $C$DW$T$146, DW_AT_decl_column(0x14)

$C$DW$T$147	.dwtag  DW_TAG_typedef
	.dwattr $C$DW$T$147, DW_AT_name("uint_least64_t")
	.dwattr $C$DW$T$147, DW_AT_type(*$C$DW$T$146)
	.dwattr $C$DW$T$147, DW_AT_language(DW_LANG_C)
	.dwattr $C$DW$T$147, DW_AT_decl_file("C:/ti/ccs1110/ccs/tools/compiler/ti-cgt-msp430_21.6.1.LTS/include/sys/stdint.h")
	.dwattr $C$DW$T$147, DW_AT_decl_line(0x32)
	.dwattr $C$DW$T$147, DW_AT_decl_column(0x1a)

$C$DW$T$148	.dwtag  DW_TAG_typedef
	.dwattr $C$DW$T$148, DW_AT_name("__uintmax_t")
	.dwattr $C$DW$T$148, DW_AT_type(*$C$DW$T$138)
	.dwattr $C$DW$T$148, DW_AT_language(DW_LANG_C)
	.dwattr $C$DW$T$148, DW_AT_decl_file("C:/ti/ccs1110/ccs/tools/compiler/ti-cgt-msp430_21.6.1.LTS/include/machine/_types.h")
	.dwattr $C$DW$T$148, DW_AT_decl_line(0x69)
	.dwattr $C$DW$T$148, DW_AT_decl_column(0x14)

$C$DW$T$149	.dwtag  DW_TAG_typedef
	.dwattr $C$DW$T$149, DW_AT_name("__rman_res_t")
	.dwattr $C$DW$T$149, DW_AT_type(*$C$DW$T$148)
	.dwattr $C$DW$T$149, DW_AT_language(DW_LANG_C)
	.dwattr $C$DW$T$149, DW_AT_decl_file("C:/ti/ccs1110/ccs/tools/compiler/ti-cgt-msp430_21.6.1.LTS/include/sys/_types.h")
	.dwattr $C$DW$T$149, DW_AT_decl_line(0x9a)
	.dwattr $C$DW$T$149, DW_AT_decl_column(0x19)

$C$DW$T$150	.dwtag  DW_TAG_typedef
	.dwattr $C$DW$T$150, DW_AT_name("uintmax_t")
	.dwattr $C$DW$T$150, DW_AT_type(*$C$DW$T$148)
	.dwattr $C$DW$T$150, DW_AT_language(DW_LANG_C)
	.dwattr $C$DW$T$150, DW_AT_decl_file("C:/ti/ccs1110/ccs/tools/compiler/ti-cgt-msp430_21.6.1.LTS/include/sys/_stdint.h")
	.dwattr $C$DW$T$150, DW_AT_decl_line(0x5c)
	.dwattr $C$DW$T$150, DW_AT_decl_column(0x16)

$C$DW$T$151	.dwtag  DW_TAG_typedef
	.dwattr $C$DW$T$151, DW_AT_name("uint64_t")
	.dwattr $C$DW$T$151, DW_AT_type(*$C$DW$T$138)
	.dwattr $C$DW$T$151, DW_AT_language(DW_LANG_C)
	.dwattr $C$DW$T$151, DW_AT_decl_file("C:/ti/ccs1110/ccs/tools/compiler/ti-cgt-msp430_21.6.1.LTS/include/sys/_stdint.h")
	.dwattr $C$DW$T$151, DW_AT_decl_line(0x4b)
	.dwattr $C$DW$T$151, DW_AT_decl_column(0x15)

$C$DW$T$16	.dwtag  DW_TAG_base_type
	.dwattr $C$DW$T$16, DW_AT_encoding(DW_ATE_float)
	.dwattr $C$DW$T$16, DW_AT_name("float")
	.dwattr $C$DW$T$16, DW_AT_byte_size(0x04)

$C$DW$T$152	.dwtag  DW_TAG_typedef
	.dwattr $C$DW$T$152, DW_AT_name("__float_t")
	.dwattr $C$DW$T$152, DW_AT_type(*$C$DW$T$16)
	.dwattr $C$DW$T$152, DW_AT_language(DW_LANG_C)
	.dwattr $C$DW$T$152, DW_AT_decl_file("C:/ti/ccs1110/ccs/tools/compiler/ti-cgt-msp430_21.6.1.LTS/include/machine/_types.h")
	.dwattr $C$DW$T$152, DW_AT_decl_line(0x4d)
	.dwattr $C$DW$T$152, DW_AT_decl_column(0x10)

$C$DW$T$17	.dwtag  DW_TAG_base_type
	.dwattr $C$DW$T$17, DW_AT_encoding(DW_ATE_float)
	.dwattr $C$DW$T$17, DW_AT_name("double")
	.dwattr $C$DW$T$17, DW_AT_byte_size(0x08)

$C$DW$T$153	.dwtag  DW_TAG_typedef
	.dwattr $C$DW$T$153, DW_AT_name("__double_t")
	.dwattr $C$DW$T$153, DW_AT_type(*$C$DW$T$17)
	.dwattr $C$DW$T$153, DW_AT_language(DW_LANG_C)
	.dwattr $C$DW$T$153, DW_AT_decl_file("C:/ti/ccs1110/ccs/tools/compiler/ti-cgt-msp430_21.6.1.LTS/include/machine/_types.h")
	.dwattr $C$DW$T$153, DW_AT_decl_line(0x4c)
	.dwattr $C$DW$T$153, DW_AT_decl_column(0x11)

$C$DW$T$18	.dwtag  DW_TAG_base_type
	.dwattr $C$DW$T$18, DW_AT_encoding(DW_ATE_float)
	.dwattr $C$DW$T$18, DW_AT_name("long double")
	.dwattr $C$DW$T$18, DW_AT_byte_size(0x08)

$C$DW$T$155	.dwtag  DW_TAG_pointer_type
	.dwattr $C$DW$T$155, DW_AT_type(*$C$DW$T$6)
	.dwattr $C$DW$T$155, DW_AT_address_class(0x10)

$C$DW$T$156	.dwtag  DW_TAG_typedef
	.dwattr $C$DW$T$156, DW_AT_name("__va_list")
	.dwattr $C$DW$T$156, DW_AT_type(*$C$DW$T$155)
	.dwattr $C$DW$T$156, DW_AT_language(DW_LANG_C)
	.dwattr $C$DW$T$156, DW_AT_decl_file("C:/ti/ccs1110/ccs/tools/compiler/ti-cgt-msp430_21.6.1.LTS/include/machine/_types.h")
	.dwattr $C$DW$T$156, DW_AT_decl_line(0x92)
	.dwattr $C$DW$T$156, DW_AT_decl_column(0x0f)


$C$DW$T$19	.dwtag  DW_TAG_structure_type
	.dwattr $C$DW$T$19, DW_AT_name("__mq")
	.dwattr $C$DW$T$19, DW_AT_declaration
	.dwattr $C$DW$T$19, DW_AT_decl_file("C:/ti/ccs1110/ccs/tools/compiler/ti-cgt-msp430_21.6.1.LTS/include/sys/_types.h")
	.dwattr $C$DW$T$19, DW_AT_decl_line(0x4c)
	.dwattr $C$DW$T$19, DW_AT_decl_column(0x10)
	.dwendtag $C$DW$T$19

$C$DW$T$157	.dwtag  DW_TAG_pointer_type
	.dwattr $C$DW$T$157, DW_AT_type(*$C$DW$T$19)
	.dwattr $C$DW$T$157, DW_AT_address_class(0x10)

$C$DW$T$158	.dwtag  DW_TAG_typedef
	.dwattr $C$DW$T$158, DW_AT_name("__mqd_t")
	.dwattr $C$DW$T$158, DW_AT_type(*$C$DW$T$157)
	.dwattr $C$DW$T$158, DW_AT_language(DW_LANG_C)
	.dwattr $C$DW$T$158, DW_AT_decl_file("C:/ti/ccs1110/ccs/tools/compiler/ti-cgt-msp430_21.6.1.LTS/include/sys/_types.h")
	.dwattr $C$DW$T$158, DW_AT_decl_line(0x4c)
	.dwattr $C$DW$T$158, DW_AT_decl_column(0x16)


$C$DW$T$20	.dwtag  DW_TAG_structure_type
	.dwattr $C$DW$T$20, DW_AT_name("__timer")
	.dwattr $C$DW$T$20, DW_AT_declaration
	.dwattr $C$DW$T$20, DW_AT_decl_file("C:/ti/ccs1110/ccs/tools/compiler/ti-cgt-msp430_21.6.1.LTS/include/sys/_types.h")
	.dwattr $C$DW$T$20, DW_AT_decl_line(0x4b)
	.dwattr $C$DW$T$20, DW_AT_decl_column(0x10)
	.dwendtag $C$DW$T$20

$C$DW$T$159	.dwtag  DW_TAG_pointer_type
	.dwattr $C$DW$T$159, DW_AT_type(*$C$DW$T$20)
	.dwattr $C$DW$T$159, DW_AT_address_class(0x10)

$C$DW$T$160	.dwtag  DW_TAG_typedef
	.dwattr $C$DW$T$160, DW_AT_name("__timer_t")
	.dwattr $C$DW$T$160, DW_AT_type(*$C$DW$T$159)
	.dwattr $C$DW$T$160, DW_AT_language(DW_LANG_C)
	.dwattr $C$DW$T$160, DW_AT_decl_file("C:/ti/ccs1110/ccs/tools/compiler/ti-cgt-msp430_21.6.1.LTS/include/sys/_types.h")
	.dwattr $C$DW$T$160, DW_AT_decl_line(0x4b)
	.dwattr $C$DW$T$160, DW_AT_decl_column(0x19)

	.dwattr $C$DW$CU, DW_AT_language(DW_LANG_C)

;***************************************************************
;* DWARF CIE ENTRIES                                           *
;***************************************************************

$C$DW$CIE	.dwcie 16
	.dwcfi	cfa_register, 1
	.dwcfi	cfa_offset, 0
	.dwcfi	same_value, 0
	.dwcfi	same_value, 1
	.dwcfi	same_value, 3
	.dwcfi	same_value, 4
	.dwcfi	same_value, 5
	.dwcfi	same_value, 6
	.dwcfi	same_value, 7
	.dwcfi	same_value, 8
	.dwcfi	same_value, 9
	.dwcfi	same_value, 10
	.dwendentry

;***************************************************************
;* DWARF REGISTER MAP                                          *
;***************************************************************

$C$DW$241	.dwtag  DW_TAG_TI_assign_register
	.dwattr $C$DW$241, DW_AT_name("PC")
	.dwattr $C$DW$241, DW_AT_location[DW_OP_reg0]

$C$DW$242	.dwtag  DW_TAG_TI_assign_register
	.dwattr $C$DW$242, DW_AT_name("SP")
	.dwattr $C$DW$242, DW_AT_location[DW_OP_reg1]

$C$DW$243	.dwtag  DW_TAG_TI_assign_register
	.dwattr $C$DW$243, DW_AT_name("SR")
	.dwattr $C$DW$243, DW_AT_location[DW_OP_reg2]

$C$DW$244	.dwtag  DW_TAG_TI_assign_register
	.dwattr $C$DW$244, DW_AT_name("CG")
	.dwattr $C$DW$244, DW_AT_location[DW_OP_reg3]

$C$DW$245	.dwtag  DW_TAG_TI_assign_register
	.dwattr $C$DW$245, DW_AT_name("r4")
	.dwattr $C$DW$245, DW_AT_location[DW_OP_reg4]

$C$DW$246	.dwtag  DW_TAG_TI_assign_register
	.dwattr $C$DW$246, DW_AT_name("r5")
	.dwattr $C$DW$246, DW_AT_location[DW_OP_reg5]

$C$DW$247	.dwtag  DW_TAG_TI_assign_register
	.dwattr $C$DW$247, DW_AT_name("r6")
	.dwattr $C$DW$247, DW_AT_location[DW_OP_reg6]

$C$DW$248	.dwtag  DW_TAG_TI_assign_register
	.dwattr $C$DW$248, DW_AT_name("r7")
	.dwattr $C$DW$248, DW_AT_location[DW_OP_reg7]

$C$DW$249	.dwtag  DW_TAG_TI_assign_register
	.dwattr $C$DW$249, DW_AT_name("r8")
	.dwattr $C$DW$249, DW_AT_location[DW_OP_reg8]

$C$DW$250	.dwtag  DW_TAG_TI_assign_register
	.dwattr $C$DW$250, DW_AT_name("r9")
	.dwattr $C$DW$250, DW_AT_location[DW_OP_reg9]

$C$DW$251	.dwtag  DW_TAG_TI_assign_register
	.dwattr $C$DW$251, DW_AT_name("r10")
	.dwattr $C$DW$251, DW_AT_location[DW_OP_reg10]

$C$DW$252	.dwtag  DW_TAG_TI_assign_register
	.dwattr $C$DW$252, DW_AT_name("r11")
	.dwattr $C$DW$252, DW_AT_location[DW_OP_reg11]

$C$DW$253	.dwtag  DW_TAG_TI_assign_register
	.dwattr $C$DW$253, DW_AT_name("r12")
	.dwattr $C$DW$253, DW_AT_location[DW_OP_reg12]

$C$DW$254	.dwtag  DW_TAG_TI_assign_register
	.dwattr $C$DW$254, DW_AT_name("r13")
	.dwattr $C$DW$254, DW_AT_location[DW_OP_reg13]

$C$DW$255	.dwtag  DW_TAG_TI_assign_register
	.dwattr $C$DW$255, DW_AT_name("r14")
	.dwattr $C$DW$255, DW_AT_location[DW_OP_reg14]

$C$DW$256	.dwtag  DW_TAG_TI_assign_register
	.dwattr $C$DW$256, DW_AT_name("r15")
	.dwattr $C$DW$256, DW_AT_location[DW_OP_reg15]

$C$DW$257	.dwtag  DW_TAG_TI_assign_register
	.dwattr $C$DW$257, DW_AT_name("CIE_RETA")
	.dwattr $C$DW$257, DW_AT_location[DW_OP_reg16]

	.dwendtag $C$DW$CU

