MSP430 Assembler PC v21.6.1 Tue Jan  3 09:51:30 2023

Copyright (c) 2003-2018 Texas Instruments Incorporated
main.asm                                                             PAGE    1

       1            ;******************************************************************************
       2            ;* MSP430 G3 C/C++ Codegen                                              PC v21.6.1.LTS *
       3            ;* Date/Time created: Tue Jan  3 09:51:29 2023                                *
       4            ;******************************************************************************
       5                    .compiler_opts --abi=eabi --diag_wrap=off --hll_source=on --mem_model:code=large --mem_model:d
       6            
       7            $C$DW$CU        .dwtag  DW_TAG_compile_unit
       8                    .dwattr $C$DW$CU, DW_AT_name("../main.c")
       9                    .dwattr $C$DW$CU, DW_AT_producer("TI MSP430 G3 C/C++ Codegen PC v21.6.1.LTS Copyright (c) 2003
      10                    .dwattr $C$DW$CU, DW_AT_TI_version(0x01)
      11                    .dwattr $C$DW$CU, DW_AT_comp_dir("C:\ccs_challengespace\MSP430_LCD_display\Debug")
      12            ;       Interrupt vector table mappings
      13 000000               .intvec ".int50",       EUSCI_A0_ISR
         000000       
      14            $C$DW$1 .dwtag  DW_TAG_variable
      15                    .dwattr $C$DW$1, DW_AT_name("UCA0IV")
      16                    .dwattr $C$DW$1, DW_AT_TI_symbol_name("UCA0IV")
      17                    .dwattr $C$DW$1, DW_AT_type(*$C$DW$T$139)
      18                    .dwattr $C$DW$1, DW_AT_declaration
      19                    .dwattr $C$DW$1, DW_AT_external
      20                    .dwattr $C$DW$1, DW_AT_decl_file("C:\ti\ccs1110\ccs\ccs_base\msp430\include\msp430fr4133.h")
      21                    .dwattr $C$DW$1, DW_AT_decl_line(0x9df)
      22                    .dwattr $C$DW$1, DW_AT_decl_column(0x01)
      23            
      24                    .global i
      25                    .common i,2,2
      26            $C$DW$2 .dwtag  DW_TAG_variable
      27                    .dwattr $C$DW$2, DW_AT_name("i")
      28                    .dwattr $C$DW$2, DW_AT_TI_symbol_name("i")
      29                    .dwattr $C$DW$2, DW_AT_location[DW_OP_addr i]
      30                    .dwattr $C$DW$2, DW_AT_type(*$C$DW$T$26)
      31                    .dwattr $C$DW$2, DW_AT_external
      32                    .dwattr $C$DW$2, DW_AT_decl_file("../main.c")
      33                    .dwattr $C$DW$2, DW_AT_decl_line(0x24)
      34                    .dwattr $C$DW$2, DW_AT_decl_column(0x0a)
      35            
      36                    .global RXData
      37 000000               .data
      38                    .align  1
      39                    .elfsym RXData,SYM_SIZE(1)
      40 000000       RXData:
      41 000000 0000          .bits           0,8
      42                                    ; RXData @ 0
      43            
      44            $C$DW$3 .dwtag  DW_TAG_variable
      45                    .dwattr $C$DW$3, DW_AT_name("RXData")
      46                    .dwattr $C$DW$3, DW_AT_TI_symbol_name("RXData")
      47                    .dwattr $C$DW$3, DW_AT_location[DW_OP_addr RXData]
      48                    .dwattr $C$DW$3, DW_AT_type(*$C$DW$T$23)
      49                    .dwattr $C$DW$3, DW_AT_external
      50                    .dwattr $C$DW$3, DW_AT_decl_file("../main.c")
      51                    .dwattr $C$DW$3, DW_AT_decl_line(0x25)
      52                    .dwattr $C$DW$3, DW_AT_decl_column(0x09)
      53            
      54                    .global TXData
MSP430 Assembler PC v21.6.1 Tue Jan  3 09:51:30 2023

Copyright (c) 2003-2018 Texas Instruments Incorporated
main.asm                                                             PAGE    2

      55 000001               .data
      56                    .align  1
      57                    .elfsym TXData,SYM_SIZE(1)
      58 000001       TXData:
      59 000000 0000          .bits           0,8
      60                                    ; TXData @ 0
      61            
      62            $C$DW$4 .dwtag  DW_TAG_variable
      63                    .dwattr $C$DW$4, DW_AT_name("TXData")
      64                    .dwattr $C$DW$4, DW_AT_TI_symbol_name("TXData")
      65                    .dwattr $C$DW$4, DW_AT_location[DW_OP_addr TXData]
      66                    .dwattr $C$DW$4, DW_AT_type(*$C$DW$T$23)
      67                    .dwattr $C$DW$4, DW_AT_external
      68                    .dwattr $C$DW$4, DW_AT_decl_file("../main.c")
      69                    .dwattr $C$DW$4, DW_AT_decl_line(0x25)
      70                    .dwattr $C$DW$4, DW_AT_decl_column(0x15)
      71            
      72                    .global check
      73 000002               .data
      74                    .align  1
      75                    .elfsym check,SYM_SIZE(1)
      76 000002       check:
      77 000002 0000          .bits           0,8
      78                                    ; check @ 0
      79            
      80            $C$DW$5 .dwtag  DW_TAG_variable
      81                    .dwattr $C$DW$5, DW_AT_name("check")
      82                    .dwattr $C$DW$5, DW_AT_TI_symbol_name("check")
      83                    .dwattr $C$DW$5, DW_AT_location[DW_OP_addr check]
      84                    .dwattr $C$DW$5, DW_AT_type(*$C$DW$T$23)
      85                    .dwattr $C$DW$5, DW_AT_external
      86                    .dwattr $C$DW$5, DW_AT_decl_file("../main.c")
      87                    .dwattr $C$DW$5, DW_AT_decl_line(0x26)
      88                    .dwattr $C$DW$5, DW_AT_decl_column(0x09)
      89            
      90            
      91            $C$DW$6 .dwtag  DW_TAG_subprogram
      92                    .dwattr $C$DW$6, DW_AT_name("WDT_A_hold")
      93                    .dwattr $C$DW$6, DW_AT_TI_symbol_name("WDT_A_hold")
      94                    .dwattr $C$DW$6, DW_AT_declaration
      95                    .dwattr $C$DW$6, DW_AT_external
      96                    .dwattr $C$DW$6, DW_AT_decl_file("C:\ccs_challengespace\MSP430_LCD_display\driverlib\MSP430FR2
      97                    .dwattr $C$DW$6, DW_AT_decl_line(0x45)
      98                    .dwattr $C$DW$6, DW_AT_decl_column(0x0d)
      99            $C$DW$7 .dwtag  DW_TAG_formal_parameter
     100                    .dwattr $C$DW$7, DW_AT_type(*$C$DW$T$26)
     101            
     102                    .dwendtag $C$DW$6
     103            
     104            
     105            $C$DW$8 .dwtag  DW_TAG_subprogram
     106                    .dwattr $C$DW$8, DW_AT_name("CS_initClockSignal")
     107                    .dwattr $C$DW$8, DW_AT_TI_symbol_name("CS_initClockSignal")
     108                    .dwattr $C$DW$8, DW_AT_declaration
     109                    .dwattr $C$DW$8, DW_AT_external
MSP430 Assembler PC v21.6.1 Tue Jan  3 09:51:30 2023

Copyright (c) 2003-2018 Texas Instruments Incorporated
main.asm                                                             PAGE    3

     110                    .dwattr $C$DW$8, DW_AT_decl_file("C:\ccs_challengespace\MSP430_LCD_display\driverlib\MSP430FR2
     111                    .dwattr $C$DW$8, DW_AT_decl_line(0xda)
     112                    .dwattr $C$DW$8, DW_AT_decl_column(0x0d)
     113            $C$DW$9 .dwtag  DW_TAG_formal_parameter
     114                    .dwattr $C$DW$9, DW_AT_type(*$C$DW$T$23)
     115            
     116            $C$DW$10        .dwtag  DW_TAG_formal_parameter
     117                    .dwattr $C$DW$10, DW_AT_type(*$C$DW$T$26)
     118            
     119            $C$DW$11        .dwtag  DW_TAG_formal_parameter
     120                    .dwattr $C$DW$11, DW_AT_type(*$C$DW$T$26)
     121            
     122                    .dwendtag $C$DW$8
     123            
     124            
     125            $C$DW$12        .dwtag  DW_TAG_subprogram
     126                    .dwattr $C$DW$12, DW_AT_name("GPIO_setAsPeripheralModuleFunctionInputPin")
     127                    .dwattr $C$DW$12, DW_AT_TI_symbol_name("GPIO_setAsPeripheralModuleFunctionInputPin")
     128                    .dwattr $C$DW$12, DW_AT_declaration
     129                    .dwattr $C$DW$12, DW_AT_external
     130                    .dwattr $C$DW$12, DW_AT_decl_file("C:\ccs_challengespace\MSP430_LCD_display\driverlib\MSP430FR
     131                    .dwattr $C$DW$12, DW_AT_decl_line(0x16d)
     132                    .dwattr $C$DW$12, DW_AT_decl_column(0x0d)
     133            $C$DW$13        .dwtag  DW_TAG_formal_parameter
     134                    .dwattr $C$DW$13, DW_AT_type(*$C$DW$T$23)
     135            
     136            $C$DW$14        .dwtag  DW_TAG_formal_parameter
     137                    .dwattr $C$DW$14, DW_AT_type(*$C$DW$T$26)
     138            
     139            $C$DW$15        .dwtag  DW_TAG_formal_parameter
     140                    .dwattr $C$DW$15, DW_AT_type(*$C$DW$T$23)
     141            
     142                    .dwendtag $C$DW$12
     143            
     144            
     145            $C$DW$16        .dwtag  DW_TAG_subprogram
     146                    .dwattr $C$DW$16, DW_AT_name("PMM_unlockLPM5")
     147                    .dwattr $C$DW$16, DW_AT_TI_symbol_name("PMM_unlockLPM5")
     148                    .dwattr $C$DW$16, DW_AT_declaration
     149                    .dwattr $C$DW$16, DW_AT_external
     150                    .dwattr $C$DW$16, DW_AT_decl_file("C:\ccs_challengespace\MSP430_LCD_display\driverlib\MSP430FR
     151                    .dwattr $C$DW$16, DW_AT_decl_line(0xe7)
     152                    .dwattr $C$DW$16, DW_AT_decl_column(0x0d)
     153                    .dwendtag $C$DW$16
     154            
     155            
     156            $C$DW$17        .dwtag  DW_TAG_subprogram
     157                    .dwattr $C$DW$17, DW_AT_name("usart0_comms_init")
     158                    .dwattr $C$DW$17, DW_AT_TI_symbol_name("usart0_comms_init")
     159                    .dwattr $C$DW$17, DW_AT_declaration
     160                    .dwattr $C$DW$17, DW_AT_external
     161                    .dwattr $C$DW$17, DW_AT_decl_file("..\usart_comms.h")
     162                    .dwattr $C$DW$17, DW_AT_decl_line(0x8d)
     163                    .dwattr $C$DW$17, DW_AT_decl_column(0x06)
     164                    .dwendtag $C$DW$17
MSP430 Assembler PC v21.6.1 Tue Jan  3 09:51:30 2023

Copyright (c) 2003-2018 Texas Instruments Incorporated
main.asm                                                             PAGE    4

     165            
     166            
     167            $C$DW$18        .dwtag  DW_TAG_subprogram
     168                    .dwattr $C$DW$18, DW_AT_name("usart0_comms_clear_rx_interrupt")
     169                    .dwattr $C$DW$18, DW_AT_TI_symbol_name("usart0_comms_clear_rx_interrupt")
     170                    .dwattr $C$DW$18, DW_AT_declaration
     171                    .dwattr $C$DW$18, DW_AT_external
     172                    .dwattr $C$DW$18, DW_AT_decl_file("..\usart_comms.h")
     173                    .dwattr $C$DW$18, DW_AT_decl_line(0x91)
     174                    .dwattr $C$DW$18, DW_AT_decl_column(0x06)
     175                    .dwendtag $C$DW$18
     176            
     177            
     178            $C$DW$19        .dwtag  DW_TAG_subprogram
     179                    .dwattr $C$DW$19, DW_AT_name("usart0_comms_enable_interrupt")
     180                    .dwattr $C$DW$19, DW_AT_TI_symbol_name("usart0_comms_enable_interrupt")
     181                    .dwattr $C$DW$19, DW_AT_declaration
     182                    .dwattr $C$DW$19, DW_AT_external
     183                    .dwattr $C$DW$19, DW_AT_decl_file("..\usart_comms.h")
     184                    .dwattr $C$DW$19, DW_AT_decl_line(0x8e)
     185                    .dwattr $C$DW$19, DW_AT_decl_column(0x06)
     186                    .dwendtag $C$DW$19
     187            
     188            
     189            $C$DW$20        .dwtag  DW_TAG_subprogram
     190                    .dwattr $C$DW$20, DW_AT_name("usart0_comms_receive")
     191                    .dwattr $C$DW$20, DW_AT_TI_symbol_name("usart0_comms_receive")
     192                    .dwattr $C$DW$20, DW_AT_type(*$C$DW$T$23)
     193                    .dwattr $C$DW$20, DW_AT_declaration
     194                    .dwattr $C$DW$20, DW_AT_external
     195                    .dwattr $C$DW$20, DW_AT_decl_file("..\usart_comms.h")
     196                    .dwattr $C$DW$20, DW_AT_decl_line(0x90)
     197                    .dwattr $C$DW$20, DW_AT_decl_column(0x09)
     198                    .dwendtag $C$DW$20
     199            
     200            
     201            $C$DW$21        .dwtag  DW_TAG_subprogram
     202                    .dwattr $C$DW$21, DW_AT_name("usart0_comms_transmit")
     203                    .dwattr $C$DW$21, DW_AT_TI_symbol_name("usart0_comms_transmit")
     204                    .dwattr $C$DW$21, DW_AT_declaration
     205                    .dwattr $C$DW$21, DW_AT_external
     206                    .dwattr $C$DW$21, DW_AT_decl_file("..\usart_comms.h")
     207                    .dwattr $C$DW$21, DW_AT_decl_line(0x8f)
     208                    .dwattr $C$DW$21, DW_AT_decl_column(0x06)
     209            $C$DW$22        .dwtag  DW_TAG_formal_parameter
     210                    .dwattr $C$DW$22, DW_AT_type(*$C$DW$T$23)
     211            
     212                    .dwendtag $C$DW$21
     213            
     214            ;       C:\ti\ccs1110\ccs\tools\compiler\ti-cgt-msp430_21.6.1.LTS\bin\acpia430.exe -@C:\\Users\\DAVID~
     215 000000               .sect   ".text:main"
     216                    .clink
     217                    .global main
     218            
     219            $C$DW$23        .dwtag  DW_TAG_subprogram
MSP430 Assembler PC v21.6.1 Tue Jan  3 09:51:30 2023

Copyright (c) 2003-2018 Texas Instruments Incorporated
main.asm                                                             PAGE    5

     220                    .dwattr $C$DW$23, DW_AT_name("main")
     221                    .dwattr $C$DW$23, DW_AT_low_pc(main)
     222                    .dwattr $C$DW$23, DW_AT_high_pc(0x00)
     223                    .dwattr $C$DW$23, DW_AT_TI_symbol_name("main")
     224                    .dwattr $C$DW$23, DW_AT_external
     225                    .dwattr $C$DW$23, DW_AT_TI_begin_file("../main.c")
     226                    .dwattr $C$DW$23, DW_AT_TI_begin_line(0x28)
     227                    .dwattr $C$DW$23, DW_AT_TI_begin_column(0x06)
     228                    .dwattr $C$DW$23, DW_AT_decl_file("../main.c")
     229                    .dwattr $C$DW$23, DW_AT_decl_line(0x28)
     230                    .dwattr $C$DW$23, DW_AT_decl_column(0x06)
     231                    .dwattr $C$DW$23, DW_AT_TI_max_frame_size(0x04)
     232                    .dwpsn  file "../main.c",line 41,column 1,is_stmt,address main,isa 0
     233            
     234                    .dwfde $C$DW$CIE, main
     235            
     236            ;*****************************************************************************
     237            ;* FUNCTION NAME: main                                                       *
     238            ;*                                                                           *
     239            ;*   Regs Modified     : SP,SR,r11,r12,r13,r14,r15                           *
     240            ;*   Regs Used         : SP,SR,r11,r12,r13,r14,r15                           *
     241            ;*   Local Frame Size  : 0 Args + 0 Auto + 0 Save = 0 byte                   *
     242            ;*****************************************************************************
     243 000000       main:
     244            ;* --------------------------------------------------------------------------*
     245                    .dwcfi  cfa_offset, 4
     246                    .dwcfi  save_reg_to_mem, 16, -4
     247                    .dwpsn  file "../main.c",line 43,column 5,is_stmt,isa 0
     248 000000 403C          MOV.W     #460,r12              ; [] |43| 
         000002 01CC 
     249            $C$DW$24        .dwtag  DW_TAG_TI_branch
     250                    .dwattr $C$DW$24, DW_AT_low_pc(0x00)
     251                    .dwattr $C$DW$24, DW_AT_name("WDT_A_hold")
     252                    .dwattr $C$DW$24, DW_AT_TI_call
     253            
     254 000004 13B0!         CALLA     #WDT_A_hold           ; [] |43| 
         000006 0000 
     255                                                      ; [] |43| 
     256                    .dwpsn  file "../main.c",line 46,column 5,is_stmt,isa 0
     257 000008 435C          MOV.B     #1,r12                ; [] |46| 
     258 00000a 431D          MOV.W     #1,r13                ; [] |46| 
     259 00000c 430E          MOV.W     #0,r14                ; [] |46| 
     260            $C$DW$25        .dwtag  DW_TAG_TI_branch
     261                    .dwattr $C$DW$25, DW_AT_low_pc(0x00)
     262                    .dwattr $C$DW$25, DW_AT_name("CS_initClockSignal")
     263                    .dwattr $C$DW$25, DW_AT_TI_call
     264            
     265 00000e 13B0!         CALLA     #CS_initClockSignal   ; [] |46| 
         000010 0000 
     266                                                      ; [] |46| 
     267                    .dwpsn  file "../main.c",line 48,column 5,is_stmt,isa 0
     268 000012 426C          MOV.B     #4,r12                ; [] |48| 
     269 000014 430D          MOV.W     #0,r13                ; [] |48| 
     270 000016 430E          MOV.W     #0,r14                ; [] |48| 
     271            $C$DW$26        .dwtag  DW_TAG_TI_branch
MSP430 Assembler PC v21.6.1 Tue Jan  3 09:51:30 2023

Copyright (c) 2003-2018 Texas Instruments Incorporated
main.asm                                                             PAGE    6

     272                    .dwattr $C$DW$26, DW_AT_low_pc(0x00)
     273                    .dwattr $C$DW$26, DW_AT_name("CS_initClockSignal")
     274                    .dwattr $C$DW$26, DW_AT_TI_call
     275            
     276 000018 13B0!         CALLA     #CS_initClockSignal   ; [] |48| 
         00001a 0000 
     277                                                      ; [] |48| 
     278                    .dwpsn  file "../main.c",line 50,column 5,is_stmt,isa 0
     279 00001c 436C          MOV.B     #2,r12                ; [] |50| 
     280 00001e 430D          MOV.W     #0,r13                ; [] |50| 
     281 000020 430E          MOV.W     #0,r14                ; [] |50| 
     282            $C$DW$27        .dwtag  DW_TAG_TI_branch
     283                    .dwattr $C$DW$27, DW_AT_low_pc(0x00)
     284                    .dwattr $C$DW$27, DW_AT_name("CS_initClockSignal")
     285                    .dwattr $C$DW$27, DW_AT_TI_call
     286            
     287 000022 13B0!         CALLA     #CS_initClockSignal   ; [] |50| 
         000024 0000 
     288                                                      ; [] |50| 
     289                    .dwpsn  file "../main.c",line 53,column 5,is_stmt,isa 0
     290 000026 435C          MOV.B     #1,r12                ; [] |53| 
     291 000028 431D          MOV.W     #1,r13                ; [] |53| 
     292 00002a 435E          MOV.B     #1,r14                ; [] |53| 
     293            $C$DW$28        .dwtag  DW_TAG_TI_branch
     294                    .dwattr $C$DW$28, DW_AT_low_pc(0x00)
     295                    .dwattr $C$DW$28, DW_AT_name("GPIO_setAsPeripheralModuleFunctionInputPin")
     296                    .dwattr $C$DW$28, DW_AT_TI_call
     297            
     298 00002c 13B0!         CALLA     #GPIO_setAsPeripheralModuleFunctionInputPin ; [] |53| 
         00002e 0000 
     299                                                      ; [] |53| 
     300                    .dwpsn  file "../main.c",line 58,column 5,is_stmt,isa 0
     301 000030 435C          MOV.B     #1,r12                ; [] |58| 
     302 000032 432D          MOV.W     #2,r13                ; [] |58| 
     303 000034 435E          MOV.B     #1,r14                ; [] |58| 
     304            $C$DW$29        .dwtag  DW_TAG_TI_branch
     305                    .dwattr $C$DW$29, DW_AT_low_pc(0x00)
     306                    .dwattr $C$DW$29, DW_AT_name("GPIO_setAsPeripheralModuleFunctionInputPin")
     307                    .dwattr $C$DW$29, DW_AT_TI_call
     308            
     309 000036 13B0!         CALLA     #GPIO_setAsPeripheralModuleFunctionInputPin ; [] |58| 
         000038 0000 
     310                                                      ; [] |58| 
     311                    .dwpsn  file "../main.c",line 68,column 5,is_stmt,isa 0
     312            $C$DW$30        .dwtag  DW_TAG_TI_branch
     313                    .dwattr $C$DW$30, DW_AT_low_pc(0x00)
     314                    .dwattr $C$DW$30, DW_AT_name("PMM_unlockLPM5")
     315                    .dwattr $C$DW$30, DW_AT_TI_call
     316            
     317 00003a 13B0!         CALLA     #PMM_unlockLPM5       ; [] |68| 
         00003c 0000 
     318                                                      ; [] |68| 
     319                    .dwpsn  file "../main.c",line 74,column 5,is_stmt,isa 0
     320            $C$DW$31        .dwtag  DW_TAG_TI_branch
     321                    .dwattr $C$DW$31, DW_AT_low_pc(0x00)
MSP430 Assembler PC v21.6.1 Tue Jan  3 09:51:30 2023

Copyright (c) 2003-2018 Texas Instruments Incorporated
main.asm                                                             PAGE    7

     322                    .dwattr $C$DW$31, DW_AT_name("usart0_comms_init")
     323                    .dwattr $C$DW$31, DW_AT_TI_call
     324            
     325 00003e 13B0!         CALLA     #usart0_comms_init    ; [] |74| 
         000040 0000 
     326                                                      ; [] |74| 
     327                    .dwpsn  file "../main.c",line 77,column 5,is_stmt,isa 0
     328            $C$DW$32        .dwtag  DW_TAG_TI_branch
     329                    .dwattr $C$DW$32, DW_AT_low_pc(0x00)
     330                    .dwattr $C$DW$32, DW_AT_name("usart0_comms_clear_rx_interrupt")
     331                    .dwattr $C$DW$32, DW_AT_TI_call
     332            
     333 000042 13B0!         CALLA     #usart0_comms_clear_rx_interrupt ; [] |77| 
         000044 0000 
     334                                                      ; [] |77| 
     335                    .dwpsn  file "../main.c",line 80,column 5,is_stmt,isa 0
     336            $C$DW$33        .dwtag  DW_TAG_TI_branch
     337                    .dwattr $C$DW$33, DW_AT_low_pc(0x00)
     338                    .dwattr $C$DW$33, DW_AT_name("usart0_comms_enable_interrupt")
     339                    .dwattr $C$DW$33, DW_AT_TI_call
     340            
     341 000046 13B0!         CALLA     #usart0_comms_enable_interrupt ; [] |80| 
         000048 0000 
     342                                                      ; [] |80| 
     343                    .dwpsn  file "../main.c",line 83,column 5,is_stmt,isa 0
     344 00004a 4303          NOP
     345 00004c D232          EINT
     346 00004e 4303          NOP      ; [] |83| 
     347                    .dwpsn  file "../main.c",line 84,column 12,is_stmt,isa 0
     348            ;* --------------------------------------------------------------------------*
     349            ;*   BEGIN LOOP $C$L1
     350            ;*
     351            ;*   Loop source line                : 84
     352            ;*   Loop closing brace source line  : 87
     353            ;*   Known Minimum Trip Count        : 1
     354            ;*   Known Maximum Trip Count        : 4294967295
     355            ;*   Known Max Trip Count Factor     : 1
     356            ;* --------------------------------------------------------------------------*
     357 000050       $C$L1:    
     358 000050 3FFF          JMP       $C$L1                 ; [] |84| 
     359                                                      ; [] |84| 
     360 000052 4303          NOP       ; [] 
     361            ;* --------------------------------------------------------------------------*
     362                    .dwattr $C$DW$23, DW_AT_TI_end_file("../main.c")
     363                    .dwattr $C$DW$23, DW_AT_TI_end_line(0x58)
     364                    .dwattr $C$DW$23, DW_AT_TI_end_column(0x01)
     365                    .dwendentry
     366                    .dwendtag $C$DW$23
     367            
     368 000000               .sect   ".text:_isr:EUSCI_A0_ISR"
     369                    .clink
     370                    .global EUSCI_A0_ISR
     371            
     372            $C$DW$34        .dwtag  DW_TAG_subprogram
     373                    .dwattr $C$DW$34, DW_AT_name("EUSCI_A0_ISR")
MSP430 Assembler PC v21.6.1 Tue Jan  3 09:51:30 2023

Copyright (c) 2003-2018 Texas Instruments Incorporated
main.asm                                                             PAGE    8

     374                    .dwattr $C$DW$34, DW_AT_low_pc(EUSCI_A0_ISR)
     375                    .dwattr $C$DW$34, DW_AT_high_pc(0x00)
     376                    .dwattr $C$DW$34, DW_AT_TI_symbol_name("EUSCI_A0_ISR")
     377                    .dwattr $C$DW$34, DW_AT_external
     378                    .dwattr $C$DW$34, DW_AT_TI_begin_file("../main.c")
     379                    .dwattr $C$DW$34, DW_AT_TI_begin_line(0x64)
     380                    .dwattr $C$DW$34, DW_AT_TI_begin_column(0x06)
     381                    .dwattr $C$DW$34, DW_AT_decl_file("../main.c")
     382                    .dwattr $C$DW$34, DW_AT_decl_line(0x64)
     383                    .dwattr $C$DW$34, DW_AT_decl_column(0x06)
     384                    .dwattr $C$DW$34, DW_AT_TI_interrupt
     385                    .dwattr $C$DW$34, DW_AT_TI_max_frame_size(0x18)
     386                    .dwpsn  file "../main.c",line 101,column 1,is_stmt,address EUSCI_A0_ISR,isa 0
     387            
     388                    .dwfde $C$DW$CIE, EUSCI_A0_ISR
     389            
     390            ;*****************************************************************************
     391            ;* FUNCTION NAME: EUSCI_A0_ISR                                               *
     392            ;*                                                                           *
     393            ;*   Regs Modified     : SP,SR,r11,r12,r13,r14,r15                           *
     394            ;*   Regs Used         : SP,SR,r11,r12,r13,r14,r15                           *
     395            ;*   Local Frame Size  : 0 Args + 0 Auto + 20 Save = 20 byte                 *
     396            ;*****************************************************************************
     397 000000       EUSCI_A0_ISR:
     398            ;* --------------------------------------------------------------------------*
     399                    .dwcfi  cfa_offset, 4
     400                    .dwcfi  save_reg_to_mem, 16, -4
     401 000000 144F          PUSHM.A   #5,r15                ; [] 
     402                    .dwcfi  save_reg_to_mem, 15, -8
     403                    .dwcfi  save_reg_to_mem, 14, -12
     404                    .dwcfi  save_reg_to_mem, 13, -16
     405                    .dwcfi  save_reg_to_mem, 12, -20
     406                    .dwcfi  save_reg_to_mem, 11, -24
     407                    .dwcfi  cfa_offset, 24
     408                    .dwpsn  file "../main.c",line 102,column 5,is_stmt,isa 0
     409 000002 3C07          JMP       $C$L3                 ; [] |102| 
     410                                                      ; [] |102| 
     411            ;* --------------------------------------------------------------------------*
     412            ;* --------------------------------------------------------------------------*
     413 000004       $C$L2:    
     414                    .dwpsn  file "../main.c",line 106,column 13,is_stmt,isa 0
     415            $C$DW$35        .dwtag  DW_TAG_TI_branch
     416                    .dwattr $C$DW$35, DW_AT_low_pc(0x00)
     417                    .dwattr $C$DW$35, DW_AT_name("usart0_comms_receive")
     418                    .dwattr $C$DW$35, DW_AT_TI_call
     419            
     420 000004 13B0!         CALLA     #usart0_comms_receive ; [] |106| 
         000006 0000 
     421                                                      ; [] |106| 
     422 000008 4CC2          MOV.B     r12,&RXData+0         ; [] |106| 
         00000a 0000!
     423                    .dwpsn  file "../main.c",line 108,column 13,is_stmt,isa 0
     424            $C$DW$36        .dwtag  DW_TAG_TI_branch
     425                    .dwattr $C$DW$36, DW_AT_low_pc(0x00)
     426                    .dwattr $C$DW$36, DW_AT_name("usart0_comms_transmit")
MSP430 Assembler PC v21.6.1 Tue Jan  3 09:51:30 2023

Copyright (c) 2003-2018 Texas Instruments Incorporated
main.asm                                                             PAGE    9

     427                    .dwattr $C$DW$36, DW_AT_TI_call
     428            
     429 00000c 13B0!         CALLA     #usart0_comms_transmit ; [] |108| 
         00000e 0000 
     430                                                      ; [] |108| 
     431                    .dwpsn  file "../main.c",line 109,column 13,is_stmt,isa 0
     432 000010 3C0C          JMP       $C$L4                 ; [] |109| 
     433                                                      ; [] |109| 
     434            ;* --------------------------------------------------------------------------*
     435            ;* --------------------------------------------------------------------------*
     436 000012       $C$L3:    
     437                    .dwpsn  file "../main.c",line 102,column 5,is_stmt,isa 0
     438 000012 421F          MOV.W     &UCA0IV+0,r15         ; [] |102| 
         000014 0000!
     439 000016 930F          TST.W     r15                   ; [] |102| 
     440 000018 2408          JEQ       $C$L4                 ; [] |102| 
     441                                                      ; [] |102| 
     442            ;* --------------------------------------------------------------------------*
     443 00001a 832F          SUB.W     #2,r15                ; [] |102| 
     444 00001c 27F3          JEQ       $C$L2                 ; [] |102| 
     445                                                      ; [] |102| 
     446            ;* --------------------------------------------------------------------------*
     447 00001e 832F          SUB.W     #2,r15                ; [] |102| 
     448 000020 2404          JEQ       $C$L4                 ; [] |102| 
     449                                                      ; [] |102| 
     450            ;* --------------------------------------------------------------------------*
     451 000022 832F          SUB.W     #2,r15                ; [] |102| 
     452 000024 2402          JEQ       $C$L4                 ; [] |102| 
     453                                                      ; [] |102| 
     454            ;* --------------------------------------------------------------------------*
     455 000026 832F          SUB.W     #2,r15                ; [] |102| 
     456 000028 2400          JEQ       $C$L4                 ; [] |102| 
     457                                                      ; [] |102| 
     458            ;* --------------------------------------------------------------------------*
     459                    .dwpsn  file "../main.c",line 114,column 1,is_stmt,isa 0
     460            ;* --------------------------------------------------------------------------*
     461 00002a       $C$L4:    
     462 00002a 164B          POPM.A    #5,r15                ; [] 
     463                    .dwcfi  restore_reg, 11
     464                    .dwcfi  restore_reg, 12
     465                    .dwcfi  restore_reg, 13
     466                    .dwcfi  restore_reg, 14
     467                    .dwcfi  restore_reg, 15
     468                    .dwcfi  cfa_offset, 4
     469            $C$DW$37        .dwtag  DW_TAG_TI_branch
     470                    .dwattr $C$DW$37, DW_AT_low_pc(0x00)
     471                    .dwattr $C$DW$37, DW_AT_TI_return
     472            
     473 00002c 1300          RETI      ; [] 
     474                    ; [] 
     475                    .dwattr $C$DW$34, DW_AT_TI_end_file("../main.c")
     476                    .dwattr $C$DW$34, DW_AT_TI_end_line(0x72)
     477                    .dwattr $C$DW$34, DW_AT_TI_end_column(0x01)
     478                    .dwendentry
     479                    .dwendtag $C$DW$34
MSP430 Assembler PC v21.6.1 Tue Jan  3 09:51:30 2023

Copyright (c) 2003-2018 Texas Instruments Incorporated
main.asm                                                             PAGE   10

     480            
     481            ;*****************************************************************************
     482            ;* UNDEFINED EXTERNAL REFERENCES                                             *
     483            ;*****************************************************************************
     484                    .global UCA0IV
     485                    .global WDT_A_hold
     486                    .global CS_initClockSignal
     487                    .global GPIO_setAsPeripheralModuleFunctionInputPin
     488                    .global PMM_unlockLPM5
     489                    .global usart0_comms_init
     490                    .global usart0_comms_clear_rx_interrupt
     491                    .global usart0_comms_enable_interrupt
     492                    .global usart0_comms_receive
     493                    .global usart0_comms_transmit
     494            
     495            ;******************************************************************************
     496            ;* BUILD ATTRIBUTES                                                           *
     497            ;******************************************************************************
     498                    .battr "TI", Tag_File, 1, Tag_LOCKIO_INFO(1)
     499                    .battr "TI", Tag_File, 1, Tag_WAITSTATE_INFO(2)
     500                    .battr "TI", Tag_File, 1, Tag_HW_MPY_ISR_INFO(3)
     501                    .battr "TI", Tag_File, 1, Tag_HW_MPY_INLINE_INFO(1)
     502                    .battr "mspabi", Tag_File, 1, Tag_enum_size(3)
     503            
     504            ;******************************************************************************
     505            ;* TYPE INFORMATION                                                           *
     506            ;******************************************************************************
     507            
     508            $C$DW$T$21      .dwtag  DW_TAG_structure_type
     509                    .dwattr $C$DW$T$21, DW_AT_byte_size(0x10)
     510            $C$DW$38        .dwtag  DW_TAG_member
     511                    .dwattr $C$DW$38, DW_AT_type(*$C$DW$T$14)
     512                    .dwattr $C$DW$38, DW_AT_name("__max_align1")
     513                    .dwattr $C$DW$38, DW_AT_TI_symbol_name("__max_align1")
     514                    .dwattr $C$DW$38, DW_AT_data_member_location[DW_OP_plus_uconst 0x0]
     515                    .dwattr $C$DW$38, DW_AT_accessibility(DW_ACCESS_public)
     516                    .dwattr $C$DW$38, DW_AT_decl_file("C:/ti/ccs1110/ccs/tools/compiler/ti-cgt-msp430_21.6.1.LTS/i
     517                    .dwattr $C$DW$38, DW_AT_decl_line(0x7b)
     518                    .dwattr $C$DW$38, DW_AT_decl_column(0x0c)
     519            
     520            $C$DW$39        .dwtag  DW_TAG_member
     521                    .dwattr $C$DW$39, DW_AT_type(*$C$DW$T$18)
     522                    .dwattr $C$DW$39, DW_AT_name("__max_align2")
     523                    .dwattr $C$DW$39, DW_AT_TI_symbol_name("__max_align2")
     524                    .dwattr $C$DW$39, DW_AT_data_member_location[DW_OP_plus_uconst 0x8]
     525                    .dwattr $C$DW$39, DW_AT_accessibility(DW_ACCESS_public)
     526                    .dwattr $C$DW$39, DW_AT_decl_file("C:/ti/ccs1110/ccs/tools/compiler/ti-cgt-msp430_21.6.1.LTS/i
     527                    .dwattr $C$DW$39, DW_AT_decl_line(0x7c)
     528                    .dwattr $C$DW$39, DW_AT_decl_column(0x0e)
     529            
     530                    .dwattr $C$DW$T$21, DW_AT_decl_file("C:/ti/ccs1110/ccs/tools/compiler/ti-cgt-msp430_21.6.1.LTS
     531                    .dwattr $C$DW$T$21, DW_AT_decl_line(0x7a)
     532                    .dwattr $C$DW$T$21, DW_AT_decl_column(0x10)
     533                    .dwendtag $C$DW$T$21
     534            
MSP430 Assembler PC v21.6.1 Tue Jan  3 09:51:30 2023

Copyright (c) 2003-2018 Texas Instruments Incorporated
main.asm                                                             PAGE   11

     535            $C$DW$T$79      .dwtag  DW_TAG_typedef
     536                    .dwattr $C$DW$T$79, DW_AT_name("__max_align_t")
     537                    .dwattr $C$DW$T$79, DW_AT_type(*$C$DW$T$21)
     538                    .dwattr $C$DW$T$79, DW_AT_language(DW_LANG_C)
     539                    .dwattr $C$DW$T$79, DW_AT_decl_file("C:/ti/ccs1110/ccs/tools/compiler/ti-cgt-msp430_21.6.1.LTS
     540                    .dwattr $C$DW$T$79, DW_AT_decl_line(0x7d)
     541                    .dwattr $C$DW$T$79, DW_AT_decl_column(0x03)
     542            
     543            
     544            $C$DW$T$24      .dwtag  DW_TAG_structure_type
     545                    .dwattr $C$DW$T$24, DW_AT_byte_size(0x02)
     546            $C$DW$40        .dwtag  DW_TAG_member
     547                    .dwattr $C$DW$40, DW_AT_type(*$C$DW$T$23)
     548                    .dwattr $C$DW$40, DW_AT_name("UCSWRST")
     549                    .dwattr $C$DW$40, DW_AT_TI_symbol_name("UCSWRST")
     550                    .dwattr $C$DW$40, DW_AT_bit_offset(0x07)
     551                    .dwattr $C$DW$40, DW_AT_bit_size(0x01)
     552                    .dwattr $C$DW$40, DW_AT_data_member_location[DW_OP_plus_uconst 0x0]
     553                    .dwattr $C$DW$40, DW_AT_accessibility(DW_ACCESS_public)
     554                    .dwattr $C$DW$40, DW_AT_decl_file("..\usart_comms.h")
     555                    .dwattr $C$DW$40, DW_AT_decl_line(0x17)
     556                    .dwattr $C$DW$40, DW_AT_decl_column(0x0d)
     557            
     558            $C$DW$41        .dwtag  DW_TAG_member
     559                    .dwattr $C$DW$41, DW_AT_type(*$C$DW$T$23)
     560                    .dwattr $C$DW$41, DW_AT_name("UCTXBRK")
     561                    .dwattr $C$DW$41, DW_AT_TI_symbol_name("UCTXBRK")
     562                    .dwattr $C$DW$41, DW_AT_bit_offset(0x06)
     563                    .dwattr $C$DW$41, DW_AT_bit_size(0x01)
     564                    .dwattr $C$DW$41, DW_AT_data_member_location[DW_OP_plus_uconst 0x0]
     565                    .dwattr $C$DW$41, DW_AT_accessibility(DW_ACCESS_public)
     566                    .dwattr $C$DW$41, DW_AT_decl_file("..\usart_comms.h")
     567                    .dwattr $C$DW$41, DW_AT_decl_line(0x18)
     568                    .dwattr $C$DW$41, DW_AT_decl_column(0x0d)
     569            
     570            $C$DW$42        .dwtag  DW_TAG_member
     571                    .dwattr $C$DW$42, DW_AT_type(*$C$DW$T$23)
     572                    .dwattr $C$DW$42, DW_AT_name("UCTXADDR")
     573                    .dwattr $C$DW$42, DW_AT_TI_symbol_name("UCTXADDR")
     574                    .dwattr $C$DW$42, DW_AT_bit_offset(0x05)
     575                    .dwattr $C$DW$42, DW_AT_bit_size(0x01)
     576                    .dwattr $C$DW$42, DW_AT_data_member_location[DW_OP_plus_uconst 0x0]
     577                    .dwattr $C$DW$42, DW_AT_accessibility(DW_ACCESS_public)
     578                    .dwattr $C$DW$42, DW_AT_decl_file("..\usart_comms.h")
     579                    .dwattr $C$DW$42, DW_AT_decl_line(0x19)
     580                    .dwattr $C$DW$42, DW_AT_decl_column(0x0d)
     581            
     582            $C$DW$43        .dwtag  DW_TAG_member
     583                    .dwattr $C$DW$43, DW_AT_type(*$C$DW$T$23)
     584                    .dwattr $C$DW$43, DW_AT_name("UCDORM")
     585                    .dwattr $C$DW$43, DW_AT_TI_symbol_name("UCDORM")
     586                    .dwattr $C$DW$43, DW_AT_bit_offset(0x04)
     587                    .dwattr $C$DW$43, DW_AT_bit_size(0x01)
     588                    .dwattr $C$DW$43, DW_AT_data_member_location[DW_OP_plus_uconst 0x0]
     589                    .dwattr $C$DW$43, DW_AT_accessibility(DW_ACCESS_public)
MSP430 Assembler PC v21.6.1 Tue Jan  3 09:51:30 2023

Copyright (c) 2003-2018 Texas Instruments Incorporated
main.asm                                                             PAGE   12

     590                    .dwattr $C$DW$43, DW_AT_decl_file("..\usart_comms.h")
     591                    .dwattr $C$DW$43, DW_AT_decl_line(0x1a)
     592                    .dwattr $C$DW$43, DW_AT_decl_column(0x0d)
     593            
     594            $C$DW$44        .dwtag  DW_TAG_member
     595                    .dwattr $C$DW$44, DW_AT_type(*$C$DW$T$23)
     596                    .dwattr $C$DW$44, DW_AT_name("UCBRKIE")
     597                    .dwattr $C$DW$44, DW_AT_TI_symbol_name("UCBRKIE")
     598                    .dwattr $C$DW$44, DW_AT_bit_offset(0x03)
     599                    .dwattr $C$DW$44, DW_AT_bit_size(0x01)
     600                    .dwattr $C$DW$44, DW_AT_data_member_location[DW_OP_plus_uconst 0x0]
     601                    .dwattr $C$DW$44, DW_AT_accessibility(DW_ACCESS_public)
     602                    .dwattr $C$DW$44, DW_AT_decl_file("..\usart_comms.h")
     603                    .dwattr $C$DW$44, DW_AT_decl_line(0x1b)
     604                    .dwattr $C$DW$44, DW_AT_decl_column(0x0d)
     605            
     606            $C$DW$45        .dwtag  DW_TAG_member
     607                    .dwattr $C$DW$45, DW_AT_type(*$C$DW$T$23)
     608                    .dwattr $C$DW$45, DW_AT_name("UCRXEIE")
     609                    .dwattr $C$DW$45, DW_AT_TI_symbol_name("UCRXEIE")
     610                    .dwattr $C$DW$45, DW_AT_bit_offset(0x02)
     611                    .dwattr $C$DW$45, DW_AT_bit_size(0x01)
     612                    .dwattr $C$DW$45, DW_AT_data_member_location[DW_OP_plus_uconst 0x0]
     613                    .dwattr $C$DW$45, DW_AT_accessibility(DW_ACCESS_public)
     614                    .dwattr $C$DW$45, DW_AT_decl_file("..\usart_comms.h")
     615                    .dwattr $C$DW$45, DW_AT_decl_line(0x1c)
     616                    .dwattr $C$DW$45, DW_AT_decl_column(0x0d)
     617            
     618            $C$DW$46        .dwtag  DW_TAG_member
     619                    .dwattr $C$DW$46, DW_AT_type(*$C$DW$T$23)
     620                    .dwattr $C$DW$46, DW_AT_name("UCSSELx")
     621                    .dwattr $C$DW$46, DW_AT_TI_symbol_name("UCSSELx")
     622                    .dwattr $C$DW$46, DW_AT_bit_offset(0x00)
     623                    .dwattr $C$DW$46, DW_AT_bit_size(0x02)
     624                    .dwattr $C$DW$46, DW_AT_data_member_location[DW_OP_plus_uconst 0x0]
     625                    .dwattr $C$DW$46, DW_AT_accessibility(DW_ACCESS_public)
     626                    .dwattr $C$DW$46, DW_AT_decl_file("..\usart_comms.h")
     627                    .dwattr $C$DW$46, DW_AT_decl_line(0x1d)
     628                    .dwattr $C$DW$46, DW_AT_decl_column(0x0d)
     629            
     630            $C$DW$47        .dwtag  DW_TAG_member
     631                    .dwattr $C$DW$47, DW_AT_type(*$C$DW$T$23)
     632                    .dwattr $C$DW$47, DW_AT_name("UCSYNC")
     633                    .dwattr $C$DW$47, DW_AT_TI_symbol_name("UCSYNC")
     634                    .dwattr $C$DW$47, DW_AT_bit_offset(0x07)
     635                    .dwattr $C$DW$47, DW_AT_bit_size(0x01)
     636                    .dwattr $C$DW$47, DW_AT_data_member_location[DW_OP_plus_uconst 0x1]
     637                    .dwattr $C$DW$47, DW_AT_accessibility(DW_ACCESS_public)
     638                    .dwattr $C$DW$47, DW_AT_decl_file("..\usart_comms.h")
     639                    .dwattr $C$DW$47, DW_AT_decl_line(0x1e)
     640                    .dwattr $C$DW$47, DW_AT_decl_column(0x0d)
     641            
     642            $C$DW$48        .dwtag  DW_TAG_member
     643                    .dwattr $C$DW$48, DW_AT_type(*$C$DW$T$23)
     644                    .dwattr $C$DW$48, DW_AT_name("UCMODEx")
MSP430 Assembler PC v21.6.1 Tue Jan  3 09:51:30 2023

Copyright (c) 2003-2018 Texas Instruments Incorporated
main.asm                                                             PAGE   13

     645                    .dwattr $C$DW$48, DW_AT_TI_symbol_name("UCMODEx")
     646                    .dwattr $C$DW$48, DW_AT_bit_offset(0x05)
     647                    .dwattr $C$DW$48, DW_AT_bit_size(0x02)
     648                    .dwattr $C$DW$48, DW_AT_data_member_location[DW_OP_plus_uconst 0x1]
     649                    .dwattr $C$DW$48, DW_AT_accessibility(DW_ACCESS_public)
     650                    .dwattr $C$DW$48, DW_AT_decl_file("..\usart_comms.h")
     651                    .dwattr $C$DW$48, DW_AT_decl_line(0x1f)
     652                    .dwattr $C$DW$48, DW_AT_decl_column(0x0d)
     653            
     654            $C$DW$49        .dwtag  DW_TAG_member
     655                    .dwattr $C$DW$49, DW_AT_type(*$C$DW$T$23)
     656                    .dwattr $C$DW$49, DW_AT_name("UCSPB")
     657                    .dwattr $C$DW$49, DW_AT_TI_symbol_name("UCSPB")
     658                    .dwattr $C$DW$49, DW_AT_bit_offset(0x04)
     659                    .dwattr $C$DW$49, DW_AT_bit_size(0x01)
     660                    .dwattr $C$DW$49, DW_AT_data_member_location[DW_OP_plus_uconst 0x1]
     661                    .dwattr $C$DW$49, DW_AT_accessibility(DW_ACCESS_public)
     662                    .dwattr $C$DW$49, DW_AT_decl_file("..\usart_comms.h")
     663                    .dwattr $C$DW$49, DW_AT_decl_line(0x20)
     664                    .dwattr $C$DW$49, DW_AT_decl_column(0x0d)
     665            
     666            $C$DW$50        .dwtag  DW_TAG_member
     667                    .dwattr $C$DW$50, DW_AT_type(*$C$DW$T$23)
     668                    .dwattr $C$DW$50, DW_AT_name("UC7BIT")
     669                    .dwattr $C$DW$50, DW_AT_TI_symbol_name("UC7BIT")
     670                    .dwattr $C$DW$50, DW_AT_bit_offset(0x03)
     671                    .dwattr $C$DW$50, DW_AT_bit_size(0x01)
     672                    .dwattr $C$DW$50, DW_AT_data_member_location[DW_OP_plus_uconst 0x1]
     673                    .dwattr $C$DW$50, DW_AT_accessibility(DW_ACCESS_public)
     674                    .dwattr $C$DW$50, DW_AT_decl_file("..\usart_comms.h")
     675                    .dwattr $C$DW$50, DW_AT_decl_line(0x21)
     676                    .dwattr $C$DW$50, DW_AT_decl_column(0x0d)
     677            
     678            $C$DW$51        .dwtag  DW_TAG_member
     679                    .dwattr $C$DW$51, DW_AT_type(*$C$DW$T$23)
     680                    .dwattr $C$DW$51, DW_AT_name("UCMSB")
     681                    .dwattr $C$DW$51, DW_AT_TI_symbol_name("UCMSB")
     682                    .dwattr $C$DW$51, DW_AT_bit_offset(0x02)
     683                    .dwattr $C$DW$51, DW_AT_bit_size(0x01)
     684                    .dwattr $C$DW$51, DW_AT_data_member_location[DW_OP_plus_uconst 0x1]
     685                    .dwattr $C$DW$51, DW_AT_accessibility(DW_ACCESS_public)
     686                    .dwattr $C$DW$51, DW_AT_decl_file("..\usart_comms.h")
     687                    .dwattr $C$DW$51, DW_AT_decl_line(0x22)
     688                    .dwattr $C$DW$51, DW_AT_decl_column(0x0d)
     689            
     690            $C$DW$52        .dwtag  DW_TAG_member
     691                    .dwattr $C$DW$52, DW_AT_type(*$C$DW$T$23)
     692                    .dwattr $C$DW$52, DW_AT_name("UCPAR")
     693                    .dwattr $C$DW$52, DW_AT_TI_symbol_name("UCPAR")
     694                    .dwattr $C$DW$52, DW_AT_bit_offset(0x01)
     695                    .dwattr $C$DW$52, DW_AT_bit_size(0x01)
     696                    .dwattr $C$DW$52, DW_AT_data_member_location[DW_OP_plus_uconst 0x1]
     697                    .dwattr $C$DW$52, DW_AT_accessibility(DW_ACCESS_public)
     698                    .dwattr $C$DW$52, DW_AT_decl_file("..\usart_comms.h")
     699                    .dwattr $C$DW$52, DW_AT_decl_line(0x23)
MSP430 Assembler PC v21.6.1 Tue Jan  3 09:51:30 2023

Copyright (c) 2003-2018 Texas Instruments Incorporated
main.asm                                                             PAGE   14

     700                    .dwattr $C$DW$52, DW_AT_decl_column(0x0d)
     701            
     702            $C$DW$53        .dwtag  DW_TAG_member
     703                    .dwattr $C$DW$53, DW_AT_type(*$C$DW$T$23)
     704                    .dwattr $C$DW$53, DW_AT_name("UCPEN")
     705                    .dwattr $C$DW$53, DW_AT_TI_symbol_name("UCPEN")
     706                    .dwattr $C$DW$53, DW_AT_bit_offset(0x00)
     707                    .dwattr $C$DW$53, DW_AT_bit_size(0x01)
     708                    .dwattr $C$DW$53, DW_AT_data_member_location[DW_OP_plus_uconst 0x1]
     709                    .dwattr $C$DW$53, DW_AT_accessibility(DW_ACCESS_public)
     710                    .dwattr $C$DW$53, DW_AT_decl_file("..\usart_comms.h")
     711                    .dwattr $C$DW$53, DW_AT_decl_line(0x24)
     712                    .dwattr $C$DW$53, DW_AT_decl_column(0x0d)
     713            
     714                    .dwattr $C$DW$T$24, DW_AT_decl_file("..\usart_comms.h")
     715                    .dwattr $C$DW$T$24, DW_AT_decl_line(0x16)
     716                    .dwattr $C$DW$T$24, DW_AT_decl_column(0x01)
     717                    .dwendtag $C$DW$T$24
     718            
     719            $C$DW$T$39      .dwtag  DW_TAG_typedef
     720                    .dwattr $C$DW$T$39, DW_AT_name("UCA0CTLW0_REG")
     721                    .dwattr $C$DW$T$39, DW_AT_type(*$C$DW$T$24)
     722                    .dwattr $C$DW$T$39, DW_AT_language(DW_LANG_C)
     723                    .dwattr $C$DW$T$39, DW_AT_decl_file("..\usart_comms.h")
     724                    .dwattr $C$DW$T$39, DW_AT_decl_line(0x25)
     725                    .dwattr $C$DW$T$39, DW_AT_decl_column(0x03)
     726            
     727            
     728            $C$DW$T$27      .dwtag  DW_TAG_structure_type
     729                    .dwattr $C$DW$T$27, DW_AT_byte_size(0x04)
     730            $C$DW$54        .dwtag  DW_TAG_member
     731                    .dwattr $C$DW$54, DW_AT_type(*$C$DW$T$26)
     732                    .dwattr $C$DW$54, DW_AT_name("UCGLITx")
     733                    .dwattr $C$DW$54, DW_AT_TI_symbol_name("UCGLITx")
     734                    .dwattr $C$DW$54, DW_AT_bit_offset(0x0e)
     735                    .dwattr $C$DW$54, DW_AT_bit_size(0x02)
     736                    .dwattr $C$DW$54, DW_AT_data_member_location[DW_OP_plus_uconst 0x0]
     737                    .dwattr $C$DW$54, DW_AT_accessibility(DW_ACCESS_public)
     738                    .dwattr $C$DW$54, DW_AT_decl_file("..\usart_comms.h")
     739                    .dwattr $C$DW$54, DW_AT_decl_line(0x2a)
     740                    .dwattr $C$DW$54, DW_AT_decl_column(0x0e)
     741            
     742            $C$DW$55        .dwtag  DW_TAG_member
     743                    .dwattr $C$DW$55, DW_AT_type(*$C$DW$T$26)
     744                    .dwattr $C$DW$55, DW_AT_name("Reserved")
     745                    .dwattr $C$DW$55, DW_AT_TI_symbol_name("Reserved")
     746                    .dwattr $C$DW$55, DW_AT_bit_offset(0x00)
     747                    .dwattr $C$DW$55, DW_AT_bit_size(0x0e)
     748                    .dwattr $C$DW$55, DW_AT_data_member_location[DW_OP_plus_uconst 0x0]
     749                    .dwattr $C$DW$55, DW_AT_accessibility(DW_ACCESS_public)
     750                    .dwattr $C$DW$55, DW_AT_decl_file("..\usart_comms.h")
     751                    .dwattr $C$DW$55, DW_AT_decl_line(0x2b)
     752                    .dwattr $C$DW$55, DW_AT_decl_column(0x0e)
     753            
     754            $C$DW$56        .dwtag  DW_TAG_member
MSP430 Assembler PC v21.6.1 Tue Jan  3 09:51:30 2023

Copyright (c) 2003-2018 Texas Instruments Incorporated
main.asm                                                             PAGE   15

     755                    .dwattr $C$DW$56, DW_AT_type(*$C$DW$T$26)
     756                    .dwattr $C$DW$56, DW_AT_name("Unused")
     757                    .dwattr $C$DW$56, DW_AT_TI_symbol_name("Unused")
     758                    .dwattr $C$DW$56, DW_AT_bit_offset(0x00)
     759                    .dwattr $C$DW$56, DW_AT_bit_size(0x10)
     760                    .dwattr $C$DW$56, DW_AT_data_member_location[DW_OP_plus_uconst 0x2]
     761                    .dwattr $C$DW$56, DW_AT_accessibility(DW_ACCESS_public)
     762                    .dwattr $C$DW$56, DW_AT_decl_file("..\usart_comms.h")
     763                    .dwattr $C$DW$56, DW_AT_decl_line(0x2c)
     764                    .dwattr $C$DW$56, DW_AT_decl_column(0x0e)
     765            
     766                    .dwattr $C$DW$T$27, DW_AT_decl_file("..\usart_comms.h")
     767                    .dwattr $C$DW$T$27, DW_AT_decl_line(0x29)
     768                    .dwattr $C$DW$T$27, DW_AT_decl_column(0x01)
     769                    .dwendtag $C$DW$T$27
     770            
     771            $C$DW$T$40      .dwtag  DW_TAG_typedef
     772                    .dwattr $C$DW$T$40, DW_AT_name("UCA0CTLW1_REG")
     773                    .dwattr $C$DW$T$40, DW_AT_type(*$C$DW$T$27)
     774                    .dwattr $C$DW$T$40, DW_AT_language(DW_LANG_C)
     775                    .dwattr $C$DW$T$40, DW_AT_decl_file("..\usart_comms.h")
     776                    .dwattr $C$DW$T$40, DW_AT_decl_line(0x2d)
     777                    .dwattr $C$DW$T$40, DW_AT_decl_column(0x03)
     778            
     779            
     780            $C$DW$T$28      .dwtag  DW_TAG_structure_type
     781                    .dwattr $C$DW$T$28, DW_AT_byte_size(0x01)
     782            $C$DW$57        .dwtag  DW_TAG_member
     783                    .dwattr $C$DW$57, DW_AT_type(*$C$DW$T$23)
     784                    .dwattr $C$DW$57, DW_AT_name("UCRXIE")
     785                    .dwattr $C$DW$57, DW_AT_TI_symbol_name("UCRXIE")
     786                    .dwattr $C$DW$57, DW_AT_bit_offset(0x07)
     787                    .dwattr $C$DW$57, DW_AT_bit_size(0x01)
     788                    .dwattr $C$DW$57, DW_AT_data_member_location[DW_OP_plus_uconst 0x0]
     789                    .dwattr $C$DW$57, DW_AT_accessibility(DW_ACCESS_public)
     790                    .dwattr $C$DW$57, DW_AT_decl_file("..\usart_comms.h")
     791                    .dwattr $C$DW$57, DW_AT_decl_line(0x31)
     792                    .dwattr $C$DW$57, DW_AT_decl_column(0x0d)
     793            
     794            $C$DW$58        .dwtag  DW_TAG_member
     795                    .dwattr $C$DW$58, DW_AT_type(*$C$DW$T$23)
     796                    .dwattr $C$DW$58, DW_AT_name("UCTXIE")
     797                    .dwattr $C$DW$58, DW_AT_TI_symbol_name("UCTXIE")
     798                    .dwattr $C$DW$58, DW_AT_bit_offset(0x06)
     799                    .dwattr $C$DW$58, DW_AT_bit_size(0x01)
     800                    .dwattr $C$DW$58, DW_AT_data_member_location[DW_OP_plus_uconst 0x0]
     801                    .dwattr $C$DW$58, DW_AT_accessibility(DW_ACCESS_public)
     802                    .dwattr $C$DW$58, DW_AT_decl_file("..\usart_comms.h")
     803                    .dwattr $C$DW$58, DW_AT_decl_line(0x32)
     804                    .dwattr $C$DW$58, DW_AT_decl_column(0x0d)
     805            
     806            $C$DW$59        .dwtag  DW_TAG_member
     807                    .dwattr $C$DW$59, DW_AT_type(*$C$DW$T$23)
     808                    .dwattr $C$DW$59, DW_AT_name("UCSTTIE")
     809                    .dwattr $C$DW$59, DW_AT_TI_symbol_name("UCSTTIE")
MSP430 Assembler PC v21.6.1 Tue Jan  3 09:51:30 2023

Copyright (c) 2003-2018 Texas Instruments Incorporated
main.asm                                                             PAGE   16

     810                    .dwattr $C$DW$59, DW_AT_bit_offset(0x05)
     811                    .dwattr $C$DW$59, DW_AT_bit_size(0x01)
     812                    .dwattr $C$DW$59, DW_AT_data_member_location[DW_OP_plus_uconst 0x0]
     813                    .dwattr $C$DW$59, DW_AT_accessibility(DW_ACCESS_public)
     814                    .dwattr $C$DW$59, DW_AT_decl_file("..\usart_comms.h")
     815                    .dwattr $C$DW$59, DW_AT_decl_line(0x33)
     816                    .dwattr $C$DW$59, DW_AT_decl_column(0x0d)
     817            
     818            $C$DW$60        .dwtag  DW_TAG_member
     819                    .dwattr $C$DW$60, DW_AT_type(*$C$DW$T$23)
     820                    .dwattr $C$DW$60, DW_AT_name("UCTXCPTIE")
     821                    .dwattr $C$DW$60, DW_AT_TI_symbol_name("UCTXCPTIE")
     822                    .dwattr $C$DW$60, DW_AT_bit_offset(0x04)
     823                    .dwattr $C$DW$60, DW_AT_bit_size(0x01)
     824                    .dwattr $C$DW$60, DW_AT_data_member_location[DW_OP_plus_uconst 0x0]
     825                    .dwattr $C$DW$60, DW_AT_accessibility(DW_ACCESS_public)
     826                    .dwattr $C$DW$60, DW_AT_decl_file("..\usart_comms.h")
     827                    .dwattr $C$DW$60, DW_AT_decl_line(0x34)
     828                    .dwattr $C$DW$60, DW_AT_decl_column(0x0d)
     829            
     830                    .dwattr $C$DW$T$28, DW_AT_decl_file("..\usart_comms.h")
     831                    .dwattr $C$DW$T$28, DW_AT_decl_line(0x30)
     832                    .dwattr $C$DW$T$28, DW_AT_decl_column(0x01)
     833                    .dwendtag $C$DW$T$28
     834            
     835            $C$DW$T$48      .dwtag  DW_TAG_typedef
     836                    .dwattr $C$DW$T$48, DW_AT_name("UCA0IE_REG")
     837                    .dwattr $C$DW$T$48, DW_AT_type(*$C$DW$T$28)
     838                    .dwattr $C$DW$T$48, DW_AT_language(DW_LANG_C)
     839                    .dwattr $C$DW$T$48, DW_AT_decl_file("..\usart_comms.h")
     840                    .dwattr $C$DW$T$48, DW_AT_decl_line(0x35)
     841                    .dwattr $C$DW$T$48, DW_AT_decl_column(0x02)
     842            
     843            
     844            $C$DW$T$29      .dwtag  DW_TAG_structure_type
     845                    .dwattr $C$DW$T$29, DW_AT_byte_size(0x02)
     846            $C$DW$61        .dwtag  DW_TAG_member
     847                    .dwattr $C$DW$61, DW_AT_type(*$C$DW$T$26)
     848                    .dwattr $C$DW$61, DW_AT_name("UCBRx")
     849                    .dwattr $C$DW$61, DW_AT_TI_symbol_name("UCBRx")
     850                    .dwattr $C$DW$61, DW_AT_bit_offset(0x00)
     851                    .dwattr $C$DW$61, DW_AT_bit_size(0x10)
     852                    .dwattr $C$DW$61, DW_AT_data_member_location[DW_OP_plus_uconst 0x0]
     853                    .dwattr $C$DW$61, DW_AT_accessibility(DW_ACCESS_public)
     854                    .dwattr $C$DW$61, DW_AT_decl_file("..\usart_comms.h")
     855                    .dwattr $C$DW$61, DW_AT_decl_line(0x3a)
     856                    .dwattr $C$DW$61, DW_AT_decl_column(0x0e)
     857            
     858                    .dwattr $C$DW$T$29, DW_AT_decl_file("..\usart_comms.h")
     859                    .dwattr $C$DW$T$29, DW_AT_decl_line(0x38)
     860                    .dwattr $C$DW$T$29, DW_AT_decl_column(0x01)
     861                    .dwendtag $C$DW$T$29
     862            
     863            $C$DW$T$41      .dwtag  DW_TAG_typedef
     864                    .dwattr $C$DW$T$41, DW_AT_name("UCA0BRW_REG")
MSP430 Assembler PC v21.6.1 Tue Jan  3 09:51:30 2023

Copyright (c) 2003-2018 Texas Instruments Incorporated
main.asm                                                             PAGE   17

     865                    .dwattr $C$DW$T$41, DW_AT_type(*$C$DW$T$29)
     866                    .dwattr $C$DW$T$41, DW_AT_language(DW_LANG_C)
     867                    .dwattr $C$DW$T$41, DW_AT_decl_file("..\usart_comms.h")
     868                    .dwattr $C$DW$T$41, DW_AT_decl_line(0x3b)
     869                    .dwattr $C$DW$T$41, DW_AT_decl_column(0x02)
     870            
     871            
     872            $C$DW$T$30      .dwtag  DW_TAG_structure_type
     873                    .dwattr $C$DW$T$30, DW_AT_byte_size(0x02)
     874            $C$DW$62        .dwtag  DW_TAG_member
     875                    .dwattr $C$DW$62, DW_AT_type(*$C$DW$T$23)
     876                    .dwattr $C$DW$62, DW_AT_name("UCOS16")
     877                    .dwattr $C$DW$62, DW_AT_TI_symbol_name("UCOS16")
     878                    .dwattr $C$DW$62, DW_AT_bit_offset(0x07)
     879                    .dwattr $C$DW$62, DW_AT_bit_size(0x01)
     880                    .dwattr $C$DW$62, DW_AT_data_member_location[DW_OP_plus_uconst 0x0]
     881                    .dwattr $C$DW$62, DW_AT_accessibility(DW_ACCESS_public)
     882                    .dwattr $C$DW$62, DW_AT_decl_file("..\usart_comms.h")
     883                    .dwattr $C$DW$62, DW_AT_decl_line(0x3f)
     884                    .dwattr $C$DW$62, DW_AT_decl_column(0x0d)
     885            
     886            $C$DW$63        .dwtag  DW_TAG_member
     887                    .dwattr $C$DW$63, DW_AT_type(*$C$DW$T$23)
     888                    .dwattr $C$DW$63, DW_AT_name("RESERVED")
     889                    .dwattr $C$DW$63, DW_AT_TI_symbol_name("RESERVED")
     890                    .dwattr $C$DW$63, DW_AT_bit_offset(0x04)
     891                    .dwattr $C$DW$63, DW_AT_bit_size(0x03)
     892                    .dwattr $C$DW$63, DW_AT_data_member_location[DW_OP_plus_uconst 0x0]
     893                    .dwattr $C$DW$63, DW_AT_accessibility(DW_ACCESS_public)
     894                    .dwattr $C$DW$63, DW_AT_decl_file("..\usart_comms.h")
     895                    .dwattr $C$DW$63, DW_AT_decl_line(0x40)
     896                    .dwattr $C$DW$63, DW_AT_decl_column(0x0d)
     897            
     898            $C$DW$64        .dwtag  DW_TAG_member
     899                    .dwattr $C$DW$64, DW_AT_type(*$C$DW$T$23)
     900                    .dwattr $C$DW$64, DW_AT_name("UCBRFx")
     901                    .dwattr $C$DW$64, DW_AT_TI_symbol_name("UCBRFx")
     902                    .dwattr $C$DW$64, DW_AT_bit_offset(0x00)
     903                    .dwattr $C$DW$64, DW_AT_bit_size(0x04)
     904                    .dwattr $C$DW$64, DW_AT_data_member_location[DW_OP_plus_uconst 0x0]
     905                    .dwattr $C$DW$64, DW_AT_accessibility(DW_ACCESS_public)
     906                    .dwattr $C$DW$64, DW_AT_decl_file("..\usart_comms.h")
     907                    .dwattr $C$DW$64, DW_AT_decl_line(0x41)
     908                    .dwattr $C$DW$64, DW_AT_decl_column(0x0d)
     909            
     910            $C$DW$65        .dwtag  DW_TAG_member
     911                    .dwattr $C$DW$65, DW_AT_type(*$C$DW$T$23)
     912                    .dwattr $C$DW$65, DW_AT_name("UCBRSx")
     913                    .dwattr $C$DW$65, DW_AT_TI_symbol_name("UCBRSx")
     914                    .dwattr $C$DW$65, DW_AT_bit_offset(0x00)
     915                    .dwattr $C$DW$65, DW_AT_bit_size(0x08)
     916                    .dwattr $C$DW$65, DW_AT_data_member_location[DW_OP_plus_uconst 0x1]
     917                    .dwattr $C$DW$65, DW_AT_accessibility(DW_ACCESS_public)
     918                    .dwattr $C$DW$65, DW_AT_decl_file("..\usart_comms.h")
     919                    .dwattr $C$DW$65, DW_AT_decl_line(0x42)
MSP430 Assembler PC v21.6.1 Tue Jan  3 09:51:30 2023

Copyright (c) 2003-2018 Texas Instruments Incorporated
main.asm                                                             PAGE   18

     920                    .dwattr $C$DW$65, DW_AT_decl_column(0x0d)
     921            
     922                    .dwattr $C$DW$T$30, DW_AT_decl_file("..\usart_comms.h")
     923                    .dwattr $C$DW$T$30, DW_AT_decl_line(0x3e)
     924                    .dwattr $C$DW$T$30, DW_AT_decl_column(0x01)
     925                    .dwendtag $C$DW$T$30
     926            
     927            $C$DW$T$42      .dwtag  DW_TAG_typedef
     928                    .dwattr $C$DW$T$42, DW_AT_name("UCA0MCTLW_REG")
     929                    .dwattr $C$DW$T$42, DW_AT_type(*$C$DW$T$30)
     930                    .dwattr $C$DW$T$42, DW_AT_language(DW_LANG_C)
     931                    .dwattr $C$DW$T$42, DW_AT_decl_file("..\usart_comms.h")
     932                    .dwattr $C$DW$T$42, DW_AT_decl_line(0x43)
     933                    .dwattr $C$DW$T$42, DW_AT_decl_column(0x02)
     934            
     935            
     936            $C$DW$T$32      .dwtag  DW_TAG_structure_type
     937                    .dwattr $C$DW$T$32, DW_AT_byte_size(0x02)
     938            $C$DW$66        .dwtag  DW_TAG_member
     939                    .dwattr $C$DW$66, DW_AT_type(*$C$DW$T$26)
     940                    .dwattr $C$DW$66, DW_AT_name("UCBUSY")
     941                    .dwattr $C$DW$66, DW_AT_TI_symbol_name("UCBUSY")
     942                    .dwattr $C$DW$66, DW_AT_bit_offset(0x0f)
     943                    .dwattr $C$DW$66, DW_AT_bit_size(0x01)
     944                    .dwattr $C$DW$66, DW_AT_data_member_location[DW_OP_plus_uconst 0x0]
     945                    .dwattr $C$DW$66, DW_AT_accessibility(DW_ACCESS_public)
     946                    .dwattr $C$DW$66, DW_AT_decl_file("..\usart_comms.h")
     947                    .dwattr $C$DW$66, DW_AT_decl_line(0x47)
     948                    .dwattr $C$DW$66, DW_AT_decl_column(0x0f)
     949            
     950            $C$DW$67        .dwtag  DW_TAG_member
     951                    .dwattr $C$DW$67, DW_AT_type(*$C$DW$T$26)
     952                    .dwattr $C$DW$67, DW_AT_name("UCADDR")
     953                    .dwattr $C$DW$67, DW_AT_TI_symbol_name("UCADDR")
     954                    .dwattr $C$DW$67, DW_AT_bit_offset(0x0e)
     955                    .dwattr $C$DW$67, DW_AT_bit_size(0x01)
     956                    .dwattr $C$DW$67, DW_AT_data_member_location[DW_OP_plus_uconst 0x0]
     957                    .dwattr $C$DW$67, DW_AT_accessibility(DW_ACCESS_public)
     958                    .dwattr $C$DW$67, DW_AT_decl_file("..\usart_comms.h")
     959                    .dwattr $C$DW$67, DW_AT_decl_line(0x48)
     960                    .dwattr $C$DW$67, DW_AT_decl_column(0x0f)
     961            
     962            $C$DW$68        .dwtag  DW_TAG_member
     963                    .dwattr $C$DW$68, DW_AT_type(*$C$DW$T$26)
     964                    .dwattr $C$DW$68, DW_AT_name("UCRXERR")
     965                    .dwattr $C$DW$68, DW_AT_TI_symbol_name("UCRXERR")
     966                    .dwattr $C$DW$68, DW_AT_bit_offset(0x0d)
     967                    .dwattr $C$DW$68, DW_AT_bit_size(0x01)
     968                    .dwattr $C$DW$68, DW_AT_data_member_location[DW_OP_plus_uconst 0x0]
     969                    .dwattr $C$DW$68, DW_AT_accessibility(DW_ACCESS_public)
     970                    .dwattr $C$DW$68, DW_AT_decl_file("..\usart_comms.h")
     971                    .dwattr $C$DW$68, DW_AT_decl_line(0x49)
     972                    .dwattr $C$DW$68, DW_AT_decl_column(0x0f)
     973            
     974            $C$DW$69        .dwtag  DW_TAG_member
MSP430 Assembler PC v21.6.1 Tue Jan  3 09:51:30 2023

Copyright (c) 2003-2018 Texas Instruments Incorporated
main.asm                                                             PAGE   19

     975                    .dwattr $C$DW$69, DW_AT_type(*$C$DW$T$26)
     976                    .dwattr $C$DW$69, DW_AT_name("UCBRK")
     977                    .dwattr $C$DW$69, DW_AT_TI_symbol_name("UCBRK")
     978                    .dwattr $C$DW$69, DW_AT_bit_offset(0x0c)
     979                    .dwattr $C$DW$69, DW_AT_bit_size(0x01)
     980                    .dwattr $C$DW$69, DW_AT_data_member_location[DW_OP_plus_uconst 0x0]
     981                    .dwattr $C$DW$69, DW_AT_accessibility(DW_ACCESS_public)
     982                    .dwattr $C$DW$69, DW_AT_decl_file("..\usart_comms.h")
     983                    .dwattr $C$DW$69, DW_AT_decl_line(0x4a)
     984                    .dwattr $C$DW$69, DW_AT_decl_column(0x0f)
     985            
     986            $C$DW$70        .dwtag  DW_TAG_member
     987                    .dwattr $C$DW$70, DW_AT_type(*$C$DW$T$26)
     988                    .dwattr $C$DW$70, DW_AT_name("UCPE")
     989                    .dwattr $C$DW$70, DW_AT_TI_symbol_name("UCPE")
     990                    .dwattr $C$DW$70, DW_AT_bit_offset(0x0b)
     991                    .dwattr $C$DW$70, DW_AT_bit_size(0x01)
     992                    .dwattr $C$DW$70, DW_AT_data_member_location[DW_OP_plus_uconst 0x0]
     993                    .dwattr $C$DW$70, DW_AT_accessibility(DW_ACCESS_public)
     994                    .dwattr $C$DW$70, DW_AT_decl_file("..\usart_comms.h")
     995                    .dwattr $C$DW$70, DW_AT_decl_line(0x4b)
     996                    .dwattr $C$DW$70, DW_AT_decl_column(0x0f)
     997            
     998            $C$DW$71        .dwtag  DW_TAG_member
     999                    .dwattr $C$DW$71, DW_AT_type(*$C$DW$T$26)
    1000                    .dwattr $C$DW$71, DW_AT_name("UCOE")
    1001                    .dwattr $C$DW$71, DW_AT_TI_symbol_name("UCOE")
    1002                    .dwattr $C$DW$71, DW_AT_bit_offset(0x0a)
    1003                    .dwattr $C$DW$71, DW_AT_bit_size(0x01)
    1004                    .dwattr $C$DW$71, DW_AT_data_member_location[DW_OP_plus_uconst 0x0]
    1005                    .dwattr $C$DW$71, DW_AT_accessibility(DW_ACCESS_public)
    1006                    .dwattr $C$DW$71, DW_AT_decl_file("..\usart_comms.h")
    1007                    .dwattr $C$DW$71, DW_AT_decl_line(0x4c)
    1008                    .dwattr $C$DW$71, DW_AT_decl_column(0x0f)
    1009            
    1010            $C$DW$72        .dwtag  DW_TAG_member
    1011                    .dwattr $C$DW$72, DW_AT_type(*$C$DW$T$26)
    1012                    .dwattr $C$DW$72, DW_AT_name("UCFE")
    1013                    .dwattr $C$DW$72, DW_AT_TI_symbol_name("UCFE")
    1014                    .dwattr $C$DW$72, DW_AT_bit_offset(0x09)
    1015                    .dwattr $C$DW$72, DW_AT_bit_size(0x01)
    1016                    .dwattr $C$DW$72, DW_AT_data_member_location[DW_OP_plus_uconst 0x0]
    1017                    .dwattr $C$DW$72, DW_AT_accessibility(DW_ACCESS_public)
    1018                    .dwattr $C$DW$72, DW_AT_decl_file("..\usart_comms.h")
    1019                    .dwattr $C$DW$72, DW_AT_decl_line(0x4d)
    1020                    .dwattr $C$DW$72, DW_AT_decl_column(0x0f)
    1021            
    1022            $C$DW$73        .dwtag  DW_TAG_member
    1023                    .dwattr $C$DW$73, DW_AT_type(*$C$DW$T$26)
    1024                    .dwattr $C$DW$73, DW_AT_name("UCLISTEN")
    1025                    .dwattr $C$DW$73, DW_AT_TI_symbol_name("UCLISTEN")
    1026                    .dwattr $C$DW$73, DW_AT_bit_offset(0x08)
    1027                    .dwattr $C$DW$73, DW_AT_bit_size(0x01)
    1028                    .dwattr $C$DW$73, DW_AT_data_member_location[DW_OP_plus_uconst 0x0]
    1029                    .dwattr $C$DW$73, DW_AT_accessibility(DW_ACCESS_public)
MSP430 Assembler PC v21.6.1 Tue Jan  3 09:51:30 2023

Copyright (c) 2003-2018 Texas Instruments Incorporated
main.asm                                                             PAGE   20

    1030                    .dwattr $C$DW$73, DW_AT_decl_file("..\usart_comms.h")
    1031                    .dwattr $C$DW$73, DW_AT_decl_line(0x4e)
    1032                    .dwattr $C$DW$73, DW_AT_decl_column(0x0f)
    1033            
    1034            $C$DW$74        .dwtag  DW_TAG_member
    1035                    .dwattr $C$DW$74, DW_AT_type(*$C$DW$T$31)
    1036                    .dwattr $C$DW$74, DW_AT_name("RESERVED")
    1037                    .dwattr $C$DW$74, DW_AT_TI_symbol_name("RESERVED")
    1038                    .dwattr $C$DW$74, DW_AT_bit_offset(0x00)
    1039                    .dwattr $C$DW$74, DW_AT_bit_size(0x08)
    1040                    .dwattr $C$DW$74, DW_AT_data_member_location[DW_OP_plus_uconst 0x0]
    1041                    .dwattr $C$DW$74, DW_AT_accessibility(DW_ACCESS_public)
    1042                    .dwattr $C$DW$74, DW_AT_decl_file("..\usart_comms.h")
    1043                    .dwattr $C$DW$74, DW_AT_decl_line(0x4f)
    1044                    .dwattr $C$DW$74, DW_AT_decl_column(0x15)
    1045            
    1046                    .dwattr $C$DW$T$32, DW_AT_decl_file("..\usart_comms.h")
    1047                    .dwattr $C$DW$T$32, DW_AT_decl_line(0x46)
    1048                    .dwattr $C$DW$T$32, DW_AT_decl_column(0x01)
    1049                    .dwendtag $C$DW$T$32
    1050            
    1051            $C$DW$T$43      .dwtag  DW_TAG_typedef
    1052                    .dwattr $C$DW$T$43, DW_AT_name("UCA0STATW_REG")
    1053                    .dwattr $C$DW$T$43, DW_AT_type(*$C$DW$T$32)
    1054                    .dwattr $C$DW$T$43, DW_AT_language(DW_LANG_C)
    1055                    .dwattr $C$DW$T$43, DW_AT_decl_file("..\usart_comms.h")
    1056                    .dwattr $C$DW$T$43, DW_AT_decl_line(0x50)
    1057                    .dwattr $C$DW$T$43, DW_AT_decl_column(0x02)
    1058            
    1059            
    1060            $C$DW$T$33      .dwtag  DW_TAG_structure_type
    1061                    .dwattr $C$DW$T$33, DW_AT_byte_size(0x01)
    1062            $C$DW$75        .dwtag  DW_TAG_member
    1063                    .dwattr $C$DW$75, DW_AT_type(*$C$DW$T$23)
    1064                    .dwattr $C$DW$75, DW_AT_name("UCTXBUFx")
    1065                    .dwattr $C$DW$75, DW_AT_TI_symbol_name("UCTXBUFx")
    1066                    .dwattr $C$DW$75, DW_AT_bit_offset(0x00)
    1067                    .dwattr $C$DW$75, DW_AT_bit_size(0x08)
    1068                    .dwattr $C$DW$75, DW_AT_data_member_location[DW_OP_plus_uconst 0x0]
    1069                    .dwattr $C$DW$75, DW_AT_accessibility(DW_ACCESS_public)
    1070                    .dwattr $C$DW$75, DW_AT_decl_file("..\usart_comms.h")
    1071                    .dwattr $C$DW$75, DW_AT_decl_line(0x54)
    1072                    .dwattr $C$DW$75, DW_AT_decl_column(0x0d)
    1073            
    1074                    .dwattr $C$DW$T$33, DW_AT_decl_file("..\usart_comms.h")
    1075                    .dwattr $C$DW$T$33, DW_AT_decl_line(0x53)
    1076                    .dwattr $C$DW$T$33, DW_AT_decl_column(0x01)
    1077                    .dwendtag $C$DW$T$33
    1078            
    1079            $C$DW$T$45      .dwtag  DW_TAG_typedef
    1080                    .dwattr $C$DW$T$45, DW_AT_name("UCA0TXBUF_REG")
    1081                    .dwattr $C$DW$T$45, DW_AT_type(*$C$DW$T$33)
    1082                    .dwattr $C$DW$T$45, DW_AT_language(DW_LANG_C)
    1083                    .dwattr $C$DW$T$45, DW_AT_decl_file("..\usart_comms.h")
    1084                    .dwattr $C$DW$T$45, DW_AT_decl_line(0x55)
MSP430 Assembler PC v21.6.1 Tue Jan  3 09:51:30 2023

Copyright (c) 2003-2018 Texas Instruments Incorporated
main.asm                                                             PAGE   21

    1085                    .dwattr $C$DW$T$45, DW_AT_decl_column(0x02)
    1086            
    1087            
    1088            $C$DW$T$34      .dwtag  DW_TAG_structure_type
    1089                    .dwattr $C$DW$T$34, DW_AT_byte_size(0x01)
    1090            $C$DW$76        .dwtag  DW_TAG_member
    1091                    .dwattr $C$DW$76, DW_AT_type(*$C$DW$T$23)
    1092                    .dwattr $C$DW$76, DW_AT_name("UCRXBUFx")
    1093                    .dwattr $C$DW$76, DW_AT_TI_symbol_name("UCRXBUFx")
    1094                    .dwattr $C$DW$76, DW_AT_bit_offset(0x00)
    1095                    .dwattr $C$DW$76, DW_AT_bit_size(0x08)
    1096                    .dwattr $C$DW$76, DW_AT_data_member_location[DW_OP_plus_uconst 0x0]
    1097                    .dwattr $C$DW$76, DW_AT_accessibility(DW_ACCESS_public)
    1098                    .dwattr $C$DW$76, DW_AT_decl_file("..\usart_comms.h")
    1099                    .dwattr $C$DW$76, DW_AT_decl_line(0x59)
    1100                    .dwattr $C$DW$76, DW_AT_decl_column(0x0d)
    1101            
    1102                    .dwattr $C$DW$T$34, DW_AT_decl_file("..\usart_comms.h")
    1103                    .dwattr $C$DW$T$34, DW_AT_decl_line(0x58)
    1104                    .dwattr $C$DW$T$34, DW_AT_decl_column(0x01)
    1105                    .dwendtag $C$DW$T$34
    1106            
    1107            $C$DW$T$44      .dwtag  DW_TAG_typedef
    1108                    .dwattr $C$DW$T$44, DW_AT_name("UCA0RXBUF_REG")
    1109                    .dwattr $C$DW$T$44, DW_AT_type(*$C$DW$T$34)
    1110                    .dwattr $C$DW$T$44, DW_AT_language(DW_LANG_C)
    1111                    .dwattr $C$DW$T$44, DW_AT_decl_file("..\usart_comms.h")
    1112                    .dwattr $C$DW$T$44, DW_AT_decl_line(0x5a)
    1113                    .dwattr $C$DW$T$44, DW_AT_decl_column(0x02)
    1114            
    1115            
    1116            $C$DW$T$35      .dwtag  DW_TAG_structure_type
    1117                    .dwattr $C$DW$T$35, DW_AT_byte_size(0x02)
    1118            $C$DW$77        .dwtag  DW_TAG_member
    1119                    .dwattr $C$DW$77, DW_AT_type(*$C$DW$T$23)
    1120                    .dwattr $C$DW$77, DW_AT_name("UCABDEN")
    1121                    .dwattr $C$DW$77, DW_AT_TI_symbol_name("UCABDEN")
    1122                    .dwattr $C$DW$77, DW_AT_bit_offset(0x07)
    1123                    .dwattr $C$DW$77, DW_AT_bit_size(0x01)
    1124                    .dwattr $C$DW$77, DW_AT_data_member_location[DW_OP_plus_uconst 0x0]
    1125                    .dwattr $C$DW$77, DW_AT_accessibility(DW_ACCESS_public)
    1126                    .dwattr $C$DW$77, DW_AT_decl_file("..\usart_comms.h")
    1127                    .dwattr $C$DW$77, DW_AT_decl_line(0x5e)
    1128                    .dwattr $C$DW$77, DW_AT_decl_column(0x0d)
    1129            
    1130            $C$DW$78        .dwtag  DW_TAG_member
    1131                    .dwattr $C$DW$78, DW_AT_type(*$C$DW$T$23)
    1132                    .dwattr $C$DW$78, DW_AT_name("Reserved")
    1133                    .dwattr $C$DW$78, DW_AT_TI_symbol_name("Reserved")
    1134                    .dwattr $C$DW$78, DW_AT_bit_offset(0x06)
    1135                    .dwattr $C$DW$78, DW_AT_bit_size(0x01)
    1136                    .dwattr $C$DW$78, DW_AT_data_member_location[DW_OP_plus_uconst 0x0]
    1137                    .dwattr $C$DW$78, DW_AT_accessibility(DW_ACCESS_public)
    1138                    .dwattr $C$DW$78, DW_AT_decl_file("..\usart_comms.h")
    1139                    .dwattr $C$DW$78, DW_AT_decl_line(0x5f)
MSP430 Assembler PC v21.6.1 Tue Jan  3 09:51:30 2023

Copyright (c) 2003-2018 Texas Instruments Incorporated
main.asm                                                             PAGE   22

    1140                    .dwattr $C$DW$78, DW_AT_decl_column(0x0d)
    1141            
    1142            $C$DW$79        .dwtag  DW_TAG_member
    1143                    .dwattr $C$DW$79, DW_AT_type(*$C$DW$T$23)
    1144                    .dwattr $C$DW$79, DW_AT_name("UCBTOE")
    1145                    .dwattr $C$DW$79, DW_AT_TI_symbol_name("UCBTOE")
    1146                    .dwattr $C$DW$79, DW_AT_bit_offset(0x05)
    1147                    .dwattr $C$DW$79, DW_AT_bit_size(0x01)
    1148                    .dwattr $C$DW$79, DW_AT_data_member_location[DW_OP_plus_uconst 0x0]
    1149                    .dwattr $C$DW$79, DW_AT_accessibility(DW_ACCESS_public)
    1150                    .dwattr $C$DW$79, DW_AT_decl_file("..\usart_comms.h")
    1151                    .dwattr $C$DW$79, DW_AT_decl_line(0x60)
    1152                    .dwattr $C$DW$79, DW_AT_decl_column(0x0d)
    1153            
    1154            $C$DW$80        .dwtag  DW_TAG_member
    1155                    .dwattr $C$DW$80, DW_AT_type(*$C$DW$T$23)
    1156                    .dwattr $C$DW$80, DW_AT_name("UCSTOE")
    1157                    .dwattr $C$DW$80, DW_AT_TI_symbol_name("UCSTOE")
    1158                    .dwattr $C$DW$80, DW_AT_bit_offset(0x04)
    1159                    .dwattr $C$DW$80, DW_AT_bit_size(0x01)
    1160                    .dwattr $C$DW$80, DW_AT_data_member_location[DW_OP_plus_uconst 0x0]
    1161                    .dwattr $C$DW$80, DW_AT_accessibility(DW_ACCESS_public)
    1162                    .dwattr $C$DW$80, DW_AT_decl_file("..\usart_comms.h")
    1163                    .dwattr $C$DW$80, DW_AT_decl_line(0x61)
    1164                    .dwattr $C$DW$80, DW_AT_decl_column(0x0d)
    1165            
    1166            $C$DW$81        .dwtag  DW_TAG_member
    1167                    .dwattr $C$DW$81, DW_AT_type(*$C$DW$T$23)
    1168                    .dwattr $C$DW$81, DW_AT_name("UCDELIMx")
    1169                    .dwattr $C$DW$81, DW_AT_TI_symbol_name("UCDELIMx")
    1170                    .dwattr $C$DW$81, DW_AT_bit_offset(0x02)
    1171                    .dwattr $C$DW$81, DW_AT_bit_size(0x02)
    1172                    .dwattr $C$DW$81, DW_AT_data_member_location[DW_OP_plus_uconst 0x0]
    1173                    .dwattr $C$DW$81, DW_AT_accessibility(DW_ACCESS_public)
    1174                    .dwattr $C$DW$81, DW_AT_decl_file("..\usart_comms.h")
    1175                    .dwattr $C$DW$81, DW_AT_decl_line(0x62)
    1176                    .dwattr $C$DW$81, DW_AT_decl_column(0x0d)
    1177            
    1178            $C$DW$82        .dwtag  DW_TAG_member
    1179                    .dwattr $C$DW$82, DW_AT_type(*$C$DW$T$26)
    1180                    .dwattr $C$DW$82, DW_AT_name("RESERVED")
    1181                    .dwattr $C$DW$82, DW_AT_TI_symbol_name("RESERVED")
    1182                    .dwattr $C$DW$82, DW_AT_bit_offset(0x00)
    1183                    .dwattr $C$DW$82, DW_AT_bit_size(0x0a)
    1184                    .dwattr $C$DW$82, DW_AT_data_member_location[DW_OP_plus_uconst 0x0]
    1185                    .dwattr $C$DW$82, DW_AT_accessibility(DW_ACCESS_public)
    1186                    .dwattr $C$DW$82, DW_AT_decl_file("..\usart_comms.h")
    1187                    .dwattr $C$DW$82, DW_AT_decl_line(0x63)
    1188                    .dwattr $C$DW$82, DW_AT_decl_column(0x0e)
    1189            
    1190                    .dwattr $C$DW$T$35, DW_AT_decl_file("..\usart_comms.h")
    1191                    .dwattr $C$DW$T$35, DW_AT_decl_line(0x5d)
    1192                    .dwattr $C$DW$T$35, DW_AT_decl_column(0x01)
    1193                    .dwendtag $C$DW$T$35
    1194            
MSP430 Assembler PC v21.6.1 Tue Jan  3 09:51:30 2023

Copyright (c) 2003-2018 Texas Instruments Incorporated
main.asm                                                             PAGE   23

    1195            $C$DW$T$46      .dwtag  DW_TAG_typedef
    1196                    .dwattr $C$DW$T$46, DW_AT_name("UCA0ABCTL_REG")
    1197                    .dwattr $C$DW$T$46, DW_AT_type(*$C$DW$T$35)
    1198                    .dwattr $C$DW$T$46, DW_AT_language(DW_LANG_C)
    1199                    .dwattr $C$DW$T$46, DW_AT_decl_file("..\usart_comms.h")
    1200                    .dwattr $C$DW$T$46, DW_AT_decl_line(0x64)
    1201                    .dwattr $C$DW$T$46, DW_AT_decl_column(0x02)
    1202            
    1203            
    1204            $C$DW$T$36      .dwtag  DW_TAG_structure_type
    1205                    .dwattr $C$DW$T$36, DW_AT_byte_size(0x02)
    1206            $C$DW$83        .dwtag  DW_TAG_member
    1207                    .dwattr $C$DW$83, DW_AT_type(*$C$DW$T$23)
    1208                    .dwattr $C$DW$83, DW_AT_name("UCIREN")
    1209                    .dwattr $C$DW$83, DW_AT_TI_symbol_name("UCIREN")
    1210                    .dwattr $C$DW$83, DW_AT_bit_offset(0x07)
    1211                    .dwattr $C$DW$83, DW_AT_bit_size(0x01)
    1212                    .dwattr $C$DW$83, DW_AT_data_member_location[DW_OP_plus_uconst 0x0]
    1213                    .dwattr $C$DW$83, DW_AT_accessibility(DW_ACCESS_public)
    1214                    .dwattr $C$DW$83, DW_AT_decl_file("..\usart_comms.h")
    1215                    .dwattr $C$DW$83, DW_AT_decl_line(0x68)
    1216                    .dwattr $C$DW$83, DW_AT_decl_column(0x0d)
    1217            
    1218            $C$DW$84        .dwtag  DW_TAG_member
    1219                    .dwattr $C$DW$84, DW_AT_type(*$C$DW$T$23)
    1220                    .dwattr $C$DW$84, DW_AT_name("UCIRTXCLK")
    1221                    .dwattr $C$DW$84, DW_AT_TI_symbol_name("UCIRTXCLK")
    1222                    .dwattr $C$DW$84, DW_AT_bit_offset(0x06)
    1223                    .dwattr $C$DW$84, DW_AT_bit_size(0x01)
    1224                    .dwattr $C$DW$84, DW_AT_data_member_location[DW_OP_plus_uconst 0x0]
    1225                    .dwattr $C$DW$84, DW_AT_accessibility(DW_ACCESS_public)
    1226                    .dwattr $C$DW$84, DW_AT_decl_file("..\usart_comms.h")
    1227                    .dwattr $C$DW$84, DW_AT_decl_line(0x69)
    1228                    .dwattr $C$DW$84, DW_AT_decl_column(0x0d)
    1229            
    1230            $C$DW$85        .dwtag  DW_TAG_member
    1231                    .dwattr $C$DW$85, DW_AT_type(*$C$DW$T$23)
    1232                    .dwattr $C$DW$85, DW_AT_name("UCIRTXPLx")
    1233                    .dwattr $C$DW$85, DW_AT_TI_symbol_name("UCIRTXPLx")
    1234                    .dwattr $C$DW$85, DW_AT_bit_offset(0x00)
    1235                    .dwattr $C$DW$85, DW_AT_bit_size(0x06)
    1236                    .dwattr $C$DW$85, DW_AT_data_member_location[DW_OP_plus_uconst 0x0]
    1237                    .dwattr $C$DW$85, DW_AT_accessibility(DW_ACCESS_public)
    1238                    .dwattr $C$DW$85, DW_AT_decl_file("..\usart_comms.h")
    1239                    .dwattr $C$DW$85, DW_AT_decl_line(0x6a)
    1240                    .dwattr $C$DW$85, DW_AT_decl_column(0x0d)
    1241            
    1242            $C$DW$86        .dwtag  DW_TAG_member
    1243                    .dwattr $C$DW$86, DW_AT_type(*$C$DW$T$23)
    1244                    .dwattr $C$DW$86, DW_AT_name("UCIRRXFE")
    1245                    .dwattr $C$DW$86, DW_AT_TI_symbol_name("UCIRRXFE")
    1246                    .dwattr $C$DW$86, DW_AT_bit_offset(0x07)
    1247                    .dwattr $C$DW$86, DW_AT_bit_size(0x01)
    1248                    .dwattr $C$DW$86, DW_AT_data_member_location[DW_OP_plus_uconst 0x1]
    1249                    .dwattr $C$DW$86, DW_AT_accessibility(DW_ACCESS_public)
MSP430 Assembler PC v21.6.1 Tue Jan  3 09:51:30 2023

Copyright (c) 2003-2018 Texas Instruments Incorporated
main.asm                                                             PAGE   24

    1250                    .dwattr $C$DW$86, DW_AT_decl_file("..\usart_comms.h")
    1251                    .dwattr $C$DW$86, DW_AT_decl_line(0x6b)
    1252                    .dwattr $C$DW$86, DW_AT_decl_column(0x0d)
    1253            
    1254            $C$DW$87        .dwtag  DW_TAG_member
    1255                    .dwattr $C$DW$87, DW_AT_type(*$C$DW$T$23)
    1256                    .dwattr $C$DW$87, DW_AT_name("UCIRRXPL")
    1257                    .dwattr $C$DW$87, DW_AT_TI_symbol_name("UCIRRXPL")
    1258                    .dwattr $C$DW$87, DW_AT_bit_offset(0x06)
    1259                    .dwattr $C$DW$87, DW_AT_bit_size(0x01)
    1260                    .dwattr $C$DW$87, DW_AT_data_member_location[DW_OP_plus_uconst 0x1]
    1261                    .dwattr $C$DW$87, DW_AT_accessibility(DW_ACCESS_public)
    1262                    .dwattr $C$DW$87, DW_AT_decl_file("..\usart_comms.h")
    1263                    .dwattr $C$DW$87, DW_AT_decl_line(0x6c)
    1264                    .dwattr $C$DW$87, DW_AT_decl_column(0x0d)
    1265            
    1266            $C$DW$88        .dwtag  DW_TAG_member
    1267                    .dwattr $C$DW$88, DW_AT_type(*$C$DW$T$23)
    1268                    .dwattr $C$DW$88, DW_AT_name("UCIRRXFLx")
    1269                    .dwattr $C$DW$88, DW_AT_TI_symbol_name("UCIRRXFLx")
    1270                    .dwattr $C$DW$88, DW_AT_bit_offset(0x00)
    1271                    .dwattr $C$DW$88, DW_AT_bit_size(0x06)
    1272                    .dwattr $C$DW$88, DW_AT_data_member_location[DW_OP_plus_uconst 0x1]
    1273                    .dwattr $C$DW$88, DW_AT_accessibility(DW_ACCESS_public)
    1274                    .dwattr $C$DW$88, DW_AT_decl_file("..\usart_comms.h")
    1275                    .dwattr $C$DW$88, DW_AT_decl_line(0x6d)
    1276                    .dwattr $C$DW$88, DW_AT_decl_column(0x0d)
    1277            
    1278                    .dwattr $C$DW$T$36, DW_AT_decl_file("..\usart_comms.h")
    1279                    .dwattr $C$DW$T$36, DW_AT_decl_line(0x67)
    1280                    .dwattr $C$DW$T$36, DW_AT_decl_column(0x01)
    1281                    .dwendtag $C$DW$T$36
    1282            
    1283            $C$DW$T$47      .dwtag  DW_TAG_typedef
    1284                    .dwattr $C$DW$T$47, DW_AT_name("UCA0IRCTL_REG")
    1285                    .dwattr $C$DW$T$47, DW_AT_type(*$C$DW$T$36)
    1286                    .dwattr $C$DW$T$47, DW_AT_language(DW_LANG_C)
    1287                    .dwattr $C$DW$T$47, DW_AT_decl_file("..\usart_comms.h")
    1288                    .dwattr $C$DW$T$47, DW_AT_decl_line(0x6e)
    1289                    .dwattr $C$DW$T$47, DW_AT_decl_column(0x02)
    1290            
    1291            
    1292            $C$DW$T$37      .dwtag  DW_TAG_structure_type
    1293                    .dwattr $C$DW$T$37, DW_AT_byte_size(0x02)
    1294            $C$DW$89        .dwtag  DW_TAG_member
    1295                    .dwattr $C$DW$89, DW_AT_type(*$C$DW$T$26)
    1296                    .dwattr $C$DW$89, DW_AT_name("UCIVx")
    1297                    .dwattr $C$DW$89, DW_AT_TI_symbol_name("UCIVx")
    1298                    .dwattr $C$DW$89, DW_AT_bit_offset(0x00)
    1299                    .dwattr $C$DW$89, DW_AT_bit_size(0x10)
    1300                    .dwattr $C$DW$89, DW_AT_data_member_location[DW_OP_plus_uconst 0x0]
    1301                    .dwattr $C$DW$89, DW_AT_accessibility(DW_ACCESS_public)
    1302                    .dwattr $C$DW$89, DW_AT_decl_file("..\usart_comms.h")
    1303                    .dwattr $C$DW$89, DW_AT_decl_line(0x72)
    1304                    .dwattr $C$DW$89, DW_AT_decl_column(0x0e)
MSP430 Assembler PC v21.6.1 Tue Jan  3 09:51:30 2023

Copyright (c) 2003-2018 Texas Instruments Incorporated
main.asm                                                             PAGE   25

    1305            
    1306                    .dwattr $C$DW$T$37, DW_AT_decl_file("..\usart_comms.h")
    1307                    .dwattr $C$DW$T$37, DW_AT_decl_line(0x71)
    1308                    .dwattr $C$DW$T$37, DW_AT_decl_column(0x01)
    1309                    .dwendtag $C$DW$T$37
    1310            
    1311            $C$DW$T$50      .dwtag  DW_TAG_typedef
    1312                    .dwattr $C$DW$T$50, DW_AT_name("UCA0IV_REG")
    1313                    .dwattr $C$DW$T$50, DW_AT_type(*$C$DW$T$37)
    1314                    .dwattr $C$DW$T$50, DW_AT_language(DW_LANG_C)
    1315                    .dwattr $C$DW$T$50, DW_AT_decl_file("..\usart_comms.h")
    1316                    .dwattr $C$DW$T$50, DW_AT_decl_line(0x73)
    1317                    .dwattr $C$DW$T$50, DW_AT_decl_column(0x02)
    1318            
    1319            
    1320            $C$DW$T$38      .dwtag  DW_TAG_structure_type
    1321                    .dwattr $C$DW$T$38, DW_AT_byte_size(0x01)
    1322            $C$DW$90        .dwtag  DW_TAG_member
    1323                    .dwattr $C$DW$90, DW_AT_type(*$C$DW$T$23)
    1324                    .dwattr $C$DW$90, DW_AT_name("UCRXIFG")
    1325                    .dwattr $C$DW$90, DW_AT_TI_symbol_name("UCRXIFG")
    1326                    .dwattr $C$DW$90, DW_AT_bit_offset(0x07)
    1327                    .dwattr $C$DW$90, DW_AT_bit_size(0x01)
    1328                    .dwattr $C$DW$90, DW_AT_data_member_location[DW_OP_plus_uconst 0x0]
    1329                    .dwattr $C$DW$90, DW_AT_accessibility(DW_ACCESS_public)
    1330                    .dwattr $C$DW$90, DW_AT_decl_file("..\usart_comms.h")
    1331                    .dwattr $C$DW$90, DW_AT_decl_line(0x77)
    1332                    .dwattr $C$DW$90, DW_AT_decl_column(0x0d)
    1333            
    1334            $C$DW$91        .dwtag  DW_TAG_member
    1335                    .dwattr $C$DW$91, DW_AT_type(*$C$DW$T$23)
    1336                    .dwattr $C$DW$91, DW_AT_name("UCTXIFG")
    1337                    .dwattr $C$DW$91, DW_AT_TI_symbol_name("UCTXIFG")
    1338                    .dwattr $C$DW$91, DW_AT_bit_offset(0x06)
    1339                    .dwattr $C$DW$91, DW_AT_bit_size(0x01)
    1340                    .dwattr $C$DW$91, DW_AT_data_member_location[DW_OP_plus_uconst 0x0]
    1341                    .dwattr $C$DW$91, DW_AT_accessibility(DW_ACCESS_public)
    1342                    .dwattr $C$DW$91, DW_AT_decl_file("..\usart_comms.h")
    1343                    .dwattr $C$DW$91, DW_AT_decl_line(0x78)
    1344                    .dwattr $C$DW$91, DW_AT_decl_column(0x0d)
    1345            
    1346            $C$DW$92        .dwtag  DW_TAG_member
    1347                    .dwattr $C$DW$92, DW_AT_type(*$C$DW$T$23)
    1348                    .dwattr $C$DW$92, DW_AT_name("UCSTTIFG")
    1349                    .dwattr $C$DW$92, DW_AT_TI_symbol_name("UCSTTIFG")
    1350                    .dwattr $C$DW$92, DW_AT_bit_offset(0x05)
    1351                    .dwattr $C$DW$92, DW_AT_bit_size(0x01)
    1352                    .dwattr $C$DW$92, DW_AT_data_member_location[DW_OP_plus_uconst 0x0]
    1353                    .dwattr $C$DW$92, DW_AT_accessibility(DW_ACCESS_public)
    1354                    .dwattr $C$DW$92, DW_AT_decl_file("..\usart_comms.h")
    1355                    .dwattr $C$DW$92, DW_AT_decl_line(0x79)
    1356                    .dwattr $C$DW$92, DW_AT_decl_column(0x0d)
    1357            
    1358            $C$DW$93        .dwtag  DW_TAG_member
    1359                    .dwattr $C$DW$93, DW_AT_type(*$C$DW$T$23)
MSP430 Assembler PC v21.6.1 Tue Jan  3 09:51:30 2023

Copyright (c) 2003-2018 Texas Instruments Incorporated
main.asm                                                             PAGE   26

    1360                    .dwattr $C$DW$93, DW_AT_name("UCTXCPTIFG")
    1361                    .dwattr $C$DW$93, DW_AT_TI_symbol_name("UCTXCPTIFG")
    1362                    .dwattr $C$DW$93, DW_AT_bit_offset(0x04)
    1363                    .dwattr $C$DW$93, DW_AT_bit_size(0x01)
    1364                    .dwattr $C$DW$93, DW_AT_data_member_location[DW_OP_plus_uconst 0x0]
    1365                    .dwattr $C$DW$93, DW_AT_accessibility(DW_ACCESS_public)
    1366                    .dwattr $C$DW$93, DW_AT_decl_file("..\usart_comms.h")
    1367                    .dwattr $C$DW$93, DW_AT_decl_line(0x7a)
    1368                    .dwattr $C$DW$93, DW_AT_decl_column(0x0d)
    1369            
    1370                    .dwattr $C$DW$T$38, DW_AT_decl_file("..\usart_comms.h")
    1371                    .dwattr $C$DW$T$38, DW_AT_decl_line(0x76)
    1372                    .dwattr $C$DW$T$38, DW_AT_decl_column(0x01)
    1373                    .dwendtag $C$DW$T$38
    1374            
    1375            $C$DW$T$49      .dwtag  DW_TAG_typedef
    1376                    .dwattr $C$DW$T$49, DW_AT_name("UCA0IFG_REG")
    1377                    .dwattr $C$DW$T$49, DW_AT_type(*$C$DW$T$38)
    1378                    .dwattr $C$DW$T$49, DW_AT_language(DW_LANG_C)
    1379                    .dwattr $C$DW$T$49, DW_AT_decl_file("..\usart_comms.h")
    1380                    .dwattr $C$DW$T$49, DW_AT_decl_line(0x7b)
    1381                    .dwattr $C$DW$T$49, DW_AT_decl_column(0x02)
    1382            
    1383            
    1384            $C$DW$T$51      .dwtag  DW_TAG_structure_type
    1385                    .dwattr $C$DW$T$51, DW_AT_byte_size(0x16)
    1386            $C$DW$94        .dwtag  DW_TAG_member
    1387                    .dwattr $C$DW$94, DW_AT_type(*$C$DW$T$39)
    1388                    .dwattr $C$DW$94, DW_AT_name("CTLW0")
    1389                    .dwattr $C$DW$94, DW_AT_TI_symbol_name("CTLW0")
    1390                    .dwattr $C$DW$94, DW_AT_data_member_location[DW_OP_plus_uconst 0x0]
    1391                    .dwattr $C$DW$94, DW_AT_accessibility(DW_ACCESS_public)
    1392                    .dwattr $C$DW$94, DW_AT_decl_file("..\usart_comms.h")
    1393                    .dwattr $C$DW$94, DW_AT_decl_line(0x7f)
    1394                    .dwattr $C$DW$94, DW_AT_decl_column(0x13)
    1395            
    1396            $C$DW$95        .dwtag  DW_TAG_member
    1397                    .dwattr $C$DW$95, DW_AT_type(*$C$DW$T$40)
    1398                    .dwattr $C$DW$95, DW_AT_name("CLTW1")
    1399                    .dwattr $C$DW$95, DW_AT_TI_symbol_name("CLTW1")
    1400                    .dwattr $C$DW$95, DW_AT_data_member_location[DW_OP_plus_uconst 0x2]
    1401                    .dwattr $C$DW$95, DW_AT_accessibility(DW_ACCESS_public)
    1402                    .dwattr $C$DW$95, DW_AT_decl_file("..\usart_comms.h")
    1403                    .dwattr $C$DW$95, DW_AT_decl_line(0x80)
    1404                    .dwattr $C$DW$95, DW_AT_decl_column(0x13)
    1405            
    1406            $C$DW$96        .dwtag  DW_TAG_member
    1407                    .dwattr $C$DW$96, DW_AT_type(*$C$DW$T$41)
    1408                    .dwattr $C$DW$96, DW_AT_name("BRW")
    1409                    .dwattr $C$DW$96, DW_AT_TI_symbol_name("BRW")
    1410                    .dwattr $C$DW$96, DW_AT_data_member_location[DW_OP_plus_uconst 0x6]
    1411                    .dwattr $C$DW$96, DW_AT_accessibility(DW_ACCESS_public)
    1412                    .dwattr $C$DW$96, DW_AT_decl_file("..\usart_comms.h")
    1413                    .dwattr $C$DW$96, DW_AT_decl_line(0x81)
    1414                    .dwattr $C$DW$96, DW_AT_decl_column(0x13)
MSP430 Assembler PC v21.6.1 Tue Jan  3 09:51:30 2023

Copyright (c) 2003-2018 Texas Instruments Incorporated
main.asm                                                             PAGE   27

    1415            
    1416            $C$DW$97        .dwtag  DW_TAG_member
    1417                    .dwattr $C$DW$97, DW_AT_type(*$C$DW$T$42)
    1418                    .dwattr $C$DW$97, DW_AT_name("MCTLW")
    1419                    .dwattr $C$DW$97, DW_AT_TI_symbol_name("MCTLW")
    1420                    .dwattr $C$DW$97, DW_AT_data_member_location[DW_OP_plus_uconst 0x8]
    1421                    .dwattr $C$DW$97, DW_AT_accessibility(DW_ACCESS_public)
    1422                    .dwattr $C$DW$97, DW_AT_decl_file("..\usart_comms.h")
    1423                    .dwattr $C$DW$97, DW_AT_decl_line(0x82)
    1424                    .dwattr $C$DW$97, DW_AT_decl_column(0x13)
    1425            
    1426            $C$DW$98        .dwtag  DW_TAG_member
    1427                    .dwattr $C$DW$98, DW_AT_type(*$C$DW$T$43)
    1428                    .dwattr $C$DW$98, DW_AT_name("STATW")
    1429                    .dwattr $C$DW$98, DW_AT_TI_symbol_name("STATW")
    1430                    .dwattr $C$DW$98, DW_AT_data_member_location[DW_OP_plus_uconst 0xa]
    1431                    .dwattr $C$DW$98, DW_AT_accessibility(DW_ACCESS_public)
    1432                    .dwattr $C$DW$98, DW_AT_decl_file("..\usart_comms.h")
    1433                    .dwattr $C$DW$98, DW_AT_decl_line(0x83)
    1434                    .dwattr $C$DW$98, DW_AT_decl_column(0x13)
    1435            
    1436            $C$DW$99        .dwtag  DW_TAG_member
    1437                    .dwattr $C$DW$99, DW_AT_type(*$C$DW$T$44)
    1438                    .dwattr $C$DW$99, DW_AT_name("RXBUF")
    1439                    .dwattr $C$DW$99, DW_AT_TI_symbol_name("RXBUF")
    1440                    .dwattr $C$DW$99, DW_AT_data_member_location[DW_OP_plus_uconst 0xc]
    1441                    .dwattr $C$DW$99, DW_AT_accessibility(DW_ACCESS_public)
    1442                    .dwattr $C$DW$99, DW_AT_decl_file("..\usart_comms.h")
    1443                    .dwattr $C$DW$99, DW_AT_decl_line(0x84)
    1444                    .dwattr $C$DW$99, DW_AT_decl_column(0x13)
    1445            
    1446            $C$DW$100       .dwtag  DW_TAG_member
    1447                    .dwattr $C$DW$100, DW_AT_type(*$C$DW$T$45)
    1448                    .dwattr $C$DW$100, DW_AT_name("TXBUF")
    1449                    .dwattr $C$DW$100, DW_AT_TI_symbol_name("TXBUF")
    1450                    .dwattr $C$DW$100, DW_AT_data_member_location[DW_OP_plus_uconst 0xd]
    1451                    .dwattr $C$DW$100, DW_AT_accessibility(DW_ACCESS_public)
    1452                    .dwattr $C$DW$100, DW_AT_decl_file("..\usart_comms.h")
    1453                    .dwattr $C$DW$100, DW_AT_decl_line(0x85)
    1454                    .dwattr $C$DW$100, DW_AT_decl_column(0x13)
    1455            
    1456            $C$DW$101       .dwtag  DW_TAG_member
    1457                    .dwattr $C$DW$101, DW_AT_type(*$C$DW$T$46)
    1458                    .dwattr $C$DW$101, DW_AT_name("ABCTL")
    1459                    .dwattr $C$DW$101, DW_AT_TI_symbol_name("ABCTL")
    1460                    .dwattr $C$DW$101, DW_AT_data_member_location[DW_OP_plus_uconst 0xe]
    1461                    .dwattr $C$DW$101, DW_AT_accessibility(DW_ACCESS_public)
    1462                    .dwattr $C$DW$101, DW_AT_decl_file("..\usart_comms.h")
    1463                    .dwattr $C$DW$101, DW_AT_decl_line(0x86)
    1464                    .dwattr $C$DW$101, DW_AT_decl_column(0x13)
    1465            
    1466            $C$DW$102       .dwtag  DW_TAG_member
    1467                    .dwattr $C$DW$102, DW_AT_type(*$C$DW$T$47)
    1468                    .dwattr $C$DW$102, DW_AT_name("IRCTL")
    1469                    .dwattr $C$DW$102, DW_AT_TI_symbol_name("IRCTL")
MSP430 Assembler PC v21.6.1 Tue Jan  3 09:51:30 2023

Copyright (c) 2003-2018 Texas Instruments Incorporated
main.asm                                                             PAGE   28

    1470                    .dwattr $C$DW$102, DW_AT_data_member_location[DW_OP_plus_uconst 0x10]
    1471                    .dwattr $C$DW$102, DW_AT_accessibility(DW_ACCESS_public)
    1472                    .dwattr $C$DW$102, DW_AT_decl_file("..\usart_comms.h")
    1473                    .dwattr $C$DW$102, DW_AT_decl_line(0x87)
    1474                    .dwattr $C$DW$102, DW_AT_decl_column(0x13)
    1475            
    1476            $C$DW$103       .dwtag  DW_TAG_member
    1477                    .dwattr $C$DW$103, DW_AT_type(*$C$DW$T$48)
    1478                    .dwattr $C$DW$103, DW_AT_name("IE")
    1479                    .dwattr $C$DW$103, DW_AT_TI_symbol_name("IE")
    1480                    .dwattr $C$DW$103, DW_AT_data_member_location[DW_OP_plus_uconst 0x12]
    1481                    .dwattr $C$DW$103, DW_AT_accessibility(DW_ACCESS_public)
    1482                    .dwattr $C$DW$103, DW_AT_decl_file("..\usart_comms.h")
    1483                    .dwattr $C$DW$103, DW_AT_decl_line(0x88)
    1484                    .dwattr $C$DW$103, DW_AT_decl_column(0x13)
    1485            
    1486            $C$DW$104       .dwtag  DW_TAG_member
    1487                    .dwattr $C$DW$104, DW_AT_type(*$C$DW$T$49)
    1488                    .dwattr $C$DW$104, DW_AT_name("IFG")
    1489                    .dwattr $C$DW$104, DW_AT_TI_symbol_name("IFG")
    1490                    .dwattr $C$DW$104, DW_AT_data_member_location[DW_OP_plus_uconst 0x13]
    1491                    .dwattr $C$DW$104, DW_AT_accessibility(DW_ACCESS_public)
    1492                    .dwattr $C$DW$104, DW_AT_decl_file("..\usart_comms.h")
    1493                    .dwattr $C$DW$104, DW_AT_decl_line(0x89)
    1494                    .dwattr $C$DW$104, DW_AT_decl_column(0x13)
    1495            
    1496            $C$DW$105       .dwtag  DW_TAG_member
    1497                    .dwattr $C$DW$105, DW_AT_type(*$C$DW$T$50)
    1498                    .dwattr $C$DW$105, DW_AT_name("IV")
    1499                    .dwattr $C$DW$105, DW_AT_TI_symbol_name("IV")
    1500                    .dwattr $C$DW$105, DW_AT_data_member_location[DW_OP_plus_uconst 0x14]
    1501                    .dwattr $C$DW$105, DW_AT_accessibility(DW_ACCESS_public)
    1502                    .dwattr $C$DW$105, DW_AT_decl_file("..\usart_comms.h")
    1503                    .dwattr $C$DW$105, DW_AT_decl_line(0x8a)
    1504                    .dwattr $C$DW$105, DW_AT_decl_column(0x13)
    1505            
    1506                    .dwattr $C$DW$T$51, DW_AT_decl_file("..\usart_comms.h")
    1507                    .dwattr $C$DW$T$51, DW_AT_decl_line(0x7e)
    1508                    .dwattr $C$DW$T$51, DW_AT_decl_column(0x01)
    1509                    .dwendtag $C$DW$T$51
    1510            
    1511            $C$DW$T$80      .dwtag  DW_TAG_typedef
    1512                    .dwattr $C$DW$T$80, DW_AT_name("USART_REGs")
    1513                    .dwattr $C$DW$T$80, DW_AT_type(*$C$DW$T$51)
    1514                    .dwattr $C$DW$T$80, DW_AT_language(DW_LANG_C)
    1515                    .dwattr $C$DW$T$80, DW_AT_decl_file("..\usart_comms.h")
    1516                    .dwattr $C$DW$T$80, DW_AT_decl_line(0x8b)
    1517                    .dwattr $C$DW$T$80, DW_AT_decl_column(0x02)
    1518            
    1519            
    1520            $C$DW$T$52      .dwtag  DW_TAG_structure_type
    1521                    .dwattr $C$DW$T$52, DW_AT_name("CS_initFLLParam")
    1522                    .dwattr $C$DW$T$52, DW_AT_byte_size(0x06)
    1523            $C$DW$106       .dwtag  DW_TAG_member
    1524                    .dwattr $C$DW$106, DW_AT_type(*$C$DW$T$26)
MSP430 Assembler PC v21.6.1 Tue Jan  3 09:51:30 2023

Copyright (c) 2003-2018 Texas Instruments Incorporated
main.asm                                                             PAGE   29

    1525                    .dwattr $C$DW$106, DW_AT_name("csCtl0")
    1526                    .dwattr $C$DW$106, DW_AT_TI_symbol_name("csCtl0")
    1527                    .dwattr $C$DW$106, DW_AT_data_member_location[DW_OP_plus_uconst 0x0]
    1528                    .dwattr $C$DW$106, DW_AT_accessibility(DW_ACCESS_public)
    1529                    .dwattr $C$DW$106, DW_AT_decl_file("C:\ccs_challengespace\MSP430_LCD_display\driverlib\MSP430F
    1530                    .dwattr $C$DW$106, DW_AT_decl_line(0x22)
    1531                    .dwattr $C$DW$106, DW_AT_decl_column(0x0e)
    1532            
    1533            $C$DW$107       .dwtag  DW_TAG_member
    1534                    .dwattr $C$DW$107, DW_AT_type(*$C$DW$T$26)
    1535                    .dwattr $C$DW$107, DW_AT_name("csCtl1")
    1536                    .dwattr $C$DW$107, DW_AT_TI_symbol_name("csCtl1")
    1537                    .dwattr $C$DW$107, DW_AT_data_member_location[DW_OP_plus_uconst 0x2]
    1538                    .dwattr $C$DW$107, DW_AT_accessibility(DW_ACCESS_public)
    1539                    .dwattr $C$DW$107, DW_AT_decl_file("C:\ccs_challengespace\MSP430_LCD_display\driverlib\MSP430F
    1540                    .dwattr $C$DW$107, DW_AT_decl_line(0x24)
    1541                    .dwattr $C$DW$107, DW_AT_decl_column(0x0e)
    1542            
    1543            $C$DW$108       .dwtag  DW_TAG_member
    1544                    .dwattr $C$DW$108, DW_AT_type(*$C$DW$T$26)
    1545                    .dwattr $C$DW$108, DW_AT_name("fsystem")
    1546                    .dwattr $C$DW$108, DW_AT_TI_symbol_name("fsystem")
    1547                    .dwattr $C$DW$108, DW_AT_data_member_location[DW_OP_plus_uconst 0x4]
    1548                    .dwattr $C$DW$108, DW_AT_accessibility(DW_ACCESS_public)
    1549                    .dwattr $C$DW$108, DW_AT_decl_file("C:\ccs_challengespace\MSP430_LCD_display\driverlib\MSP430F
    1550                    .dwattr $C$DW$108, DW_AT_decl_line(0x26)
    1551                    .dwattr $C$DW$108, DW_AT_decl_column(0x0e)
    1552            
    1553                    .dwattr $C$DW$T$52, DW_AT_decl_file("C:\ccs_challengespace\MSP430_LCD_display\driverlib\MSP430
    1554                    .dwattr $C$DW$T$52, DW_AT_decl_line(0x20)
    1555                    .dwattr $C$DW$T$52, DW_AT_decl_column(0x10)
    1556                    .dwendtag $C$DW$T$52
    1557            
    1558            $C$DW$T$81      .dwtag  DW_TAG_typedef
    1559                    .dwattr $C$DW$T$81, DW_AT_name("CS_initFLLParam")
    1560                    .dwattr $C$DW$T$81, DW_AT_type(*$C$DW$T$52)
    1561                    .dwattr $C$DW$T$81, DW_AT_language(DW_LANG_C)
    1562                    .dwattr $C$DW$T$81, DW_AT_decl_file("C:\ccs_challengespace\MSP430_LCD_display\driverlib\MSP430
    1563                    .dwattr $C$DW$T$81, DW_AT_decl_line(0x27)
    1564                    .dwattr $C$DW$T$81, DW_AT_decl_column(0x03)
    1565            
    1566            
    1567            $C$DW$T$55      .dwtag  DW_TAG_structure_type
    1568                    .dwattr $C$DW$T$55, DW_AT_name("EUSCI_A_SPI_changeMasterClockParam")
    1569                    .dwattr $C$DW$T$55, DW_AT_byte_size(0x08)
    1570            $C$DW$109       .dwtag  DW_TAG_member
    1571                    .dwattr $C$DW$109, DW_AT_type(*$C$DW$T$54)
    1572                    .dwattr $C$DW$109, DW_AT_name("clockSourceFrequency")
    1573                    .dwattr $C$DW$109, DW_AT_TI_symbol_name("clockSourceFrequency")
    1574                    .dwattr $C$DW$109, DW_AT_data_member_location[DW_OP_plus_uconst 0x0]
    1575                    .dwattr $C$DW$109, DW_AT_accessibility(DW_ACCESS_public)
    1576                    .dwattr $C$DW$109, DW_AT_decl_file("C:\ccs_challengespace\MSP430_LCD_display\driverlib\MSP430F
    1577                    .dwattr $C$DW$109, DW_AT_decl_line(0x22)
    1578                    .dwattr $C$DW$109, DW_AT_decl_column(0x0e)
    1579            
MSP430 Assembler PC v21.6.1 Tue Jan  3 09:51:30 2023

Copyright (c) 2003-2018 Texas Instruments Incorporated
main.asm                                                             PAGE   30

    1580            $C$DW$110       .dwtag  DW_TAG_member
    1581                    .dwattr $C$DW$110, DW_AT_type(*$C$DW$T$54)
    1582                    .dwattr $C$DW$110, DW_AT_name("desiredSpiClock")
    1583                    .dwattr $C$DW$110, DW_AT_TI_symbol_name("desiredSpiClock")
    1584                    .dwattr $C$DW$110, DW_AT_data_member_location[DW_OP_plus_uconst 0x4]
    1585                    .dwattr $C$DW$110, DW_AT_accessibility(DW_ACCESS_public)
    1586                    .dwattr $C$DW$110, DW_AT_decl_file("C:\ccs_challengespace\MSP430_LCD_display\driverlib\MSP430F
    1587                    .dwattr $C$DW$110, DW_AT_decl_line(0x24)
    1588                    .dwattr $C$DW$110, DW_AT_decl_column(0x0e)
    1589            
    1590                    .dwattr $C$DW$T$55, DW_AT_decl_file("C:\ccs_challengespace\MSP430_LCD_display\driverlib\MSP430
    1591                    .dwattr $C$DW$T$55, DW_AT_decl_line(0x20)
    1592                    .dwattr $C$DW$T$55, DW_AT_decl_column(0x10)
    1593                    .dwendtag $C$DW$T$55
    1594            
    1595            $C$DW$T$82      .dwtag  DW_TAG_typedef
    1596                    .dwattr $C$DW$T$82, DW_AT_name("EUSCI_A_SPI_changeMasterClockParam")
    1597                    .dwattr $C$DW$T$82, DW_AT_type(*$C$DW$T$55)
    1598                    .dwattr $C$DW$T$82, DW_AT_language(DW_LANG_C)
    1599                    .dwattr $C$DW$T$82, DW_AT_decl_file("C:\ccs_challengespace\MSP430_LCD_display\driverlib\MSP430
    1600                    .dwattr $C$DW$T$82, DW_AT_decl_line(0x25)
    1601                    .dwattr $C$DW$T$82, DW_AT_decl_column(0x03)
    1602            
    1603            
    1604            $C$DW$T$56      .dwtag  DW_TAG_structure_type
    1605                    .dwattr $C$DW$T$56, DW_AT_name("EUSCI_A_SPI_initMasterParam")
    1606                    .dwattr $C$DW$T$56, DW_AT_byte_size(0x12)
    1607            $C$DW$111       .dwtag  DW_TAG_member
    1608                    .dwattr $C$DW$111, DW_AT_type(*$C$DW$T$23)
    1609                    .dwattr $C$DW$111, DW_AT_name("selectClockSource")
    1610                    .dwattr $C$DW$111, DW_AT_TI_symbol_name("selectClockSource")
    1611                    .dwattr $C$DW$111, DW_AT_data_member_location[DW_OP_plus_uconst 0x0]
    1612                    .dwattr $C$DW$111, DW_AT_accessibility(DW_ACCESS_public)
    1613                    .dwattr $C$DW$111, DW_AT_decl_file("C:\ccs_challengespace\MSP430_LCD_display\driverlib\MSP430F
    1614                    .dwattr $C$DW$111, DW_AT_decl_line(0x52)
    1615                    .dwattr $C$DW$111, DW_AT_decl_column(0x0d)
    1616            
    1617            $C$DW$112       .dwtag  DW_TAG_member
    1618                    .dwattr $C$DW$112, DW_AT_type(*$C$DW$T$54)
    1619                    .dwattr $C$DW$112, DW_AT_name("clockSourceFrequency")
    1620                    .dwattr $C$DW$112, DW_AT_TI_symbol_name("clockSourceFrequency")
    1621                    .dwattr $C$DW$112, DW_AT_data_member_location[DW_OP_plus_uconst 0x2]
    1622                    .dwattr $C$DW$112, DW_AT_accessibility(DW_ACCESS_public)
    1623                    .dwattr $C$DW$112, DW_AT_decl_file("C:\ccs_challengespace\MSP430_LCD_display\driverlib\MSP430F
    1624                    .dwattr $C$DW$112, DW_AT_decl_line(0x54)
    1625                    .dwattr $C$DW$112, DW_AT_decl_column(0x0e)
    1626            
    1627            $C$DW$113       .dwtag  DW_TAG_member
    1628                    .dwattr $C$DW$113, DW_AT_type(*$C$DW$T$54)
    1629                    .dwattr $C$DW$113, DW_AT_name("desiredSpiClock")
    1630                    .dwattr $C$DW$113, DW_AT_TI_symbol_name("desiredSpiClock")
    1631                    .dwattr $C$DW$113, DW_AT_data_member_location[DW_OP_plus_uconst 0x6]
    1632                    .dwattr $C$DW$113, DW_AT_accessibility(DW_ACCESS_public)
    1633                    .dwattr $C$DW$113, DW_AT_decl_file("C:\ccs_challengespace\MSP430_LCD_display\driverlib\MSP430F
    1634                    .dwattr $C$DW$113, DW_AT_decl_line(0x56)
MSP430 Assembler PC v21.6.1 Tue Jan  3 09:51:30 2023

Copyright (c) 2003-2018 Texas Instruments Incorporated
main.asm                                                             PAGE   31

    1635                    .dwattr $C$DW$113, DW_AT_decl_column(0x0e)
    1636            
    1637            $C$DW$114       .dwtag  DW_TAG_member
    1638                    .dwattr $C$DW$114, DW_AT_type(*$C$DW$T$26)
    1639                    .dwattr $C$DW$114, DW_AT_name("msbFirst")
    1640                    .dwattr $C$DW$114, DW_AT_TI_symbol_name("msbFirst")
    1641                    .dwattr $C$DW$114, DW_AT_data_member_location[DW_OP_plus_uconst 0xa]
    1642                    .dwattr $C$DW$114, DW_AT_accessibility(DW_ACCESS_public)
    1643                    .dwattr $C$DW$114, DW_AT_decl_file("C:\ccs_challengespace\MSP430_LCD_display\driverlib\MSP430F
    1644                    .dwattr $C$DW$114, DW_AT_decl_line(0x5b)
    1645                    .dwattr $C$DW$114, DW_AT_decl_column(0x0e)
    1646            
    1647            $C$DW$115       .dwtag  DW_TAG_member
    1648                    .dwattr $C$DW$115, DW_AT_type(*$C$DW$T$26)
    1649                    .dwattr $C$DW$115, DW_AT_name("clockPhase")
    1650                    .dwattr $C$DW$115, DW_AT_TI_symbol_name("clockPhase")
    1651                    .dwattr $C$DW$115, DW_AT_data_member_location[DW_OP_plus_uconst 0xc]
    1652                    .dwattr $C$DW$115, DW_AT_accessibility(DW_ACCESS_public)
    1653                    .dwattr $C$DW$115, DW_AT_decl_file("C:\ccs_challengespace\MSP430_LCD_display\driverlib\MSP430F
    1654                    .dwattr $C$DW$115, DW_AT_decl_line(0x60)
    1655                    .dwattr $C$DW$115, DW_AT_decl_column(0x0e)
    1656            
    1657            $C$DW$116       .dwtag  DW_TAG_member
    1658                    .dwattr $C$DW$116, DW_AT_type(*$C$DW$T$26)
    1659                    .dwattr $C$DW$116, DW_AT_name("clockPolarity")
    1660                    .dwattr $C$DW$116, DW_AT_TI_symbol_name("clockPolarity")
    1661                    .dwattr $C$DW$116, DW_AT_data_member_location[DW_OP_plus_uconst 0xe]
    1662                    .dwattr $C$DW$116, DW_AT_accessibility(DW_ACCESS_public)
    1663                    .dwattr $C$DW$116, DW_AT_decl_file("C:\ccs_challengespace\MSP430_LCD_display\driverlib\MSP430F
    1664                    .dwattr $C$DW$116, DW_AT_decl_line(0x65)
    1665                    .dwattr $C$DW$116, DW_AT_decl_column(0x0e)
    1666            
    1667            $C$DW$117       .dwtag  DW_TAG_member
    1668                    .dwattr $C$DW$117, DW_AT_type(*$C$DW$T$26)
    1669                    .dwattr $C$DW$117, DW_AT_name("spiMode")
    1670                    .dwattr $C$DW$117, DW_AT_TI_symbol_name("spiMode")
    1671                    .dwattr $C$DW$117, DW_AT_data_member_location[DW_OP_plus_uconst 0x10]
    1672                    .dwattr $C$DW$117, DW_AT_accessibility(DW_ACCESS_public)
    1673                    .dwattr $C$DW$117, DW_AT_decl_file("C:\ccs_challengespace\MSP430_LCD_display\driverlib\MSP430F
    1674                    .dwattr $C$DW$117, DW_AT_decl_line(0x6b)
    1675                    .dwattr $C$DW$117, DW_AT_decl_column(0x0e)
    1676            
    1677                    .dwattr $C$DW$T$56, DW_AT_decl_file("C:\ccs_challengespace\MSP430_LCD_display\driverlib\MSP430
    1678                    .dwattr $C$DW$T$56, DW_AT_decl_line(0x4a)
    1679                    .dwattr $C$DW$T$56, DW_AT_decl_column(0x10)
    1680                    .dwendtag $C$DW$T$56
    1681            
    1682            $C$DW$T$83      .dwtag  DW_TAG_typedef
    1683                    .dwattr $C$DW$T$83, DW_AT_name("EUSCI_A_SPI_initMasterParam")
    1684                    .dwattr $C$DW$T$83, DW_AT_type(*$C$DW$T$56)
    1685                    .dwattr $C$DW$T$83, DW_AT_language(DW_LANG_C)
    1686                    .dwattr $C$DW$T$83, DW_AT_decl_file("C:\ccs_challengespace\MSP430_LCD_display\driverlib\MSP430
    1687                    .dwattr $C$DW$T$83, DW_AT_decl_line(0x6c)
    1688                    .dwattr $C$DW$T$83, DW_AT_decl_column(0x03)
    1689            
MSP430 Assembler PC v21.6.1 Tue Jan  3 09:51:30 2023

Copyright (c) 2003-2018 Texas Instruments Incorporated
main.asm                                                             PAGE   32

    1690            
    1691            $C$DW$T$57      .dwtag  DW_TAG_structure_type
    1692                    .dwattr $C$DW$T$57, DW_AT_name("EUSCI_A_SPI_initSlaveParam")
    1693                    .dwattr $C$DW$T$57, DW_AT_byte_size(0x08)
    1694            $C$DW$118       .dwtag  DW_TAG_member
    1695                    .dwattr $C$DW$118, DW_AT_type(*$C$DW$T$26)
    1696                    .dwattr $C$DW$118, DW_AT_name("msbFirst")
    1697                    .dwattr $C$DW$118, DW_AT_TI_symbol_name("msbFirst")
    1698                    .dwattr $C$DW$118, DW_AT_data_member_location[DW_OP_plus_uconst 0x0]
    1699                    .dwattr $C$DW$118, DW_AT_accessibility(DW_ACCESS_public)
    1700                    .dwattr $C$DW$118, DW_AT_decl_file("C:\ccs_challengespace\MSP430_LCD_display\driverlib\MSP430F
    1701                    .dwattr $C$DW$118, DW_AT_decl_line(0x31)
    1702                    .dwattr $C$DW$118, DW_AT_decl_column(0x0e)
    1703            
    1704            $C$DW$119       .dwtag  DW_TAG_member
    1705                    .dwattr $C$DW$119, DW_AT_type(*$C$DW$T$26)
    1706                    .dwattr $C$DW$119, DW_AT_name("clockPhase")
    1707                    .dwattr $C$DW$119, DW_AT_TI_symbol_name("clockPhase")
    1708                    .dwattr $C$DW$119, DW_AT_data_member_location[DW_OP_plus_uconst 0x2]
    1709                    .dwattr $C$DW$119, DW_AT_accessibility(DW_ACCESS_public)
    1710                    .dwattr $C$DW$119, DW_AT_decl_file("C:\ccs_challengespace\MSP430_LCD_display\driverlib\MSP430F
    1711                    .dwattr $C$DW$119, DW_AT_decl_line(0x36)
    1712                    .dwattr $C$DW$119, DW_AT_decl_column(0x0e)
    1713            
    1714            $C$DW$120       .dwtag  DW_TAG_member
    1715                    .dwattr $C$DW$120, DW_AT_type(*$C$DW$T$26)
    1716                    .dwattr $C$DW$120, DW_AT_name("clockPolarity")
    1717                    .dwattr $C$DW$120, DW_AT_TI_symbol_name("clockPolarity")
    1718                    .dwattr $C$DW$120, DW_AT_data_member_location[DW_OP_plus_uconst 0x4]
    1719                    .dwattr $C$DW$120, DW_AT_accessibility(DW_ACCESS_public)
    1720                    .dwattr $C$DW$120, DW_AT_decl_file("C:\ccs_challengespace\MSP430_LCD_display\driverlib\MSP430F
    1721                    .dwattr $C$DW$120, DW_AT_decl_line(0x3b)
    1722                    .dwattr $C$DW$120, DW_AT_decl_column(0x0e)
    1723            
    1724            $C$DW$121       .dwtag  DW_TAG_member
    1725                    .dwattr $C$DW$121, DW_AT_type(*$C$DW$T$26)
    1726                    .dwattr $C$DW$121, DW_AT_name("spiMode")
    1727                    .dwattr $C$DW$121, DW_AT_TI_symbol_name("spiMode")
    1728                    .dwattr $C$DW$121, DW_AT_data_member_location[DW_OP_plus_uconst 0x6]
    1729                    .dwattr $C$DW$121, DW_AT_accessibility(DW_ACCESS_public)
    1730                    .dwattr $C$DW$121, DW_AT_decl_file("C:\ccs_challengespace\MSP430_LCD_display\driverlib\MSP430F
    1731                    .dwattr $C$DW$121, DW_AT_decl_line(0x41)
    1732                    .dwattr $C$DW$121, DW_AT_decl_column(0x0e)
    1733            
    1734                    .dwattr $C$DW$T$57, DW_AT_decl_file("C:\ccs_challengespace\MSP430_LCD_display\driverlib\MSP430
    1735                    .dwattr $C$DW$T$57, DW_AT_decl_line(0x2c)
    1736                    .dwattr $C$DW$T$57, DW_AT_decl_column(0x10)
    1737                    .dwendtag $C$DW$T$57
    1738            
    1739            $C$DW$T$84      .dwtag  DW_TAG_typedef
    1740                    .dwattr $C$DW$T$84, DW_AT_name("EUSCI_A_SPI_initSlaveParam")
    1741                    .dwattr $C$DW$T$84, DW_AT_type(*$C$DW$T$57)
    1742                    .dwattr $C$DW$T$84, DW_AT_language(DW_LANG_C)
    1743                    .dwattr $C$DW$T$84, DW_AT_decl_file("C:\ccs_challengespace\MSP430_LCD_display\driverlib\MSP430
    1744                    .dwattr $C$DW$T$84, DW_AT_decl_line(0x42)
MSP430 Assembler PC v21.6.1 Tue Jan  3 09:51:30 2023

Copyright (c) 2003-2018 Texas Instruments Incorporated
main.asm                                                             PAGE   33

    1745                    .dwattr $C$DW$T$84, DW_AT_decl_column(0x03)
    1746            
    1747            
    1748            $C$DW$T$58      .dwtag  DW_TAG_structure_type
    1749                    .dwattr $C$DW$T$58, DW_AT_name("EUSCI_A_UART_initParam")
    1750                    .dwattr $C$DW$T$58, DW_AT_byte_size(0x10)
    1751            $C$DW$122       .dwtag  DW_TAG_member
    1752                    .dwattr $C$DW$122, DW_AT_type(*$C$DW$T$23)
    1753                    .dwattr $C$DW$122, DW_AT_name("selectClockSource")
    1754                    .dwattr $C$DW$122, DW_AT_TI_symbol_name("selectClockSource")
    1755                    .dwattr $C$DW$122, DW_AT_data_member_location[DW_OP_plus_uconst 0x0]
    1756                    .dwattr $C$DW$122, DW_AT_accessibility(DW_ACCESS_public)
    1757                    .dwattr $C$DW$122, DW_AT_decl_file("C:\ccs_challengespace\MSP430_LCD_display\driverlib\MSP430F
    1758                    .dwattr $C$DW$122, DW_AT_decl_line(0x2f)
    1759                    .dwattr $C$DW$122, DW_AT_decl_column(0x0d)
    1760            
    1761            $C$DW$123       .dwtag  DW_TAG_member
    1762                    .dwattr $C$DW$123, DW_AT_type(*$C$DW$T$26)
    1763                    .dwattr $C$DW$123, DW_AT_name("clockPrescalar")
    1764                    .dwattr $C$DW$123, DW_AT_TI_symbol_name("clockPrescalar")
    1765                    .dwattr $C$DW$123, DW_AT_data_member_location[DW_OP_plus_uconst 0x2]
    1766                    .dwattr $C$DW$123, DW_AT_accessibility(DW_ACCESS_public)
    1767                    .dwattr $C$DW$123, DW_AT_decl_file("C:\ccs_challengespace\MSP430_LCD_display\driverlib\MSP430F
    1768                    .dwattr $C$DW$123, DW_AT_decl_line(0x31)
    1769                    .dwattr $C$DW$123, DW_AT_decl_column(0x0e)
    1770            
    1771            $C$DW$124       .dwtag  DW_TAG_member
    1772                    .dwattr $C$DW$124, DW_AT_type(*$C$DW$T$23)
    1773                    .dwattr $C$DW$124, DW_AT_name("firstModReg")
    1774                    .dwattr $C$DW$124, DW_AT_TI_symbol_name("firstModReg")
    1775                    .dwattr $C$DW$124, DW_AT_data_member_location[DW_OP_plus_uconst 0x4]
    1776                    .dwattr $C$DW$124, DW_AT_accessibility(DW_ACCESS_public)
    1777                    .dwattr $C$DW$124, DW_AT_decl_file("C:\ccs_challengespace\MSP430_LCD_display\driverlib\MSP430F
    1778                    .dwattr $C$DW$124, DW_AT_decl_line(0x35)
    1779                    .dwattr $C$DW$124, DW_AT_decl_column(0x0d)
    1780            
    1781            $C$DW$125       .dwtag  DW_TAG_member
    1782                    .dwattr $C$DW$125, DW_AT_type(*$C$DW$T$23)
    1783                    .dwattr $C$DW$125, DW_AT_name("secondModReg")
    1784                    .dwattr $C$DW$125, DW_AT_TI_symbol_name("secondModReg")
    1785                    .dwattr $C$DW$125, DW_AT_data_member_location[DW_OP_plus_uconst 0x5]
    1786                    .dwattr $C$DW$125, DW_AT_accessibility(DW_ACCESS_public)
    1787                    .dwattr $C$DW$125, DW_AT_decl_file("C:\ccs_challengespace\MSP430_LCD_display\driverlib\MSP430F
    1788                    .dwattr $C$DW$125, DW_AT_decl_line(0x39)
    1789                    .dwattr $C$DW$125, DW_AT_decl_column(0x0d)
    1790            
    1791            $C$DW$126       .dwtag  DW_TAG_member
    1792                    .dwattr $C$DW$126, DW_AT_type(*$C$DW$T$23)
    1793                    .dwattr $C$DW$126, DW_AT_name("parity")
    1794                    .dwattr $C$DW$126, DW_AT_TI_symbol_name("parity")
    1795                    .dwattr $C$DW$126, DW_AT_data_member_location[DW_OP_plus_uconst 0x6]
    1796                    .dwattr $C$DW$126, DW_AT_accessibility(DW_ACCESS_public)
    1797                    .dwattr $C$DW$126, DW_AT_decl_file("C:\ccs_challengespace\MSP430_LCD_display\driverlib\MSP430F
    1798                    .dwattr $C$DW$126, DW_AT_decl_line(0x3f)
    1799                    .dwattr $C$DW$126, DW_AT_decl_column(0x0d)
MSP430 Assembler PC v21.6.1 Tue Jan  3 09:51:30 2023

Copyright (c) 2003-2018 Texas Instruments Incorporated
main.asm                                                             PAGE   34

    1800            
    1801            $C$DW$127       .dwtag  DW_TAG_member
    1802                    .dwattr $C$DW$127, DW_AT_type(*$C$DW$T$26)
    1803                    .dwattr $C$DW$127, DW_AT_name("msborLsbFirst")
    1804                    .dwattr $C$DW$127, DW_AT_TI_symbol_name("msborLsbFirst")
    1805                    .dwattr $C$DW$127, DW_AT_data_member_location[DW_OP_plus_uconst 0x8]
    1806                    .dwattr $C$DW$127, DW_AT_accessibility(DW_ACCESS_public)
    1807                    .dwattr $C$DW$127, DW_AT_decl_file("C:\ccs_challengespace\MSP430_LCD_display\driverlib\MSP430F
    1808                    .dwattr $C$DW$127, DW_AT_decl_line(0x44)
    1809                    .dwattr $C$DW$127, DW_AT_decl_column(0x0e)
    1810            
    1811            $C$DW$128       .dwtag  DW_TAG_member
    1812                    .dwattr $C$DW$128, DW_AT_type(*$C$DW$T$26)
    1813                    .dwattr $C$DW$128, DW_AT_name("numberofStopBits")
    1814                    .dwattr $C$DW$128, DW_AT_TI_symbol_name("numberofStopBits")
    1815                    .dwattr $C$DW$128, DW_AT_data_member_location[DW_OP_plus_uconst 0xa]
    1816                    .dwattr $C$DW$128, DW_AT_accessibility(DW_ACCESS_public)
    1817                    .dwattr $C$DW$128, DW_AT_decl_file("C:\ccs_challengespace\MSP430_LCD_display\driverlib\MSP430F
    1818                    .dwattr $C$DW$128, DW_AT_decl_line(0x49)
    1819                    .dwattr $C$DW$128, DW_AT_decl_column(0x0e)
    1820            
    1821            $C$DW$129       .dwtag  DW_TAG_member
    1822                    .dwattr $C$DW$129, DW_AT_type(*$C$DW$T$26)
    1823                    .dwattr $C$DW$129, DW_AT_name("uartMode")
    1824                    .dwattr $C$DW$129, DW_AT_TI_symbol_name("uartMode")
    1825                    .dwattr $C$DW$129, DW_AT_data_member_location[DW_OP_plus_uconst 0xc]
    1826                    .dwattr $C$DW$129, DW_AT_accessibility(DW_ACCESS_public)
    1827                    .dwattr $C$DW$129, DW_AT_decl_file("C:\ccs_challengespace\MSP430_LCD_display\driverlib\MSP430F
    1828                    .dwattr $C$DW$129, DW_AT_decl_line(0x50)
    1829                    .dwattr $C$DW$129, DW_AT_decl_column(0x0e)
    1830            
    1831            $C$DW$130       .dwtag  DW_TAG_member
    1832                    .dwattr $C$DW$130, DW_AT_type(*$C$DW$T$23)
    1833                    .dwattr $C$DW$130, DW_AT_name("overSampling")
    1834                    .dwattr $C$DW$130, DW_AT_TI_symbol_name("overSampling")
    1835                    .dwattr $C$DW$130, DW_AT_data_member_location[DW_OP_plus_uconst 0xe]
    1836                    .dwattr $C$DW$130, DW_AT_accessibility(DW_ACCESS_public)
    1837                    .dwattr $C$DW$130, DW_AT_decl_file("C:\ccs_challengespace\MSP430_LCD_display\driverlib\MSP430F
    1838                    .dwattr $C$DW$130, DW_AT_decl_line(0x55)
    1839                    .dwattr $C$DW$130, DW_AT_decl_column(0x0d)
    1840            
    1841                    .dwattr $C$DW$T$58, DW_AT_decl_file("C:\ccs_challengespace\MSP430_LCD_display\driverlib\MSP430
    1842                    .dwattr $C$DW$T$58, DW_AT_decl_line(0x27)
    1843                    .dwattr $C$DW$T$58, DW_AT_decl_column(0x10)
    1844                    .dwendtag $C$DW$T$58
    1845            
    1846            $C$DW$T$85      .dwtag  DW_TAG_typedef
    1847                    .dwattr $C$DW$T$85, DW_AT_name("EUSCI_A_UART_initParam")
    1848                    .dwattr $C$DW$T$85, DW_AT_type(*$C$DW$T$58)
    1849                    .dwattr $C$DW$T$85, DW_AT_language(DW_LANG_C)
    1850                    .dwattr $C$DW$T$85, DW_AT_decl_file("C:\ccs_challengespace\MSP430_LCD_display\driverlib\MSP430
    1851                    .dwattr $C$DW$T$85, DW_AT_decl_line(0x56)
    1852                    .dwattr $C$DW$T$85, DW_AT_decl_column(0x03)
    1853            
    1854            
MSP430 Assembler PC v21.6.1 Tue Jan  3 09:51:30 2023

Copyright (c) 2003-2018 Texas Instruments Incorporated
main.asm                                                             PAGE   35

    1855            $C$DW$T$59      .dwtag  DW_TAG_structure_type
    1856                    .dwattr $C$DW$T$59, DW_AT_name("EUSCI_B_I2C_initMasterParam")
    1857                    .dwattr $C$DW$T$59, DW_AT_byte_size(0x0c)
    1858            $C$DW$131       .dwtag  DW_TAG_member
    1859                    .dwattr $C$DW$131, DW_AT_type(*$C$DW$T$23)
    1860                    .dwattr $C$DW$131, DW_AT_name("selectClockSource")
    1861                    .dwattr $C$DW$131, DW_AT_TI_symbol_name("selectClockSource")
    1862                    .dwattr $C$DW$131, DW_AT_data_member_location[DW_OP_plus_uconst 0x0]
    1863                    .dwattr $C$DW$131, DW_AT_accessibility(DW_ACCESS_public)
    1864                    .dwattr $C$DW$131, DW_AT_decl_file("C:\ccs_challengespace\MSP430_LCD_display\driverlib\MSP430F
    1865                    .dwattr $C$DW$131, DW_AT_decl_line(0x28)
    1866                    .dwattr $C$DW$131, DW_AT_decl_column(0x0d)
    1867            
    1868            $C$DW$132       .dwtag  DW_TAG_member
    1869                    .dwattr $C$DW$132, DW_AT_type(*$C$DW$T$54)
    1870                    .dwattr $C$DW$132, DW_AT_name("i2cClk")
    1871                    .dwattr $C$DW$132, DW_AT_TI_symbol_name("i2cClk")
    1872                    .dwattr $C$DW$132, DW_AT_data_member_location[DW_OP_plus_uconst 0x2]
    1873                    .dwattr $C$DW$132, DW_AT_accessibility(DW_ACCESS_public)
    1874                    .dwattr $C$DW$132, DW_AT_decl_file("C:\ccs_challengespace\MSP430_LCD_display\driverlib\MSP430F
    1875                    .dwattr $C$DW$132, DW_AT_decl_line(0x2b)
    1876                    .dwattr $C$DW$132, DW_AT_decl_column(0x0e)
    1877            
    1878            $C$DW$133       .dwtag  DW_TAG_member
    1879                    .dwattr $C$DW$133, DW_AT_type(*$C$DW$T$54)
    1880                    .dwattr $C$DW$133, DW_AT_name("dataRate")
    1881                    .dwattr $C$DW$133, DW_AT_TI_symbol_name("dataRate")
    1882                    .dwattr $C$DW$133, DW_AT_data_member_location[DW_OP_plus_uconst 0x6]
    1883                    .dwattr $C$DW$133, DW_AT_accessibility(DW_ACCESS_public)
    1884                    .dwattr $C$DW$133, DW_AT_decl_file("C:\ccs_challengespace\MSP430_LCD_display\driverlib\MSP430F
    1885                    .dwattr $C$DW$133, DW_AT_decl_line(0x30)
    1886                    .dwattr $C$DW$133, DW_AT_decl_column(0x0e)
    1887            
    1888            $C$DW$134       .dwtag  DW_TAG_member
    1889                    .dwattr $C$DW$134, DW_AT_type(*$C$DW$T$23)
    1890                    .dwattr $C$DW$134, DW_AT_name("byteCounterThreshold")
    1891                    .dwattr $C$DW$134, DW_AT_TI_symbol_name("byteCounterThreshold")
    1892                    .dwattr $C$DW$134, DW_AT_data_member_location[DW_OP_plus_uconst 0xa]
    1893                    .dwattr $C$DW$134, DW_AT_accessibility(DW_ACCESS_public)
    1894                    .dwattr $C$DW$134, DW_AT_decl_file("C:\ccs_challengespace\MSP430_LCD_display\driverlib\MSP430F
    1895                    .dwattr $C$DW$134, DW_AT_decl_line(0x32)
    1896                    .dwattr $C$DW$134, DW_AT_decl_column(0x0d)
    1897            
    1898            $C$DW$135       .dwtag  DW_TAG_member
    1899                    .dwattr $C$DW$135, DW_AT_type(*$C$DW$T$23)
    1900                    .dwattr $C$DW$135, DW_AT_name("autoSTOPGeneration")
    1901                    .dwattr $C$DW$135, DW_AT_TI_symbol_name("autoSTOPGeneration")
    1902                    .dwattr $C$DW$135, DW_AT_data_member_location[DW_OP_plus_uconst 0xb]
    1903                    .dwattr $C$DW$135, DW_AT_accessibility(DW_ACCESS_public)
    1904                    .dwattr $C$DW$135, DW_AT_decl_file("C:\ccs_challengespace\MSP430_LCD_display\driverlib\MSP430F
    1905                    .dwattr $C$DW$135, DW_AT_decl_line(0x38)
    1906                    .dwattr $C$DW$135, DW_AT_decl_column(0x0d)
    1907            
    1908                    .dwattr $C$DW$T$59, DW_AT_decl_file("C:\ccs_challengespace\MSP430_LCD_display\driverlib\MSP430
    1909                    .dwattr $C$DW$T$59, DW_AT_decl_line(0x20)
MSP430 Assembler PC v21.6.1 Tue Jan  3 09:51:30 2023

Copyright (c) 2003-2018 Texas Instruments Incorporated
main.asm                                                             PAGE   36

    1910                    .dwattr $C$DW$T$59, DW_AT_decl_column(0x10)
    1911                    .dwendtag $C$DW$T$59
    1912            
    1913            $C$DW$T$86      .dwtag  DW_TAG_typedef
    1914                    .dwattr $C$DW$T$86, DW_AT_name("EUSCI_B_I2C_initMasterParam")
    1915                    .dwattr $C$DW$T$86, DW_AT_type(*$C$DW$T$59)
    1916                    .dwattr $C$DW$T$86, DW_AT_language(DW_LANG_C)
    1917                    .dwattr $C$DW$T$86, DW_AT_decl_file("C:\ccs_challengespace\MSP430_LCD_display\driverlib\MSP430
    1918                    .dwattr $C$DW$T$86, DW_AT_decl_line(0x39)
    1919                    .dwattr $C$DW$T$86, DW_AT_decl_column(0x03)
    1920            
    1921            
    1922            $C$DW$T$60      .dwtag  DW_TAG_structure_type
    1923                    .dwattr $C$DW$T$60, DW_AT_name("EUSCI_B_I2C_initSlaveParam")
    1924                    .dwattr $C$DW$T$60, DW_AT_byte_size(0x06)
    1925            $C$DW$136       .dwtag  DW_TAG_member
    1926                    .dwattr $C$DW$136, DW_AT_type(*$C$DW$T$23)
    1927                    .dwattr $C$DW$136, DW_AT_name("slaveAddress")
    1928                    .dwattr $C$DW$136, DW_AT_TI_symbol_name("slaveAddress")
    1929                    .dwattr $C$DW$136, DW_AT_data_member_location[DW_OP_plus_uconst 0x0]
    1930                    .dwattr $C$DW$136, DW_AT_accessibility(DW_ACCESS_public)
    1931                    .dwattr $C$DW$136, DW_AT_decl_file("C:\ccs_challengespace\MSP430_LCD_display\driverlib\MSP430F
    1932                    .dwattr $C$DW$136, DW_AT_decl_line(0x42)
    1933                    .dwattr $C$DW$136, DW_AT_decl_column(0x0d)
    1934            
    1935            $C$DW$137       .dwtag  DW_TAG_member
    1936                    .dwattr $C$DW$137, DW_AT_type(*$C$DW$T$23)
    1937                    .dwattr $C$DW$137, DW_AT_name("slaveAddressOffset")
    1938                    .dwattr $C$DW$137, DW_AT_TI_symbol_name("slaveAddressOffset")
    1939                    .dwattr $C$DW$137, DW_AT_data_member_location[DW_OP_plus_uconst 0x1]
    1940                    .dwattr $C$DW$137, DW_AT_accessibility(DW_ACCESS_public)
    1941                    .dwattr $C$DW$137, DW_AT_decl_file("C:\ccs_challengespace\MSP430_LCD_display\driverlib\MSP430F
    1942                    .dwattr $C$DW$137, DW_AT_decl_line(0x49)
    1943                    .dwattr $C$DW$137, DW_AT_decl_column(0x0d)
    1944            
    1945            $C$DW$138       .dwtag  DW_TAG_member
    1946                    .dwattr $C$DW$138, DW_AT_type(*$C$DW$T$54)
    1947                    .dwattr $C$DW$138, DW_AT_name("slaveOwnAddressEnable")
    1948                    .dwattr $C$DW$138, DW_AT_TI_symbol_name("slaveOwnAddressEnable")
    1949                    .dwattr $C$DW$138, DW_AT_data_member_location[DW_OP_plus_uconst 0x2]
    1950                    .dwattr $C$DW$138, DW_AT_accessibility(DW_ACCESS_public)
    1951                    .dwattr $C$DW$138, DW_AT_decl_file("C:\ccs_challengespace\MSP430_LCD_display\driverlib\MSP430F
    1952                    .dwattr $C$DW$138, DW_AT_decl_line(0x4e)
    1953                    .dwattr $C$DW$138, DW_AT_decl_column(0x0e)
    1954            
    1955                    .dwattr $C$DW$T$60, DW_AT_decl_file("C:\ccs_challengespace\MSP430_LCD_display\driverlib\MSP430
    1956                    .dwattr $C$DW$T$60, DW_AT_decl_line(0x40)
    1957                    .dwattr $C$DW$T$60, DW_AT_decl_column(0x10)
    1958                    .dwendtag $C$DW$T$60
    1959            
    1960            $C$DW$T$87      .dwtag  DW_TAG_typedef
    1961                    .dwattr $C$DW$T$87, DW_AT_name("EUSCI_B_I2C_initSlaveParam")
    1962                    .dwattr $C$DW$T$87, DW_AT_type(*$C$DW$T$60)
    1963                    .dwattr $C$DW$T$87, DW_AT_language(DW_LANG_C)
    1964                    .dwattr $C$DW$T$87, DW_AT_decl_file("C:\ccs_challengespace\MSP430_LCD_display\driverlib\MSP430
MSP430 Assembler PC v21.6.1 Tue Jan  3 09:51:30 2023

Copyright (c) 2003-2018 Texas Instruments Incorporated
main.asm                                                             PAGE   37

    1965                    .dwattr $C$DW$T$87, DW_AT_decl_line(0x4f)
    1966                    .dwattr $C$DW$T$87, DW_AT_decl_column(0x03)
    1967            
    1968            
    1969            $C$DW$T$61      .dwtag  DW_TAG_structure_type
    1970                    .dwattr $C$DW$T$61, DW_AT_name("EUSCI_B_SPI_changeMasterClockParam")
    1971                    .dwattr $C$DW$T$61, DW_AT_byte_size(0x08)
    1972            $C$DW$139       .dwtag  DW_TAG_member
    1973                    .dwattr $C$DW$139, DW_AT_type(*$C$DW$T$54)
    1974                    .dwattr $C$DW$139, DW_AT_name("clockSourceFrequency")
    1975                    .dwattr $C$DW$139, DW_AT_TI_symbol_name("clockSourceFrequency")
    1976                    .dwattr $C$DW$139, DW_AT_data_member_location[DW_OP_plus_uconst 0x0]
    1977                    .dwattr $C$DW$139, DW_AT_accessibility(DW_ACCESS_public)
    1978                    .dwattr $C$DW$139, DW_AT_decl_file("C:\ccs_challengespace\MSP430_LCD_display\driverlib\MSP430F
    1979                    .dwattr $C$DW$139, DW_AT_decl_line(0x69)
    1980                    .dwattr $C$DW$139, DW_AT_decl_column(0x0e)
    1981            
    1982            $C$DW$140       .dwtag  DW_TAG_member
    1983                    .dwattr $C$DW$140, DW_AT_type(*$C$DW$T$54)
    1984                    .dwattr $C$DW$140, DW_AT_name("desiredSpiClock")
    1985                    .dwattr $C$DW$140, DW_AT_TI_symbol_name("desiredSpiClock")
    1986                    .dwattr $C$DW$140, DW_AT_data_member_location[DW_OP_plus_uconst 0x4]
    1987                    .dwattr $C$DW$140, DW_AT_accessibility(DW_ACCESS_public)
    1988                    .dwattr $C$DW$140, DW_AT_decl_file("C:\ccs_challengespace\MSP430_LCD_display\driverlib\MSP430F
    1989                    .dwattr $C$DW$140, DW_AT_decl_line(0x6b)
    1990                    .dwattr $C$DW$140, DW_AT_decl_column(0x0e)
    1991            
    1992                    .dwattr $C$DW$T$61, DW_AT_decl_file("C:\ccs_challengespace\MSP430_LCD_display\driverlib\MSP430
    1993                    .dwattr $C$DW$T$61, DW_AT_decl_line(0x67)
    1994                    .dwattr $C$DW$T$61, DW_AT_decl_column(0x10)
    1995                    .dwendtag $C$DW$T$61
    1996            
    1997            $C$DW$T$88      .dwtag  DW_TAG_typedef
    1998                    .dwattr $C$DW$T$88, DW_AT_name("EUSCI_B_SPI_changeMasterClockParam")
    1999                    .dwattr $C$DW$T$88, DW_AT_type(*$C$DW$T$61)
    2000                    .dwattr $C$DW$T$88, DW_AT_language(DW_LANG_C)
    2001                    .dwattr $C$DW$T$88, DW_AT_decl_file("C:\ccs_challengespace\MSP430_LCD_display\driverlib\MSP430
    2002                    .dwattr $C$DW$T$88, DW_AT_decl_line(0x6c)
    2003                    .dwattr $C$DW$T$88, DW_AT_decl_column(0x03)
    2004            
    2005            
    2006            $C$DW$T$62      .dwtag  DW_TAG_structure_type
    2007                    .dwattr $C$DW$T$62, DW_AT_name("EUSCI_B_SPI_initMasterParam")
    2008                    .dwattr $C$DW$T$62, DW_AT_byte_size(0x12)
    2009            $C$DW$141       .dwtag  DW_TAG_member
    2010                    .dwattr $C$DW$141, DW_AT_type(*$C$DW$T$23)
    2011                    .dwattr $C$DW$141, DW_AT_name("selectClockSource")
    2012                    .dwattr $C$DW$141, DW_AT_TI_symbol_name("selectClockSource")
    2013                    .dwattr $C$DW$141, DW_AT_data_member_location[DW_OP_plus_uconst 0x0]
    2014                    .dwattr $C$DW$141, DW_AT_accessibility(DW_ACCESS_public)
    2015                    .dwattr $C$DW$141, DW_AT_decl_file("C:\ccs_challengespace\MSP430_LCD_display\driverlib\MSP430F
    2016                    .dwattr $C$DW$141, DW_AT_decl_line(0x28)
    2017                    .dwattr $C$DW$141, DW_AT_decl_column(0x0d)
    2018            
    2019            $C$DW$142       .dwtag  DW_TAG_member
MSP430 Assembler PC v21.6.1 Tue Jan  3 09:51:30 2023

Copyright (c) 2003-2018 Texas Instruments Incorporated
main.asm                                                             PAGE   38

    2020                    .dwattr $C$DW$142, DW_AT_type(*$C$DW$T$54)
    2021                    .dwattr $C$DW$142, DW_AT_name("clockSourceFrequency")
    2022                    .dwattr $C$DW$142, DW_AT_TI_symbol_name("clockSourceFrequency")
    2023                    .dwattr $C$DW$142, DW_AT_data_member_location[DW_OP_plus_uconst 0x2]
    2024                    .dwattr $C$DW$142, DW_AT_accessibility(DW_ACCESS_public)
    2025                    .dwattr $C$DW$142, DW_AT_decl_file("C:\ccs_challengespace\MSP430_LCD_display\driverlib\MSP430F
    2026                    .dwattr $C$DW$142, DW_AT_decl_line(0x2a)
    2027                    .dwattr $C$DW$142, DW_AT_decl_column(0x0e)
    2028            
    2029            $C$DW$143       .dwtag  DW_TAG_member
    2030                    .dwattr $C$DW$143, DW_AT_type(*$C$DW$T$54)
    2031                    .dwattr $C$DW$143, DW_AT_name("desiredSpiClock")
    2032                    .dwattr $C$DW$143, DW_AT_TI_symbol_name("desiredSpiClock")
    2033                    .dwattr $C$DW$143, DW_AT_data_member_location[DW_OP_plus_uconst 0x6]
    2034                    .dwattr $C$DW$143, DW_AT_accessibility(DW_ACCESS_public)
    2035                    .dwattr $C$DW$143, DW_AT_decl_file("C:\ccs_challengespace\MSP430_LCD_display\driverlib\MSP430F
    2036                    .dwattr $C$DW$143, DW_AT_decl_line(0x2c)
    2037                    .dwattr $C$DW$143, DW_AT_decl_column(0x0e)
    2038            
    2039            $C$DW$144       .dwtag  DW_TAG_member
    2040                    .dwattr $C$DW$144, DW_AT_type(*$C$DW$T$26)
    2041                    .dwattr $C$DW$144, DW_AT_name("msbFirst")
    2042                    .dwattr $C$DW$144, DW_AT_TI_symbol_name("msbFirst")
    2043                    .dwattr $C$DW$144, DW_AT_data_member_location[DW_OP_plus_uconst 0xa]
    2044                    .dwattr $C$DW$144, DW_AT_accessibility(DW_ACCESS_public)
    2045                    .dwattr $C$DW$144, DW_AT_decl_file("C:\ccs_challengespace\MSP430_LCD_display\driverlib\MSP430F
    2046                    .dwattr $C$DW$144, DW_AT_decl_line(0x31)
    2047                    .dwattr $C$DW$144, DW_AT_decl_column(0x0e)
    2048            
    2049            $C$DW$145       .dwtag  DW_TAG_member
    2050                    .dwattr $C$DW$145, DW_AT_type(*$C$DW$T$26)
    2051                    .dwattr $C$DW$145, DW_AT_name("clockPhase")
    2052                    .dwattr $C$DW$145, DW_AT_TI_symbol_name("clockPhase")
    2053                    .dwattr $C$DW$145, DW_AT_data_member_location[DW_OP_plus_uconst 0xc]
    2054                    .dwattr $C$DW$145, DW_AT_accessibility(DW_ACCESS_public)
    2055                    .dwattr $C$DW$145, DW_AT_decl_file("C:\ccs_challengespace\MSP430_LCD_display\driverlib\MSP430F
    2056                    .dwattr $C$DW$145, DW_AT_decl_line(0x36)
    2057                    .dwattr $C$DW$145, DW_AT_decl_column(0x0e)
    2058            
    2059            $C$DW$146       .dwtag  DW_TAG_member
    2060                    .dwattr $C$DW$146, DW_AT_type(*$C$DW$T$26)
    2061                    .dwattr $C$DW$146, DW_AT_name("clockPolarity")
    2062                    .dwattr $C$DW$146, DW_AT_TI_symbol_name("clockPolarity")
    2063                    .dwattr $C$DW$146, DW_AT_data_member_location[DW_OP_plus_uconst 0xe]
    2064                    .dwattr $C$DW$146, DW_AT_accessibility(DW_ACCESS_public)
    2065                    .dwattr $C$DW$146, DW_AT_decl_file("C:\ccs_challengespace\MSP430_LCD_display\driverlib\MSP430F
    2066                    .dwattr $C$DW$146, DW_AT_decl_line(0x3b)
    2067                    .dwattr $C$DW$146, DW_AT_decl_column(0x0e)
    2068            
    2069            $C$DW$147       .dwtag  DW_TAG_member
    2070                    .dwattr $C$DW$147, DW_AT_type(*$C$DW$T$26)
    2071                    .dwattr $C$DW$147, DW_AT_name("spiMode")
    2072                    .dwattr $C$DW$147, DW_AT_TI_symbol_name("spiMode")
    2073                    .dwattr $C$DW$147, DW_AT_data_member_location[DW_OP_plus_uconst 0x10]
    2074                    .dwattr $C$DW$147, DW_AT_accessibility(DW_ACCESS_public)
MSP430 Assembler PC v21.6.1 Tue Jan  3 09:51:30 2023

Copyright (c) 2003-2018 Texas Instruments Incorporated
main.asm                                                             PAGE   39

    2075                    .dwattr $C$DW$147, DW_AT_decl_file("C:\ccs_challengespace\MSP430_LCD_display\driverlib\MSP430F
    2076                    .dwattr $C$DW$147, DW_AT_decl_line(0x41)
    2077                    .dwattr $C$DW$147, DW_AT_decl_column(0x0e)
    2078            
    2079                    .dwattr $C$DW$T$62, DW_AT_decl_file("C:\ccs_challengespace\MSP430_LCD_display\driverlib\MSP430
    2080                    .dwattr $C$DW$T$62, DW_AT_decl_line(0x20)
    2081                    .dwattr $C$DW$T$62, DW_AT_decl_column(0x10)
    2082                    .dwendtag $C$DW$T$62
    2083            
    2084            $C$DW$T$89      .dwtag  DW_TAG_typedef
    2085                    .dwattr $C$DW$T$89, DW_AT_name("EUSCI_B_SPI_initMasterParam")
    2086                    .dwattr $C$DW$T$89, DW_AT_type(*$C$DW$T$62)
    2087                    .dwattr $C$DW$T$89, DW_AT_language(DW_LANG_C)
    2088                    .dwattr $C$DW$T$89, DW_AT_decl_file("C:\ccs_challengespace\MSP430_LCD_display\driverlib\MSP430
    2089                    .dwattr $C$DW$T$89, DW_AT_decl_line(0x42)
    2090                    .dwattr $C$DW$T$89, DW_AT_decl_column(0x03)
    2091            
    2092            
    2093            $C$DW$T$63      .dwtag  DW_TAG_structure_type
    2094                    .dwattr $C$DW$T$63, DW_AT_name("EUSCI_B_SPI_initSlaveParam")
    2095                    .dwattr $C$DW$T$63, DW_AT_byte_size(0x08)
    2096            $C$DW$148       .dwtag  DW_TAG_member
    2097                    .dwattr $C$DW$148, DW_AT_type(*$C$DW$T$26)
    2098                    .dwattr $C$DW$148, DW_AT_name("msbFirst")
    2099                    .dwattr $C$DW$148, DW_AT_TI_symbol_name("msbFirst")
    2100                    .dwattr $C$DW$148, DW_AT_data_member_location[DW_OP_plus_uconst 0x0]
    2101                    .dwattr $C$DW$148, DW_AT_accessibility(DW_ACCESS_public)
    2102                    .dwattr $C$DW$148, DW_AT_decl_file("C:\ccs_challengespace\MSP430_LCD_display\driverlib\MSP430F
    2103                    .dwattr $C$DW$148, DW_AT_decl_line(0x4e)
    2104                    .dwattr $C$DW$148, DW_AT_decl_column(0x0e)
    2105            
    2106            $C$DW$149       .dwtag  DW_TAG_member
    2107                    .dwattr $C$DW$149, DW_AT_type(*$C$DW$T$26)
    2108                    .dwattr $C$DW$149, DW_AT_name("clockPhase")
    2109                    .dwattr $C$DW$149, DW_AT_TI_symbol_name("clockPhase")
    2110                    .dwattr $C$DW$149, DW_AT_data_member_location[DW_OP_plus_uconst 0x2]
    2111                    .dwattr $C$DW$149, DW_AT_accessibility(DW_ACCESS_public)
    2112                    .dwattr $C$DW$149, DW_AT_decl_file("C:\ccs_challengespace\MSP430_LCD_display\driverlib\MSP430F
    2113                    .dwattr $C$DW$149, DW_AT_decl_line(0x53)
    2114                    .dwattr $C$DW$149, DW_AT_decl_column(0x0e)
    2115            
    2116            $C$DW$150       .dwtag  DW_TAG_member
    2117                    .dwattr $C$DW$150, DW_AT_type(*$C$DW$T$26)
    2118                    .dwattr $C$DW$150, DW_AT_name("clockPolarity")
    2119                    .dwattr $C$DW$150, DW_AT_TI_symbol_name("clockPolarity")
    2120                    .dwattr $C$DW$150, DW_AT_data_member_location[DW_OP_plus_uconst 0x4]
    2121                    .dwattr $C$DW$150, DW_AT_accessibility(DW_ACCESS_public)
    2122                    .dwattr $C$DW$150, DW_AT_decl_file("C:\ccs_challengespace\MSP430_LCD_display\driverlib\MSP430F
    2123                    .dwattr $C$DW$150, DW_AT_decl_line(0x58)
    2124                    .dwattr $C$DW$150, DW_AT_decl_column(0x0e)
    2125            
    2126            $C$DW$151       .dwtag  DW_TAG_member
    2127                    .dwattr $C$DW$151, DW_AT_type(*$C$DW$T$26)
    2128                    .dwattr $C$DW$151, DW_AT_name("spiMode")
    2129                    .dwattr $C$DW$151, DW_AT_TI_symbol_name("spiMode")
MSP430 Assembler PC v21.6.1 Tue Jan  3 09:51:30 2023

Copyright (c) 2003-2018 Texas Instruments Incorporated
main.asm                                                             PAGE   40

    2130                    .dwattr $C$DW$151, DW_AT_data_member_location[DW_OP_plus_uconst 0x6]
    2131                    .dwattr $C$DW$151, DW_AT_accessibility(DW_ACCESS_public)
    2132                    .dwattr $C$DW$151, DW_AT_decl_file("C:\ccs_challengespace\MSP430_LCD_display\driverlib\MSP430F
    2133                    .dwattr $C$DW$151, DW_AT_decl_line(0x5e)
    2134                    .dwattr $C$DW$151, DW_AT_decl_column(0x0e)
    2135            
    2136                    .dwattr $C$DW$T$63, DW_AT_decl_file("C:\ccs_challengespace\MSP430_LCD_display\driverlib\MSP430
    2137                    .dwattr $C$DW$T$63, DW_AT_decl_line(0x49)
    2138                    .dwattr $C$DW$T$63, DW_AT_decl_column(0x10)
    2139                    .dwendtag $C$DW$T$63
    2140            
    2141            $C$DW$T$90      .dwtag  DW_TAG_typedef
    2142                    .dwattr $C$DW$T$90, DW_AT_name("EUSCI_B_SPI_initSlaveParam")
    2143                    .dwattr $C$DW$T$90, DW_AT_type(*$C$DW$T$63)
    2144                    .dwattr $C$DW$T$90, DW_AT_language(DW_LANG_C)
    2145                    .dwattr $C$DW$T$90, DW_AT_decl_file("C:\ccs_challengespace\MSP430_LCD_display\driverlib\MSP430
    2146                    .dwattr $C$DW$T$90, DW_AT_decl_line(0x5f)
    2147                    .dwattr $C$DW$T$90, DW_AT_decl_column(0x03)
    2148            
    2149            
    2150            $C$DW$T$64      .dwtag  DW_TAG_structure_type
    2151                    .dwattr $C$DW$T$64, DW_AT_name("LCD_E_initParam")
    2152                    .dwattr $C$DW$T$64, DW_AT_byte_size(0x0a)
    2153            $C$DW$152       .dwtag  DW_TAG_member
    2154                    .dwattr $C$DW$152, DW_AT_type(*$C$DW$T$26)
    2155                    .dwattr $C$DW$152, DW_AT_name("clockSource")
    2156                    .dwattr $C$DW$152, DW_AT_TI_symbol_name("clockSource")
    2157                    .dwattr $C$DW$152, DW_AT_data_member_location[DW_OP_plus_uconst 0x0]
    2158                    .dwattr $C$DW$152, DW_AT_accessibility(DW_ACCESS_public)
    2159                    .dwattr $C$DW$152, DW_AT_decl_file("C:\ccs_challengespace\MSP430_LCD_display\driverlib\MSP430F
    2160                    .dwattr $C$DW$152, DW_AT_decl_line(0x25)
    2161                    .dwattr $C$DW$152, DW_AT_decl_column(0x0e)
    2162            
    2163            $C$DW$153       .dwtag  DW_TAG_member
    2164                    .dwattr $C$DW$153, DW_AT_type(*$C$DW$T$26)
    2165                    .dwattr $C$DW$153, DW_AT_name("clockDivider")
    2166                    .dwattr $C$DW$153, DW_AT_TI_symbol_name("clockDivider")
    2167                    .dwattr $C$DW$153, DW_AT_data_member_location[DW_OP_plus_uconst 0x2]
    2168                    .dwattr $C$DW$153, DW_AT_accessibility(DW_ACCESS_public)
    2169                    .dwattr $C$DW$153, DW_AT_decl_file("C:\ccs_challengespace\MSP430_LCD_display\driverlib\MSP430F
    2170                    .dwattr $C$DW$153, DW_AT_decl_line(0x48)
    2171                    .dwattr $C$DW$153, DW_AT_decl_column(0x0e)
    2172            
    2173            $C$DW$154       .dwtag  DW_TAG_member
    2174                    .dwattr $C$DW$154, DW_AT_type(*$C$DW$T$26)
    2175                    .dwattr $C$DW$154, DW_AT_name("muxRate")
    2176                    .dwattr $C$DW$154, DW_AT_TI_symbol_name("muxRate")
    2177                    .dwattr $C$DW$154, DW_AT_data_member_location[DW_OP_plus_uconst 0x4]
    2178                    .dwattr $C$DW$154, DW_AT_accessibility(DW_ACCESS_public)
    2179                    .dwattr $C$DW$154, DW_AT_decl_file("C:\ccs_challengespace\MSP430_LCD_display\driverlib\MSP430F
    2180                    .dwattr $C$DW$154, DW_AT_decl_line(0x53)
    2181                    .dwattr $C$DW$154, DW_AT_decl_column(0x0e)
    2182            
    2183            $C$DW$155       .dwtag  DW_TAG_member
    2184                    .dwattr $C$DW$155, DW_AT_type(*$C$DW$T$26)
MSP430 Assembler PC v21.6.1 Tue Jan  3 09:51:30 2023

Copyright (c) 2003-2018 Texas Instruments Incorporated
main.asm                                                             PAGE   41

    2185                    .dwattr $C$DW$155, DW_AT_name("waveforms")
    2186                    .dwattr $C$DW$155, DW_AT_TI_symbol_name("waveforms")
    2187                    .dwattr $C$DW$155, DW_AT_data_member_location[DW_OP_plus_uconst 0x6]
    2188                    .dwattr $C$DW$155, DW_AT_accessibility(DW_ACCESS_public)
    2189                    .dwattr $C$DW$155, DW_AT_decl_file("C:\ccs_challengespace\MSP430_LCD_display\driverlib\MSP430F
    2190                    .dwattr $C$DW$155, DW_AT_decl_line(0x58)
    2191                    .dwattr $C$DW$155, DW_AT_decl_column(0x0e)
    2192            
    2193            $C$DW$156       .dwtag  DW_TAG_member
    2194                    .dwattr $C$DW$156, DW_AT_type(*$C$DW$T$26)
    2195                    .dwattr $C$DW$156, DW_AT_name("segments")
    2196                    .dwattr $C$DW$156, DW_AT_TI_symbol_name("segments")
    2197                    .dwattr $C$DW$156, DW_AT_data_member_location[DW_OP_plus_uconst 0x8]
    2198                    .dwattr $C$DW$156, DW_AT_accessibility(DW_ACCESS_public)
    2199                    .dwattr $C$DW$156, DW_AT_decl_file("C:\ccs_challengespace\MSP430_LCD_display\driverlib\MSP430F
    2200                    .dwattr $C$DW$156, DW_AT_decl_line(0x5d)
    2201                    .dwattr $C$DW$156, DW_AT_decl_column(0x0e)
    2202            
    2203                    .dwattr $C$DW$T$64, DW_AT_decl_file("C:\ccs_challengespace\MSP430_LCD_display\driverlib\MSP430
    2204                    .dwattr $C$DW$T$64, DW_AT_decl_line(0x1f)
    2205                    .dwattr $C$DW$T$64, DW_AT_decl_column(0x10)
    2206                    .dwendtag $C$DW$T$64
    2207            
    2208            $C$DW$T$91      .dwtag  DW_TAG_typedef
    2209                    .dwattr $C$DW$T$91, DW_AT_name("LCD_E_initParam")
    2210                    .dwattr $C$DW$T$91, DW_AT_type(*$C$DW$T$64)
    2211                    .dwattr $C$DW$T$91, DW_AT_language(DW_LANG_C)
    2212                    .dwattr $C$DW$T$91, DW_AT_decl_file("C:\ccs_challengespace\MSP430_LCD_display\driverlib\MSP430
    2213                    .dwattr $C$DW$T$91, DW_AT_decl_line(0x5e)
    2214                    .dwattr $C$DW$T$91, DW_AT_decl_column(0x03)
    2215            
    2216            
    2217            $C$DW$T$65      .dwtag  DW_TAG_structure_type
    2218                    .dwattr $C$DW$T$65, DW_AT_name("Timer_A_initCaptureModeParam")
    2219                    .dwattr $C$DW$T$65, DW_AT_byte_size(0x0c)
    2220            $C$DW$157       .dwtag  DW_TAG_member
    2221                    .dwattr $C$DW$157, DW_AT_type(*$C$DW$T$26)
    2222                    .dwattr $C$DW$157, DW_AT_name("captureRegister")
    2223                    .dwattr $C$DW$157, DW_AT_TI_symbol_name("captureRegister")
    2224                    .dwattr $C$DW$157, DW_AT_data_member_location[DW_OP_plus_uconst 0x0]
    2225                    .dwattr $C$DW$157, DW_AT_accessibility(DW_ACCESS_public)
    2226                    .dwattr $C$DW$157, DW_AT_decl_file("C:\ccs_challengespace\MSP430_LCD_display\driverlib\MSP430F
    2227                    .dwattr $C$DW$157, DW_AT_decl_line(0x64)
    2228                    .dwattr $C$DW$157, DW_AT_decl_column(0x0e)
    2229            
    2230            $C$DW$158       .dwtag  DW_TAG_member
    2231                    .dwattr $C$DW$158, DW_AT_type(*$C$DW$T$26)
    2232                    .dwattr $C$DW$158, DW_AT_name("captureMode")
    2233                    .dwattr $C$DW$158, DW_AT_TI_symbol_name("captureMode")
    2234                    .dwattr $C$DW$158, DW_AT_data_member_location[DW_OP_plus_uconst 0x2]
    2235                    .dwattr $C$DW$158, DW_AT_accessibility(DW_ACCESS_public)
    2236                    .dwattr $C$DW$158, DW_AT_decl_file("C:\ccs_challengespace\MSP430_LCD_display\driverlib\MSP430F
    2237                    .dwattr $C$DW$158, DW_AT_decl_line(0x6b)
    2238                    .dwattr $C$DW$158, DW_AT_decl_column(0x0e)
    2239            
MSP430 Assembler PC v21.6.1 Tue Jan  3 09:51:30 2023

Copyright (c) 2003-2018 Texas Instruments Incorporated
main.asm                                                             PAGE   42

    2240            $C$DW$159       .dwtag  DW_TAG_member
    2241                    .dwattr $C$DW$159, DW_AT_type(*$C$DW$T$26)
    2242                    .dwattr $C$DW$159, DW_AT_name("captureInputSelect")
    2243                    .dwattr $C$DW$159, DW_AT_TI_symbol_name("captureInputSelect")
    2244                    .dwattr $C$DW$159, DW_AT_data_member_location[DW_OP_plus_uconst 0x4]
    2245                    .dwattr $C$DW$159, DW_AT_accessibility(DW_ACCESS_public)
    2246                    .dwattr $C$DW$159, DW_AT_decl_file("C:\ccs_challengespace\MSP430_LCD_display\driverlib\MSP430F
    2247                    .dwattr $C$DW$159, DW_AT_decl_line(0x72)
    2248                    .dwattr $C$DW$159, DW_AT_decl_column(0x0e)
    2249            
    2250            $C$DW$160       .dwtag  DW_TAG_member
    2251                    .dwattr $C$DW$160, DW_AT_type(*$C$DW$T$26)
    2252                    .dwattr $C$DW$160, DW_AT_name("synchronizeCaptureSource")
    2253                    .dwattr $C$DW$160, DW_AT_TI_symbol_name("synchronizeCaptureSource")
    2254                    .dwattr $C$DW$160, DW_AT_data_member_location[DW_OP_plus_uconst 0x6]
    2255                    .dwattr $C$DW$160, DW_AT_accessibility(DW_ACCESS_public)
    2256                    .dwattr $C$DW$160, DW_AT_decl_file("C:\ccs_challengespace\MSP430_LCD_display\driverlib\MSP430F
    2257                    .dwattr $C$DW$160, DW_AT_decl_line(0x77)
    2258                    .dwattr $C$DW$160, DW_AT_decl_column(0x0e)
    2259            
    2260            $C$DW$161       .dwtag  DW_TAG_member
    2261                    .dwattr $C$DW$161, DW_AT_type(*$C$DW$T$26)
    2262                    .dwattr $C$DW$161, DW_AT_name("captureInterruptEnable")
    2263                    .dwattr $C$DW$161, DW_AT_TI_symbol_name("captureInterruptEnable")
    2264                    .dwattr $C$DW$161, DW_AT_data_member_location[DW_OP_plus_uconst 0x8]
    2265                    .dwattr $C$DW$161, DW_AT_accessibility(DW_ACCESS_public)
    2266                    .dwattr $C$DW$161, DW_AT_decl_file("C:\ccs_challengespace\MSP430_LCD_display\driverlib\MSP430F
    2267                    .dwattr $C$DW$161, DW_AT_decl_line(0x7c)
    2268                    .dwattr $C$DW$161, DW_AT_decl_column(0x0e)
    2269            
    2270            $C$DW$162       .dwtag  DW_TAG_member
    2271                    .dwattr $C$DW$162, DW_AT_type(*$C$DW$T$26)
    2272                    .dwattr $C$DW$162, DW_AT_name("captureOutputMode")
    2273                    .dwattr $C$DW$162, DW_AT_TI_symbol_name("captureOutputMode")
    2274                    .dwattr $C$DW$162, DW_AT_data_member_location[DW_OP_plus_uconst 0xa]
    2275                    .dwattr $C$DW$162, DW_AT_accessibility(DW_ACCESS_public)
    2276                    .dwattr $C$DW$162, DW_AT_decl_file("C:\ccs_challengespace\MSP430_LCD_display\driverlib\MSP430F
    2277                    .dwattr $C$DW$162, DW_AT_decl_line(0x87)
    2278                    .dwattr $C$DW$162, DW_AT_decl_column(0x0e)
    2279            
    2280                    .dwattr $C$DW$T$65, DW_AT_decl_file("C:\ccs_challengespace\MSP430_LCD_display\driverlib\MSP430
    2281                    .dwattr $C$DW$T$65, DW_AT_decl_line(0x5d)
    2282                    .dwattr $C$DW$T$65, DW_AT_decl_column(0x10)
    2283                    .dwendtag $C$DW$T$65
    2284            
    2285            $C$DW$T$92      .dwtag  DW_TAG_typedef
    2286                    .dwattr $C$DW$T$92, DW_AT_name("Timer_A_initCaptureModeParam")
    2287                    .dwattr $C$DW$T$92, DW_AT_type(*$C$DW$T$65)
    2288                    .dwattr $C$DW$T$92, DW_AT_language(DW_LANG_C)
    2289                    .dwattr $C$DW$T$92, DW_AT_decl_file("C:\ccs_challengespace\MSP430_LCD_display\driverlib\MSP430
    2290                    .dwattr $C$DW$T$92, DW_AT_decl_line(0x88)
    2291                    .dwattr $C$DW$T$92, DW_AT_decl_column(0x03)
    2292            
    2293            
    2294            $C$DW$T$66      .dwtag  DW_TAG_structure_type
MSP430 Assembler PC v21.6.1 Tue Jan  3 09:51:30 2023

Copyright (c) 2003-2018 Texas Instruments Incorporated
main.asm                                                             PAGE   43

    2295                    .dwattr $C$DW$T$66, DW_AT_name("Timer_A_initCompareModeParam")
    2296                    .dwattr $C$DW$T$66, DW_AT_byte_size(0x08)
    2297            $C$DW$163       .dwtag  DW_TAG_member
    2298                    .dwattr $C$DW$163, DW_AT_type(*$C$DW$T$26)
    2299                    .dwattr $C$DW$163, DW_AT_name("compareRegister")
    2300                    .dwattr $C$DW$163, DW_AT_TI_symbol_name("compareRegister")
    2301                    .dwattr $C$DW$163, DW_AT_data_member_location[DW_OP_plus_uconst 0x0]
    2302                    .dwattr $C$DW$163, DW_AT_accessibility(DW_ACCESS_public)
    2303                    .dwattr $C$DW$163, DW_AT_decl_file("C:\ccs_challengespace\MSP430_LCD_display\driverlib\MSP430F
    2304                    .dwattr $C$DW$163, DW_AT_decl_line(0x149)
    2305                    .dwattr $C$DW$163, DW_AT_decl_column(0x0e)
    2306            
    2307            $C$DW$164       .dwtag  DW_TAG_member
    2308                    .dwattr $C$DW$164, DW_AT_type(*$C$DW$T$26)
    2309                    .dwattr $C$DW$164, DW_AT_name("compareInterruptEnable")
    2310                    .dwattr $C$DW$164, DW_AT_TI_symbol_name("compareInterruptEnable")
    2311                    .dwattr $C$DW$164, DW_AT_data_member_location[DW_OP_plus_uconst 0x2]
    2312                    .dwattr $C$DW$164, DW_AT_accessibility(DW_ACCESS_public)
    2313                    .dwattr $C$DW$164, DW_AT_decl_file("C:\ccs_challengespace\MSP430_LCD_display\driverlib\MSP430F
    2314                    .dwattr $C$DW$164, DW_AT_decl_line(0x14e)
    2315                    .dwattr $C$DW$164, DW_AT_decl_column(0x0e)
    2316            
    2317            $C$DW$165       .dwtag  DW_TAG_member
    2318                    .dwattr $C$DW$165, DW_AT_type(*$C$DW$T$26)
    2319                    .dwattr $C$DW$165, DW_AT_name("compareOutputMode")
    2320                    .dwattr $C$DW$165, DW_AT_TI_symbol_name("compareOutputMode")
    2321                    .dwattr $C$DW$165, DW_AT_data_member_location[DW_OP_plus_uconst 0x4]
    2322                    .dwattr $C$DW$165, DW_AT_accessibility(DW_ACCESS_public)
    2323                    .dwattr $C$DW$165, DW_AT_decl_file("C:\ccs_challengespace\MSP430_LCD_display\driverlib\MSP430F
    2324                    .dwattr $C$DW$165, DW_AT_decl_line(0x159)
    2325                    .dwattr $C$DW$165, DW_AT_decl_column(0x0e)
    2326            
    2327            $C$DW$166       .dwtag  DW_TAG_member
    2328                    .dwattr $C$DW$166, DW_AT_type(*$C$DW$T$26)
    2329                    .dwattr $C$DW$166, DW_AT_name("compareValue")
    2330                    .dwattr $C$DW$166, DW_AT_TI_symbol_name("compareValue")
    2331                    .dwattr $C$DW$166, DW_AT_data_member_location[DW_OP_plus_uconst 0x6]
    2332                    .dwattr $C$DW$166, DW_AT_accessibility(DW_ACCESS_public)
    2333                    .dwattr $C$DW$166, DW_AT_decl_file("C:\ccs_challengespace\MSP430_LCD_display\driverlib\MSP430F
    2334                    .dwattr $C$DW$166, DW_AT_decl_line(0x15b)
    2335                    .dwattr $C$DW$166, DW_AT_decl_column(0x0e)
    2336            
    2337                    .dwattr $C$DW$T$66, DW_AT_decl_file("C:\ccs_challengespace\MSP430_LCD_display\driverlib\MSP430
    2338                    .dwattr $C$DW$T$66, DW_AT_decl_line(0x142)
    2339                    .dwattr $C$DW$T$66, DW_AT_decl_column(0x10)
    2340                    .dwendtag $C$DW$T$66
    2341            
    2342            $C$DW$T$93      .dwtag  DW_TAG_typedef
    2343                    .dwattr $C$DW$T$93, DW_AT_name("Timer_A_initCompareModeParam")
    2344                    .dwattr $C$DW$T$93, DW_AT_type(*$C$DW$T$66)
    2345                    .dwattr $C$DW$T$93, DW_AT_language(DW_LANG_C)
    2346                    .dwattr $C$DW$T$93, DW_AT_decl_file("C:\ccs_challengespace\MSP430_LCD_display\driverlib\MSP430
    2347                    .dwattr $C$DW$T$93, DW_AT_decl_line(0x15c)
    2348                    .dwattr $C$DW$T$93, DW_AT_decl_column(0x03)
    2349            
MSP430 Assembler PC v21.6.1 Tue Jan  3 09:51:30 2023

Copyright (c) 2003-2018 Texas Instruments Incorporated
main.asm                                                             PAGE   44

    2350            
    2351            $C$DW$T$68      .dwtag  DW_TAG_structure_type
    2352                    .dwattr $C$DW$T$68, DW_AT_name("Timer_A_initContinuousModeParam")
    2353                    .dwattr $C$DW$T$68, DW_AT_byte_size(0x0a)
    2354            $C$DW$167       .dwtag  DW_TAG_member
    2355                    .dwattr $C$DW$167, DW_AT_type(*$C$DW$T$26)
    2356                    .dwattr $C$DW$167, DW_AT_name("clockSource")
    2357                    .dwattr $C$DW$167, DW_AT_TI_symbol_name("clockSource")
    2358                    .dwattr $C$DW$167, DW_AT_data_member_location[DW_OP_plus_uconst 0x0]
    2359                    .dwattr $C$DW$167, DW_AT_accessibility(DW_ACCESS_public)
    2360                    .dwattr $C$DW$167, DW_AT_decl_file("C:\ccs_challengespace\MSP430_LCD_display\driverlib\MSP430F
    2361                    .dwattr $C$DW$167, DW_AT_decl_line(0x30)
    2362                    .dwattr $C$DW$167, DW_AT_decl_column(0x0e)
    2363            
    2364            $C$DW$168       .dwtag  DW_TAG_member
    2365                    .dwattr $C$DW$168, DW_AT_type(*$C$DW$T$26)
    2366                    .dwattr $C$DW$168, DW_AT_name("clockSourceDivider")
    2367                    .dwattr $C$DW$168, DW_AT_TI_symbol_name("clockSourceDivider")
    2368                    .dwattr $C$DW$168, DW_AT_data_member_location[DW_OP_plus_uconst 0x2]
    2369                    .dwattr $C$DW$168, DW_AT_accessibility(DW_ACCESS_public)
    2370                    .dwattr $C$DW$168, DW_AT_decl_file("C:\ccs_challengespace\MSP430_LCD_display\driverlib\MSP430F
    2371                    .dwattr $C$DW$168, DW_AT_decl_line(0x47)
    2372                    .dwattr $C$DW$168, DW_AT_decl_column(0x0e)
    2373            
    2374            $C$DW$169       .dwtag  DW_TAG_member
    2375                    .dwattr $C$DW$169, DW_AT_type(*$C$DW$T$26)
    2376                    .dwattr $C$DW$169, DW_AT_name("timerInterruptEnable_TAIE")
    2377                    .dwattr $C$DW$169, DW_AT_TI_symbol_name("timerInterruptEnable_TAIE")
    2378                    .dwattr $C$DW$169, DW_AT_data_member_location[DW_OP_plus_uconst 0x4]
    2379                    .dwattr $C$DW$169, DW_AT_accessibility(DW_ACCESS_public)
    2380                    .dwattr $C$DW$169, DW_AT_decl_file("C:\ccs_challengespace\MSP430_LCD_display\driverlib\MSP430F
    2381                    .dwattr $C$DW$169, DW_AT_decl_line(0x4c)
    2382                    .dwattr $C$DW$169, DW_AT_decl_column(0x0e)
    2383            
    2384            $C$DW$170       .dwtag  DW_TAG_member
    2385                    .dwattr $C$DW$170, DW_AT_type(*$C$DW$T$26)
    2386                    .dwattr $C$DW$170, DW_AT_name("timerClear")
    2387                    .dwattr $C$DW$170, DW_AT_TI_symbol_name("timerClear")
    2388                    .dwattr $C$DW$170, DW_AT_data_member_location[DW_OP_plus_uconst 0x6]
    2389                    .dwattr $C$DW$170, DW_AT_accessibility(DW_ACCESS_public)
    2390                    .dwattr $C$DW$170, DW_AT_decl_file("C:\ccs_challengespace\MSP430_LCD_display\driverlib\MSP430F
    2391                    .dwattr $C$DW$170, DW_AT_decl_line(0x52)
    2392                    .dwattr $C$DW$170, DW_AT_decl_column(0x0e)
    2393            
    2394            $C$DW$171       .dwtag  DW_TAG_member
    2395                    .dwattr $C$DW$171, DW_AT_type(*$C$DW$T$67)
    2396                    .dwattr $C$DW$171, DW_AT_name("startTimer")
    2397                    .dwattr $C$DW$171, DW_AT_TI_symbol_name("startTimer")
    2398                    .dwattr $C$DW$171, DW_AT_data_member_location[DW_OP_plus_uconst 0x8]
    2399                    .dwattr $C$DW$171, DW_AT_accessibility(DW_ACCESS_public)
    2400                    .dwattr $C$DW$171, DW_AT_decl_file("C:\ccs_challengespace\MSP430_LCD_display\driverlib\MSP430F
    2401                    .dwattr $C$DW$171, DW_AT_decl_line(0x54)
    2402                    .dwattr $C$DW$171, DW_AT_decl_column(0x0a)
    2403            
    2404                    .dwattr $C$DW$T$68, DW_AT_decl_file("C:\ccs_challengespace\MSP430_LCD_display\driverlib\MSP430
MSP430 Assembler PC v21.6.1 Tue Jan  3 09:51:30 2023

Copyright (c) 2003-2018 Texas Instruments Incorporated
main.asm                                                             PAGE   45

    2405                    .dwattr $C$DW$T$68, DW_AT_decl_line(0x29)
    2406                    .dwattr $C$DW$T$68, DW_AT_decl_column(0x10)
    2407                    .dwendtag $C$DW$T$68
    2408            
    2409            $C$DW$T$94      .dwtag  DW_TAG_typedef
    2410                    .dwattr $C$DW$T$94, DW_AT_name("Timer_A_initContinuousModeParam")
    2411                    .dwattr $C$DW$T$94, DW_AT_type(*$C$DW$T$68)
    2412                    .dwattr $C$DW$T$94, DW_AT_language(DW_LANG_C)
    2413                    .dwattr $C$DW$T$94, DW_AT_decl_file("C:\ccs_challengespace\MSP430_LCD_display\driverlib\MSP430
    2414                    .dwattr $C$DW$T$94, DW_AT_decl_line(0x55)
    2415                    .dwattr $C$DW$T$94, DW_AT_decl_column(0x03)
    2416            
    2417            
    2418            $C$DW$T$69      .dwtag  DW_TAG_structure_type
    2419                    .dwattr $C$DW$T$69, DW_AT_name("Timer_A_initUpDownModeParam")
    2420                    .dwattr $C$DW$T$69, DW_AT_byte_size(0x0e)
    2421            $C$DW$172       .dwtag  DW_TAG_member
    2422                    .dwattr $C$DW$172, DW_AT_type(*$C$DW$T$26)
    2423                    .dwattr $C$DW$172, DW_AT_name("clockSource")
    2424                    .dwattr $C$DW$172, DW_AT_TI_symbol_name("clockSource")
    2425                    .dwattr $C$DW$172, DW_AT_data_member_location[DW_OP_plus_uconst 0x0]
    2426                    .dwattr $C$DW$172, DW_AT_accessibility(DW_ACCESS_public)
    2427                    .dwattr $C$DW$172, DW_AT_decl_file("C:\ccs_challengespace\MSP430_LCD_display\driverlib\MSP430F
    2428                    .dwattr $C$DW$172, DW_AT_decl_line(0x97)
    2429                    .dwattr $C$DW$172, DW_AT_decl_column(0x0e)
    2430            
    2431            $C$DW$173       .dwtag  DW_TAG_member
    2432                    .dwattr $C$DW$173, DW_AT_type(*$C$DW$T$26)
    2433                    .dwattr $C$DW$173, DW_AT_name("clockSourceDivider")
    2434                    .dwattr $C$DW$173, DW_AT_TI_symbol_name("clockSourceDivider")
    2435                    .dwattr $C$DW$173, DW_AT_data_member_location[DW_OP_plus_uconst 0x2]
    2436                    .dwattr $C$DW$173, DW_AT_accessibility(DW_ACCESS_public)
    2437                    .dwattr $C$DW$173, DW_AT_decl_file("C:\ccs_challengespace\MSP430_LCD_display\driverlib\MSP430F
    2438                    .dwattr $C$DW$173, DW_AT_decl_line(0xae)
    2439                    .dwattr $C$DW$173, DW_AT_decl_column(0x0e)
    2440            
    2441            $C$DW$174       .dwtag  DW_TAG_member
    2442                    .dwattr $C$DW$174, DW_AT_type(*$C$DW$T$26)
    2443                    .dwattr $C$DW$174, DW_AT_name("timerPeriod")
    2444                    .dwattr $C$DW$174, DW_AT_TI_symbol_name("timerPeriod")
    2445                    .dwattr $C$DW$174, DW_AT_data_member_location[DW_OP_plus_uconst 0x4]
    2446                    .dwattr $C$DW$174, DW_AT_accessibility(DW_ACCESS_public)
    2447                    .dwattr $C$DW$174, DW_AT_decl_file("C:\ccs_challengespace\MSP430_LCD_display\driverlib\MSP430F
    2448                    .dwattr $C$DW$174, DW_AT_decl_line(0xb0)
    2449                    .dwattr $C$DW$174, DW_AT_decl_column(0x0e)
    2450            
    2451            $C$DW$175       .dwtag  DW_TAG_member
    2452                    .dwattr $C$DW$175, DW_AT_type(*$C$DW$T$26)
    2453                    .dwattr $C$DW$175, DW_AT_name("timerInterruptEnable_TAIE")
    2454                    .dwattr $C$DW$175, DW_AT_TI_symbol_name("timerInterruptEnable_TAIE")
    2455                    .dwattr $C$DW$175, DW_AT_data_member_location[DW_OP_plus_uconst 0x6]
    2456                    .dwattr $C$DW$175, DW_AT_accessibility(DW_ACCESS_public)
    2457                    .dwattr $C$DW$175, DW_AT_decl_file("C:\ccs_challengespace\MSP430_LCD_display\driverlib\MSP430F
    2458                    .dwattr $C$DW$175, DW_AT_decl_line(0xb5)
    2459                    .dwattr $C$DW$175, DW_AT_decl_column(0x0e)
MSP430 Assembler PC v21.6.1 Tue Jan  3 09:51:30 2023

Copyright (c) 2003-2018 Texas Instruments Incorporated
main.asm                                                             PAGE   46

    2460            
    2461            $C$DW$176       .dwtag  DW_TAG_member
    2462                    .dwattr $C$DW$176, DW_AT_type(*$C$DW$T$26)
    2463                    .dwattr $C$DW$176, DW_AT_name("captureCompareInterruptEnable_CCR0_CCIE")
    2464                    .dwattr $C$DW$176, DW_AT_TI_symbol_name("captureCompareInterruptEnable_CCR0_CCIE")
    2465                    .dwattr $C$DW$176, DW_AT_data_member_location[DW_OP_plus_uconst 0x8]
    2466                    .dwattr $C$DW$176, DW_AT_accessibility(DW_ACCESS_public)
    2467                    .dwattr $C$DW$176, DW_AT_decl_file("C:\ccs_challengespace\MSP430_LCD_display\driverlib\MSP430F
    2468                    .dwattr $C$DW$176, DW_AT_decl_line(0xba)
    2469                    .dwattr $C$DW$176, DW_AT_decl_column(0x0e)
    2470            
    2471            $C$DW$177       .dwtag  DW_TAG_member
    2472                    .dwattr $C$DW$177, DW_AT_type(*$C$DW$T$26)
    2473                    .dwattr $C$DW$177, DW_AT_name("timerClear")
    2474                    .dwattr $C$DW$177, DW_AT_TI_symbol_name("timerClear")
    2475                    .dwattr $C$DW$177, DW_AT_data_member_location[DW_OP_plus_uconst 0xa]
    2476                    .dwattr $C$DW$177, DW_AT_accessibility(DW_ACCESS_public)
    2477                    .dwattr $C$DW$177, DW_AT_decl_file("C:\ccs_challengespace\MSP430_LCD_display\driverlib\MSP430F
    2478                    .dwattr $C$DW$177, DW_AT_decl_line(0xc0)
    2479                    .dwattr $C$DW$177, DW_AT_decl_column(0x0e)
    2480            
    2481            $C$DW$178       .dwtag  DW_TAG_member
    2482                    .dwattr $C$DW$178, DW_AT_type(*$C$DW$T$67)
    2483                    .dwattr $C$DW$178, DW_AT_name("startTimer")
    2484                    .dwattr $C$DW$178, DW_AT_TI_symbol_name("startTimer")
    2485                    .dwattr $C$DW$178, DW_AT_data_member_location[DW_OP_plus_uconst 0xc]
    2486                    .dwattr $C$DW$178, DW_AT_accessibility(DW_ACCESS_public)
    2487                    .dwattr $C$DW$178, DW_AT_decl_file("C:\ccs_challengespace\MSP430_LCD_display\driverlib\MSP430F
    2488                    .dwattr $C$DW$178, DW_AT_decl_line(0xc2)
    2489                    .dwattr $C$DW$178, DW_AT_decl_column(0x0a)
    2490            
    2491                    .dwattr $C$DW$T$69, DW_AT_decl_file("C:\ccs_challengespace\MSP430_LCD_display\driverlib\MSP430
    2492                    .dwattr $C$DW$T$69, DW_AT_decl_line(0x90)
    2493                    .dwattr $C$DW$T$69, DW_AT_decl_column(0x10)
    2494                    .dwendtag $C$DW$T$69
    2495            
    2496            $C$DW$T$95      .dwtag  DW_TAG_typedef
    2497                    .dwattr $C$DW$T$95, DW_AT_name("Timer_A_initUpDownModeParam")
    2498                    .dwattr $C$DW$T$95, DW_AT_type(*$C$DW$T$69)
    2499                    .dwattr $C$DW$T$95, DW_AT_language(DW_LANG_C)
    2500                    .dwattr $C$DW$T$95, DW_AT_decl_file("C:\ccs_challengespace\MSP430_LCD_display\driverlib\MSP430
    2501                    .dwattr $C$DW$T$95, DW_AT_decl_line(0xc3)
    2502                    .dwattr $C$DW$T$95, DW_AT_decl_column(0x03)
    2503            
    2504            
    2505            $C$DW$T$70      .dwtag  DW_TAG_structure_type
    2506                    .dwattr $C$DW$T$70, DW_AT_name("Timer_A_initUpModeParam")
    2507                    .dwattr $C$DW$T$70, DW_AT_byte_size(0x0e)
    2508            $C$DW$179       .dwtag  DW_TAG_member
    2509                    .dwattr $C$DW$179, DW_AT_type(*$C$DW$T$26)
    2510                    .dwattr $C$DW$179, DW_AT_name("clockSource")
    2511                    .dwattr $C$DW$179, DW_AT_TI_symbol_name("clockSource")
    2512                    .dwattr $C$DW$179, DW_AT_data_member_location[DW_OP_plus_uconst 0x0]
    2513                    .dwattr $C$DW$179, DW_AT_accessibility(DW_ACCESS_public)
    2514                    .dwattr $C$DW$179, DW_AT_decl_file("C:\ccs_challengespace\MSP430_LCD_display\driverlib\MSP430F
MSP430 Assembler PC v21.6.1 Tue Jan  3 09:51:30 2023

Copyright (c) 2003-2018 Texas Instruments Incorporated
main.asm                                                             PAGE   47

    2515                    .dwattr $C$DW$179, DW_AT_decl_line(0x10d)
    2516                    .dwattr $C$DW$179, DW_AT_decl_column(0x0e)
    2517            
    2518            $C$DW$180       .dwtag  DW_TAG_member
    2519                    .dwattr $C$DW$180, DW_AT_type(*$C$DW$T$26)
    2520                    .dwattr $C$DW$180, DW_AT_name("clockSourceDivider")
    2521                    .dwattr $C$DW$180, DW_AT_TI_symbol_name("clockSourceDivider")
    2522                    .dwattr $C$DW$180, DW_AT_data_member_location[DW_OP_plus_uconst 0x2]
    2523                    .dwattr $C$DW$180, DW_AT_accessibility(DW_ACCESS_public)
    2524                    .dwattr $C$DW$180, DW_AT_decl_file("C:\ccs_challengespace\MSP430_LCD_display\driverlib\MSP430F
    2525                    .dwattr $C$DW$180, DW_AT_decl_line(0x124)
    2526                    .dwattr $C$DW$180, DW_AT_decl_column(0x0e)
    2527            
    2528            $C$DW$181       .dwtag  DW_TAG_member
    2529                    .dwattr $C$DW$181, DW_AT_type(*$C$DW$T$26)
    2530                    .dwattr $C$DW$181, DW_AT_name("timerPeriod")
    2531                    .dwattr $C$DW$181, DW_AT_TI_symbol_name("timerPeriod")
    2532                    .dwattr $C$DW$181, DW_AT_data_member_location[DW_OP_plus_uconst 0x4]
    2533                    .dwattr $C$DW$181, DW_AT_accessibility(DW_ACCESS_public)
    2534                    .dwattr $C$DW$181, DW_AT_decl_file("C:\ccs_challengespace\MSP430_LCD_display\driverlib\MSP430F
    2535                    .dwattr $C$DW$181, DW_AT_decl_line(0x127)
    2536                    .dwattr $C$DW$181, DW_AT_decl_column(0x0e)
    2537            
    2538            $C$DW$182       .dwtag  DW_TAG_member
    2539                    .dwattr $C$DW$182, DW_AT_type(*$C$DW$T$26)
    2540                    .dwattr $C$DW$182, DW_AT_name("timerInterruptEnable_TAIE")
    2541                    .dwattr $C$DW$182, DW_AT_TI_symbol_name("timerInterruptEnable_TAIE")
    2542                    .dwattr $C$DW$182, DW_AT_data_member_location[DW_OP_plus_uconst 0x6]
    2543                    .dwattr $C$DW$182, DW_AT_accessibility(DW_ACCESS_public)
    2544                    .dwattr $C$DW$182, DW_AT_decl_file("C:\ccs_challengespace\MSP430_LCD_display\driverlib\MSP430F
    2545                    .dwattr $C$DW$182, DW_AT_decl_line(0x12c)
    2546                    .dwattr $C$DW$182, DW_AT_decl_column(0x0e)
    2547            
    2548            $C$DW$183       .dwtag  DW_TAG_member
    2549                    .dwattr $C$DW$183, DW_AT_type(*$C$DW$T$26)
    2550                    .dwattr $C$DW$183, DW_AT_name("captureCompareInterruptEnable_CCR0_CCIE")
    2551                    .dwattr $C$DW$183, DW_AT_TI_symbol_name("captureCompareInterruptEnable_CCR0_CCIE")
    2552                    .dwattr $C$DW$183, DW_AT_data_member_location[DW_OP_plus_uconst 0x8]
    2553                    .dwattr $C$DW$183, DW_AT_accessibility(DW_ACCESS_public)
    2554                    .dwattr $C$DW$183, DW_AT_decl_file("C:\ccs_challengespace\MSP430_LCD_display\driverlib\MSP430F
    2555                    .dwattr $C$DW$183, DW_AT_decl_line(0x131)
    2556                    .dwattr $C$DW$183, DW_AT_decl_column(0x0e)
    2557            
    2558            $C$DW$184       .dwtag  DW_TAG_member
    2559                    .dwattr $C$DW$184, DW_AT_type(*$C$DW$T$26)
    2560                    .dwattr $C$DW$184, DW_AT_name("timerClear")
    2561                    .dwattr $C$DW$184, DW_AT_TI_symbol_name("timerClear")
    2562                    .dwattr $C$DW$184, DW_AT_data_member_location[DW_OP_plus_uconst 0xa]
    2563                    .dwattr $C$DW$184, DW_AT_accessibility(DW_ACCESS_public)
    2564                    .dwattr $C$DW$184, DW_AT_decl_file("C:\ccs_challengespace\MSP430_LCD_display\driverlib\MSP430F
    2565                    .dwattr $C$DW$184, DW_AT_decl_line(0x137)
    2566                    .dwattr $C$DW$184, DW_AT_decl_column(0x0e)
    2567            
    2568            $C$DW$185       .dwtag  DW_TAG_member
    2569                    .dwattr $C$DW$185, DW_AT_type(*$C$DW$T$67)
MSP430 Assembler PC v21.6.1 Tue Jan  3 09:51:30 2023

Copyright (c) 2003-2018 Texas Instruments Incorporated
main.asm                                                             PAGE   48

    2570                    .dwattr $C$DW$185, DW_AT_name("startTimer")
    2571                    .dwattr $C$DW$185, DW_AT_TI_symbol_name("startTimer")
    2572                    .dwattr $C$DW$185, DW_AT_data_member_location[DW_OP_plus_uconst 0xc]
    2573                    .dwattr $C$DW$185, DW_AT_accessibility(DW_ACCESS_public)
    2574                    .dwattr $C$DW$185, DW_AT_decl_file("C:\ccs_challengespace\MSP430_LCD_display\driverlib\MSP430F
    2575                    .dwattr $C$DW$185, DW_AT_decl_line(0x139)
    2576                    .dwattr $C$DW$185, DW_AT_decl_column(0x0a)
    2577            
    2578                    .dwattr $C$DW$T$70, DW_AT_decl_file("C:\ccs_challengespace\MSP430_LCD_display\driverlib\MSP430
    2579                    .dwattr $C$DW$T$70, DW_AT_decl_line(0x106)
    2580                    .dwattr $C$DW$T$70, DW_AT_decl_column(0x10)
    2581                    .dwendtag $C$DW$T$70
    2582            
    2583            $C$DW$T$96      .dwtag  DW_TAG_typedef
    2584                    .dwattr $C$DW$T$96, DW_AT_name("Timer_A_initUpModeParam")
    2585                    .dwattr $C$DW$T$96, DW_AT_type(*$C$DW$T$70)
    2586                    .dwattr $C$DW$T$96, DW_AT_language(DW_LANG_C)
    2587                    .dwattr $C$DW$T$96, DW_AT_decl_file("C:\ccs_challengespace\MSP430_LCD_display\driverlib\MSP430
    2588                    .dwattr $C$DW$T$96, DW_AT_decl_line(0x13a)
    2589                    .dwattr $C$DW$T$96, DW_AT_decl_column(0x03)
    2590            
    2591            
    2592            $C$DW$T$71      .dwtag  DW_TAG_structure_type
    2593                    .dwattr $C$DW$T$71, DW_AT_name("Timer_A_outputPWMParam")
    2594                    .dwattr $C$DW$T$71, DW_AT_byte_size(0x0c)
    2595            $C$DW$186       .dwtag  DW_TAG_member
    2596                    .dwattr $C$DW$186, DW_AT_type(*$C$DW$T$26)
    2597                    .dwattr $C$DW$186, DW_AT_name("clockSource")
    2598                    .dwattr $C$DW$186, DW_AT_TI_symbol_name("clockSource")
    2599                    .dwattr $C$DW$186, DW_AT_data_member_location[DW_OP_plus_uconst 0x0]
    2600                    .dwattr $C$DW$186, DW_AT_accessibility(DW_ACCESS_public)
    2601                    .dwattr $C$DW$186, DW_AT_decl_file("C:\ccs_challengespace\MSP430_LCD_display\driverlib\MSP430F
    2602                    .dwattr $C$DW$186, DW_AT_decl_line(0xd1)
    2603                    .dwattr $C$DW$186, DW_AT_decl_column(0x0e)
    2604            
    2605            $C$DW$187       .dwtag  DW_TAG_member
    2606                    .dwattr $C$DW$187, DW_AT_type(*$C$DW$T$26)
    2607                    .dwattr $C$DW$187, DW_AT_name("clockSourceDivider")
    2608                    .dwattr $C$DW$187, DW_AT_TI_symbol_name("clockSourceDivider")
    2609                    .dwattr $C$DW$187, DW_AT_data_member_location[DW_OP_plus_uconst 0x2]
    2610                    .dwattr $C$DW$187, DW_AT_accessibility(DW_ACCESS_public)
    2611                    .dwattr $C$DW$187, DW_AT_decl_file("C:\ccs_challengespace\MSP430_LCD_display\driverlib\MSP430F
    2612                    .dwattr $C$DW$187, DW_AT_decl_line(0xe8)
    2613                    .dwattr $C$DW$187, DW_AT_decl_column(0x0e)
    2614            
    2615            $C$DW$188       .dwtag  DW_TAG_member
    2616                    .dwattr $C$DW$188, DW_AT_type(*$C$DW$T$26)
    2617                    .dwattr $C$DW$188, DW_AT_name("timerPeriod")
    2618                    .dwattr $C$DW$188, DW_AT_TI_symbol_name("timerPeriod")
    2619                    .dwattr $C$DW$188, DW_AT_data_member_location[DW_OP_plus_uconst 0x4]
    2620                    .dwattr $C$DW$188, DW_AT_accessibility(DW_ACCESS_public)
    2621                    .dwattr $C$DW$188, DW_AT_decl_file("C:\ccs_challengespace\MSP430_LCD_display\driverlib\MSP430F
    2622                    .dwattr $C$DW$188, DW_AT_decl_line(0xea)
    2623                    .dwattr $C$DW$188, DW_AT_decl_column(0x0e)
    2624            
MSP430 Assembler PC v21.6.1 Tue Jan  3 09:51:30 2023

Copyright (c) 2003-2018 Texas Instruments Incorporated
main.asm                                                             PAGE   49

    2625            $C$DW$189       .dwtag  DW_TAG_member
    2626                    .dwattr $C$DW$189, DW_AT_type(*$C$DW$T$26)
    2627                    .dwattr $C$DW$189, DW_AT_name("compareRegister")
    2628                    .dwattr $C$DW$189, DW_AT_TI_symbol_name("compareRegister")
    2629                    .dwattr $C$DW$189, DW_AT_data_member_location[DW_OP_plus_uconst 0x6]
    2630                    .dwattr $C$DW$189, DW_AT_accessibility(DW_ACCESS_public)
    2631                    .dwattr $C$DW$189, DW_AT_decl_file("C:\ccs_challengespace\MSP430_LCD_display\driverlib\MSP430F
    2632                    .dwattr $C$DW$189, DW_AT_decl_line(0xf1)
    2633                    .dwattr $C$DW$189, DW_AT_decl_column(0x0e)
    2634            
    2635            $C$DW$190       .dwtag  DW_TAG_member
    2636                    .dwattr $C$DW$190, DW_AT_type(*$C$DW$T$26)
    2637                    .dwattr $C$DW$190, DW_AT_name("compareOutputMode")
    2638                    .dwattr $C$DW$190, DW_AT_TI_symbol_name("compareOutputMode")
    2639                    .dwattr $C$DW$190, DW_AT_data_member_location[DW_OP_plus_uconst 0x8]
    2640                    .dwattr $C$DW$190, DW_AT_accessibility(DW_ACCESS_public)
    2641                    .dwattr $C$DW$190, DW_AT_decl_file("C:\ccs_challengespace\MSP430_LCD_display\driverlib\MSP430F
    2642                    .dwattr $C$DW$190, DW_AT_decl_line(0xfc)
    2643                    .dwattr $C$DW$190, DW_AT_decl_column(0x0e)
    2644            
    2645            $C$DW$191       .dwtag  DW_TAG_member
    2646                    .dwattr $C$DW$191, DW_AT_type(*$C$DW$T$26)
    2647                    .dwattr $C$DW$191, DW_AT_name("dutyCycle")
    2648                    .dwattr $C$DW$191, DW_AT_TI_symbol_name("dutyCycle")
    2649                    .dwattr $C$DW$191, DW_AT_data_member_location[DW_OP_plus_uconst 0xa]
    2650                    .dwattr $C$DW$191, DW_AT_accessibility(DW_ACCESS_public)
    2651                    .dwattr $C$DW$191, DW_AT_decl_file("C:\ccs_challengespace\MSP430_LCD_display\driverlib\MSP430F
    2652                    .dwattr $C$DW$191, DW_AT_decl_line(0xfe)
    2653                    .dwattr $C$DW$191, DW_AT_decl_column(0x0e)
    2654            
    2655                    .dwattr $C$DW$T$71, DW_AT_decl_file("C:\ccs_challengespace\MSP430_LCD_display\driverlib\MSP430
    2656                    .dwattr $C$DW$T$71, DW_AT_decl_line(0xca)
    2657                    .dwattr $C$DW$T$71, DW_AT_decl_column(0x10)
    2658                    .dwendtag $C$DW$T$71
    2659            
    2660            $C$DW$T$97      .dwtag  DW_TAG_typedef
    2661                    .dwattr $C$DW$T$97, DW_AT_name("Timer_A_outputPWMParam")
    2662                    .dwattr $C$DW$T$97, DW_AT_type(*$C$DW$T$71)
    2663                    .dwattr $C$DW$T$97, DW_AT_language(DW_LANG_C)
    2664                    .dwattr $C$DW$T$97, DW_AT_decl_file("C:\ccs_challengespace\MSP430_LCD_display\driverlib\MSP430
    2665                    .dwattr $C$DW$T$97, DW_AT_decl_line(0xff)
    2666                    .dwattr $C$DW$T$97, DW_AT_decl_column(0x03)
    2667            
    2668            $C$DW$T$2       .dwtag  DW_TAG_unspecified_type
    2669                    .dwattr $C$DW$T$2, DW_AT_name("void")
    2670            
    2671            
    2672            $C$DW$T$108     .dwtag  DW_TAG_subroutine_type
    2673                    .dwattr $C$DW$T$108, DW_AT_language(DW_LANG_C)
    2674                    .dwendtag $C$DW$T$108
    2675            
    2676            $C$DW$T$109     .dwtag  DW_TAG_pointer_type
    2677                    .dwattr $C$DW$T$109, DW_AT_type(*$C$DW$T$108)
    2678                    .dwattr $C$DW$T$109, DW_AT_address_class(0x14)
    2679            
MSP430 Assembler PC v21.6.1 Tue Jan  3 09:51:30 2023

Copyright (c) 2003-2018 Texas Instruments Incorporated
main.asm                                                             PAGE   50

    2680            $C$DW$T$110     .dwtag  DW_TAG_typedef
    2681                    .dwattr $C$DW$T$110, DW_AT_name("__SFR_FARPTR")
    2682                    .dwattr $C$DW$T$110, DW_AT_type(*$C$DW$T$109)
    2683                    .dwattr $C$DW$T$110, DW_AT_language(DW_LANG_C)
    2684                    .dwattr $C$DW$T$110, DW_AT_decl_file("C:\ti\ccs1110\ccs\ccs_base\msp430\include\msp430fr4133.h
    2685                    .dwattr $C$DW$T$110, DW_AT_decl_line(0x46)
    2686                    .dwattr $C$DW$T$110, DW_AT_decl_column(0x11)
    2687            
    2688            $C$DW$T$4       .dwtag  DW_TAG_base_type
    2689                    .dwattr $C$DW$T$4, DW_AT_encoding(DW_ATE_boolean)
    2690                    .dwattr $C$DW$T$4, DW_AT_name("bool")
    2691                    .dwattr $C$DW$T$4, DW_AT_byte_size(0x01)
    2692            
    2693            $C$DW$T$5       .dwtag  DW_TAG_base_type
    2694                    .dwattr $C$DW$T$5, DW_AT_encoding(DW_ATE_signed_char)
    2695                    .dwattr $C$DW$T$5, DW_AT_name("signed char")
    2696                    .dwattr $C$DW$T$5, DW_AT_byte_size(0x01)
    2697            
    2698            $C$DW$T$111     .dwtag  DW_TAG_typedef
    2699                    .dwattr $C$DW$T$111, DW_AT_name("__int8_t")
    2700                    .dwattr $C$DW$T$111, DW_AT_type(*$C$DW$T$5)
    2701                    .dwattr $C$DW$T$111, DW_AT_language(DW_LANG_C)
    2702                    .dwattr $C$DW$T$111, DW_AT_decl_file("C:/ti/ccs1110/ccs/tools/compiler/ti-cgt-msp430_21.6.1.LT
    2703                    .dwattr $C$DW$T$111, DW_AT_decl_line(0x36)
    2704                    .dwattr $C$DW$T$111, DW_AT_decl_column(0x16)
    2705            
    2706            $C$DW$T$112     .dwtag  DW_TAG_typedef
    2707                    .dwattr $C$DW$T$112, DW_AT_name("__int_least8_t")
    2708                    .dwattr $C$DW$T$112, DW_AT_type(*$C$DW$T$111)
    2709                    .dwattr $C$DW$T$112, DW_AT_language(DW_LANG_C)
    2710                    .dwattr $C$DW$T$112, DW_AT_decl_file("C:/ti/ccs1110/ccs/tools/compiler/ti-cgt-msp430_21.6.1.LT
    2711                    .dwattr $C$DW$T$112, DW_AT_decl_line(0x5a)
    2712                    .dwattr $C$DW$T$112, DW_AT_decl_column(0x12)
    2713            
    2714            $C$DW$T$113     .dwtag  DW_TAG_typedef
    2715                    .dwattr $C$DW$T$113, DW_AT_name("int_least8_t")
    2716                    .dwattr $C$DW$T$113, DW_AT_type(*$C$DW$T$112)
    2717                    .dwattr $C$DW$T$113, DW_AT_language(DW_LANG_C)
    2718                    .dwattr $C$DW$T$113, DW_AT_decl_file("C:/ti/ccs1110/ccs/tools/compiler/ti-cgt-msp430_21.6.1.LT
    2719                    .dwattr $C$DW$T$113, DW_AT_decl_line(0x2a)
    2720                    .dwattr $C$DW$T$113, DW_AT_decl_column(0x19)
    2721            
    2722            $C$DW$T$114     .dwtag  DW_TAG_typedef
    2723                    .dwattr $C$DW$T$114, DW_AT_name("int8_t")
    2724                    .dwattr $C$DW$T$114, DW_AT_type(*$C$DW$T$111)
    2725                    .dwattr $C$DW$T$114, DW_AT_language(DW_LANG_C)
    2726                    .dwattr $C$DW$T$114, DW_AT_decl_file("C:/ti/ccs1110/ccs/tools/compiler/ti-cgt-msp430_21.6.1.LT
    2727                    .dwattr $C$DW$T$114, DW_AT_decl_line(0x25)
    2728                    .dwattr $C$DW$T$114, DW_AT_decl_column(0x13)
    2729            
    2730            $C$DW$T$6       .dwtag  DW_TAG_base_type
    2731                    .dwattr $C$DW$T$6, DW_AT_encoding(DW_ATE_unsigned_char)
    2732                    .dwattr $C$DW$T$6, DW_AT_name("unsigned char")
    2733                    .dwattr $C$DW$T$6, DW_AT_byte_size(0x01)
    2734            
MSP430 Assembler PC v21.6.1 Tue Jan  3 09:51:30 2023

Copyright (c) 2003-2018 Texas Instruments Incorporated
main.asm                                                             PAGE   51

    2735            $C$DW$T$22      .dwtag  DW_TAG_typedef
    2736                    .dwattr $C$DW$T$22, DW_AT_name("__uint8_t")
    2737                    .dwattr $C$DW$T$22, DW_AT_type(*$C$DW$T$6)
    2738                    .dwattr $C$DW$T$22, DW_AT_language(DW_LANG_C)
    2739                    .dwattr $C$DW$T$22, DW_AT_decl_file("C:/ti/ccs1110/ccs/tools/compiler/ti-cgt-msp430_21.6.1.LTS
    2740                    .dwattr $C$DW$T$22, DW_AT_decl_line(0x37)
    2741                    .dwattr $C$DW$T$22, DW_AT_decl_column(0x18)
    2742            
    2743            $C$DW$T$115     .dwtag  DW_TAG_typedef
    2744                    .dwattr $C$DW$T$115, DW_AT_name("__sa_family_t")
    2745                    .dwattr $C$DW$T$115, DW_AT_type(*$C$DW$T$22)
    2746                    .dwattr $C$DW$T$115, DW_AT_language(DW_LANG_C)
    2747                    .dwattr $C$DW$T$115, DW_AT_decl_file("C:/ti/ccs1110/ccs/tools/compiler/ti-cgt-msp430_21.6.1.LT
    2748                    .dwattr $C$DW$T$115, DW_AT_decl_line(0x47)
    2749                    .dwattr $C$DW$T$115, DW_AT_decl_column(0x13)
    2750            
    2751            $C$DW$T$116     .dwtag  DW_TAG_typedef
    2752                    .dwattr $C$DW$T$116, DW_AT_name("__uint_least8_t")
    2753                    .dwattr $C$DW$T$116, DW_AT_type(*$C$DW$T$22)
    2754                    .dwattr $C$DW$T$116, DW_AT_language(DW_LANG_C)
    2755                    .dwattr $C$DW$T$116, DW_AT_decl_file("C:/ti/ccs1110/ccs/tools/compiler/ti-cgt-msp430_21.6.1.LT
    2756                    .dwattr $C$DW$T$116, DW_AT_decl_line(0x74)
    2757                    .dwattr $C$DW$T$116, DW_AT_decl_column(0x13)
    2758            
    2759            $C$DW$T$117     .dwtag  DW_TAG_typedef
    2760                    .dwattr $C$DW$T$117, DW_AT_name("uint_least8_t")
    2761                    .dwattr $C$DW$T$117, DW_AT_type(*$C$DW$T$116)
    2762                    .dwattr $C$DW$T$117, DW_AT_language(DW_LANG_C)
    2763                    .dwattr $C$DW$T$117, DW_AT_decl_file("C:/ti/ccs1110/ccs/tools/compiler/ti-cgt-msp430_21.6.1.LT
    2764                    .dwattr $C$DW$T$117, DW_AT_decl_line(0x2f)
    2765                    .dwattr $C$DW$T$117, DW_AT_decl_column(0x1a)
    2766            
    2767            $C$DW$T$23      .dwtag  DW_TAG_typedef
    2768                    .dwattr $C$DW$T$23, DW_AT_name("uint8_t")
    2769                    .dwattr $C$DW$T$23, DW_AT_type(*$C$DW$T$22)
    2770                    .dwattr $C$DW$T$23, DW_AT_language(DW_LANG_C)
    2771                    .dwattr $C$DW$T$23, DW_AT_decl_file("C:/ti/ccs1110/ccs/tools/compiler/ti-cgt-msp430_21.6.1.LTS
    2772                    .dwattr $C$DW$T$23, DW_AT_decl_line(0x3b)
    2773                    .dwattr $C$DW$T$23, DW_AT_decl_column(0x14)
    2774            
    2775            $C$DW$T$7       .dwtag  DW_TAG_base_type
    2776                    .dwattr $C$DW$T$7, DW_AT_encoding(DW_ATE_signed_char)
    2777                    .dwattr $C$DW$T$7, DW_AT_name("wchar_t")
    2778                    .dwattr $C$DW$T$7, DW_AT_byte_size(0x02)
    2779            
    2780            $C$DW$T$8       .dwtag  DW_TAG_base_type
    2781                    .dwattr $C$DW$T$8, DW_AT_encoding(DW_ATE_signed)
    2782                    .dwattr $C$DW$T$8, DW_AT_name("short")
    2783                    .dwattr $C$DW$T$8, DW_AT_byte_size(0x02)
    2784            
    2785            $C$DW$T$9       .dwtag  DW_TAG_base_type
    2786                    .dwattr $C$DW$T$9, DW_AT_encoding(DW_ATE_unsigned)
    2787                    .dwattr $C$DW$T$9, DW_AT_name("unsigned short")
    2788                    .dwattr $C$DW$T$9, DW_AT_byte_size(0x02)
    2789            
MSP430 Assembler PC v21.6.1 Tue Jan  3 09:51:30 2023

Copyright (c) 2003-2018 Texas Instruments Incorporated
main.asm                                                             PAGE   52

    2790            $C$DW$T$10      .dwtag  DW_TAG_base_type
    2791                    .dwattr $C$DW$T$10, DW_AT_encoding(DW_ATE_signed)
    2792                    .dwattr $C$DW$T$10, DW_AT_name("int")
    2793                    .dwattr $C$DW$T$10, DW_AT_byte_size(0x02)
    2794            
    2795            $C$DW$T$120     .dwtag  DW_TAG_typedef
    2796                    .dwattr $C$DW$T$120, DW_AT_name("_Mbstatet")
    2797                    .dwattr $C$DW$T$120, DW_AT_type(*$C$DW$T$10)
    2798                    .dwattr $C$DW$T$120, DW_AT_language(DW_LANG_C)
    2799                    .dwattr $C$DW$T$120, DW_AT_decl_file("C:/ti/ccs1110/ccs/tools/compiler/ti-cgt-msp430_21.6.1.LT
    2800                    .dwattr $C$DW$T$120, DW_AT_decl_line(0x8f)
    2801                    .dwattr $C$DW$T$120, DW_AT_decl_column(0x0d)
    2802            
    2803            $C$DW$T$121     .dwtag  DW_TAG_typedef
    2804                    .dwattr $C$DW$T$121, DW_AT_name("__mbstate_t")
    2805                    .dwattr $C$DW$T$121, DW_AT_type(*$C$DW$T$120)
    2806                    .dwattr $C$DW$T$121, DW_AT_language(DW_LANG_C)
    2807                    .dwattr $C$DW$T$121, DW_AT_decl_file("C:/ti/ccs1110/ccs/tools/compiler/ti-cgt-msp430_21.6.1.LT
    2808                    .dwattr $C$DW$T$121, DW_AT_decl_line(0x92)
    2809                    .dwattr $C$DW$T$121, DW_AT_decl_column(0x13)
    2810            
    2811            $C$DW$T$122     .dwtag  DW_TAG_typedef
    2812                    .dwattr $C$DW$T$122, DW_AT_name("__accmode_t")
    2813                    .dwattr $C$DW$T$122, DW_AT_type(*$C$DW$T$10)
    2814                    .dwattr $C$DW$T$122, DW_AT_language(DW_LANG_C)
    2815                    .dwattr $C$DW$T$122, DW_AT_decl_file("C:/ti/ccs1110/ccs/tools/compiler/ti-cgt-msp430_21.6.1.LT
    2816                    .dwattr $C$DW$T$122, DW_AT_decl_line(0x3b)
    2817                    .dwattr $C$DW$T$122, DW_AT_decl_column(0x0e)
    2818            
    2819            $C$DW$T$123     .dwtag  DW_TAG_typedef
    2820                    .dwattr $C$DW$T$123, DW_AT_name("__cpulevel_t")
    2821                    .dwattr $C$DW$T$123, DW_AT_type(*$C$DW$T$10)
    2822                    .dwattr $C$DW$T$123, DW_AT_language(DW_LANG_C)
    2823                    .dwattr $C$DW$T$123, DW_AT_decl_file("C:/ti/ccs1110/ccs/tools/compiler/ti-cgt-msp430_21.6.1.LT
    2824                    .dwattr $C$DW$T$123, DW_AT_decl_line(0x50)
    2825                    .dwattr $C$DW$T$123, DW_AT_decl_column(0x0e)
    2826            
    2827            $C$DW$T$124     .dwtag  DW_TAG_typedef
    2828                    .dwattr $C$DW$T$124, DW_AT_name("__cpusetid_t")
    2829                    .dwattr $C$DW$T$124, DW_AT_type(*$C$DW$T$10)
    2830                    .dwattr $C$DW$T$124, DW_AT_language(DW_LANG_C)
    2831                    .dwattr $C$DW$T$124, DW_AT_decl_file("C:/ti/ccs1110/ccs/tools/compiler/ti-cgt-msp430_21.6.1.LT
    2832                    .dwattr $C$DW$T$124, DW_AT_decl_line(0x51)
    2833                    .dwattr $C$DW$T$124, DW_AT_decl_column(0x0e)
    2834            
    2835            $C$DW$T$125     .dwtag  DW_TAG_typedef
    2836                    .dwattr $C$DW$T$125, DW_AT_name("__cpuwhich_t")
    2837                    .dwattr $C$DW$T$125, DW_AT_type(*$C$DW$T$10)
    2838                    .dwattr $C$DW$T$125, DW_AT_language(DW_LANG_C)
    2839                    .dwattr $C$DW$T$125, DW_AT_decl_file("C:/ti/ccs1110/ccs/tools/compiler/ti-cgt-msp430_21.6.1.LT
    2840                    .dwattr $C$DW$T$125, DW_AT_decl_line(0x4f)
    2841                    .dwattr $C$DW$T$125, DW_AT_decl_column(0x0e)
    2842            
    2843            $C$DW$T$126     .dwtag  DW_TAG_typedef
    2844                    .dwattr $C$DW$T$126, DW_AT_name("__ct_rune_t")
MSP430 Assembler PC v21.6.1 Tue Jan  3 09:51:30 2023

Copyright (c) 2003-2018 Texas Instruments Incorporated
main.asm                                                             PAGE   53

    2845                    .dwattr $C$DW$T$126, DW_AT_type(*$C$DW$T$10)
    2846                    .dwattr $C$DW$T$126, DW_AT_language(DW_LANG_C)
    2847                    .dwattr $C$DW$T$126, DW_AT_decl_file("C:/ti/ccs1110/ccs/tools/compiler/ti-cgt-msp430_21.6.1.LT
    2848                    .dwattr $C$DW$T$126, DW_AT_decl_line(0x69)
    2849                    .dwattr $C$DW$T$126, DW_AT_decl_column(0x0e)
    2850            
    2851            $C$DW$T$127     .dwtag  DW_TAG_typedef
    2852                    .dwattr $C$DW$T$127, DW_AT_name("__rune_t")
    2853                    .dwattr $C$DW$T$127, DW_AT_type(*$C$DW$T$126)
    2854                    .dwattr $C$DW$T$127, DW_AT_language(DW_LANG_C)
    2855                    .dwattr $C$DW$T$127, DW_AT_decl_file("C:/ti/ccs1110/ccs/tools/compiler/ti-cgt-msp430_21.6.1.LT
    2856                    .dwattr $C$DW$T$127, DW_AT_decl_line(0x6c)
    2857                    .dwattr $C$DW$T$127, DW_AT_decl_column(0x15)
    2858            
    2859            $C$DW$T$128     .dwtag  DW_TAG_typedef
    2860                    .dwattr $C$DW$T$128, DW_AT_name("__wint_t")
    2861                    .dwattr $C$DW$T$128, DW_AT_type(*$C$DW$T$126)
    2862                    .dwattr $C$DW$T$128, DW_AT_language(DW_LANG_C)
    2863                    .dwattr $C$DW$T$128, DW_AT_decl_file("C:/ti/ccs1110/ccs/tools/compiler/ti-cgt-msp430_21.6.1.LT
    2864                    .dwattr $C$DW$T$128, DW_AT_decl_line(0x6d)
    2865                    .dwattr $C$DW$T$128, DW_AT_decl_column(0x15)
    2866            
    2867            $C$DW$T$73      .dwtag  DW_TAG_typedef
    2868                    .dwattr $C$DW$T$73, DW_AT_name("__int16_t")
    2869                    .dwattr $C$DW$T$73, DW_AT_type(*$C$DW$T$10)
    2870                    .dwattr $C$DW$T$73, DW_AT_language(DW_LANG_C)
    2871                    .dwattr $C$DW$T$73, DW_AT_decl_file("C:/ti/ccs1110/ccs/tools/compiler/ti-cgt-msp430_21.6.1.LTS
    2872                    .dwattr $C$DW$T$73, DW_AT_decl_line(0x38)
    2873                    .dwattr $C$DW$T$73, DW_AT_decl_column(0x0f)
    2874            
    2875            $C$DW$T$129     .dwtag  DW_TAG_typedef
    2876                    .dwattr $C$DW$T$129, DW_AT_name("__int_fast16_t")
    2877                    .dwattr $C$DW$T$129, DW_AT_type(*$C$DW$T$73)
    2878                    .dwattr $C$DW$T$129, DW_AT_language(DW_LANG_C)
    2879                    .dwattr $C$DW$T$129, DW_AT_decl_file("C:/ti/ccs1110/ccs/tools/compiler/ti-cgt-msp430_21.6.1.LT
    2880                    .dwattr $C$DW$T$129, DW_AT_decl_line(0x57)
    2881                    .dwattr $C$DW$T$129, DW_AT_decl_column(0x13)
    2882            
    2883            $C$DW$T$130     .dwtag  DW_TAG_typedef
    2884                    .dwattr $C$DW$T$130, DW_AT_name("int_fast16_t")
    2885                    .dwattr $C$DW$T$130, DW_AT_type(*$C$DW$T$129)
    2886                    .dwattr $C$DW$T$130, DW_AT_language(DW_LANG_C)
    2887                    .dwattr $C$DW$T$130, DW_AT_decl_file("C:/ti/ccs1110/ccs/tools/compiler/ti-cgt-msp430_21.6.1.LT
    2888                    .dwattr $C$DW$T$130, DW_AT_decl_line(0x35)
    2889                    .dwattr $C$DW$T$130, DW_AT_decl_column(0x19)
    2890            
    2891            $C$DW$T$131     .dwtag  DW_TAG_typedef
    2892                    .dwattr $C$DW$T$131, DW_AT_name("__int_fast8_t")
    2893                    .dwattr $C$DW$T$131, DW_AT_type(*$C$DW$T$73)
    2894                    .dwattr $C$DW$T$131, DW_AT_language(DW_LANG_C)
    2895                    .dwattr $C$DW$T$131, DW_AT_decl_file("C:/ti/ccs1110/ccs/tools/compiler/ti-cgt-msp430_21.6.1.LT
    2896                    .dwattr $C$DW$T$131, DW_AT_decl_line(0x56)
    2897                    .dwattr $C$DW$T$131, DW_AT_decl_column(0x13)
    2898            
    2899            $C$DW$T$132     .dwtag  DW_TAG_typedef
MSP430 Assembler PC v21.6.1 Tue Jan  3 09:51:30 2023

Copyright (c) 2003-2018 Texas Instruments Incorporated
main.asm                                                             PAGE   54

    2900                    .dwattr $C$DW$T$132, DW_AT_name("int_fast8_t")
    2901                    .dwattr $C$DW$T$132, DW_AT_type(*$C$DW$T$131)
    2902                    .dwattr $C$DW$T$132, DW_AT_language(DW_LANG_C)
    2903                    .dwattr $C$DW$T$132, DW_AT_decl_file("C:/ti/ccs1110/ccs/tools/compiler/ti-cgt-msp430_21.6.1.LT
    2904                    .dwattr $C$DW$T$132, DW_AT_decl_line(0x34)
    2905                    .dwattr $C$DW$T$132, DW_AT_decl_column(0x18)
    2906            
    2907            $C$DW$T$133     .dwtag  DW_TAG_typedef
    2908                    .dwattr $C$DW$T$133, DW_AT_name("__int_least16_t")
    2909                    .dwattr $C$DW$T$133, DW_AT_type(*$C$DW$T$73)
    2910                    .dwattr $C$DW$T$133, DW_AT_language(DW_LANG_C)
    2911                    .dwattr $C$DW$T$133, DW_AT_decl_file("C:/ti/ccs1110/ccs/tools/compiler/ti-cgt-msp430_21.6.1.LT
    2912                    .dwattr $C$DW$T$133, DW_AT_decl_line(0x5b)
    2913                    .dwattr $C$DW$T$133, DW_AT_decl_column(0x13)
    2914            
    2915            $C$DW$T$134     .dwtag  DW_TAG_typedef
    2916                    .dwattr $C$DW$T$134, DW_AT_name("int_least16_t")
    2917                    .dwattr $C$DW$T$134, DW_AT_type(*$C$DW$T$133)
    2918                    .dwattr $C$DW$T$134, DW_AT_language(DW_LANG_C)
    2919                    .dwattr $C$DW$T$134, DW_AT_decl_file("C:/ti/ccs1110/ccs/tools/compiler/ti-cgt-msp430_21.6.1.LT
    2920                    .dwattr $C$DW$T$134, DW_AT_decl_line(0x2b)
    2921                    .dwattr $C$DW$T$134, DW_AT_decl_column(0x1a)
    2922            
    2923            $C$DW$T$135     .dwtag  DW_TAG_typedef
    2924                    .dwattr $C$DW$T$135, DW_AT_name("__register_t")
    2925                    .dwattr $C$DW$T$135, DW_AT_type(*$C$DW$T$73)
    2926                    .dwattr $C$DW$T$135, DW_AT_language(DW_LANG_C)
    2927                    .dwattr $C$DW$T$135, DW_AT_decl_file("C:/ti/ccs1110/ccs/tools/compiler/ti-cgt-msp430_21.6.1.LT
    2928                    .dwattr $C$DW$T$135, DW_AT_decl_line(0x5f)
    2929                    .dwattr $C$DW$T$135, DW_AT_decl_column(0x13)
    2930            
    2931            $C$DW$T$74      .dwtag  DW_TAG_typedef
    2932                    .dwattr $C$DW$T$74, DW_AT_name("int16_t")
    2933                    .dwattr $C$DW$T$74, DW_AT_type(*$C$DW$T$73)
    2934                    .dwattr $C$DW$T$74, DW_AT_language(DW_LANG_C)
    2935                    .dwattr $C$DW$T$74, DW_AT_decl_file("C:/ti/ccs1110/ccs/tools/compiler/ti-cgt-msp430_21.6.1.LTS
    2936                    .dwattr $C$DW$T$74, DW_AT_decl_line(0x2b)
    2937                    .dwattr $C$DW$T$74, DW_AT_decl_column(0x14)
    2938            
    2939            $C$DW$T$136     .dwtag  DW_TAG_typedef
    2940                    .dwattr $C$DW$T$136, DW_AT_name("__nl_item")
    2941                    .dwattr $C$DW$T$136, DW_AT_type(*$C$DW$T$10)
    2942                    .dwattr $C$DW$T$136, DW_AT_language(DW_LANG_C)
    2943                    .dwattr $C$DW$T$136, DW_AT_decl_file("C:/ti/ccs1110/ccs/tools/compiler/ti-cgt-msp430_21.6.1.LT
    2944                    .dwattr $C$DW$T$136, DW_AT_decl_line(0x3c)
    2945                    .dwattr $C$DW$T$136, DW_AT_decl_column(0x0e)
    2946            
    2947            $C$DW$T$137     .dwtag  DW_TAG_typedef
    2948                    .dwattr $C$DW$T$137, DW_AT_name("__ptrdiff_t")
    2949                    .dwattr $C$DW$T$137, DW_AT_type(*$C$DW$T$10)
    2950                    .dwattr $C$DW$T$137, DW_AT_language(DW_LANG_C)
    2951                    .dwattr $C$DW$T$137, DW_AT_decl_file("C:/ti/ccs1110/ccs/tools/compiler/ti-cgt-msp430_21.6.1.LT
    2952                    .dwattr $C$DW$T$137, DW_AT_decl_line(0x5e)
    2953                    .dwattr $C$DW$T$137, DW_AT_decl_column(0x1c)
    2954            
MSP430 Assembler PC v21.6.1 Tue Jan  3 09:51:30 2023

Copyright (c) 2003-2018 Texas Instruments Incorporated
main.asm                                                             PAGE   55

    2955            $C$DW$T$11      .dwtag  DW_TAG_base_type
    2956                    .dwattr $C$DW$T$11, DW_AT_encoding(DW_ATE_unsigned)
    2957                    .dwattr $C$DW$T$11, DW_AT_name("unsigned int")
    2958                    .dwattr $C$DW$T$11, DW_AT_byte_size(0x02)
    2959            
    2960            $C$DW$T$138     .dwtag  DW_TAG_typedef
    2961                    .dwattr $C$DW$T$138, DW_AT_name("___wchar_t")
    2962                    .dwattr $C$DW$T$138, DW_AT_type(*$C$DW$T$11)
    2963                    .dwattr $C$DW$T$138, DW_AT_language(DW_LANG_C)
    2964                    .dwattr $C$DW$T$138, DW_AT_decl_file("C:/ti/ccs1110/ccs/tools/compiler/ti-cgt-msp430_21.6.1.LT
    2965                    .dwattr $C$DW$T$138, DW_AT_decl_line(0x7d)
    2966                    .dwattr $C$DW$T$138, DW_AT_decl_column(0x1a)
    2967            
    2968            $C$DW$T$139     .dwtag  DW_TAG_volatile_type
    2969                    .dwattr $C$DW$T$139, DW_AT_type(*$C$DW$T$11)
    2970            
    2971            $C$DW$T$140     .dwtag  DW_TAG_typedef
    2972                    .dwattr $C$DW$T$140, DW_AT_name("__size_t")
    2973                    .dwattr $C$DW$T$140, DW_AT_type(*$C$DW$T$11)
    2974                    .dwattr $C$DW$T$140, DW_AT_language(DW_LANG_C)
    2975                    .dwattr $C$DW$T$140, DW_AT_decl_file("C:/ti/ccs1110/ccs/tools/compiler/ti-cgt-msp430_21.6.1.LT
    2976                    .dwattr $C$DW$T$140, DW_AT_decl_line(0x61)
    2977                    .dwattr $C$DW$T$140, DW_AT_decl_column(0x19)
    2978            
    2979            $C$DW$T$25      .dwtag  DW_TAG_typedef
    2980                    .dwattr $C$DW$T$25, DW_AT_name("__uint16_t")
    2981                    .dwattr $C$DW$T$25, DW_AT_type(*$C$DW$T$11)
    2982                    .dwattr $C$DW$T$25, DW_AT_language(DW_LANG_C)
    2983                    .dwattr $C$DW$T$25, DW_AT_decl_file("C:/ti/ccs1110/ccs/tools/compiler/ti-cgt-msp430_21.6.1.LTS
    2984                    .dwattr $C$DW$T$25, DW_AT_decl_line(0x39)
    2985                    .dwattr $C$DW$T$25, DW_AT_decl_column(0x17)
    2986            
    2987            $C$DW$T$141     .dwtag  DW_TAG_typedef
    2988                    .dwattr $C$DW$T$141, DW_AT_name("__mode_t")
    2989                    .dwattr $C$DW$T$141, DW_AT_type(*$C$DW$T$25)
    2990                    .dwattr $C$DW$T$141, DW_AT_language(DW_LANG_C)
    2991                    .dwattr $C$DW$T$141, DW_AT_decl_file("C:/ti/ccs1110/ccs/tools/compiler/ti-cgt-msp430_21.6.1.LT
    2992                    .dwattr $C$DW$T$141, DW_AT_decl_line(0x3a)
    2993                    .dwattr $C$DW$T$141, DW_AT_decl_column(0x14)
    2994            
    2995            $C$DW$T$142     .dwtag  DW_TAG_typedef
    2996                    .dwattr $C$DW$T$142, DW_AT_name("__u_register_t")
    2997                    .dwattr $C$DW$T$142, DW_AT_type(*$C$DW$T$25)
    2998                    .dwattr $C$DW$T$142, DW_AT_language(DW_LANG_C)
    2999                    .dwattr $C$DW$T$142, DW_AT_decl_file("C:/ti/ccs1110/ccs/tools/compiler/ti-cgt-msp430_21.6.1.LT
    3000                    .dwattr $C$DW$T$142, DW_AT_decl_line(0x78)
    3001                    .dwattr $C$DW$T$142, DW_AT_decl_column(0x14)
    3002            
    3003            $C$DW$T$143     .dwtag  DW_TAG_typedef
    3004                    .dwattr $C$DW$T$143, DW_AT_name("__uint_fast16_t")
    3005                    .dwattr $C$DW$T$143, DW_AT_type(*$C$DW$T$25)
    3006                    .dwattr $C$DW$T$143, DW_AT_language(DW_LANG_C)
    3007                    .dwattr $C$DW$T$143, DW_AT_decl_file("C:/ti/ccs1110/ccs/tools/compiler/ti-cgt-msp430_21.6.1.LT
    3008                    .dwattr $C$DW$T$143, DW_AT_decl_line(0x71)
    3009                    .dwattr $C$DW$T$143, DW_AT_decl_column(0x14)
MSP430 Assembler PC v21.6.1 Tue Jan  3 09:51:30 2023

Copyright (c) 2003-2018 Texas Instruments Incorporated
main.asm                                                             PAGE   56

    3010            
    3011            $C$DW$T$144     .dwtag  DW_TAG_typedef
    3012                    .dwattr $C$DW$T$144, DW_AT_name("uint_fast16_t")
    3013                    .dwattr $C$DW$T$144, DW_AT_type(*$C$DW$T$143)
    3014                    .dwattr $C$DW$T$144, DW_AT_language(DW_LANG_C)
    3015                    .dwattr $C$DW$T$144, DW_AT_decl_file("C:/ti/ccs1110/ccs/tools/compiler/ti-cgt-msp430_21.6.1.LT
    3016                    .dwattr $C$DW$T$144, DW_AT_decl_line(0x3a)
    3017                    .dwattr $C$DW$T$144, DW_AT_decl_column(0x1a)
    3018            
    3019            $C$DW$T$145     .dwtag  DW_TAG_typedef
    3020                    .dwattr $C$DW$T$145, DW_AT_name("__uint_fast8_t")
    3021                    .dwattr $C$DW$T$145, DW_AT_type(*$C$DW$T$25)
    3022                    .dwattr $C$DW$T$145, DW_AT_language(DW_LANG_C)
    3023                    .dwattr $C$DW$T$145, DW_AT_decl_file("C:/ti/ccs1110/ccs/tools/compiler/ti-cgt-msp430_21.6.1.LT
    3024                    .dwattr $C$DW$T$145, DW_AT_decl_line(0x70)
    3025                    .dwattr $C$DW$T$145, DW_AT_decl_column(0x14)
    3026            
    3027            $C$DW$T$146     .dwtag  DW_TAG_typedef
    3028                    .dwattr $C$DW$T$146, DW_AT_name("uint_fast8_t")
    3029                    .dwattr $C$DW$T$146, DW_AT_type(*$C$DW$T$145)
    3030                    .dwattr $C$DW$T$146, DW_AT_language(DW_LANG_C)
    3031                    .dwattr $C$DW$T$146, DW_AT_decl_file("C:/ti/ccs1110/ccs/tools/compiler/ti-cgt-msp430_21.6.1.LT
    3032                    .dwattr $C$DW$T$146, DW_AT_decl_line(0x39)
    3033                    .dwattr $C$DW$T$146, DW_AT_decl_column(0x19)
    3034            
    3035            $C$DW$T$147     .dwtag  DW_TAG_typedef
    3036                    .dwattr $C$DW$T$147, DW_AT_name("__uint_least16_t")
    3037                    .dwattr $C$DW$T$147, DW_AT_type(*$C$DW$T$25)
    3038                    .dwattr $C$DW$T$147, DW_AT_language(DW_LANG_C)
    3039                    .dwattr $C$DW$T$147, DW_AT_decl_file("C:/ti/ccs1110/ccs/tools/compiler/ti-cgt-msp430_21.6.1.LT
    3040                    .dwattr $C$DW$T$147, DW_AT_decl_line(0x75)
    3041                    .dwattr $C$DW$T$147, DW_AT_decl_column(0x14)
    3042            
    3043            $C$DW$T$148     .dwtag  DW_TAG_typedef
    3044                    .dwattr $C$DW$T$148, DW_AT_name("__char16_t")
    3045                    .dwattr $C$DW$T$148, DW_AT_type(*$C$DW$T$147)
    3046                    .dwattr $C$DW$T$148, DW_AT_language(DW_LANG_C)
    3047                    .dwattr $C$DW$T$148, DW_AT_decl_file("C:/ti/ccs1110/ccs/tools/compiler/ti-cgt-msp430_21.6.1.LT
    3048                    .dwattr $C$DW$T$148, DW_AT_decl_line(0x71)
    3049                    .dwattr $C$DW$T$148, DW_AT_decl_column(0x1a)
    3050            
    3051            $C$DW$T$149     .dwtag  DW_TAG_typedef
    3052                    .dwattr $C$DW$T$149, DW_AT_name("uint_least16_t")
    3053                    .dwattr $C$DW$T$149, DW_AT_type(*$C$DW$T$147)
    3054                    .dwattr $C$DW$T$149, DW_AT_language(DW_LANG_C)
    3055                    .dwattr $C$DW$T$149, DW_AT_decl_file("C:/ti/ccs1110/ccs/tools/compiler/ti-cgt-msp430_21.6.1.LT
    3056                    .dwattr $C$DW$T$149, DW_AT_decl_line(0x30)
    3057                    .dwattr $C$DW$T$149, DW_AT_decl_column(0x1a)
    3058            
    3059            $C$DW$T$26      .dwtag  DW_TAG_typedef
    3060                    .dwattr $C$DW$T$26, DW_AT_name("uint16_t")
    3061                    .dwattr $C$DW$T$26, DW_AT_type(*$C$DW$T$25)
    3062                    .dwattr $C$DW$T$26, DW_AT_language(DW_LANG_C)
    3063                    .dwattr $C$DW$T$26, DW_AT_decl_file("C:/ti/ccs1110/ccs/tools/compiler/ti-cgt-msp430_21.6.1.LTS
    3064                    .dwattr $C$DW$T$26, DW_AT_decl_line(0x41)
MSP430 Assembler PC v21.6.1 Tue Jan  3 09:51:30 2023

Copyright (c) 2003-2018 Texas Instruments Incorporated
main.asm                                                             PAGE   57

    3065                    .dwattr $C$DW$T$26, DW_AT_decl_column(0x15)
    3066            
    3067            $C$DW$T$31      .dwtag  DW_TAG_const_type
    3068                    .dwattr $C$DW$T$31, DW_AT_type(*$C$DW$T$26)
    3069            
    3070            $C$DW$T$150     .dwtag  DW_TAG_typedef
    3071                    .dwattr $C$DW$T$150, DW_AT_name("__useconds_t")
    3072                    .dwattr $C$DW$T$150, DW_AT_type(*$C$DW$T$11)
    3073                    .dwattr $C$DW$T$150, DW_AT_language(DW_LANG_C)
    3074                    .dwattr $C$DW$T$150, DW_AT_decl_file("C:/ti/ccs1110/ccs/tools/compiler/ti-cgt-msp430_21.6.1.LT
    3075                    .dwattr $C$DW$T$150, DW_AT_decl_line(0x4e)
    3076                    .dwattr $C$DW$T$150, DW_AT_decl_column(0x16)
    3077            
    3078            $C$DW$T$12      .dwtag  DW_TAG_base_type
    3079                    .dwattr $C$DW$T$12, DW_AT_encoding(DW_ATE_signed)
    3080                    .dwattr $C$DW$T$12, DW_AT_name("long")
    3081                    .dwattr $C$DW$T$12, DW_AT_byte_size(0x04)
    3082            
    3083            $C$DW$T$151     .dwtag  DW_TAG_typedef
    3084                    .dwattr $C$DW$T$151, DW_AT_name("__int32_t")
    3085                    .dwattr $C$DW$T$151, DW_AT_type(*$C$DW$T$12)
    3086                    .dwattr $C$DW$T$151, DW_AT_language(DW_LANG_C)
    3087                    .dwattr $C$DW$T$151, DW_AT_decl_file("C:/ti/ccs1110/ccs/tools/compiler/ti-cgt-msp430_21.6.1.LT
    3088                    .dwattr $C$DW$T$151, DW_AT_decl_line(0x3a)
    3089                    .dwattr $C$DW$T$151, DW_AT_decl_column(0x10)
    3090            
    3091            $C$DW$T$152     .dwtag  DW_TAG_typedef
    3092                    .dwattr $C$DW$T$152, DW_AT_name("__blksize_t")
    3093                    .dwattr $C$DW$T$152, DW_AT_type(*$C$DW$T$151)
    3094                    .dwattr $C$DW$T$152, DW_AT_language(DW_LANG_C)
    3095                    .dwattr $C$DW$T$152, DW_AT_decl_file("C:/ti/ccs1110/ccs/tools/compiler/ti-cgt-msp430_21.6.1.LT
    3096                    .dwattr $C$DW$T$152, DW_AT_decl_line(0x2f)
    3097                    .dwattr $C$DW$T$152, DW_AT_decl_column(0x13)
    3098            
    3099            $C$DW$T$153     .dwtag  DW_TAG_typedef
    3100                    .dwattr $C$DW$T$153, DW_AT_name("__clockid_t")
    3101                    .dwattr $C$DW$T$153, DW_AT_type(*$C$DW$T$151)
    3102                    .dwattr $C$DW$T$153, DW_AT_language(DW_LANG_C)
    3103                    .dwattr $C$DW$T$153, DW_AT_decl_file("C:/ti/ccs1110/ccs/tools/compiler/ti-cgt-msp430_21.6.1.LT
    3104                    .dwattr $C$DW$T$153, DW_AT_decl_line(0x31)
    3105                    .dwattr $C$DW$T$153, DW_AT_decl_column(0x13)
    3106            
    3107            $C$DW$T$154     .dwtag  DW_TAG_typedef
    3108                    .dwattr $C$DW$T$154, DW_AT_name("__critical_t")
    3109                    .dwattr $C$DW$T$154, DW_AT_type(*$C$DW$T$151)
    3110                    .dwattr $C$DW$T$154, DW_AT_language(DW_LANG_C)
    3111                    .dwattr $C$DW$T$154, DW_AT_decl_file("C:/ti/ccs1110/ccs/tools/compiler/ti-cgt-msp430_21.6.1.LT
    3112                    .dwattr $C$DW$T$154, DW_AT_decl_line(0x4b)
    3113                    .dwattr $C$DW$T$154, DW_AT_decl_column(0x13)
    3114            
    3115            $C$DW$T$155     .dwtag  DW_TAG_typedef
    3116                    .dwattr $C$DW$T$155, DW_AT_name("__int_fast32_t")
    3117                    .dwattr $C$DW$T$155, DW_AT_type(*$C$DW$T$151)
    3118                    .dwattr $C$DW$T$155, DW_AT_language(DW_LANG_C)
    3119                    .dwattr $C$DW$T$155, DW_AT_decl_file("C:/ti/ccs1110/ccs/tools/compiler/ti-cgt-msp430_21.6.1.LT
MSP430 Assembler PC v21.6.1 Tue Jan  3 09:51:30 2023

Copyright (c) 2003-2018 Texas Instruments Incorporated
main.asm                                                             PAGE   58

    3120                    .dwattr $C$DW$T$155, DW_AT_decl_line(0x58)
    3121                    .dwattr $C$DW$T$155, DW_AT_decl_column(0x13)
    3122            
    3123            $C$DW$T$156     .dwtag  DW_TAG_typedef
    3124                    .dwattr $C$DW$T$156, DW_AT_name("int_fast32_t")
    3125                    .dwattr $C$DW$T$156, DW_AT_type(*$C$DW$T$155)
    3126                    .dwattr $C$DW$T$156, DW_AT_language(DW_LANG_C)
    3127                    .dwattr $C$DW$T$156, DW_AT_decl_file("C:/ti/ccs1110/ccs/tools/compiler/ti-cgt-msp430_21.6.1.LT
    3128                    .dwattr $C$DW$T$156, DW_AT_decl_line(0x36)
    3129                    .dwattr $C$DW$T$156, DW_AT_decl_column(0x19)
    3130            
    3131            $C$DW$T$157     .dwtag  DW_TAG_typedef
    3132                    .dwattr $C$DW$T$157, DW_AT_name("__int_least32_t")
    3133                    .dwattr $C$DW$T$157, DW_AT_type(*$C$DW$T$151)
    3134                    .dwattr $C$DW$T$157, DW_AT_language(DW_LANG_C)
    3135                    .dwattr $C$DW$T$157, DW_AT_decl_file("C:/ti/ccs1110/ccs/tools/compiler/ti-cgt-msp430_21.6.1.LT
    3136                    .dwattr $C$DW$T$157, DW_AT_decl_line(0x5c)
    3137                    .dwattr $C$DW$T$157, DW_AT_decl_column(0x13)
    3138            
    3139            $C$DW$T$158     .dwtag  DW_TAG_typedef
    3140                    .dwattr $C$DW$T$158, DW_AT_name("int_least32_t")
    3141                    .dwattr $C$DW$T$158, DW_AT_type(*$C$DW$T$157)
    3142                    .dwattr $C$DW$T$158, DW_AT_language(DW_LANG_C)
    3143                    .dwattr $C$DW$T$158, DW_AT_decl_file("C:/ti/ccs1110/ccs/tools/compiler/ti-cgt-msp430_21.6.1.LT
    3144                    .dwattr $C$DW$T$158, DW_AT_decl_line(0x2c)
    3145                    .dwattr $C$DW$T$158, DW_AT_decl_column(0x1a)
    3146            
    3147            $C$DW$T$159     .dwtag  DW_TAG_typedef
    3148                    .dwattr $C$DW$T$159, DW_AT_name("__intfptr_t")
    3149                    .dwattr $C$DW$T$159, DW_AT_type(*$C$DW$T$151)
    3150                    .dwattr $C$DW$T$159, DW_AT_language(DW_LANG_C)
    3151                    .dwattr $C$DW$T$159, DW_AT_decl_file("C:/ti/ccs1110/ccs/tools/compiler/ti-cgt-msp430_21.6.1.LT
    3152                    .dwattr $C$DW$T$159, DW_AT_decl_line(0x4e)
    3153                    .dwattr $C$DW$T$159, DW_AT_decl_column(0x13)
    3154            
    3155            $C$DW$T$160     .dwtag  DW_TAG_typedef
    3156                    .dwattr $C$DW$T$160, DW_AT_name("__intptr_t")
    3157                    .dwattr $C$DW$T$160, DW_AT_type(*$C$DW$T$151)
    3158                    .dwattr $C$DW$T$160, DW_AT_language(DW_LANG_C)
    3159                    .dwattr $C$DW$T$160, DW_AT_decl_file("C:/ti/ccs1110/ccs/tools/compiler/ti-cgt-msp430_21.6.1.LT
    3160                    .dwattr $C$DW$T$160, DW_AT_decl_line(0x51)
    3161                    .dwattr $C$DW$T$160, DW_AT_decl_column(0x13)
    3162            
    3163            $C$DW$T$161     .dwtag  DW_TAG_typedef
    3164                    .dwattr $C$DW$T$161, DW_AT_name("intptr_t")
    3165                    .dwattr $C$DW$T$161, DW_AT_type(*$C$DW$T$160)
    3166                    .dwattr $C$DW$T$161, DW_AT_language(DW_LANG_C)
    3167                    .dwattr $C$DW$T$161, DW_AT_decl_file("C:/ti/ccs1110/ccs/tools/compiler/ti-cgt-msp430_21.6.1.LT
    3168                    .dwattr $C$DW$T$161, DW_AT_decl_line(0x50)
    3169                    .dwattr $C$DW$T$161, DW_AT_decl_column(0x15)
    3170            
    3171            $C$DW$T$162     .dwtag  DW_TAG_typedef
    3172                    .dwattr $C$DW$T$162, DW_AT_name("__lwpid_t")
    3173                    .dwattr $C$DW$T$162, DW_AT_type(*$C$DW$T$151)
    3174                    .dwattr $C$DW$T$162, DW_AT_language(DW_LANG_C)
MSP430 Assembler PC v21.6.1 Tue Jan  3 09:51:30 2023

Copyright (c) 2003-2018 Texas Instruments Incorporated
main.asm                                                             PAGE   59

    3175                    .dwattr $C$DW$T$162, DW_AT_decl_file("C:/ti/ccs1110/ccs/tools/compiler/ti-cgt-msp430_21.6.1.LT
    3176                    .dwattr $C$DW$T$162, DW_AT_decl_line(0x39)
    3177                    .dwattr $C$DW$T$162, DW_AT_decl_column(0x13)
    3178            
    3179            $C$DW$T$163     .dwtag  DW_TAG_typedef
    3180                    .dwattr $C$DW$T$163, DW_AT_name("__pid_t")
    3181                    .dwattr $C$DW$T$163, DW_AT_type(*$C$DW$T$151)
    3182                    .dwattr $C$DW$T$163, DW_AT_language(DW_LANG_C)
    3183                    .dwattr $C$DW$T$163, DW_AT_decl_file("C:/ti/ccs1110/ccs/tools/compiler/ti-cgt-msp430_21.6.1.LT
    3184                    .dwattr $C$DW$T$163, DW_AT_decl_line(0x40)
    3185                    .dwattr $C$DW$T$163, DW_AT_decl_column(0x13)
    3186            
    3187            $C$DW$T$164     .dwtag  DW_TAG_typedef
    3188                    .dwattr $C$DW$T$164, DW_AT_name("__segsz_t")
    3189                    .dwattr $C$DW$T$164, DW_AT_type(*$C$DW$T$151)
    3190                    .dwattr $C$DW$T$164, DW_AT_language(DW_LANG_C)
    3191                    .dwattr $C$DW$T$164, DW_AT_decl_file("C:/ti/ccs1110/ccs/tools/compiler/ti-cgt-msp430_21.6.1.LT
    3192                    .dwattr $C$DW$T$164, DW_AT_decl_line(0x60)
    3193                    .dwattr $C$DW$T$164, DW_AT_decl_column(0x13)
    3194            
    3195            $C$DW$T$165     .dwtag  DW_TAG_typedef
    3196                    .dwattr $C$DW$T$165, DW_AT_name("__ssize_t")
    3197                    .dwattr $C$DW$T$165, DW_AT_type(*$C$DW$T$151)
    3198                    .dwattr $C$DW$T$165, DW_AT_language(DW_LANG_C)
    3199                    .dwattr $C$DW$T$165, DW_AT_decl_file("C:/ti/ccs1110/ccs/tools/compiler/ti-cgt-msp430_21.6.1.LT
    3200                    .dwattr $C$DW$T$165, DW_AT_decl_line(0x62)
    3201                    .dwattr $C$DW$T$165, DW_AT_decl_column(0x13)
    3202            
    3203            $C$DW$T$166     .dwtag  DW_TAG_typedef
    3204                    .dwattr $C$DW$T$166, DW_AT_name("int32_t")
    3205                    .dwattr $C$DW$T$166, DW_AT_type(*$C$DW$T$151)
    3206                    .dwattr $C$DW$T$166, DW_AT_language(DW_LANG_C)
    3207                    .dwattr $C$DW$T$166, DW_AT_decl_file("C:/ti/ccs1110/ccs/tools/compiler/ti-cgt-msp430_21.6.1.LT
    3208                    .dwattr $C$DW$T$166, DW_AT_decl_line(0x30)
    3209                    .dwattr $C$DW$T$166, DW_AT_decl_column(0x14)
    3210            
    3211            $C$DW$T$167     .dwtag  DW_TAG_typedef
    3212                    .dwattr $C$DW$T$167, DW_AT_name("__key_t")
    3213                    .dwattr $C$DW$T$167, DW_AT_type(*$C$DW$T$12)
    3214                    .dwattr $C$DW$T$167, DW_AT_language(DW_LANG_C)
    3215                    .dwattr $C$DW$T$167, DW_AT_decl_file("C:/ti/ccs1110/ccs/tools/compiler/ti-cgt-msp430_21.6.1.LT
    3216                    .dwattr $C$DW$T$167, DW_AT_decl_line(0x38)
    3217                    .dwattr $C$DW$T$167, DW_AT_decl_column(0x0f)
    3218            
    3219            $C$DW$T$168     .dwtag  DW_TAG_typedef
    3220                    .dwattr $C$DW$T$168, DW_AT_name("__suseconds_t")
    3221                    .dwattr $C$DW$T$168, DW_AT_type(*$C$DW$T$12)
    3222                    .dwattr $C$DW$T$168, DW_AT_language(DW_LANG_C)
    3223                    .dwattr $C$DW$T$168, DW_AT_decl_file("C:/ti/ccs1110/ccs/tools/compiler/ti-cgt-msp430_21.6.1.LT
    3224                    .dwattr $C$DW$T$168, DW_AT_decl_line(0x4a)
    3225                    .dwattr $C$DW$T$168, DW_AT_decl_column(0x0f)
    3226            
    3227            $C$DW$T$169     .dwtag  DW_TAG_typedef
    3228                    .dwattr $C$DW$T$169, DW_AT_name("_off_t")
    3229                    .dwattr $C$DW$T$169, DW_AT_type(*$C$DW$T$12)
MSP430 Assembler PC v21.6.1 Tue Jan  3 09:51:30 2023

Copyright (c) 2003-2018 Texas Instruments Incorporated
main.asm                                                             PAGE   60

    3230                    .dwattr $C$DW$T$169, DW_AT_language(DW_LANG_C)
    3231                    .dwattr $C$DW$T$169, DW_AT_decl_file("C:/ti/ccs1110/ccs/tools/compiler/ti-cgt-msp430_21.6.1.LT
    3232                    .dwattr $C$DW$T$169, DW_AT_decl_line(0x8d)
    3233                    .dwattr $C$DW$T$169, DW_AT_decl_column(0x12)
    3234            
    3235            $C$DW$T$170     .dwtag  DW_TAG_typedef
    3236                    .dwattr $C$DW$T$170, DW_AT_name("__off_t")
    3237                    .dwattr $C$DW$T$170, DW_AT_type(*$C$DW$T$169)
    3238                    .dwattr $C$DW$T$170, DW_AT_language(DW_LANG_C)
    3239                    .dwattr $C$DW$T$170, DW_AT_decl_file("C:/ti/ccs1110/ccs/tools/compiler/ti-cgt-msp430_21.6.1.LT
    3240                    .dwattr $C$DW$T$170, DW_AT_decl_line(0x3e)
    3241                    .dwattr $C$DW$T$170, DW_AT_decl_column(0x18)
    3242            
    3243            $C$DW$T$13      .dwtag  DW_TAG_base_type
    3244                    .dwattr $C$DW$T$13, DW_AT_encoding(DW_ATE_unsigned)
    3245                    .dwattr $C$DW$T$13, DW_AT_name("unsigned long")
    3246                    .dwattr $C$DW$T$13, DW_AT_byte_size(0x04)
    3247            
    3248            $C$DW$T$53      .dwtag  DW_TAG_typedef
    3249                    .dwattr $C$DW$T$53, DW_AT_name("__uint32_t")
    3250                    .dwattr $C$DW$T$53, DW_AT_type(*$C$DW$T$13)
    3251                    .dwattr $C$DW$T$53, DW_AT_language(DW_LANG_C)
    3252                    .dwattr $C$DW$T$53, DW_AT_decl_file("C:/ti/ccs1110/ccs/tools/compiler/ti-cgt-msp430_21.6.1.LTS
    3253                    .dwattr $C$DW$T$53, DW_AT_decl_line(0x3b)
    3254                    .dwattr $C$DW$T$53, DW_AT_decl_column(0x18)
    3255            
    3256            $C$DW$T$171     .dwtag  DW_TAG_typedef
    3257                    .dwattr $C$DW$T$171, DW_AT_name("__clock_t")
    3258                    .dwattr $C$DW$T$171, DW_AT_type(*$C$DW$T$53)
    3259                    .dwattr $C$DW$T$171, DW_AT_language(DW_LANG_C)
    3260                    .dwattr $C$DW$T$171, DW_AT_decl_file("C:/ti/ccs1110/ccs/tools/compiler/ti-cgt-msp430_21.6.1.LT
    3261                    .dwattr $C$DW$T$171, DW_AT_decl_line(0x4a)
    3262                    .dwattr $C$DW$T$171, DW_AT_decl_column(0x14)
    3263            
    3264            $C$DW$T$172     .dwtag  DW_TAG_typedef
    3265                    .dwattr $C$DW$T$172, DW_AT_name("__fflags_t")
    3266                    .dwattr $C$DW$T$172, DW_AT_type(*$C$DW$T$53)
    3267                    .dwattr $C$DW$T$172, DW_AT_language(DW_LANG_C)
    3268                    .dwattr $C$DW$T$172, DW_AT_decl_file("C:/ti/ccs1110/ccs/tools/compiler/ti-cgt-msp430_21.6.1.LT
    3269                    .dwattr $C$DW$T$172, DW_AT_decl_line(0x32)
    3270                    .dwattr $C$DW$T$172, DW_AT_decl_column(0x14)
    3271            
    3272            $C$DW$T$173     .dwtag  DW_TAG_typedef
    3273                    .dwattr $C$DW$T$173, DW_AT_name("__fixpt_t")
    3274                    .dwattr $C$DW$T$173, DW_AT_type(*$C$DW$T$53)
    3275                    .dwattr $C$DW$T$173, DW_AT_language(DW_LANG_C)
    3276                    .dwattr $C$DW$T$173, DW_AT_decl_file("C:/ti/ccs1110/ccs/tools/compiler/ti-cgt-msp430_21.6.1.LT
    3277                    .dwattr $C$DW$T$173, DW_AT_decl_line(0x81)
    3278                    .dwattr $C$DW$T$173, DW_AT_decl_column(0x14)
    3279            
    3280            $C$DW$T$174     .dwtag  DW_TAG_typedef
    3281                    .dwattr $C$DW$T$174, DW_AT_name("__gid_t")
    3282                    .dwattr $C$DW$T$174, DW_AT_type(*$C$DW$T$53)
    3283                    .dwattr $C$DW$T$174, DW_AT_language(DW_LANG_C)
    3284                    .dwattr $C$DW$T$174, DW_AT_decl_file("C:/ti/ccs1110/ccs/tools/compiler/ti-cgt-msp430_21.6.1.LT
MSP430 Assembler PC v21.6.1 Tue Jan  3 09:51:30 2023

Copyright (c) 2003-2018 Texas Instruments Incorporated
main.asm                                                             PAGE   61

    3285                    .dwattr $C$DW$T$174, DW_AT_decl_line(0x35)
    3286                    .dwattr $C$DW$T$174, DW_AT_decl_column(0x14)
    3287            
    3288            $C$DW$T$175     .dwtag  DW_TAG_typedef
    3289                    .dwattr $C$DW$T$175, DW_AT_name("__socklen_t")
    3290                    .dwattr $C$DW$T$175, DW_AT_type(*$C$DW$T$53)
    3291                    .dwattr $C$DW$T$175, DW_AT_language(DW_LANG_C)
    3292                    .dwattr $C$DW$T$175, DW_AT_decl_file("C:/ti/ccs1110/ccs/tools/compiler/ti-cgt-msp430_21.6.1.LT
    3293                    .dwattr $C$DW$T$175, DW_AT_decl_line(0x49)
    3294                    .dwattr $C$DW$T$175, DW_AT_decl_column(0x14)
    3295            
    3296            $C$DW$T$176     .dwtag  DW_TAG_typedef
    3297                    .dwattr $C$DW$T$176, DW_AT_name("__time_t")
    3298                    .dwattr $C$DW$T$176, DW_AT_type(*$C$DW$T$53)
    3299                    .dwattr $C$DW$T$176, DW_AT_language(DW_LANG_C)
    3300                    .dwattr $C$DW$T$176, DW_AT_decl_file("C:/ti/ccs1110/ccs/tools/compiler/ti-cgt-msp430_21.6.1.LT
    3301                    .dwattr $C$DW$T$176, DW_AT_decl_line(0x66)
    3302                    .dwattr $C$DW$T$176, DW_AT_decl_column(0x19)
    3303            
    3304            $C$DW$T$177     .dwtag  DW_TAG_typedef
    3305                    .dwattr $C$DW$T$177, DW_AT_name("__uid_t")
    3306                    .dwattr $C$DW$T$177, DW_AT_type(*$C$DW$T$53)
    3307                    .dwattr $C$DW$T$177, DW_AT_language(DW_LANG_C)
    3308                    .dwattr $C$DW$T$177, DW_AT_decl_file("C:/ti/ccs1110/ccs/tools/compiler/ti-cgt-msp430_21.6.1.LT
    3309                    .dwattr $C$DW$T$177, DW_AT_decl_line(0x4d)
    3310                    .dwattr $C$DW$T$177, DW_AT_decl_column(0x14)
    3311            
    3312            $C$DW$T$178     .dwtag  DW_TAG_typedef
    3313                    .dwattr $C$DW$T$178, DW_AT_name("__uint_fast32_t")
    3314                    .dwattr $C$DW$T$178, DW_AT_type(*$C$DW$T$53)
    3315                    .dwattr $C$DW$T$178, DW_AT_language(DW_LANG_C)
    3316                    .dwattr $C$DW$T$178, DW_AT_decl_file("C:/ti/ccs1110/ccs/tools/compiler/ti-cgt-msp430_21.6.1.LT
    3317                    .dwattr $C$DW$T$178, DW_AT_decl_line(0x72)
    3318                    .dwattr $C$DW$T$178, DW_AT_decl_column(0x14)
    3319            
    3320            $C$DW$T$179     .dwtag  DW_TAG_typedef
    3321                    .dwattr $C$DW$T$179, DW_AT_name("uint_fast32_t")
    3322                    .dwattr $C$DW$T$179, DW_AT_type(*$C$DW$T$178)
    3323                    .dwattr $C$DW$T$179, DW_AT_language(DW_LANG_C)
    3324                    .dwattr $C$DW$T$179, DW_AT_decl_file("C:/ti/ccs1110/ccs/tools/compiler/ti-cgt-msp430_21.6.1.LT
    3325                    .dwattr $C$DW$T$179, DW_AT_decl_line(0x3b)
    3326                    .dwattr $C$DW$T$179, DW_AT_decl_column(0x1a)
    3327            
    3328            $C$DW$T$180     .dwtag  DW_TAG_typedef
    3329                    .dwattr $C$DW$T$180, DW_AT_name("__uint_least32_t")
    3330                    .dwattr $C$DW$T$180, DW_AT_type(*$C$DW$T$53)
    3331                    .dwattr $C$DW$T$180, DW_AT_language(DW_LANG_C)
    3332                    .dwattr $C$DW$T$180, DW_AT_decl_file("C:/ti/ccs1110/ccs/tools/compiler/ti-cgt-msp430_21.6.1.LT
    3333                    .dwattr $C$DW$T$180, DW_AT_decl_line(0x76)
    3334                    .dwattr $C$DW$T$180, DW_AT_decl_column(0x14)
    3335            
    3336            $C$DW$T$181     .dwtag  DW_TAG_typedef
    3337                    .dwattr $C$DW$T$181, DW_AT_name("__char32_t")
    3338                    .dwattr $C$DW$T$181, DW_AT_type(*$C$DW$T$180)
    3339                    .dwattr $C$DW$T$181, DW_AT_language(DW_LANG_C)
MSP430 Assembler PC v21.6.1 Tue Jan  3 09:51:30 2023

Copyright (c) 2003-2018 Texas Instruments Incorporated
main.asm                                                             PAGE   62

    3340                    .dwattr $C$DW$T$181, DW_AT_decl_file("C:/ti/ccs1110/ccs/tools/compiler/ti-cgt-msp430_21.6.1.LT
    3341                    .dwattr $C$DW$T$181, DW_AT_decl_line(0x72)
    3342                    .dwattr $C$DW$T$181, DW_AT_decl_column(0x1a)
    3343            
    3344            $C$DW$T$182     .dwtag  DW_TAG_typedef
    3345                    .dwattr $C$DW$T$182, DW_AT_name("uint_least32_t")
    3346                    .dwattr $C$DW$T$182, DW_AT_type(*$C$DW$T$180)
    3347                    .dwattr $C$DW$T$182, DW_AT_language(DW_LANG_C)
    3348                    .dwattr $C$DW$T$182, DW_AT_decl_file("C:/ti/ccs1110/ccs/tools/compiler/ti-cgt-msp430_21.6.1.LT
    3349                    .dwattr $C$DW$T$182, DW_AT_decl_line(0x31)
    3350                    .dwattr $C$DW$T$182, DW_AT_decl_column(0x1a)
    3351            
    3352            $C$DW$T$183     .dwtag  DW_TAG_typedef
    3353                    .dwattr $C$DW$T$183, DW_AT_name("__uintfptr_t")
    3354                    .dwattr $C$DW$T$183, DW_AT_type(*$C$DW$T$53)
    3355                    .dwattr $C$DW$T$183, DW_AT_language(DW_LANG_C)
    3356                    .dwattr $C$DW$T$183, DW_AT_decl_file("C:/ti/ccs1110/ccs/tools/compiler/ti-cgt-msp430_21.6.1.LT
    3357                    .dwattr $C$DW$T$183, DW_AT_decl_line(0x68)
    3358                    .dwattr $C$DW$T$183, DW_AT_decl_column(0x14)
    3359            
    3360            $C$DW$T$184     .dwtag  DW_TAG_typedef
    3361                    .dwattr $C$DW$T$184, DW_AT_name("__uintptr_t")
    3362                    .dwattr $C$DW$T$184, DW_AT_type(*$C$DW$T$53)
    3363                    .dwattr $C$DW$T$184, DW_AT_language(DW_LANG_C)
    3364                    .dwattr $C$DW$T$184, DW_AT_decl_file("C:/ti/ccs1110/ccs/tools/compiler/ti-cgt-msp430_21.6.1.LT
    3365                    .dwattr $C$DW$T$184, DW_AT_decl_line(0x6b)
    3366                    .dwattr $C$DW$T$184, DW_AT_decl_column(0x14)
    3367            
    3368            $C$DW$T$185     .dwtag  DW_TAG_typedef
    3369                    .dwattr $C$DW$T$185, DW_AT_name("uintptr_t")
    3370                    .dwattr $C$DW$T$185, DW_AT_type(*$C$DW$T$184)
    3371                    .dwattr $C$DW$T$185, DW_AT_language(DW_LANG_C)
    3372                    .dwattr $C$DW$T$185, DW_AT_decl_file("C:/ti/ccs1110/ccs/tools/compiler/ti-cgt-msp430_21.6.1.LT
    3373                    .dwattr $C$DW$T$185, DW_AT_decl_line(0x54)
    3374                    .dwattr $C$DW$T$185, DW_AT_decl_column(0x16)
    3375            
    3376            $C$DW$T$186     .dwtag  DW_TAG_typedef
    3377                    .dwattr $C$DW$T$186, DW_AT_name("__vm_offset_t")
    3378                    .dwattr $C$DW$T$186, DW_AT_type(*$C$DW$T$53)
    3379                    .dwattr $C$DW$T$186, DW_AT_language(DW_LANG_C)
    3380                    .dwattr $C$DW$T$186, DW_AT_decl_file("C:/ti/ccs1110/ccs/tools/compiler/ti-cgt-msp430_21.6.1.LT
    3381                    .dwattr $C$DW$T$186, DW_AT_decl_line(0x79)
    3382                    .dwattr $C$DW$T$186, DW_AT_decl_column(0x14)
    3383            
    3384            $C$DW$T$187     .dwtag  DW_TAG_typedef
    3385                    .dwattr $C$DW$T$187, DW_AT_name("__vm_paddr_t")
    3386                    .dwattr $C$DW$T$187, DW_AT_type(*$C$DW$T$53)
    3387                    .dwattr $C$DW$T$187, DW_AT_language(DW_LANG_C)
    3388                    .dwattr $C$DW$T$187, DW_AT_decl_file("C:/ti/ccs1110/ccs/tools/compiler/ti-cgt-msp430_21.6.1.LT
    3389                    .dwattr $C$DW$T$187, DW_AT_decl_line(0x7a)
    3390                    .dwattr $C$DW$T$187, DW_AT_decl_column(0x14)
    3391            
    3392            $C$DW$T$188     .dwtag  DW_TAG_typedef
    3393                    .dwattr $C$DW$T$188, DW_AT_name("__vm_size_t")
    3394                    .dwattr $C$DW$T$188, DW_AT_type(*$C$DW$T$53)
MSP430 Assembler PC v21.6.1 Tue Jan  3 09:51:30 2023

Copyright (c) 2003-2018 Texas Instruments Incorporated
main.asm                                                             PAGE   63

    3395                    .dwattr $C$DW$T$188, DW_AT_language(DW_LANG_C)
    3396                    .dwattr $C$DW$T$188, DW_AT_decl_file("C:/ti/ccs1110/ccs/tools/compiler/ti-cgt-msp430_21.6.1.LT
    3397                    .dwattr $C$DW$T$188, DW_AT_decl_line(0x7b)
    3398                    .dwattr $C$DW$T$188, DW_AT_decl_column(0x14)
    3399            
    3400            $C$DW$T$54      .dwtag  DW_TAG_typedef
    3401                    .dwattr $C$DW$T$54, DW_AT_name("uint32_t")
    3402                    .dwattr $C$DW$T$54, DW_AT_type(*$C$DW$T$53)
    3403                    .dwattr $C$DW$T$54, DW_AT_language(DW_LANG_C)
