MSP430 Assembler PC v21.6.1 Tue Jan  3 09:51:30 2023

Copyright (c) 2003-2018 Texas Instruments Incorporated
usart_comms.asm                                                      PAGE    1

       1            ;******************************************************************************
       2            ;* MSP430 G3 C/C++ Codegen                                              PC v21.6.1.LTS *
       3            ;* Date/Time created: Tue Jan  3 09:51:29 2023                                *
       4            ;******************************************************************************
       5                    .compiler_opts --abi=eabi --diag_wrap=off --hll_source=on --mem_model:code=large --mem_model:d
       6            
       7            $C$DW$CU        .dwtag  DW_TAG_compile_unit
       8                    .dwattr $C$DW$CU, DW_AT_name("../usart_comms.c")
       9                    .dwattr $C$DW$CU, DW_AT_producer("TI MSP430 G3 C/C++ Codegen PC v21.6.1.LTS Copyright (c) 2003
      10                    .dwattr $C$DW$CU, DW_AT_TI_version(0x01)
      11                    .dwattr $C$DW$CU, DW_AT_comp_dir("C:\ccs_challengespace\MSP430_LCD_display\Debug")
      12 000000               .sect   ".const"
      13                    .align  2
      14                    .elfsym pUSART0_REGs,SYM_SIZE(2)
      15 000000       pUSART0_REGs:
      16 000000 0500          .bits           0x500,16
      17                                    ; pUSART0_REGs @ 0
      18            
      19            $C$DW$1 .dwtag  DW_TAG_variable
      20                    .dwattr $C$DW$1, DW_AT_name("pUSART0_REGs")
      21                    .dwattr $C$DW$1, DW_AT_TI_symbol_name("pUSART0_REGs")
      22                    .dwattr $C$DW$1, DW_AT_type(*$C$DW$T$76)
      23                    .dwattr $C$DW$1, DW_AT_location[DW_OP_addr pUSART0_REGs]
      24                    .dwattr $C$DW$1, DW_AT_decl_file("../usart_comms.c")
      25                    .dwattr $C$DW$1, DW_AT_decl_line(0x0a)
      26                    .dwattr $C$DW$1, DW_AT_decl_column(0x23)
      27            
      28 000002               .sect   ".const"
      29                    .align  2
      30                    .elfsym pUCAxCTLW0_REG,SYM_SIZE(2)
      31 000002       pUCAxCTLW0_REG:
      32 000002 0500          .bits           0x500,16
      33                                    ; pUCAxCTLW0_REG @ 0
      34            
      35            $C$DW$2 .dwtag  DW_TAG_variable
      36                    .dwattr $C$DW$2, DW_AT_name("pUCAxCTLW0_REG")
      37                    .dwattr $C$DW$2, DW_AT_TI_symbol_name("pUCAxCTLW0_REG")
      38                    .dwattr $C$DW$2, DW_AT_type(*$C$DW$T$56)
      39                    .dwattr $C$DW$2, DW_AT_location[DW_OP_addr pUCAxCTLW0_REG]
      40                    .dwattr $C$DW$2, DW_AT_decl_file("../usart_comms.c")
      41                    .dwattr $C$DW$2, DW_AT_decl_line(0x0c)
      42                    .dwattr $C$DW$2, DW_AT_decl_column(0x1d)
      43            
      44 000004               .sect   ".const"
      45                    .align  2
      46                    .elfsym pUCAxMCTLW_REG,SYM_SIZE(2)
      47 000004       pUCAxMCTLW_REG:
      48 000004 0508          .bits           0x508,16
      49                                    ; pUCAxMCTLW_REG @ 0
      50            
      51            $C$DW$3 .dwtag  DW_TAG_variable
      52                    .dwattr $C$DW$3, DW_AT_name("pUCAxMCTLW_REG")
      53                    .dwattr $C$DW$3, DW_AT_TI_symbol_name("pUCAxMCTLW_REG")
      54                    .dwattr $C$DW$3, DW_AT_type(*$C$DW$T$60)
      55                    .dwattr $C$DW$3, DW_AT_location[DW_OP_addr pUCAxMCTLW_REG]
MSP430 Assembler PC v21.6.1 Tue Jan  3 09:51:30 2023

Copyright (c) 2003-2018 Texas Instruments Incorporated
usart_comms.asm                                                      PAGE    2

      56                    .dwattr $C$DW$3, DW_AT_decl_file("../usart_comms.c")
      57                    .dwattr $C$DW$3, DW_AT_decl_line(0x0e)
      58                    .dwattr $C$DW$3, DW_AT_decl_column(0x26)
      59            
      60 000006               .sect   ".const"
      61                    .align  2
      62                    .elfsym pUCAxRXBUF_REG,SYM_SIZE(2)
      63 000006       pUCAxRXBUF_REG:
      64 000006 050C          .bits           0x50c,16
      65                                    ; pUCAxRXBUF_REG @ 0
      66            
      67            $C$DW$4 .dwtag  DW_TAG_variable
      68                    .dwattr $C$DW$4, DW_AT_name("pUCAxRXBUF_REG")
      69                    .dwattr $C$DW$4, DW_AT_TI_symbol_name("pUCAxRXBUF_REG")
      70                    .dwattr $C$DW$4, DW_AT_type(*$C$DW$T$63)
      71                    .dwattr $C$DW$4, DW_AT_location[DW_OP_addr pUCAxRXBUF_REG]
      72                    .dwattr $C$DW$4, DW_AT_decl_file("../usart_comms.c")
      73                    .dwattr $C$DW$4, DW_AT_decl_line(0x0f)
      74                    .dwattr $C$DW$4, DW_AT_decl_column(0x26)
      75            
      76 000008               .sect   ".const"
      77                    .align  2
      78                    .elfsym pUCAxTXBUF_REG,SYM_SIZE(2)
      79 000008       pUCAxTXBUF_REG:
      80 000008 050E          .bits           0x50e,16
      81                                    ; pUCAxTXBUF_REG @ 0
      82            
      83            $C$DW$5 .dwtag  DW_TAG_variable
      84                    .dwattr $C$DW$5, DW_AT_name("pUCAxTXBUF_REG")
      85                    .dwattr $C$DW$5, DW_AT_TI_symbol_name("pUCAxTXBUF_REG")
      86                    .dwattr $C$DW$5, DW_AT_type(*$C$DW$T$66)
      87                    .dwattr $C$DW$5, DW_AT_location[DW_OP_addr pUCAxTXBUF_REG]
      88                    .dwattr $C$DW$5, DW_AT_decl_file("../usart_comms.c")
      89                    .dwattr $C$DW$5, DW_AT_decl_line(0x10)
      90                    .dwattr $C$DW$5, DW_AT_decl_column(0x26)
      91            
      92 00000a               .sect   ".const"
      93                    .align  2
      94                    .elfsym pUCAxIE_REG,SYM_SIZE(2)
      95 00000a       pUCAxIE_REG:
      96 00000a 051A          .bits           0x51a,16
      97                                    ; pUCAxIE_REG @ 0
      98            
      99            $C$DW$6 .dwtag  DW_TAG_variable
     100                    .dwattr $C$DW$6, DW_AT_name("pUCAxIE_REG")
     101                    .dwattr $C$DW$6, DW_AT_TI_symbol_name("pUCAxIE_REG")
     102                    .dwattr $C$DW$6, DW_AT_type(*$C$DW$T$69)
     103                    .dwattr $C$DW$6, DW_AT_location[DW_OP_addr pUCAxIE_REG]
     104                    .dwattr $C$DW$6, DW_AT_decl_file("../usart_comms.c")
     105                    .dwattr $C$DW$6, DW_AT_decl_line(0x11)
     106                    .dwattr $C$DW$6, DW_AT_decl_column(0x23)
     107            
     108 00000c               .sect   ".const"
     109                    .align  2
     110                    .elfsym pUCAxIFG,SYM_SIZE(2)
MSP430 Assembler PC v21.6.1 Tue Jan  3 09:51:30 2023

Copyright (c) 2003-2018 Texas Instruments Incorporated
usart_comms.asm                                                      PAGE    3

     111 00000c       pUCAxIFG:
     112 00000c 051C          .bits           0x51c,16
     113                                    ; pUCAxIFG @ 0
     114            
     115            $C$DW$7 .dwtag  DW_TAG_variable
     116                    .dwattr $C$DW$7, DW_AT_name("pUCAxIFG")
     117                    .dwattr $C$DW$7, DW_AT_TI_symbol_name("pUCAxIFG")
     118                    .dwattr $C$DW$7, DW_AT_type(*$C$DW$T$72)
     119                    .dwattr $C$DW$7, DW_AT_location[DW_OP_addr pUCAxIFG]
     120                    .dwattr $C$DW$7, DW_AT_decl_file("../usart_comms.c")
     121                    .dwattr $C$DW$7, DW_AT_decl_line(0x12)
     122                    .dwattr $C$DW$7, DW_AT_decl_column(0x24)
     123            
     124            ;       C:\ti\ccs1110\ccs\tools\compiler\ti-cgt-msp430_21.6.1.LTS\bin\acpia430.exe -@C:\\Users\\DAVID~
     125 000000               .sect   ".text:usart0_comms_init"
     126                    .clink
     127                    .global usart0_comms_init
     128            
     129            $C$DW$8 .dwtag  DW_TAG_subprogram
     130                    .dwattr $C$DW$8, DW_AT_name("usart0_comms_init")
     131                    .dwattr $C$DW$8, DW_AT_low_pc(usart0_comms_init)
     132                    .dwattr $C$DW$8, DW_AT_high_pc(0x00)
     133                    .dwattr $C$DW$8, DW_AT_TI_symbol_name("usart0_comms_init")
     134                    .dwattr $C$DW$8, DW_AT_external
     135                    .dwattr $C$DW$8, DW_AT_TI_begin_file("../usart_comms.c")
     136                    .dwattr $C$DW$8, DW_AT_TI_begin_line(0x15)
     137                    .dwattr $C$DW$8, DW_AT_TI_begin_column(0x06)
     138                    .dwattr $C$DW$8, DW_AT_decl_file("../usart_comms.c")
     139                    .dwattr $C$DW$8, DW_AT_decl_line(0x15)
     140                    .dwattr $C$DW$8, DW_AT_decl_column(0x06)
     141                    .dwattr $C$DW$8, DW_AT_TI_max_frame_size(0x04)
     142                    .dwpsn  file "../usart_comms.c",line 22,column 1,is_stmt,address usart0_comms_init,isa 0
     143            
     144                    .dwfde $C$DW$CIE, usart0_comms_init
     145            
     146            ;*****************************************************************************
     147            ;* FUNCTION NAME: usart0_comms_init                                          *
     148            ;*                                                                           *
     149            ;*   Regs Modified     : SP,SR,r13,r14,r15                                   *
     150            ;*   Regs Used         : SP,SR,r13,r14,r15                                   *
     151            ;*   Local Frame Size  : 0 Args + 0 Auto + 0 Save = 0 byte                   *
     152            ;*****************************************************************************
     153 000000       usart0_comms_init:
     154            ;* --------------------------------------------------------------------------*
     155                    .dwcfi  cfa_offset, 4
     156                    .dwcfi  save_reg_to_mem, 16, -4
     157                    .dwpsn  file "../usart_comms.c",line 25,column 5,is_stmt,isa 0
     158 000000 421F          MOV.W     &pUSART0_REGs+0,r15   ; [] |25| 
         000002 0000!
     159 000004 D3DF          OR.B      #1,0(r15)             ; [] |25| 
         000006 0000 
     160                    .dwpsn  file "../usart_comms.c",line 28,column 5,is_stmt,isa 0
     161 000008 421F          MOV.W     &pUSART0_REGs+0,r15   ; [] |28| 
         00000a 0000!
     162 00000c 403E          MOV.W     #63,r14               ; [] |28| 
MSP430 Assembler PC v21.6.1 Tue Jan  3 09:51:30 2023

Copyright (c) 2003-2018 Texas Instruments Incorporated
usart_comms.asm                                                      PAGE    4

         00000e 003F 
     163 000010 FF6E          AND.B     @r15,r14              ; [] |28| 
     164 000012 4F6D          MOV.B     @r15,r13              ; [] |28| 
     165 000014 D34E          OR.B      #0,r14                ; [] |28| 
     166 000016 4ECF          MOV.B     r14,0(r15)            ; [] |28| 
         000018 0000 
     167                    .dwpsn  file "../usart_comms.c",line 29,column 5,is_stmt,isa 0
     168 00001a 421E          MOV.W     &pUSART0_REGs+0,r14   ; [] |29| 
         00001c 0000!
     169 00001e 403D          MOV.W     #63,r13               ; [] |29| 
         000020 003F 
     170 000022 FE6D          AND.B     @r14,r13              ; [] |29| 
     171 000024 4E6F          MOV.B     @r14,r15              ; [] |29| 
     172 000026 1945          RPT #6 || RRUX.B r15 ; [] |29| 
         000028 104F 
     173 00002a F07F          AND.B     #3,r15                ; [] |29| 
         00002c 0003 
     174 00002e D36F          OR.B      #2,r15                ; [] |29| 
     175 000030 1845          RPT #6 || RLAX.B r15 ; [] |29| 
         000032 5F4F 
     176 000034 DF4D          OR.B      r15,r13               ; [] |29| 
     177 000036 4DCE          MOV.B     r13,0(r14)            ; [] |29| 
         000038 0000 
     178                    .dwpsn  file "../usart_comms.c",line 32,column 5,is_stmt,isa 0
     179 00003a 421E          MOV.W     &pUSART0_REGs+0,r14   ; [] |32| 
         00003c 0000!
     180 00003e 403D          MOV.W     #223,r13              ; [] |32| 
         000040 00DF 
     181 000042 FE5D          AND.B     1(r14),r13            ; [] |32| 
         000044 0001 
     182 000046 4E5F          MOV.B     1(r14),r15            ; [] |32| 
         000048 0001 
     183 00004a 1944          RPT #5 || RRUX.B r15 ; [] |32| 
         00004c 104F 
     184 00004e F35F          AND.B     #1,r15                ; [] |32| 
     185 000050 1844          RPT #5 || RLAX.B r15 ; [] |32| 
         000052 5F4F 
     186 000054 DF4D          OR.B      r15,r13               ; [] |32| 
     187 000056 4DCE          MOV.B     r13,1(r14)            ; [] |32| 
         000058 0001 
     188                    .dwpsn  file "../usart_comms.c",line 35,column 5,is_stmt,isa 0
     189 00005a 421D          MOV.W     &pUSART0_REGs+0,r13   ; [] |35| 
         00005c 0000!
     190 00005e 4D5E          MOV.B     1(r13),r14            ; [] |35| 
         000060 0001 
     191 000062 C27E          BIC.B     #8,r14                ; [] |35| 
     192 000064 4D5F          MOV.B     1(r13),r15            ; [] |35| 
         000066 0001 
     193 000068 1942          RPT #3 || RRUX.B r15 ; [] |35| 
         00006a 104F 
     194 00006c F35F          AND.B     #1,r15                ; [] |35| 
     195 00006e 1842          RPT #3 || RLAX.B r15 ; [] |35| 
         000070 5F4F 
     196 000072 DF4E          OR.B      r15,r14               ; [] |35| 
     197 000074 4ECD          MOV.B     r14,1(r13)            ; [] |35| 
MSP430 Assembler PC v21.6.1 Tue Jan  3 09:51:30 2023

Copyright (c) 2003-2018 Texas Instruments Incorporated
usart_comms.asm                                                      PAGE    5

         000076 0001 
     198                    .dwpsn  file "../usart_comms.c",line 38,column 5,is_stmt,isa 0
     199 000078 421E          MOV.W     &pUSART0_REGs+0,r14   ; [] |38| 
         00007a 0000!
     200 00007c 403D          MOV.W     #191,r13              ; [] |38| 
         00007e 00BF 
     201 000080 FE5D          AND.B     1(r14),r13            ; [] |38| 
         000082 0001 
     202 000084 4E5F          MOV.B     1(r14),r15            ; [] |38| 
         000086 0001 
     203 000088 1945          RPT #6 || RRUX.B r15 ; [] |38| 
         00008a 104F 
     204 00008c F35F          AND.B     #1,r15                ; [] |38| 
     205 00008e 1845          RPT #6 || RLAX.B r15 ; [] |38| 
         000090 5F4F 
     206 000092 DF4D          OR.B      r15,r13               ; [] |38| 
     207 000094 4DCE          MOV.B     r13,1(r14)            ; [] |38| 
         000096 0001 
     208                    .dwpsn  file "../usart_comms.c",line 41,column 5,is_stmt,isa 0
     209 000098 421F          MOV.W     &pUSART0_REGs+0,r15   ; [] |41| 
         00009a 0000!
     210 00009c 4F1E          MOV.W     6(r15),r14            ; [] |41| 
         00009e 0006 
     211 0000a0 423E          MOV.W     #8,r14                ; [] |41| 
     212 0000a2 D30E          OR.W      #0,r14                ; [] |41| 
     213 0000a4 4E8F          MOV.W     r14,6(r15)            ; [] |41| 
         0000a6 0006 
     214                    .dwpsn  file "../usart_comms.c",line 44,column 5,is_stmt,isa 0
     215 0000a8 421E          MOV.W     &pUCAxMCTLW_REG+0,r14 ; [] |44| 
         0000aa 0000!
     216 0000ac 403D          MOV.W     #15,r13               ; [] |44| 
         0000ae 000F 
     217 0000b0 FE6D          AND.B     @r14,r13              ; [] |44| 
     218 0000b2 4E6F          MOV.B     @r14,r15              ; [] |44| 
     219 0000b4 1943          RPT #4 || RRUX.B r15 ; [] |44| 
         0000b6 104F 
     220 0000b8 F07F          AND.B     #15,r15               ; [] |44| 
         0000ba 000F 
     221 0000bc 1843          RPT #4 || RLAX.B r15 ; [] |44| 
         0000be 5F4F 
     222 0000c0 DF4D          OR.B      r15,r13               ; [] |44| 
     223 0000c2 4DCE          MOV.B     r13,0(r14)            ; [] |44| 
         0000c4 0000 
     224                    .dwpsn  file "../usart_comms.c",line 45,column 5,is_stmt,isa 0
     225 0000c6 421F          MOV.W     &pUCAxMCTLW_REG+0,r15 ; [] |45| 
         0000c8 0000!
     226 0000ca 4F5E          MOV.B     1(r15),r14            ; [] |45| 
         0000cc 0001 
     227 0000ce 4F5E          MOV.B     1(r15),r14            ; [] |45| 
         0000d0 0001 
     228 0000d2 D34E          OR.B      #0,r14                ; [] |45| 
     229 0000d4 D07E          OR.B      #214,r14              ; [] |45| 
         0000d6 00D6 
     230 0000d8 4ECF          MOV.B     r14,1(r15)            ; [] |45| 
         0000da 0001 
MSP430 Assembler PC v21.6.1 Tue Jan  3 09:51:30 2023

Copyright (c) 2003-2018 Texas Instruments Incorporated
usart_comms.asm                                                      PAGE    6

     231                    .dwpsn  file "../usart_comms.c",line 49,column 5,is_stmt,isa 0
     232 0000dc 421E          MOV.W     &pUCAxCTLW0_REG+0,r14 ; [] |49| 
         0000de 0000!
     233 0000e0 4E5F          MOV.B     1(r14),r15            ; [] |49| 
         0000e2 0001 
     234 0000e4 C35F          BIC.B     #1,r15                ; [] |49| 
     235 0000e6 4FCE          MOV.B     r15,1(r14)            ; [] |49| 
         0000e8 0001 
     236                    .dwpsn  file "../usart_comms.c",line 51,column 5,is_stmt,isa 0
     237 0000ea 421E          MOV.W     &pUCAxCTLW0_REG+0,r14 ; [] |51| 
         0000ec 0000!
     238 0000ee 4E5F          MOV.B     1(r14),r15            ; [] |51| 
         0000f0 0001 
     239 0000f2 F07F          AND.B     #239,r15              ; [] |51| 
         0000f4 00EF 
     240 0000f6 4FCE          MOV.B     r15,1(r14)            ; [] |51| 
         0000f8 0001 
     241                    .dwpsn  file "../usart_comms.c",line 52,column 5,is_stmt,isa 0
     242 0000fa 421E          MOV.W     &pUCAxCTLW0_REG+0,r14 ; [] |52| 
         0000fc 0000!
     243 0000fe 4E5F          MOV.B     1(r14),r15            ; [] |52| 
         000100 0001 
     244 000102 F07F          AND.B     #249,r15              ; [] |52| 
         000104 00F9 
     245 000106 4FCE          MOV.B     r15,1(r14)            ; [] |52| 
         000108 0001 
     246                    .dwpsn  file "../usart_comms.c",line 55,column 5,is_stmt,isa 0
     247 00010a 421D          MOV.W     &pUCAxCTLW0_REG+0,r13 ; [] |55| 
         00010c 0000!
     248 00010e 4D5F          MOV.B     1(r13),r15            ; [] |55| 
         000110 0001 
     249 000112 0FCE          MOVA      r15,r14               ; [] |55| 
     250 000114 F07E          AND.B     #249,r14              ; [] |55| 
         000116 00F9 
     251 000118 035F          RRUM.W    #1,r15                ; [] |55| 
     252 00011a F07F          AND.B     #3,r15                ; [] |55| 
         00011c 0003 
     253 00011e 5F4F          RLA.B     r15                   ; [] |55| 
     254 000120 DE4F          OR.B      r14,r15               ; [] |55| 
     255 000122 4FCD          MOV.B     r15,1(r13)            ; [] |55| 
         000124 0001 
     256                    .dwpsn  file "../usart_comms.c",line 58,column 5,is_stmt,isa 0
     257 000126 421E          MOV.W     &pUCAxCTLW0_REG+0,r14 ; [] |58| 
         000128 0000!
     258 00012a 4E6F          MOV.B     @r14,r15              ; [] |58| 
     259 00012c C35F          BIC.B     #1,r15                ; [] |58| 
     260 00012e 4FCE          MOV.B     r15,0(r14)            ; [] |58| 
         000130 0000 
     261                    .dwpsn  file "../usart_comms.c",line 59,column 1,is_stmt,isa 0
     262            $C$DW$9 .dwtag  DW_TAG_TI_branch
     263                    .dwattr $C$DW$9, DW_AT_low_pc(0x00)
     264                    .dwattr $C$DW$9, DW_AT_TI_return
     265            
     266 000132 0110          RETA      ; [] 
     267                    ; [] 
MSP430 Assembler PC v21.6.1 Tue Jan  3 09:51:30 2023

Copyright (c) 2003-2018 Texas Instruments Incorporated
usart_comms.asm                                                      PAGE    7

     268                    .dwattr $C$DW$8, DW_AT_TI_end_file("../usart_comms.c")
     269                    .dwattr $C$DW$8, DW_AT_TI_end_line(0x3b)
     270                    .dwattr $C$DW$8, DW_AT_TI_end_column(0x01)
     271                    .dwendentry
     272                    .dwendtag $C$DW$8
     273            
     274 000000               .sect   ".text:usart0_comms_enable_interrupt"
     275                    .clink
     276                    .global usart0_comms_enable_interrupt
     277            
     278            $C$DW$10        .dwtag  DW_TAG_subprogram
     279                    .dwattr $C$DW$10, DW_AT_name("usart0_comms_enable_interrupt")
     280                    .dwattr $C$DW$10, DW_AT_low_pc(usart0_comms_enable_interrupt)
     281                    .dwattr $C$DW$10, DW_AT_high_pc(0x00)
     282                    .dwattr $C$DW$10, DW_AT_TI_symbol_name("usart0_comms_enable_interrupt")
     283                    .dwattr $C$DW$10, DW_AT_external
     284                    .dwattr $C$DW$10, DW_AT_TI_begin_file("../usart_comms.c")
     285                    .dwattr $C$DW$10, DW_AT_TI_begin_line(0x3d)
     286                    .dwattr $C$DW$10, DW_AT_TI_begin_column(0x06)
     287                    .dwattr $C$DW$10, DW_AT_decl_file("../usart_comms.c")
     288                    .dwattr $C$DW$10, DW_AT_decl_line(0x3d)
     289                    .dwattr $C$DW$10, DW_AT_decl_column(0x06)
     290                    .dwattr $C$DW$10, DW_AT_TI_max_frame_size(0x04)
     291                    .dwpsn  file "../usart_comms.c",line 62,column 1,is_stmt,address usart0_comms_enable_interrupt
     292            
     293                    .dwfde $C$DW$CIE, usart0_comms_enable_interrupt
     294            
     295            ;*****************************************************************************
     296            ;* FUNCTION NAME: usart0_comms_enable_interrupt                              *
     297            ;*                                                                           *
     298            ;*   Regs Modified     : SP,SR,r13,r14,r15                                   *
     299            ;*   Regs Used         : SP,SR,r13,r14,r15                                   *
     300            ;*   Local Frame Size  : 0 Args + 0 Auto + 0 Save = 0 byte                   *
     301            ;*****************************************************************************
     302 000000       usart0_comms_enable_interrupt:
     303            ;* --------------------------------------------------------------------------*
     304                    .dwcfi  cfa_offset, 4
     305                    .dwcfi  save_reg_to_mem, 16, -4
     306                    .dwpsn  file "../usart_comms.c",line 65,column 5,is_stmt,isa 0
     307 000000 421D          MOV.W     &pUCAxIE_REG+0,r13    ; [] |65| 
         000002 0000!
     308 000004 431F          MOV.W     #1,r15                ; [] |65| 
     309 000006 FD6F          AND.B     @r13,r15              ; [] |65| 
     310 000008 D35F          OR.B      #1,r15                ; [] |65| 
     311 00000a F35F          AND.B     #1,r15                ; [] |65| 
     312 00000c 4D6E          MOV.B     @r13,r14              ; [] |65| 
     313 00000e C35E          BIC.B     #1,r14                ; [] |65| 
     314 000010 DF4E          OR.B      r15,r14               ; [] |65| 
     315 000012 4ECD          MOV.B     r14,0(r13)            ; [] |65| 
         000014 0000 
     316                    .dwpsn  file "../usart_comms.c",line 67,column 5,is_stmt,isa 0
     317 000016 421D          MOV.W     &pUCAxIE_REG+0,r13    ; [] |67| 
         000018 0000!
     318 00001a 4D6E          MOV.B     @r13,r14              ; [] |67| 
     319 00001c C36E          BIC.B     #2,r14                ; [] |67| 
MSP430 Assembler PC v21.6.1 Tue Jan  3 09:51:30 2023

Copyright (c) 2003-2018 Texas Instruments Incorporated
usart_comms.asm                                                      PAGE    8

     320 00001e 4D6F          MOV.B     @r13,r15              ; [] |67| 
     321 000020 C312          CLRC                            ; [] |67| 
     322 000022 104F          RRC.B     r15                   ; [] |67| 
     323 000024 F35F          AND.B     #1,r15                ; [] |67| 
     324 000026 D35F          OR.B      #1,r15                ; [] |67| 
     325 000028 F35F          AND.B     #1,r15                ; [] |67| 
     326 00002a 5F4F          RLA.B     r15                   ; [] |67| 
     327 00002c DF4E          OR.B      r15,r14               ; [] |67| 
     328 00002e 4ECD          MOV.B     r14,0(r13)            ; [] |67| 
         000030 0000 
     329                    .dwpsn  file "../usart_comms.c",line 69,column 5,is_stmt,isa 0
     330 000032 421D          MOV.W     &pUCAxIE_REG+0,r13    ; [] |69| 
         000034 0000!
     331 000036 4D6E          MOV.B     @r13,r14              ; [] |69| 
     332 000038 C26E          BIC.B     #4,r14                ; [] |69| 
     333 00003a 4D6F          MOV.B     @r13,r15              ; [] |69| 
     334 00003c 1941          RPT #2 || RRUX.B r15 ; [] |69| 
         00003e 104F 
     335 000040 F35F          AND.B     #1,r15                ; [] |69| 
     336 000042 D35F          OR.B      #1,r15                ; [] |69| 
     337 000044 F35F          AND.B     #1,r15                ; [] |69| 
     338 000046 1841          RPT #2 || RLAX.B r15 ; [] |69| 
         000048 5F4F 
     339 00004a DF4E          OR.B      r15,r14               ; [] |69| 
     340 00004c 4ECD          MOV.B     r14,0(r13)            ; [] |69| 
         00004e 0000 
     341                    .dwpsn  file "../usart_comms.c",line 71,column 5,is_stmt,isa 0
     342 000050 421D          MOV.W     &pUCAxIE_REG+0,r13    ; [] |71| 
         000052 0000!
     343 000054 4D6E          MOV.B     @r13,r14              ; [] |71| 
     344 000056 C27E          BIC.B     #8,r14                ; [] |71| 
     345 000058 4D6F          MOV.B     @r13,r15              ; [] |71| 
     346 00005a 1942          RPT #3 || RRUX.B r15 ; [] |71| 
         00005c 104F 
     347 00005e F35F          AND.B     #1,r15                ; [] |71| 
     348 000060 D35F          OR.B      #1,r15                ; [] |71| 
     349 000062 F35F          AND.B     #1,r15                ; [] |71| 
     350 000064 1842          RPT #3 || RLAX.B r15 ; [] |71| 
         000066 5F4F 
     351 000068 DF4E          OR.B      r15,r14               ; [] |71| 
     352 00006a 4ECD          MOV.B     r14,0(r13)            ; [] |71| 
         00006c 0000 
     353                    .dwpsn  file "../usart_comms.c",line 74,column 5,is_stmt,isa 0
     354 00006e 421D          MOV.W     &pUCAxCTLW0_REG+0,r13 ; [] |74| 
         000070 0000!
     355 000072 4D6F          MOV.B     @r13,r15              ; [] |74| 
     356 000074 0FCE          MOVA      r15,r14               ; [] |74| 
     357 000076 F07E          AND.B     #223,r14              ; [] |74| 
         000078 00DF 
     358 00007a 1944          RPT #5 || RRUX.W r15 ; [] |74| 
         00007c 100F 
     359 00007e F35F          AND.B     #1,r15                ; [] |74| 
     360 000080 D35F          OR.B      #1,r15                ; [] |74| 
     361 000082 F35F          AND.B     #1,r15                ; [] |74| 
     362 000084 1844          RPT #5 || RLAX.B r15 ; [] |74| 
MSP430 Assembler PC v21.6.1 Tue Jan  3 09:51:30 2023

Copyright (c) 2003-2018 Texas Instruments Incorporated
usart_comms.asm                                                      PAGE    9

         000086 5F4F 
     363 000088 DE4F          OR.B      r14,r15               ; [] |74| 
     364 00008a 4FCD          MOV.B     r15,0(r13)            ; [] |74| 
         00008c 0000 
     365                    .dwpsn  file "../usart_comms.c",line 76,column 5,is_stmt,isa 0
     366 00008e 421D          MOV.W     &pUCAxCTLW0_REG+0,r13 ; [] |76| 
         000090 0000!
     367 000092 4D6F          MOV.B     @r13,r15              ; [] |76| 
     368 000094 0FCE          MOVA      r15,r14               ; [] |76| 
     369 000096 F07E          AND.B     #239,r14              ; [] |76| 
         000098 00EF 
     370 00009a 0F5F          RRUM.W    #4,r15                ; [] |76| 
     371 00009c F35F          AND.B     #1,r15                ; [] |76| 
     372 00009e D35F          OR.B      #1,r15                ; [] |76| 
     373 0000a0 F35F          AND.B     #1,r15                ; [] |76| 
     374 0000a2 1843          RPT #4 || RLAX.B r15 ; [] |76| 
         0000a4 5F4F 
     375 0000a6 DE4F          OR.B      r14,r15               ; [] |76| 
     376 0000a8 4FCD          MOV.B     r15,0(r13)            ; [] |76| 
         0000aa 0000 
     377                    .dwpsn  file "../usart_comms.c",line 77,column 1,is_stmt,isa 0
     378            $C$DW$11        .dwtag  DW_TAG_TI_branch
     379                    .dwattr $C$DW$11, DW_AT_low_pc(0x00)
     380                    .dwattr $C$DW$11, DW_AT_TI_return
     381            
     382 0000ac 0110          RETA      ; [] 
     383                    ; [] 
     384                    .dwattr $C$DW$10, DW_AT_TI_end_file("../usart_comms.c")
     385                    .dwattr $C$DW$10, DW_AT_TI_end_line(0x4d)
     386                    .dwattr $C$DW$10, DW_AT_TI_end_column(0x01)
     387                    .dwendentry
     388                    .dwendtag $C$DW$10
     389            
     390 000000               .sect   ".text:usart0_comms_clear_rx_interrupt"
     391                    .clink
     392                    .global usart0_comms_clear_rx_interrupt
     393            
     394            $C$DW$12        .dwtag  DW_TAG_subprogram
     395                    .dwattr $C$DW$12, DW_AT_name("usart0_comms_clear_rx_interrupt")
     396                    .dwattr $C$DW$12, DW_AT_low_pc(usart0_comms_clear_rx_interrupt)
     397                    .dwattr $C$DW$12, DW_AT_high_pc(0x00)
     398                    .dwattr $C$DW$12, DW_AT_TI_symbol_name("usart0_comms_clear_rx_interrupt")
     399                    .dwattr $C$DW$12, DW_AT_external
     400                    .dwattr $C$DW$12, DW_AT_TI_begin_file("../usart_comms.c")
     401                    .dwattr $C$DW$12, DW_AT_TI_begin_line(0x4f)
     402                    .dwattr $C$DW$12, DW_AT_TI_begin_column(0x06)
     403                    .dwattr $C$DW$12, DW_AT_decl_file("../usart_comms.c")
     404                    .dwattr $C$DW$12, DW_AT_decl_line(0x4f)
     405                    .dwattr $C$DW$12, DW_AT_decl_column(0x06)
     406                    .dwattr $C$DW$12, DW_AT_TI_max_frame_size(0x04)
     407                    .dwpsn  file "../usart_comms.c",line 80,column 1,is_stmt,address usart0_comms_clear_rx_interru
     408            
     409                    .dwfde $C$DW$CIE, usart0_comms_clear_rx_interrupt
     410            
     411            ;*****************************************************************************
MSP430 Assembler PC v21.6.1 Tue Jan  3 09:51:30 2023

Copyright (c) 2003-2018 Texas Instruments Incorporated
usart_comms.asm                                                      PAGE   10

     412            ;* FUNCTION NAME: usart0_comms_clear_rx_interrupt                            *
     413            ;*                                                                           *
     414            ;*   Regs Modified     : SP,SR,r13,r14,r15                                   *
     415            ;*   Regs Used         : SP,SR,r13,r14,r15                                   *
     416            ;*   Local Frame Size  : 0 Args + 0 Auto + 0 Save = 0 byte                   *
     417            ;*****************************************************************************
     418 000000       usart0_comms_clear_rx_interrupt:
     419            ;* --------------------------------------------------------------------------*
     420                    .dwcfi  cfa_offset, 4
     421                    .dwcfi  save_reg_to_mem, 16, -4
     422                    .dwpsn  file "../usart_comms.c",line 82,column 5,is_stmt,isa 0
     423 000000 421E          MOV.W     &pUCAxIFG+0,r14       ; [] |82| 
         000002 0000!
     424 000004 4E6F          MOV.B     @r14,r15              ; [] |82| 
     425 000006 C35F          BIC.B     #1,r15                ; [] |82| 
     426 000008 4E6D          MOV.B     @r14,r13              ; [] |82| 
     427 00000a 431D          MOV.W     #1,r13                ; [] |82| 
     428 00000c F34D          AND.B     #0,r13                ; [] |82| 
     429 00000e DF4D          OR.B      r15,r13               ; [] |82| 
     430 000010 4DCE          MOV.B     r13,0(r14)            ; [] |82| 
         000012 0000 
     431                    .dwpsn  file "../usart_comms.c",line 83,column 1,is_stmt,isa 0
     432            $C$DW$13        .dwtag  DW_TAG_TI_branch
     433                    .dwattr $C$DW$13, DW_AT_low_pc(0x00)
     434                    .dwattr $C$DW$13, DW_AT_TI_return
     435            
     436 000014 0110          RETA      ; [] 
     437                    ; [] 
     438                    .dwattr $C$DW$12, DW_AT_TI_end_file("../usart_comms.c")
     439                    .dwattr $C$DW$12, DW_AT_TI_end_line(0x53)
     440                    .dwattr $C$DW$12, DW_AT_TI_end_column(0x01)
     441                    .dwendentry
     442                    .dwendtag $C$DW$12
     443            
     444 000000               .sect   ".text:usart0_comms_transmit"
     445                    .clink
     446                    .global usart0_comms_transmit
     447            
     448            $C$DW$14        .dwtag  DW_TAG_subprogram
     449                    .dwattr $C$DW$14, DW_AT_name("usart0_comms_transmit")
     450                    .dwattr $C$DW$14, DW_AT_low_pc(usart0_comms_transmit)
     451                    .dwattr $C$DW$14, DW_AT_high_pc(0x00)
     452                    .dwattr $C$DW$14, DW_AT_TI_symbol_name("usart0_comms_transmit")
     453                    .dwattr $C$DW$14, DW_AT_external
     454                    .dwattr $C$DW$14, DW_AT_TI_begin_file("../usart_comms.c")
     455                    .dwattr $C$DW$14, DW_AT_TI_begin_line(0x56)
     456                    .dwattr $C$DW$14, DW_AT_TI_begin_column(0x06)
     457                    .dwattr $C$DW$14, DW_AT_decl_file("../usart_comms.c")
     458                    .dwattr $C$DW$14, DW_AT_decl_line(0x56)
     459                    .dwattr $C$DW$14, DW_AT_decl_column(0x06)
     460                    .dwattr $C$DW$14, DW_AT_TI_max_frame_size(0x06)
     461                    .dwpsn  file "../usart_comms.c",line 87,column 1,is_stmt,address usart0_comms_transmit,isa 0
     462            
     463                    .dwfde $C$DW$CIE, usart0_comms_transmit
     464            $C$DW$15        .dwtag  DW_TAG_formal_parameter
MSP430 Assembler PC v21.6.1 Tue Jan  3 09:51:30 2023

Copyright (c) 2003-2018 Texas Instruments Incorporated
usart_comms.asm                                                      PAGE   11

     465                    .dwattr $C$DW$15, DW_AT_name("data")
     466                    .dwattr $C$DW$15, DW_AT_TI_symbol_name("data")
     467                    .dwattr $C$DW$15, DW_AT_type(*$C$DW$T$22)
     468                    .dwattr $C$DW$15, DW_AT_location[DW_OP_reg12]
     469            
     470            
     471            ;*****************************************************************************
     472            ;* FUNCTION NAME: usart0_comms_transmit                                      *
     473            ;*                                                                           *
     474            ;*   Regs Modified     : SP,SR,r13,r14,r15                                   *
     475            ;*   Regs Used         : SP,SR,r12,r13,r14,r15                               *
     476            ;*   Local Frame Size  : 0 Args + 2 Auto + 0 Save = 2 byte                   *
     477            ;*****************************************************************************
     478 000000       usart0_comms_transmit:
     479            ;* --------------------------------------------------------------------------*
     480                    .dwcfi  cfa_offset, 4
     481                    .dwcfi  save_reg_to_mem, 16, -4
     482 000000 8321          SUB.W     #2,SP                 ; [] 
     483                    .dwcfi  cfa_offset, 6
     484            $C$DW$16        .dwtag  DW_TAG_variable
     485                    .dwattr $C$DW$16, DW_AT_name("data")
     486                    .dwattr $C$DW$16, DW_AT_TI_symbol_name("data")
     487                    .dwattr $C$DW$16, DW_AT_type(*$C$DW$T$22)
     488                    .dwattr $C$DW$16, DW_AT_location[DW_OP_breg1 0]
     489            
     490 000002 4CC1          MOV.B     r12,0(SP)             ; [] |87| 
         000004 0000 
     491                    .dwpsn  file "../usart_comms.c",line 88,column 5,is_stmt,isa 0
     492 000006 421D          MOV.W     &pUCAxTXBUF_REG+0,r13 ; [] |88| 
         000008 0000!
     493 00000a 430F          MOV.W     #0,r15                ; [] |88| 
     494 00000c FD6F          AND.B     @r13,r15              ; [] |88| 
     495 00000e 416E          MOV.B     0(SP),r14             ; [] |88| 
     496 000010 C34E          BIC.B     #0,r14                ; [] |88| 
     497 000012 DF4E          OR.B      r15,r14               ; [] |88| 
     498 000014 4ECD          MOV.B     r14,0(r13)            ; [] |88| 
         000016 0000 
     499                    .dwpsn  file "../usart_comms.c",line 89,column 1,is_stmt,isa 0
     500 000018 5321          ADD.W     #2,SP                 ; [] 
     501                    .dwcfi  cfa_offset, 4
     502            $C$DW$17        .dwtag  DW_TAG_TI_branch
     503                    .dwattr $C$DW$17, DW_AT_low_pc(0x00)
     504                    .dwattr $C$DW$17, DW_AT_TI_return
     505            
     506 00001a 0110          RETA      ; [] 
     507                    ; [] 
     508                    .dwattr $C$DW$14, DW_AT_TI_end_file("../usart_comms.c")
     509                    .dwattr $C$DW$14, DW_AT_TI_end_line(0x59)
     510                    .dwattr $C$DW$14, DW_AT_TI_end_column(0x01)
     511                    .dwendentry
     512                    .dwendtag $C$DW$14
     513            
     514 000000               .sect   ".text:usart0_comms_receive"
     515                    .clink
     516                    .global usart0_comms_receive
MSP430 Assembler PC v21.6.1 Tue Jan  3 09:51:30 2023

Copyright (c) 2003-2018 Texas Instruments Incorporated
usart_comms.asm                                                      PAGE   12

     517            
     518            $C$DW$18        .dwtag  DW_TAG_subprogram
     519                    .dwattr $C$DW$18, DW_AT_name("usart0_comms_receive")
     520                    .dwattr $C$DW$18, DW_AT_low_pc(usart0_comms_receive)
     521                    .dwattr $C$DW$18, DW_AT_high_pc(0x00)
     522                    .dwattr $C$DW$18, DW_AT_TI_symbol_name("usart0_comms_receive")
     523                    .dwattr $C$DW$18, DW_AT_external
     524                    .dwattr $C$DW$18, DW_AT_type(*$C$DW$T$22)
     525                    .dwattr $C$DW$18, DW_AT_TI_begin_file("../usart_comms.c")
     526                    .dwattr $C$DW$18, DW_AT_TI_begin_line(0x5c)
     527                    .dwattr $C$DW$18, DW_AT_TI_begin_column(0x09)
     528                    .dwattr $C$DW$18, DW_AT_decl_file("../usart_comms.c")
     529                    .dwattr $C$DW$18, DW_AT_decl_line(0x5c)
     530                    .dwattr $C$DW$18, DW_AT_decl_column(0x09)
     531                    .dwattr $C$DW$18, DW_AT_TI_max_frame_size(0x04)
     532                    .dwpsn  file "../usart_comms.c",line 93,column 1,is_stmt,address usart0_comms_receive,isa 0
     533            
     534                    .dwfde $C$DW$CIE, usart0_comms_receive
     535            
     536            ;*****************************************************************************
     537            ;* FUNCTION NAME: usart0_comms_receive                                       *
     538            ;*                                                                           *
     539            ;*   Regs Modified     : SP,r12,r15                                          *
     540            ;*   Regs Used         : SP,r12,r15                                          *
     541            ;*   Local Frame Size  : 0 Args + 0 Auto + 0 Save = 0 byte                   *
     542            ;*****************************************************************************
     543 000000       usart0_comms_receive:
     544            ;* --------------------------------------------------------------------------*
     545                    .dwcfi  cfa_offset, 4
     546                    .dwcfi  save_reg_to_mem, 16, -4
     547                    .dwpsn  file "../usart_comms.c",line 94,column 5,is_stmt,isa 0
     548 000000 421F          MOV.W     &pUCAxRXBUF_REG+0,r15 ; [] |94| 
         000002 0000!
     549 000004 4F6C          MOV.B     @r15,r12              ; [] |94| 
     550                    .dwpsn  file "../usart_comms.c",line 95,column 1,is_stmt,isa 0
     551            $C$DW$19        .dwtag  DW_TAG_TI_branch
     552                    .dwattr $C$DW$19, DW_AT_low_pc(0x00)
     553                    .dwattr $C$DW$19, DW_AT_TI_return
     554            
     555 000006 0110          RETA      ; [] 
     556                    ; [] 
     557                    .dwattr $C$DW$18, DW_AT_TI_end_file("../usart_comms.c")
     558                    .dwattr $C$DW$18, DW_AT_TI_end_line(0x5f)
     559                    .dwattr $C$DW$18, DW_AT_TI_end_column(0x01)
     560                    .dwendentry
     561                    .dwendtag $C$DW$18
     562            
     563            
     564            ;******************************************************************************
     565            ;* BUILD ATTRIBUTES                                                           *
     566            ;******************************************************************************
     567                    .battr "TI", Tag_File, 1, Tag_LOCKIO_INFO(1)
     568                    .battr "TI", Tag_File, 1, Tag_WAITSTATE_INFO(2)
     569                    .battr "TI", Tag_File, 1, Tag_HW_MPY_ISR_INFO(1)
     570                    .battr "TI", Tag_File, 1, Tag_HW_MPY_INLINE_INFO(1)
MSP430 Assembler PC v21.6.1 Tue Jan  3 09:51:30 2023

Copyright (c) 2003-2018 Texas Instruments Incorporated
usart_comms.asm                                                      PAGE   13

     571                    .battr "mspabi", Tag_File, 1, Tag_enum_size(3)
     572            
     573            ;******************************************************************************
     574            ;* TYPE INFORMATION                                                           *
     575            ;******************************************************************************
     576            
     577            $C$DW$T$23      .dwtag  DW_TAG_structure_type
     578                    .dwattr $C$DW$T$23, DW_AT_byte_size(0x02)
     579            $C$DW$20        .dwtag  DW_TAG_member
     580                    .dwattr $C$DW$20, DW_AT_type(*$C$DW$T$22)
     581                    .dwattr $C$DW$20, DW_AT_name("UCSWRST")
     582                    .dwattr $C$DW$20, DW_AT_TI_symbol_name("UCSWRST")
     583                    .dwattr $C$DW$20, DW_AT_bit_offset(0x07)
     584                    .dwattr $C$DW$20, DW_AT_bit_size(0x01)
     585                    .dwattr $C$DW$20, DW_AT_data_member_location[DW_OP_plus_uconst 0x0]
     586                    .dwattr $C$DW$20, DW_AT_accessibility(DW_ACCESS_public)
     587                    .dwattr $C$DW$20, DW_AT_decl_file("..\usart_comms.h")
     588                    .dwattr $C$DW$20, DW_AT_decl_line(0x17)
     589                    .dwattr $C$DW$20, DW_AT_decl_column(0x0d)
     590            
     591            $C$DW$21        .dwtag  DW_TAG_member
     592                    .dwattr $C$DW$21, DW_AT_type(*$C$DW$T$22)
     593                    .dwattr $C$DW$21, DW_AT_name("UCTXBRK")
     594                    .dwattr $C$DW$21, DW_AT_TI_symbol_name("UCTXBRK")
     595                    .dwattr $C$DW$21, DW_AT_bit_offset(0x06)
     596                    .dwattr $C$DW$21, DW_AT_bit_size(0x01)
     597                    .dwattr $C$DW$21, DW_AT_data_member_location[DW_OP_plus_uconst 0x0]
     598                    .dwattr $C$DW$21, DW_AT_accessibility(DW_ACCESS_public)
     599                    .dwattr $C$DW$21, DW_AT_decl_file("..\usart_comms.h")
     600                    .dwattr $C$DW$21, DW_AT_decl_line(0x18)
     601                    .dwattr $C$DW$21, DW_AT_decl_column(0x0d)
     602            
     603            $C$DW$22        .dwtag  DW_TAG_member
     604                    .dwattr $C$DW$22, DW_AT_type(*$C$DW$T$22)
     605                    .dwattr $C$DW$22, DW_AT_name("UCTXADDR")
     606                    .dwattr $C$DW$22, DW_AT_TI_symbol_name("UCTXADDR")
     607                    .dwattr $C$DW$22, DW_AT_bit_offset(0x05)
     608                    .dwattr $C$DW$22, DW_AT_bit_size(0x01)
     609                    .dwattr $C$DW$22, DW_AT_data_member_location[DW_OP_plus_uconst 0x0]
     610                    .dwattr $C$DW$22, DW_AT_accessibility(DW_ACCESS_public)
     611                    .dwattr $C$DW$22, DW_AT_decl_file("..\usart_comms.h")
     612                    .dwattr $C$DW$22, DW_AT_decl_line(0x19)
     613                    .dwattr $C$DW$22, DW_AT_decl_column(0x0d)
     614            
     615            $C$DW$23        .dwtag  DW_TAG_member
     616                    .dwattr $C$DW$23, DW_AT_type(*$C$DW$T$22)
     617                    .dwattr $C$DW$23, DW_AT_name("UCDORM")
     618                    .dwattr $C$DW$23, DW_AT_TI_symbol_name("UCDORM")
     619                    .dwattr $C$DW$23, DW_AT_bit_offset(0x04)
     620                    .dwattr $C$DW$23, DW_AT_bit_size(0x01)
     621                    .dwattr $C$DW$23, DW_AT_data_member_location[DW_OP_plus_uconst 0x0]
     622                    .dwattr $C$DW$23, DW_AT_accessibility(DW_ACCESS_public)
     623                    .dwattr $C$DW$23, DW_AT_decl_file("..\usart_comms.h")
     624                    .dwattr $C$DW$23, DW_AT_decl_line(0x1a)
     625                    .dwattr $C$DW$23, DW_AT_decl_column(0x0d)
MSP430 Assembler PC v21.6.1 Tue Jan  3 09:51:30 2023

Copyright (c) 2003-2018 Texas Instruments Incorporated
usart_comms.asm                                                      PAGE   14

     626            
     627            $C$DW$24        .dwtag  DW_TAG_member
     628                    .dwattr $C$DW$24, DW_AT_type(*$C$DW$T$22)
     629                    .dwattr $C$DW$24, DW_AT_name("UCBRKIE")
     630                    .dwattr $C$DW$24, DW_AT_TI_symbol_name("UCBRKIE")
     631                    .dwattr $C$DW$24, DW_AT_bit_offset(0x03)
     632                    .dwattr $C$DW$24, DW_AT_bit_size(0x01)
     633                    .dwattr $C$DW$24, DW_AT_data_member_location[DW_OP_plus_uconst 0x0]
     634                    .dwattr $C$DW$24, DW_AT_accessibility(DW_ACCESS_public)
     635                    .dwattr $C$DW$24, DW_AT_decl_file("..\usart_comms.h")
     636                    .dwattr $C$DW$24, DW_AT_decl_line(0x1b)
     637                    .dwattr $C$DW$24, DW_AT_decl_column(0x0d)
     638            
     639            $C$DW$25        .dwtag  DW_TAG_member
     640                    .dwattr $C$DW$25, DW_AT_type(*$C$DW$T$22)
     641                    .dwattr $C$DW$25, DW_AT_name("UCRXEIE")
     642                    .dwattr $C$DW$25, DW_AT_TI_symbol_name("UCRXEIE")
     643                    .dwattr $C$DW$25, DW_AT_bit_offset(0x02)
     644                    .dwattr $C$DW$25, DW_AT_bit_size(0x01)
     645                    .dwattr $C$DW$25, DW_AT_data_member_location[DW_OP_plus_uconst 0x0]
     646                    .dwattr $C$DW$25, DW_AT_accessibility(DW_ACCESS_public)
     647                    .dwattr $C$DW$25, DW_AT_decl_file("..\usart_comms.h")
     648                    .dwattr $C$DW$25, DW_AT_decl_line(0x1c)
     649                    .dwattr $C$DW$25, DW_AT_decl_column(0x0d)
     650            
     651            $C$DW$26        .dwtag  DW_TAG_member
     652                    .dwattr $C$DW$26, DW_AT_type(*$C$DW$T$22)
     653                    .dwattr $C$DW$26, DW_AT_name("UCSSELx")
     654                    .dwattr $C$DW$26, DW_AT_TI_symbol_name("UCSSELx")
     655                    .dwattr $C$DW$26, DW_AT_bit_offset(0x00)
     656                    .dwattr $C$DW$26, DW_AT_bit_size(0x02)
     657                    .dwattr $C$DW$26, DW_AT_data_member_location[DW_OP_plus_uconst 0x0]
     658                    .dwattr $C$DW$26, DW_AT_accessibility(DW_ACCESS_public)
     659                    .dwattr $C$DW$26, DW_AT_decl_file("..\usart_comms.h")
     660                    .dwattr $C$DW$26, DW_AT_decl_line(0x1d)
     661                    .dwattr $C$DW$26, DW_AT_decl_column(0x0d)
     662            
     663            $C$DW$27        .dwtag  DW_TAG_member
     664                    .dwattr $C$DW$27, DW_AT_type(*$C$DW$T$22)
     665                    .dwattr $C$DW$27, DW_AT_name("UCSYNC")
     666                    .dwattr $C$DW$27, DW_AT_TI_symbol_name("UCSYNC")
     667                    .dwattr $C$DW$27, DW_AT_bit_offset(0x07)
     668                    .dwattr $C$DW$27, DW_AT_bit_size(0x01)
     669                    .dwattr $C$DW$27, DW_AT_data_member_location[DW_OP_plus_uconst 0x1]
     670                    .dwattr $C$DW$27, DW_AT_accessibility(DW_ACCESS_public)
     671                    .dwattr $C$DW$27, DW_AT_decl_file("..\usart_comms.h")
     672                    .dwattr $C$DW$27, DW_AT_decl_line(0x1e)
     673                    .dwattr $C$DW$27, DW_AT_decl_column(0x0d)
     674            
     675            $C$DW$28        .dwtag  DW_TAG_member
     676                    .dwattr $C$DW$28, DW_AT_type(*$C$DW$T$22)
     677                    .dwattr $C$DW$28, DW_AT_name("UCMODEx")
     678                    .dwattr $C$DW$28, DW_AT_TI_symbol_name("UCMODEx")
     679                    .dwattr $C$DW$28, DW_AT_bit_offset(0x05)
     680                    .dwattr $C$DW$28, DW_AT_bit_size(0x02)
MSP430 Assembler PC v21.6.1 Tue Jan  3 09:51:30 2023

Copyright (c) 2003-2018 Texas Instruments Incorporated
usart_comms.asm                                                      PAGE   15

     681                    .dwattr $C$DW$28, DW_AT_data_member_location[DW_OP_plus_uconst 0x1]
     682                    .dwattr $C$DW$28, DW_AT_accessibility(DW_ACCESS_public)
     683                    .dwattr $C$DW$28, DW_AT_decl_file("..\usart_comms.h")
     684                    .dwattr $C$DW$28, DW_AT_decl_line(0x1f)
     685                    .dwattr $C$DW$28, DW_AT_decl_column(0x0d)
     686            
     687            $C$DW$29        .dwtag  DW_TAG_member
     688                    .dwattr $C$DW$29, DW_AT_type(*$C$DW$T$22)
     689                    .dwattr $C$DW$29, DW_AT_name("UCSPB")
     690                    .dwattr $C$DW$29, DW_AT_TI_symbol_name("UCSPB")
     691                    .dwattr $C$DW$29, DW_AT_bit_offset(0x04)
     692                    .dwattr $C$DW$29, DW_AT_bit_size(0x01)
     693                    .dwattr $C$DW$29, DW_AT_data_member_location[DW_OP_plus_uconst 0x1]
     694                    .dwattr $C$DW$29, DW_AT_accessibility(DW_ACCESS_public)
     695                    .dwattr $C$DW$29, DW_AT_decl_file("..\usart_comms.h")
     696                    .dwattr $C$DW$29, DW_AT_decl_line(0x20)
     697                    .dwattr $C$DW$29, DW_AT_decl_column(0x0d)
     698            
     699            $C$DW$30        .dwtag  DW_TAG_member
     700                    .dwattr $C$DW$30, DW_AT_type(*$C$DW$T$22)
     701                    .dwattr $C$DW$30, DW_AT_name("UC7BIT")
     702                    .dwattr $C$DW$30, DW_AT_TI_symbol_name("UC7BIT")
     703                    .dwattr $C$DW$30, DW_AT_bit_offset(0x03)
     704                    .dwattr $C$DW$30, DW_AT_bit_size(0x01)
     705                    .dwattr $C$DW$30, DW_AT_data_member_location[DW_OP_plus_uconst 0x1]
     706                    .dwattr $C$DW$30, DW_AT_accessibility(DW_ACCESS_public)
     707                    .dwattr $C$DW$30, DW_AT_decl_file("..\usart_comms.h")
     708                    .dwattr $C$DW$30, DW_AT_decl_line(0x21)
     709                    .dwattr $C$DW$30, DW_AT_decl_column(0x0d)
     710            
     711            $C$DW$31        .dwtag  DW_TAG_member
     712                    .dwattr $C$DW$31, DW_AT_type(*$C$DW$T$22)
     713                    .dwattr $C$DW$31, DW_AT_name("UCMSB")
     714                    .dwattr $C$DW$31, DW_AT_TI_symbol_name("UCMSB")
     715                    .dwattr $C$DW$31, DW_AT_bit_offset(0x02)
     716                    .dwattr $C$DW$31, DW_AT_bit_size(0x01)
     717                    .dwattr $C$DW$31, DW_AT_data_member_location[DW_OP_plus_uconst 0x1]
     718                    .dwattr $C$DW$31, DW_AT_accessibility(DW_ACCESS_public)
     719                    .dwattr $C$DW$31, DW_AT_decl_file("..\usart_comms.h")
     720                    .dwattr $C$DW$31, DW_AT_decl_line(0x22)
     721                    .dwattr $C$DW$31, DW_AT_decl_column(0x0d)
     722            
     723            $C$DW$32        .dwtag  DW_TAG_member
     724                    .dwattr $C$DW$32, DW_AT_type(*$C$DW$T$22)
     725                    .dwattr $C$DW$32, DW_AT_name("UCPAR")
     726                    .dwattr $C$DW$32, DW_AT_TI_symbol_name("UCPAR")
     727                    .dwattr $C$DW$32, DW_AT_bit_offset(0x01)
     728                    .dwattr $C$DW$32, DW_AT_bit_size(0x01)
     729                    .dwattr $C$DW$32, DW_AT_data_member_location[DW_OP_plus_uconst 0x1]
     730                    .dwattr $C$DW$32, DW_AT_accessibility(DW_ACCESS_public)
     731                    .dwattr $C$DW$32, DW_AT_decl_file("..\usart_comms.h")
     732                    .dwattr $C$DW$32, DW_AT_decl_line(0x23)
     733                    .dwattr $C$DW$32, DW_AT_decl_column(0x0d)
     734            
     735            $C$DW$33        .dwtag  DW_TAG_member
MSP430 Assembler PC v21.6.1 Tue Jan  3 09:51:30 2023

Copyright (c) 2003-2018 Texas Instruments Incorporated
usart_comms.asm                                                      PAGE   16

     736                    .dwattr $C$DW$33, DW_AT_type(*$C$DW$T$22)
     737                    .dwattr $C$DW$33, DW_AT_name("UCPEN")
     738                    .dwattr $C$DW$33, DW_AT_TI_symbol_name("UCPEN")
     739                    .dwattr $C$DW$33, DW_AT_bit_offset(0x00)
     740                    .dwattr $C$DW$33, DW_AT_bit_size(0x01)
     741                    .dwattr $C$DW$33, DW_AT_data_member_location[DW_OP_plus_uconst 0x1]
     742                    .dwattr $C$DW$33, DW_AT_accessibility(DW_ACCESS_public)
     743                    .dwattr $C$DW$33, DW_AT_decl_file("..\usart_comms.h")
     744                    .dwattr $C$DW$33, DW_AT_decl_line(0x24)
     745                    .dwattr $C$DW$33, DW_AT_decl_column(0x0d)
     746            
     747                    .dwattr $C$DW$T$23, DW_AT_decl_file("..\usart_comms.h")
     748                    .dwattr $C$DW$T$23, DW_AT_decl_line(0x16)
     749                    .dwattr $C$DW$T$23, DW_AT_decl_column(0x01)
     750                    .dwendtag $C$DW$T$23
     751            
     752            $C$DW$T$38      .dwtag  DW_TAG_typedef
     753                    .dwattr $C$DW$T$38, DW_AT_name("UCA0CTLW0_REG")
     754                    .dwattr $C$DW$T$38, DW_AT_type(*$C$DW$T$23)
     755                    .dwattr $C$DW$T$38, DW_AT_language(DW_LANG_C)
     756                    .dwattr $C$DW$T$38, DW_AT_decl_file("..\usart_comms.h")
     757                    .dwattr $C$DW$T$38, DW_AT_decl_line(0x25)
     758                    .dwattr $C$DW$T$38, DW_AT_decl_column(0x03)
     759            
     760            $C$DW$T$55      .dwtag  DW_TAG_pointer_type
     761                    .dwattr $C$DW$T$55, DW_AT_type(*$C$DW$T$38)
     762                    .dwattr $C$DW$T$55, DW_AT_address_class(0x10)
     763            
     764            $C$DW$T$56      .dwtag  DW_TAG_const_type
     765                    .dwattr $C$DW$T$56, DW_AT_type(*$C$DW$T$55)
     766            
     767            
     768            $C$DW$T$26      .dwtag  DW_TAG_structure_type
     769                    .dwattr $C$DW$T$26, DW_AT_byte_size(0x04)
     770            $C$DW$34        .dwtag  DW_TAG_member
     771                    .dwattr $C$DW$34, DW_AT_type(*$C$DW$T$25)
     772                    .dwattr $C$DW$34, DW_AT_name("UCGLITx")
     773                    .dwattr $C$DW$34, DW_AT_TI_symbol_name("UCGLITx")
     774                    .dwattr $C$DW$34, DW_AT_bit_offset(0x0e)
     775                    .dwattr $C$DW$34, DW_AT_bit_size(0x02)
     776                    .dwattr $C$DW$34, DW_AT_data_member_location[DW_OP_plus_uconst 0x0]
     777                    .dwattr $C$DW$34, DW_AT_accessibility(DW_ACCESS_public)
     778                    .dwattr $C$DW$34, DW_AT_decl_file("..\usart_comms.h")
     779                    .dwattr $C$DW$34, DW_AT_decl_line(0x2a)
     780                    .dwattr $C$DW$34, DW_AT_decl_column(0x0e)
     781            
     782            $C$DW$35        .dwtag  DW_TAG_member
     783                    .dwattr $C$DW$35, DW_AT_type(*$C$DW$T$25)
     784                    .dwattr $C$DW$35, DW_AT_name("Reserved")
     785                    .dwattr $C$DW$35, DW_AT_TI_symbol_name("Reserved")
     786                    .dwattr $C$DW$35, DW_AT_bit_offset(0x00)
     787                    .dwattr $C$DW$35, DW_AT_bit_size(0x0e)
     788                    .dwattr $C$DW$35, DW_AT_data_member_location[DW_OP_plus_uconst 0x0]
     789                    .dwattr $C$DW$35, DW_AT_accessibility(DW_ACCESS_public)
     790                    .dwattr $C$DW$35, DW_AT_decl_file("..\usart_comms.h")
MSP430 Assembler PC v21.6.1 Tue Jan  3 09:51:30 2023

Copyright (c) 2003-2018 Texas Instruments Incorporated
usart_comms.asm                                                      PAGE   17

     791                    .dwattr $C$DW$35, DW_AT_decl_line(0x2b)
     792                    .dwattr $C$DW$35, DW_AT_decl_column(0x0e)
     793            
     794            $C$DW$36        .dwtag  DW_TAG_member
     795                    .dwattr $C$DW$36, DW_AT_type(*$C$DW$T$25)
     796                    .dwattr $C$DW$36, DW_AT_name("Unused")
     797                    .dwattr $C$DW$36, DW_AT_TI_symbol_name("Unused")
     798                    .dwattr $C$DW$36, DW_AT_bit_offset(0x00)
     799                    .dwattr $C$DW$36, DW_AT_bit_size(0x10)
     800                    .dwattr $C$DW$36, DW_AT_data_member_location[DW_OP_plus_uconst 0x2]
     801                    .dwattr $C$DW$36, DW_AT_accessibility(DW_ACCESS_public)
     802                    .dwattr $C$DW$36, DW_AT_decl_file("..\usart_comms.h")
     803                    .dwattr $C$DW$36, DW_AT_decl_line(0x2c)
     804                    .dwattr $C$DW$36, DW_AT_decl_column(0x0e)
     805            
     806                    .dwattr $C$DW$T$26, DW_AT_decl_file("..\usart_comms.h")
     807                    .dwattr $C$DW$T$26, DW_AT_decl_line(0x29)
     808                    .dwattr $C$DW$T$26, DW_AT_decl_column(0x01)
     809                    .dwendtag $C$DW$T$26
     810            
     811            $C$DW$T$39      .dwtag  DW_TAG_typedef
     812                    .dwattr $C$DW$T$39, DW_AT_name("UCA0CTLW1_REG")
     813                    .dwattr $C$DW$T$39, DW_AT_type(*$C$DW$T$26)
     814                    .dwattr $C$DW$T$39, DW_AT_language(DW_LANG_C)
     815                    .dwattr $C$DW$T$39, DW_AT_decl_file("..\usart_comms.h")
     816                    .dwattr $C$DW$T$39, DW_AT_decl_line(0x2d)
     817                    .dwattr $C$DW$T$39, DW_AT_decl_column(0x03)
     818            
     819            
     820            $C$DW$T$27      .dwtag  DW_TAG_structure_type
     821                    .dwattr $C$DW$T$27, DW_AT_byte_size(0x02)
     822            $C$DW$37        .dwtag  DW_TAG_member
     823                    .dwattr $C$DW$37, DW_AT_type(*$C$DW$T$25)
     824                    .dwattr $C$DW$37, DW_AT_name("UCBRx")
     825                    .dwattr $C$DW$37, DW_AT_TI_symbol_name("UCBRx")
     826                    .dwattr $C$DW$37, DW_AT_bit_offset(0x00)
     827                    .dwattr $C$DW$37, DW_AT_bit_size(0x10)
     828                    .dwattr $C$DW$37, DW_AT_data_member_location[DW_OP_plus_uconst 0x0]
     829                    .dwattr $C$DW$37, DW_AT_accessibility(DW_ACCESS_public)
     830                    .dwattr $C$DW$37, DW_AT_decl_file("..\usart_comms.h")
     831                    .dwattr $C$DW$37, DW_AT_decl_line(0x3a)
     832                    .dwattr $C$DW$37, DW_AT_decl_column(0x0e)
     833            
     834                    .dwattr $C$DW$T$27, DW_AT_decl_file("..\usart_comms.h")
     835                    .dwattr $C$DW$T$27, DW_AT_decl_line(0x38)
     836                    .dwattr $C$DW$T$27, DW_AT_decl_column(0x01)
     837                    .dwendtag $C$DW$T$27
     838            
     839            $C$DW$T$40      .dwtag  DW_TAG_typedef
     840                    .dwattr $C$DW$T$40, DW_AT_name("UCA0BRW_REG")
     841                    .dwattr $C$DW$T$40, DW_AT_type(*$C$DW$T$27)
     842                    .dwattr $C$DW$T$40, DW_AT_language(DW_LANG_C)
     843                    .dwattr $C$DW$T$40, DW_AT_decl_file("..\usart_comms.h")
     844                    .dwattr $C$DW$T$40, DW_AT_decl_line(0x3b)
     845                    .dwattr $C$DW$T$40, DW_AT_decl_column(0x02)
MSP430 Assembler PC v21.6.1 Tue Jan  3 09:51:30 2023

Copyright (c) 2003-2018 Texas Instruments Incorporated
usart_comms.asm                                                      PAGE   18

     846            
     847            
     848            $C$DW$T$28      .dwtag  DW_TAG_structure_type
     849                    .dwattr $C$DW$T$28, DW_AT_byte_size(0x02)
     850            $C$DW$38        .dwtag  DW_TAG_member
     851                    .dwattr $C$DW$38, DW_AT_type(*$C$DW$T$22)
     852                    .dwattr $C$DW$38, DW_AT_name("UCOS16")
     853                    .dwattr $C$DW$38, DW_AT_TI_symbol_name("UCOS16")
     854                    .dwattr $C$DW$38, DW_AT_bit_offset(0x07)
     855                    .dwattr $C$DW$38, DW_AT_bit_size(0x01)
     856                    .dwattr $C$DW$38, DW_AT_data_member_location[DW_OP_plus_uconst 0x0]
     857                    .dwattr $C$DW$38, DW_AT_accessibility(DW_ACCESS_public)
     858                    .dwattr $C$DW$38, DW_AT_decl_file("..\usart_comms.h")
     859                    .dwattr $C$DW$38, DW_AT_decl_line(0x3f)
     860                    .dwattr $C$DW$38, DW_AT_decl_column(0x0d)
     861            
     862            $C$DW$39        .dwtag  DW_TAG_member
     863                    .dwattr $C$DW$39, DW_AT_type(*$C$DW$T$22)
     864                    .dwattr $C$DW$39, DW_AT_name("RESERVED")
     865                    .dwattr $C$DW$39, DW_AT_TI_symbol_name("RESERVED")
     866                    .dwattr $C$DW$39, DW_AT_bit_offset(0x04)
     867                    .dwattr $C$DW$39, DW_AT_bit_size(0x03)
     868                    .dwattr $C$DW$39, DW_AT_data_member_location[DW_OP_plus_uconst 0x0]
     869                    .dwattr $C$DW$39, DW_AT_accessibility(DW_ACCESS_public)
     870                    .dwattr $C$DW$39, DW_AT_decl_file("..\usart_comms.h")
     871                    .dwattr $C$DW$39, DW_AT_decl_line(0x40)
     872                    .dwattr $C$DW$39, DW_AT_decl_column(0x0d)
     873            
     874            $C$DW$40        .dwtag  DW_TAG_member
     875                    .dwattr $C$DW$40, DW_AT_type(*$C$DW$T$22)
     876                    .dwattr $C$DW$40, DW_AT_name("UCBRFx")
     877                    .dwattr $C$DW$40, DW_AT_TI_symbol_name("UCBRFx")
     878                    .dwattr $C$DW$40, DW_AT_bit_offset(0x00)
     879                    .dwattr $C$DW$40, DW_AT_bit_size(0x04)
     880                    .dwattr $C$DW$40, DW_AT_data_member_location[DW_OP_plus_uconst 0x0]
     881                    .dwattr $C$DW$40, DW_AT_accessibility(DW_ACCESS_public)
     882                    .dwattr $C$DW$40, DW_AT_decl_file("..\usart_comms.h")
     883                    .dwattr $C$DW$40, DW_AT_decl_line(0x41)
     884                    .dwattr $C$DW$40, DW_AT_decl_column(0x0d)
     885            
     886            $C$DW$41        .dwtag  DW_TAG_member
     887                    .dwattr $C$DW$41, DW_AT_type(*$C$DW$T$22)
     888                    .dwattr $C$DW$41, DW_AT_name("UCBRSx")
     889                    .dwattr $C$DW$41, DW_AT_TI_symbol_name("UCBRSx")
     890                    .dwattr $C$DW$41, DW_AT_bit_offset(0x00)
     891                    .dwattr $C$DW$41, DW_AT_bit_size(0x08)
     892                    .dwattr $C$DW$41, DW_AT_data_member_location[DW_OP_plus_uconst 0x1]
     893                    .dwattr $C$DW$41, DW_AT_accessibility(DW_ACCESS_public)
     894                    .dwattr $C$DW$41, DW_AT_decl_file("..\usart_comms.h")
     895                    .dwattr $C$DW$41, DW_AT_decl_line(0x42)
     896                    .dwattr $C$DW$41, DW_AT_decl_column(0x0d)
     897            
     898                    .dwattr $C$DW$T$28, DW_AT_decl_file("..\usart_comms.h")
     899                    .dwattr $C$DW$T$28, DW_AT_decl_line(0x3e)
     900                    .dwattr $C$DW$T$28, DW_AT_decl_column(0x01)
MSP430 Assembler PC v21.6.1 Tue Jan  3 09:51:30 2023

Copyright (c) 2003-2018 Texas Instruments Incorporated
usart_comms.asm                                                      PAGE   19

     901                    .dwendtag $C$DW$T$28
     902            
     903            $C$DW$T$41      .dwtag  DW_TAG_typedef
     904                    .dwattr $C$DW$T$41, DW_AT_name("UCA0MCTLW_REG")
     905                    .dwattr $C$DW$T$41, DW_AT_type(*$C$DW$T$28)
     906                    .dwattr $C$DW$T$41, DW_AT_language(DW_LANG_C)
     907                    .dwattr $C$DW$T$41, DW_AT_decl_file("..\usart_comms.h")
     908                    .dwattr $C$DW$T$41, DW_AT_decl_line(0x43)
     909                    .dwattr $C$DW$T$41, DW_AT_decl_column(0x02)
     910            
     911            $C$DW$T$58      .dwtag  DW_TAG_volatile_type
     912                    .dwattr $C$DW$T$58, DW_AT_type(*$C$DW$T$41)
     913            
     914            $C$DW$T$59      .dwtag  DW_TAG_pointer_type
     915                    .dwattr $C$DW$T$59, DW_AT_type(*$C$DW$T$58)
     916                    .dwattr $C$DW$T$59, DW_AT_address_class(0x10)
     917            
     918            $C$DW$T$60      .dwtag  DW_TAG_const_type
     919                    .dwattr $C$DW$T$60, DW_AT_type(*$C$DW$T$59)
     920            
     921            
     922            $C$DW$T$30      .dwtag  DW_TAG_structure_type
     923                    .dwattr $C$DW$T$30, DW_AT_byte_size(0x02)
     924            $C$DW$42        .dwtag  DW_TAG_member
     925                    .dwattr $C$DW$42, DW_AT_type(*$C$DW$T$25)
     926                    .dwattr $C$DW$42, DW_AT_name("UCBUSY")
     927                    .dwattr $C$DW$42, DW_AT_TI_symbol_name("UCBUSY")
     928                    .dwattr $C$DW$42, DW_AT_bit_offset(0x0f)
     929                    .dwattr $C$DW$42, DW_AT_bit_size(0x01)
     930                    .dwattr $C$DW$42, DW_AT_data_member_location[DW_OP_plus_uconst 0x0]
     931                    .dwattr $C$DW$42, DW_AT_accessibility(DW_ACCESS_public)
     932                    .dwattr $C$DW$42, DW_AT_decl_file("..\usart_comms.h")
     933                    .dwattr $C$DW$42, DW_AT_decl_line(0x47)
     934                    .dwattr $C$DW$42, DW_AT_decl_column(0x0f)
     935            
     936            $C$DW$43        .dwtag  DW_TAG_member
     937                    .dwattr $C$DW$43, DW_AT_type(*$C$DW$T$25)
     938                    .dwattr $C$DW$43, DW_AT_name("UCADDR")
     939                    .dwattr $C$DW$43, DW_AT_TI_symbol_name("UCADDR")
     940                    .dwattr $C$DW$43, DW_AT_bit_offset(0x0e)
     941                    .dwattr $C$DW$43, DW_AT_bit_size(0x01)
     942                    .dwattr $C$DW$43, DW_AT_data_member_location[DW_OP_plus_uconst 0x0]
     943                    .dwattr $C$DW$43, DW_AT_accessibility(DW_ACCESS_public)
     944                    .dwattr $C$DW$43, DW_AT_decl_file("..\usart_comms.h")
     945                    .dwattr $C$DW$43, DW_AT_decl_line(0x48)
     946                    .dwattr $C$DW$43, DW_AT_decl_column(0x0f)
     947            
     948            $C$DW$44        .dwtag  DW_TAG_member
     949                    .dwattr $C$DW$44, DW_AT_type(*$C$DW$T$25)
     950                    .dwattr $C$DW$44, DW_AT_name("UCRXERR")
     951                    .dwattr $C$DW$44, DW_AT_TI_symbol_name("UCRXERR")
     952                    .dwattr $C$DW$44, DW_AT_bit_offset(0x0d)
     953                    .dwattr $C$DW$44, DW_AT_bit_size(0x01)
     954                    .dwattr $C$DW$44, DW_AT_data_member_location[DW_OP_plus_uconst 0x0]
     955                    .dwattr $C$DW$44, DW_AT_accessibility(DW_ACCESS_public)
MSP430 Assembler PC v21.6.1 Tue Jan  3 09:51:30 2023

Copyright (c) 2003-2018 Texas Instruments Incorporated
usart_comms.asm                                                      PAGE   20

     956                    .dwattr $C$DW$44, DW_AT_decl_file("..\usart_comms.h")
     957                    .dwattr $C$DW$44, DW_AT_decl_line(0x49)
     958                    .dwattr $C$DW$44, DW_AT_decl_column(0x0f)
     959            
     960            $C$DW$45        .dwtag  DW_TAG_member
     961                    .dwattr $C$DW$45, DW_AT_type(*$C$DW$T$25)
     962                    .dwattr $C$DW$45, DW_AT_name("UCBRK")
     963                    .dwattr $C$DW$45, DW_AT_TI_symbol_name("UCBRK")
     964                    .dwattr $C$DW$45, DW_AT_bit_offset(0x0c)
     965                    .dwattr $C$DW$45, DW_AT_bit_size(0x01)
     966                    .dwattr $C$DW$45, DW_AT_data_member_location[DW_OP_plus_uconst 0x0]
     967                    .dwattr $C$DW$45, DW_AT_accessibility(DW_ACCESS_public)
     968                    .dwattr $C$DW$45, DW_AT_decl_file("..\usart_comms.h")
     969                    .dwattr $C$DW$45, DW_AT_decl_line(0x4a)
     970                    .dwattr $C$DW$45, DW_AT_decl_column(0x0f)
     971            
     972            $C$DW$46        .dwtag  DW_TAG_member
     973                    .dwattr $C$DW$46, DW_AT_type(*$C$DW$T$25)
     974                    .dwattr $C$DW$46, DW_AT_name("UCPE")
     975                    .dwattr $C$DW$46, DW_AT_TI_symbol_name("UCPE")
     976                    .dwattr $C$DW$46, DW_AT_bit_offset(0x0b)
     977                    .dwattr $C$DW$46, DW_AT_bit_size(0x01)
     978                    .dwattr $C$DW$46, DW_AT_data_member_location[DW_OP_plus_uconst 0x0]
     979                    .dwattr $C$DW$46, DW_AT_accessibility(DW_ACCESS_public)
     980                    .dwattr $C$DW$46, DW_AT_decl_file("..\usart_comms.h")
     981                    .dwattr $C$DW$46, DW_AT_decl_line(0x4b)
     982                    .dwattr $C$DW$46, DW_AT_decl_column(0x0f)
     983            
     984            $C$DW$47        .dwtag  DW_TAG_member
     985                    .dwattr $C$DW$47, DW_AT_type(*$C$DW$T$25)
     986                    .dwattr $C$DW$47, DW_AT_name("UCOE")
     987                    .dwattr $C$DW$47, DW_AT_TI_symbol_name("UCOE")
     988                    .dwattr $C$DW$47, DW_AT_bit_offset(0x0a)
     989                    .dwattr $C$DW$47, DW_AT_bit_size(0x01)
     990                    .dwattr $C$DW$47, DW_AT_data_member_location[DW_OP_plus_uconst 0x0]
     991                    .dwattr $C$DW$47, DW_AT_accessibility(DW_ACCESS_public)
     992                    .dwattr $C$DW$47, DW_AT_decl_file("..\usart_comms.h")
     993                    .dwattr $C$DW$47, DW_AT_decl_line(0x4c)
     994                    .dwattr $C$DW$47, DW_AT_decl_column(0x0f)
     995            
     996            $C$DW$48        .dwtag  DW_TAG_member
     997                    .dwattr $C$DW$48, DW_AT_type(*$C$DW$T$25)
     998                    .dwattr $C$DW$48, DW_AT_name("UCFE")
     999                    .dwattr $C$DW$48, DW_AT_TI_symbol_name("UCFE")
    1000                    .dwattr $C$DW$48, DW_AT_bit_offset(0x09)
    1001                    .dwattr $C$DW$48, DW_AT_bit_size(0x01)
    1002                    .dwattr $C$DW$48, DW_AT_data_member_location[DW_OP_plus_uconst 0x0]
    1003                    .dwattr $C$DW$48, DW_AT_accessibility(DW_ACCESS_public)
    1004                    .dwattr $C$DW$48, DW_AT_decl_file("..\usart_comms.h")
    1005                    .dwattr $C$DW$48, DW_AT_decl_line(0x4d)
    1006                    .dwattr $C$DW$48, DW_AT_decl_column(0x0f)
    1007            
    1008            $C$DW$49        .dwtag  DW_TAG_member
    1009                    .dwattr $C$DW$49, DW_AT_type(*$C$DW$T$25)
    1010                    .dwattr $C$DW$49, DW_AT_name("UCLISTEN")
MSP430 Assembler PC v21.6.1 Tue Jan  3 09:51:30 2023

Copyright (c) 2003-2018 Texas Instruments Incorporated
usart_comms.asm                                                      PAGE   21

    1011                    .dwattr $C$DW$49, DW_AT_TI_symbol_name("UCLISTEN")
    1012                    .dwattr $C$DW$49, DW_AT_bit_offset(0x08)
    1013                    .dwattr $C$DW$49, DW_AT_bit_size(0x01)
    1014                    .dwattr $C$DW$49, DW_AT_data_member_location[DW_OP_plus_uconst 0x0]
    1015                    .dwattr $C$DW$49, DW_AT_accessibility(DW_ACCESS_public)
    1016                    .dwattr $C$DW$49, DW_AT_decl_file("..\usart_comms.h")
    1017                    .dwattr $C$DW$49, DW_AT_decl_line(0x4e)
    1018                    .dwattr $C$DW$49, DW_AT_decl_column(0x0f)
    1019            
    1020            $C$DW$50        .dwtag  DW_TAG_member
    1021                    .dwattr $C$DW$50, DW_AT_type(*$C$DW$T$29)
    1022                    .dwattr $C$DW$50, DW_AT_name("RESERVED")
    1023                    .dwattr $C$DW$50, DW_AT_TI_symbol_name("RESERVED")
    1024                    .dwattr $C$DW$50, DW_AT_bit_offset(0x00)
    1025                    .dwattr $C$DW$50, DW_AT_bit_size(0x08)
    1026                    .dwattr $C$DW$50, DW_AT_data_member_location[DW_OP_plus_uconst 0x0]
    1027                    .dwattr $C$DW$50, DW_AT_accessibility(DW_ACCESS_public)
    1028                    .dwattr $C$DW$50, DW_AT_decl_file("..\usart_comms.h")
    1029                    .dwattr $C$DW$50, DW_AT_decl_line(0x4f)
    1030                    .dwattr $C$DW$50, DW_AT_decl_column(0x15)
    1031            
    1032                    .dwattr $C$DW$T$30, DW_AT_decl_file("..\usart_comms.h")
    1033                    .dwattr $C$DW$T$30, DW_AT_decl_line(0x46)
    1034                    .dwattr $C$DW$T$30, DW_AT_decl_column(0x01)
    1035                    .dwendtag $C$DW$T$30
    1036            
    1037            $C$DW$T$42      .dwtag  DW_TAG_typedef
    1038                    .dwattr $C$DW$T$42, DW_AT_name("UCA0STATW_REG")
    1039                    .dwattr $C$DW$T$42, DW_AT_type(*$C$DW$T$30)
    1040                    .dwattr $C$DW$T$42, DW_AT_language(DW_LANG_C)
    1041                    .dwattr $C$DW$T$42, DW_AT_decl_file("..\usart_comms.h")
    1042                    .dwattr $C$DW$T$42, DW_AT_decl_line(0x50)
    1043                    .dwattr $C$DW$T$42, DW_AT_decl_column(0x02)
    1044            
    1045            
    1046            $C$DW$T$31      .dwtag  DW_TAG_structure_type
    1047                    .dwattr $C$DW$T$31, DW_AT_byte_size(0x01)
    1048            $C$DW$51        .dwtag  DW_TAG_member
    1049                    .dwattr $C$DW$51, DW_AT_type(*$C$DW$T$22)
    1050                    .dwattr $C$DW$51, DW_AT_name("UCRXBUFx")
    1051                    .dwattr $C$DW$51, DW_AT_TI_symbol_name("UCRXBUFx")
    1052                    .dwattr $C$DW$51, DW_AT_bit_offset(0x00)
    1053                    .dwattr $C$DW$51, DW_AT_bit_size(0x08)
    1054                    .dwattr $C$DW$51, DW_AT_data_member_location[DW_OP_plus_uconst 0x0]
    1055                    .dwattr $C$DW$51, DW_AT_accessibility(DW_ACCESS_public)
    1056                    .dwattr $C$DW$51, DW_AT_decl_file("..\usart_comms.h")
    1057                    .dwattr $C$DW$51, DW_AT_decl_line(0x59)
    1058                    .dwattr $C$DW$51, DW_AT_decl_column(0x0d)
    1059            
    1060                    .dwattr $C$DW$T$31, DW_AT_decl_file("..\usart_comms.h")
    1061                    .dwattr $C$DW$T$31, DW_AT_decl_line(0x58)
    1062                    .dwattr $C$DW$T$31, DW_AT_decl_column(0x01)
    1063                    .dwendtag $C$DW$T$31
    1064            
    1065            $C$DW$T$43      .dwtag  DW_TAG_typedef
MSP430 Assembler PC v21.6.1 Tue Jan  3 09:51:30 2023

Copyright (c) 2003-2018 Texas Instruments Incorporated
usart_comms.asm                                                      PAGE   22

    1066                    .dwattr $C$DW$T$43, DW_AT_name("UCA0RXBUF_REG")
    1067                    .dwattr $C$DW$T$43, DW_AT_type(*$C$DW$T$31)
    1068                    .dwattr $C$DW$T$43, DW_AT_language(DW_LANG_C)
    1069                    .dwattr $C$DW$T$43, DW_AT_decl_file("..\usart_comms.h")
    1070                    .dwattr $C$DW$T$43, DW_AT_decl_line(0x5a)
    1071                    .dwattr $C$DW$T$43, DW_AT_decl_column(0x02)
    1072            
    1073            $C$DW$T$61      .dwtag  DW_TAG_volatile_type
    1074                    .dwattr $C$DW$T$61, DW_AT_type(*$C$DW$T$43)
    1075            
    1076            $C$DW$T$62      .dwtag  DW_TAG_pointer_type
    1077                    .dwattr $C$DW$T$62, DW_AT_type(*$C$DW$T$61)
    1078                    .dwattr $C$DW$T$62, DW_AT_address_class(0x10)
    1079            
    1080            $C$DW$T$63      .dwtag  DW_TAG_const_type
    1081                    .dwattr $C$DW$T$63, DW_AT_type(*$C$DW$T$62)
    1082            
    1083            
    1084            $C$DW$T$32      .dwtag  DW_TAG_structure_type
    1085                    .dwattr $C$DW$T$32, DW_AT_byte_size(0x01)
    1086            $C$DW$52        .dwtag  DW_TAG_member
    1087                    .dwattr $C$DW$52, DW_AT_type(*$C$DW$T$22)
    1088                    .dwattr $C$DW$52, DW_AT_name("UCTXBUFx")
    1089                    .dwattr $C$DW$52, DW_AT_TI_symbol_name("UCTXBUFx")
    1090                    .dwattr $C$DW$52, DW_AT_bit_offset(0x00)
    1091                    .dwattr $C$DW$52, DW_AT_bit_size(0x08)
    1092                    .dwattr $C$DW$52, DW_AT_data_member_location[DW_OP_plus_uconst 0x0]
    1093                    .dwattr $C$DW$52, DW_AT_accessibility(DW_ACCESS_public)
    1094                    .dwattr $C$DW$52, DW_AT_decl_file("..\usart_comms.h")
    1095                    .dwattr $C$DW$52, DW_AT_decl_line(0x54)
    1096                    .dwattr $C$DW$52, DW_AT_decl_column(0x0d)
    1097            
    1098                    .dwattr $C$DW$T$32, DW_AT_decl_file("..\usart_comms.h")
    1099                    .dwattr $C$DW$T$32, DW_AT_decl_line(0x53)
    1100                    .dwattr $C$DW$T$32, DW_AT_decl_column(0x01)
    1101                    .dwendtag $C$DW$T$32
    1102            
    1103            $C$DW$T$44      .dwtag  DW_TAG_typedef
    1104                    .dwattr $C$DW$T$44, DW_AT_name("UCA0TXBUF_REG")
    1105                    .dwattr $C$DW$T$44, DW_AT_type(*$C$DW$T$32)
    1106                    .dwattr $C$DW$T$44, DW_AT_language(DW_LANG_C)
    1107                    .dwattr $C$DW$T$44, DW_AT_decl_file("..\usart_comms.h")
    1108                    .dwattr $C$DW$T$44, DW_AT_decl_line(0x55)
    1109                    .dwattr $C$DW$T$44, DW_AT_decl_column(0x02)
    1110            
    1111            $C$DW$T$64      .dwtag  DW_TAG_volatile_type
    1112                    .dwattr $C$DW$T$64, DW_AT_type(*$C$DW$T$44)
    1113            
    1114            $C$DW$T$65      .dwtag  DW_TAG_pointer_type
    1115                    .dwattr $C$DW$T$65, DW_AT_type(*$C$DW$T$64)
    1116                    .dwattr $C$DW$T$65, DW_AT_address_class(0x10)
    1117            
    1118            $C$DW$T$66      .dwtag  DW_TAG_const_type
    1119                    .dwattr $C$DW$T$66, DW_AT_type(*$C$DW$T$65)
    1120            
MSP430 Assembler PC v21.6.1 Tue Jan  3 09:51:30 2023

Copyright (c) 2003-2018 Texas Instruments Incorporated
usart_comms.asm                                                      PAGE   23

    1121            
    1122            $C$DW$T$33      .dwtag  DW_TAG_structure_type
    1123                    .dwattr $C$DW$T$33, DW_AT_byte_size(0x02)
    1124            $C$DW$53        .dwtag  DW_TAG_member
    1125                    .dwattr $C$DW$53, DW_AT_type(*$C$DW$T$22)
    1126                    .dwattr $C$DW$53, DW_AT_name("UCABDEN")
    1127                    .dwattr $C$DW$53, DW_AT_TI_symbol_name("UCABDEN")
    1128                    .dwattr $C$DW$53, DW_AT_bit_offset(0x07)
    1129                    .dwattr $C$DW$53, DW_AT_bit_size(0x01)
    1130                    .dwattr $C$DW$53, DW_AT_data_member_location[DW_OP_plus_uconst 0x0]
    1131                    .dwattr $C$DW$53, DW_AT_accessibility(DW_ACCESS_public)
    1132                    .dwattr $C$DW$53, DW_AT_decl_file("..\usart_comms.h")
    1133                    .dwattr $C$DW$53, DW_AT_decl_line(0x5e)
    1134                    .dwattr $C$DW$53, DW_AT_decl_column(0x0d)
    1135            
    1136            $C$DW$54        .dwtag  DW_TAG_member
    1137                    .dwattr $C$DW$54, DW_AT_type(*$C$DW$T$22)
    1138                    .dwattr $C$DW$54, DW_AT_name("Reserved")
    1139                    .dwattr $C$DW$54, DW_AT_TI_symbol_name("Reserved")
    1140                    .dwattr $C$DW$54, DW_AT_bit_offset(0x06)
    1141                    .dwattr $C$DW$54, DW_AT_bit_size(0x01)
    1142                    .dwattr $C$DW$54, DW_AT_data_member_location[DW_OP_plus_uconst 0x0]
    1143                    .dwattr $C$DW$54, DW_AT_accessibility(DW_ACCESS_public)
    1144                    .dwattr $C$DW$54, DW_AT_decl_file("..\usart_comms.h")
    1145                    .dwattr $C$DW$54, DW_AT_decl_line(0x5f)
    1146                    .dwattr $C$DW$54, DW_AT_decl_column(0x0d)
    1147            
    1148            $C$DW$55        .dwtag  DW_TAG_member
    1149                    .dwattr $C$DW$55, DW_AT_type(*$C$DW$T$22)
    1150                    .dwattr $C$DW$55, DW_AT_name("UCBTOE")
    1151                    .dwattr $C$DW$55, DW_AT_TI_symbol_name("UCBTOE")
    1152                    .dwattr $C$DW$55, DW_AT_bit_offset(0x05)
    1153                    .dwattr $C$DW$55, DW_AT_bit_size(0x01)
    1154                    .dwattr $C$DW$55, DW_AT_data_member_location[DW_OP_plus_uconst 0x0]
    1155                    .dwattr $C$DW$55, DW_AT_accessibility(DW_ACCESS_public)
    1156                    .dwattr $C$DW$55, DW_AT_decl_file("..\usart_comms.h")
    1157                    .dwattr $C$DW$55, DW_AT_decl_line(0x60)
    1158                    .dwattr $C$DW$55, DW_AT_decl_column(0x0d)
    1159            
    1160            $C$DW$56        .dwtag  DW_TAG_member
    1161                    .dwattr $C$DW$56, DW_AT_type(*$C$DW$T$22)
    1162                    .dwattr $C$DW$56, DW_AT_name("UCSTOE")
    1163                    .dwattr $C$DW$56, DW_AT_TI_symbol_name("UCSTOE")
    1164                    .dwattr $C$DW$56, DW_AT_bit_offset(0x04)
    1165                    .dwattr $C$DW$56, DW_AT_bit_size(0x01)
    1166                    .dwattr $C$DW$56, DW_AT_data_member_location[DW_OP_plus_uconst 0x0]
    1167                    .dwattr $C$DW$56, DW_AT_accessibility(DW_ACCESS_public)
    1168                    .dwattr $C$DW$56, DW_AT_decl_file("..\usart_comms.h")
    1169                    .dwattr $C$DW$56, DW_AT_decl_line(0x61)
    1170                    .dwattr $C$DW$56, DW_AT_decl_column(0x0d)
    1171            
    1172            $C$DW$57        .dwtag  DW_TAG_member
    1173                    .dwattr $C$DW$57, DW_AT_type(*$C$DW$T$22)
    1174                    .dwattr $C$DW$57, DW_AT_name("UCDELIMx")
    1175                    .dwattr $C$DW$57, DW_AT_TI_symbol_name("UCDELIMx")
MSP430 Assembler PC v21.6.1 Tue Jan  3 09:51:30 2023

Copyright (c) 2003-2018 Texas Instruments Incorporated
usart_comms.asm                                                      PAGE   24

    1176                    .dwattr $C$DW$57, DW_AT_bit_offset(0x02)
    1177                    .dwattr $C$DW$57, DW_AT_bit_size(0x02)
    1178                    .dwattr $C$DW$57, DW_AT_data_member_location[DW_OP_plus_uconst 0x0]
    1179                    .dwattr $C$DW$57, DW_AT_accessibility(DW_ACCESS_public)
    1180                    .dwattr $C$DW$57, DW_AT_decl_file("..\usart_comms.h")
    1181                    .dwattr $C$DW$57, DW_AT_decl_line(0x62)
    1182                    .dwattr $C$DW$57, DW_AT_decl_column(0x0d)
    1183            
    1184            $C$DW$58        .dwtag  DW_TAG_member
    1185                    .dwattr $C$DW$58, DW_AT_type(*$C$DW$T$25)
    1186                    .dwattr $C$DW$58, DW_AT_name("RESERVED")
    1187                    .dwattr $C$DW$58, DW_AT_TI_symbol_name("RESERVED")
    1188                    .dwattr $C$DW$58, DW_AT_bit_offset(0x00)
    1189                    .dwattr $C$DW$58, DW_AT_bit_size(0x0a)
    1190                    .dwattr $C$DW$58, DW_AT_data_member_location[DW_OP_plus_uconst 0x0]
    1191                    .dwattr $C$DW$58, DW_AT_accessibility(DW_ACCESS_public)
    1192                    .dwattr $C$DW$58, DW_AT_decl_file("..\usart_comms.h")
    1193                    .dwattr $C$DW$58, DW_AT_decl_line(0x63)
    1194                    .dwattr $C$DW$58, DW_AT_decl_column(0x0e)
    1195            
    1196                    .dwattr $C$DW$T$33, DW_AT_decl_file("..\usart_comms.h")
    1197                    .dwattr $C$DW$T$33, DW_AT_decl_line(0x5d)
    1198                    .dwattr $C$DW$T$33, DW_AT_decl_column(0x01)
    1199                    .dwendtag $C$DW$T$33
    1200            
    1201            $C$DW$T$45      .dwtag  DW_TAG_typedef
    1202                    .dwattr $C$DW$T$45, DW_AT_name("UCA0ABCTL_REG")
    1203                    .dwattr $C$DW$T$45, DW_AT_type(*$C$DW$T$33)
    1204                    .dwattr $C$DW$T$45, DW_AT_language(DW_LANG_C)
    1205                    .dwattr $C$DW$T$45, DW_AT_decl_file("..\usart_comms.h")
    1206                    .dwattr $C$DW$T$45, DW_AT_decl_line(0x64)
    1207                    .dwattr $C$DW$T$45, DW_AT_decl_column(0x02)
    1208            
    1209            
    1210            $C$DW$T$34      .dwtag  DW_TAG_structure_type
    1211                    .dwattr $C$DW$T$34, DW_AT_byte_size(0x02)
    1212            $C$DW$59        .dwtag  DW_TAG_member
    1213                    .dwattr $C$DW$59, DW_AT_type(*$C$DW$T$22)
    1214                    .dwattr $C$DW$59, DW_AT_name("UCIREN")
    1215                    .dwattr $C$DW$59, DW_AT_TI_symbol_name("UCIREN")
    1216                    .dwattr $C$DW$59, DW_AT_bit_offset(0x07)
    1217                    .dwattr $C$DW$59, DW_AT_bit_size(0x01)
    1218                    .dwattr $C$DW$59, DW_AT_data_member_location[DW_OP_plus_uconst 0x0]
    1219                    .dwattr $C$DW$59, DW_AT_accessibility(DW_ACCESS_public)
    1220                    .dwattr $C$DW$59, DW_AT_decl_file("..\usart_comms.h")
    1221                    .dwattr $C$DW$59, DW_AT_decl_line(0x68)
    1222                    .dwattr $C$DW$59, DW_AT_decl_column(0x0d)
    1223            
    1224            $C$DW$60        .dwtag  DW_TAG_member
    1225                    .dwattr $C$DW$60, DW_AT_type(*$C$DW$T$22)
    1226                    .dwattr $C$DW$60, DW_AT_name("UCIRTXCLK")
    1227                    .dwattr $C$DW$60, DW_AT_TI_symbol_name("UCIRTXCLK")
    1228                    .dwattr $C$DW$60, DW_AT_bit_offset(0x06)
    1229                    .dwattr $C$DW$60, DW_AT_bit_size(0x01)
    1230                    .dwattr $C$DW$60, DW_AT_data_member_location[DW_OP_plus_uconst 0x0]
MSP430 Assembler PC v21.6.1 Tue Jan  3 09:51:30 2023

Copyright (c) 2003-2018 Texas Instruments Incorporated
usart_comms.asm                                                      PAGE   25

    1231                    .dwattr $C$DW$60, DW_AT_accessibility(DW_ACCESS_public)
    1232                    .dwattr $C$DW$60, DW_AT_decl_file("..\usart_comms.h")
    1233                    .dwattr $C$DW$60, DW_AT_decl_line(0x69)
    1234                    .dwattr $C$DW$60, DW_AT_decl_column(0x0d)
    1235            
    1236            $C$DW$61        .dwtag  DW_TAG_member
    1237                    .dwattr $C$DW$61, DW_AT_type(*$C$DW$T$22)
    1238                    .dwattr $C$DW$61, DW_AT_name("UCIRTXPLx")
    1239                    .dwattr $C$DW$61, DW_AT_TI_symbol_name("UCIRTXPLx")
    1240                    .dwattr $C$DW$61, DW_AT_bit_offset(0x00)
    1241                    .dwattr $C$DW$61, DW_AT_bit_size(0x06)
    1242                    .dwattr $C$DW$61, DW_AT_data_member_location[DW_OP_plus_uconst 0x0]
    1243                    .dwattr $C$DW$61, DW_AT_accessibility(DW_ACCESS_public)
    1244                    .dwattr $C$DW$61, DW_AT_decl_file("..\usart_comms.h")
    1245                    .dwattr $C$DW$61, DW_AT_decl_line(0x6a)
    1246                    .dwattr $C$DW$61, DW_AT_decl_column(0x0d)
    1247            
    1248            $C$DW$62        .dwtag  DW_TAG_member
    1249                    .dwattr $C$DW$62, DW_AT_type(*$C$DW$T$22)
    1250                    .dwattr $C$DW$62, DW_AT_name("UCIRRXFE")
    1251                    .dwattr $C$DW$62, DW_AT_TI_symbol_name("UCIRRXFE")
    1252                    .dwattr $C$DW$62, DW_AT_bit_offset(0x07)
    1253                    .dwattr $C$DW$62, DW_AT_bit_size(0x01)
    1254                    .dwattr $C$DW$62, DW_AT_data_member_location[DW_OP_plus_uconst 0x1]
    1255                    .dwattr $C$DW$62, DW_AT_accessibility(DW_ACCESS_public)
    1256                    .dwattr $C$DW$62, DW_AT_decl_file("..\usart_comms.h")
    1257                    .dwattr $C$DW$62, DW_AT_decl_line(0x6b)
    1258                    .dwattr $C$DW$62, DW_AT_decl_column(0x0d)
    1259            
    1260            $C$DW$63        .dwtag  DW_TAG_member
    1261                    .dwattr $C$DW$63, DW_AT_type(*$C$DW$T$22)
    1262                    .dwattr $C$DW$63, DW_AT_name("UCIRRXPL")
    1263                    .dwattr $C$DW$63, DW_AT_TI_symbol_name("UCIRRXPL")
    1264                    .dwattr $C$DW$63, DW_AT_bit_offset(0x06)
    1265                    .dwattr $C$DW$63, DW_AT_bit_size(0x01)
    1266                    .dwattr $C$DW$63, DW_AT_data_member_location[DW_OP_plus_uconst 0x1]
    1267                    .dwattr $C$DW$63, DW_AT_accessibility(DW_ACCESS_public)
    1268                    .dwattr $C$DW$63, DW_AT_decl_file("..\usart_comms.h")
    1269                    .dwattr $C$DW$63, DW_AT_decl_line(0x6c)
    1270                    .dwattr $C$DW$63, DW_AT_decl_column(0x0d)
    1271            
    1272            $C$DW$64        .dwtag  DW_TAG_member
    1273                    .dwattr $C$DW$64, DW_AT_type(*$C$DW$T$22)
    1274                    .dwattr $C$DW$64, DW_AT_name("UCIRRXFLx")
    1275                    .dwattr $C$DW$64, DW_AT_TI_symbol_name("UCIRRXFLx")
    1276                    .dwattr $C$DW$64, DW_AT_bit_offset(0x00)
    1277                    .dwattr $C$DW$64, DW_AT_bit_size(0x06)
    1278                    .dwattr $C$DW$64, DW_AT_data_member_location[DW_OP_plus_uconst 0x1]
    1279                    .dwattr $C$DW$64, DW_AT_accessibility(DW_ACCESS_public)
    1280                    .dwattr $C$DW$64, DW_AT_decl_file("..\usart_comms.h")
    1281                    .dwattr $C$DW$64, DW_AT_decl_line(0x6d)
    1282                    .dwattr $C$DW$64, DW_AT_decl_column(0x0d)
    1283            
    1284                    .dwattr $C$DW$T$34, DW_AT_decl_file("..\usart_comms.h")
    1285                    .dwattr $C$DW$T$34, DW_AT_decl_line(0x67)
MSP430 Assembler PC v21.6.1 Tue Jan  3 09:51:30 2023

Copyright (c) 2003-2018 Texas Instruments Incorporated
usart_comms.asm                                                      PAGE   26

    1286                    .dwattr $C$DW$T$34, DW_AT_decl_column(0x01)
    1287                    .dwendtag $C$DW$T$34
    1288            
    1289            $C$DW$T$46      .dwtag  DW_TAG_typedef
    1290                    .dwattr $C$DW$T$46, DW_AT_name("UCA0IRCTL_REG")
    1291                    .dwattr $C$DW$T$46, DW_AT_type(*$C$DW$T$34)
    1292                    .dwattr $C$DW$T$46, DW_AT_language(DW_LANG_C)
    1293                    .dwattr $C$DW$T$46, DW_AT_decl_file("..\usart_comms.h")
    1294                    .dwattr $C$DW$T$46, DW_AT_decl_line(0x6e)
    1295                    .dwattr $C$DW$T$46, DW_AT_decl_column(0x02)
    1296            
    1297            
    1298            $C$DW$T$35      .dwtag  DW_TAG_structure_type
    1299                    .dwattr $C$DW$T$35, DW_AT_byte_size(0x01)
    1300            $C$DW$65        .dwtag  DW_TAG_member
    1301                    .dwattr $C$DW$65, DW_AT_type(*$C$DW$T$22)
    1302                    .dwattr $C$DW$65, DW_AT_name("UCRXIE")
    1303                    .dwattr $C$DW$65, DW_AT_TI_symbol_name("UCRXIE")
    1304                    .dwattr $C$DW$65, DW_AT_bit_offset(0x07)
    1305                    .dwattr $C$DW$65, DW_AT_bit_size(0x01)
    1306                    .dwattr $C$DW$65, DW_AT_data_member_location[DW_OP_plus_uconst 0x0]
    1307                    .dwattr $C$DW$65, DW_AT_accessibility(DW_ACCESS_public)
    1308                    .dwattr $C$DW$65, DW_AT_decl_file("..\usart_comms.h")
    1309                    .dwattr $C$DW$65, DW_AT_decl_line(0x31)
    1310                    .dwattr $C$DW$65, DW_AT_decl_column(0x0d)
    1311            
    1312            $C$DW$66        .dwtag  DW_TAG_member
    1313                    .dwattr $C$DW$66, DW_AT_type(*$C$DW$T$22)
    1314                    .dwattr $C$DW$66, DW_AT_name("UCTXIE")
    1315                    .dwattr $C$DW$66, DW_AT_TI_symbol_name("UCTXIE")
    1316                    .dwattr $C$DW$66, DW_AT_bit_offset(0x06)
    1317                    .dwattr $C$DW$66, DW_AT_bit_size(0x01)
    1318                    .dwattr $C$DW$66, DW_AT_data_member_location[DW_OP_plus_uconst 0x0]
    1319                    .dwattr $C$DW$66, DW_AT_accessibility(DW_ACCESS_public)
    1320                    .dwattr $C$DW$66, DW_AT_decl_file("..\usart_comms.h")
    1321                    .dwattr $C$DW$66, DW_AT_decl_line(0x32)
    1322                    .dwattr $C$DW$66, DW_AT_decl_column(0x0d)
    1323            
    1324            $C$DW$67        .dwtag  DW_TAG_member
    1325                    .dwattr $C$DW$67, DW_AT_type(*$C$DW$T$22)
    1326                    .dwattr $C$DW$67, DW_AT_name("UCSTTIE")
    1327                    .dwattr $C$DW$67, DW_AT_TI_symbol_name("UCSTTIE")
    1328                    .dwattr $C$DW$67, DW_AT_bit_offset(0x05)
    1329                    .dwattr $C$DW$67, DW_AT_bit_size(0x01)
    1330                    .dwattr $C$DW$67, DW_AT_data_member_location[DW_OP_plus_uconst 0x0]
    1331                    .dwattr $C$DW$67, DW_AT_accessibility(DW_ACCESS_public)
    1332                    .dwattr $C$DW$67, DW_AT_decl_file("..\usart_comms.h")
    1333                    .dwattr $C$DW$67, DW_AT_decl_line(0x33)
    1334                    .dwattr $C$DW$67, DW_AT_decl_column(0x0d)
    1335            
    1336            $C$DW$68        .dwtag  DW_TAG_member
    1337                    .dwattr $C$DW$68, DW_AT_type(*$C$DW$T$22)
    1338                    .dwattr $C$DW$68, DW_AT_name("UCTXCPTIE")
    1339                    .dwattr $C$DW$68, DW_AT_TI_symbol_name("UCTXCPTIE")
    1340                    .dwattr $C$DW$68, DW_AT_bit_offset(0x04)
MSP430 Assembler PC v21.6.1 Tue Jan  3 09:51:30 2023

Copyright (c) 2003-2018 Texas Instruments Incorporated
usart_comms.asm                                                      PAGE   27

    1341                    .dwattr $C$DW$68, DW_AT_bit_size(0x01)
    1342                    .dwattr $C$DW$68, DW_AT_data_member_location[DW_OP_plus_uconst 0x0]
    1343                    .dwattr $C$DW$68, DW_AT_accessibility(DW_ACCESS_public)
    1344                    .dwattr $C$DW$68, DW_AT_decl_file("..\usart_comms.h")
    1345                    .dwattr $C$DW$68, DW_AT_decl_line(0x34)
    1346                    .dwattr $C$DW$68, DW_AT_decl_column(0x0d)
    1347            
    1348                    .dwattr $C$DW$T$35, DW_AT_decl_file("..\usart_comms.h")
    1349                    .dwattr $C$DW$T$35, DW_AT_decl_line(0x30)
    1350                    .dwattr $C$DW$T$35, DW_AT_decl_column(0x01)
    1351                    .dwendtag $C$DW$T$35
    1352            
    1353            $C$DW$T$47      .dwtag  DW_TAG_typedef
    1354                    .dwattr $C$DW$T$47, DW_AT_name("UCA0IE_REG")
    1355                    .dwattr $C$DW$T$47, DW_AT_type(*$C$DW$T$35)
    1356                    .dwattr $C$DW$T$47, DW_AT_language(DW_LANG_C)
    1357                    .dwattr $C$DW$T$47, DW_AT_decl_file("..\usart_comms.h")
    1358                    .dwattr $C$DW$T$47, DW_AT_decl_line(0x35)
    1359                    .dwattr $C$DW$T$47, DW_AT_decl_column(0x02)
    1360            
    1361            $C$DW$T$67      .dwtag  DW_TAG_volatile_type
    1362                    .dwattr $C$DW$T$67, DW_AT_type(*$C$DW$T$47)
    1363            
    1364            $C$DW$T$68      .dwtag  DW_TAG_pointer_type
    1365                    .dwattr $C$DW$T$68, DW_AT_type(*$C$DW$T$67)
    1366                    .dwattr $C$DW$T$68, DW_AT_address_class(0x10)
    1367            
    1368            $C$DW$T$69      .dwtag  DW_TAG_const_type
    1369                    .dwattr $C$DW$T$69, DW_AT_type(*$C$DW$T$68)
    1370            
    1371            
    1372            $C$DW$T$36      .dwtag  DW_TAG_structure_type
    1373                    .dwattr $C$DW$T$36, DW_AT_byte_size(0x01)
    1374            $C$DW$69        .dwtag  DW_TAG_member
    1375                    .dwattr $C$DW$69, DW_AT_type(*$C$DW$T$22)
    1376                    .dwattr $C$DW$69, DW_AT_name("UCRXIFG")
    1377                    .dwattr $C$DW$69, DW_AT_TI_symbol_name("UCRXIFG")
    1378                    .dwattr $C$DW$69, DW_AT_bit_offset(0x07)
    1379                    .dwattr $C$DW$69, DW_AT_bit_size(0x01)
    1380                    .dwattr $C$DW$69, DW_AT_data_member_location[DW_OP_plus_uconst 0x0]
    1381                    .dwattr $C$DW$69, DW_AT_accessibility(DW_ACCESS_public)
    1382                    .dwattr $C$DW$69, DW_AT_decl_file("..\usart_comms.h")
    1383                    .dwattr $C$DW$69, DW_AT_decl_line(0x77)
    1384                    .dwattr $C$DW$69, DW_AT_decl_column(0x0d)
    1385            
    1386            $C$DW$70        .dwtag  DW_TAG_member
    1387                    .dwattr $C$DW$70, DW_AT_type(*$C$DW$T$22)
    1388                    .dwattr $C$DW$70, DW_AT_name("UCTXIFG")
    1389                    .dwattr $C$DW$70, DW_AT_TI_symbol_name("UCTXIFG")
    1390                    .dwattr $C$DW$70, DW_AT_bit_offset(0x06)
    1391                    .dwattr $C$DW$70, DW_AT_bit_size(0x01)
    1392                    .dwattr $C$DW$70, DW_AT_data_member_location[DW_OP_plus_uconst 0x0]
    1393                    .dwattr $C$DW$70, DW_AT_accessibility(DW_ACCESS_public)
    1394                    .dwattr $C$DW$70, DW_AT_decl_file("..\usart_comms.h")
    1395                    .dwattr $C$DW$70, DW_AT_decl_line(0x78)
MSP430 Assembler PC v21.6.1 Tue Jan  3 09:51:30 2023

Copyright (c) 2003-2018 Texas Instruments Incorporated
usart_comms.asm                                                      PAGE   28

    1396                    .dwattr $C$DW$70, DW_AT_decl_column(0x0d)
    1397            
    1398            $C$DW$71        .dwtag  DW_TAG_member
    1399                    .dwattr $C$DW$71, DW_AT_type(*$C$DW$T$22)
    1400                    .dwattr $C$DW$71, DW_AT_name("UCSTTIFG")
    1401                    .dwattr $C$DW$71, DW_AT_TI_symbol_name("UCSTTIFG")
    1402                    .dwattr $C$DW$71, DW_AT_bit_offset(0x05)
    1403                    .dwattr $C$DW$71, DW_AT_bit_size(0x01)
    1404                    .dwattr $C$DW$71, DW_AT_data_member_location[DW_OP_plus_uconst 0x0]
    1405                    .dwattr $C$DW$71, DW_AT_accessibility(DW_ACCESS_public)
    1406                    .dwattr $C$DW$71, DW_AT_decl_file("..\usart_comms.h")
    1407                    .dwattr $C$DW$71, DW_AT_decl_line(0x79)
    1408                    .dwattr $C$DW$71, DW_AT_decl_column(0x0d)
    1409            
    1410            $C$DW$72        .dwtag  DW_TAG_member
    1411                    .dwattr $C$DW$72, DW_AT_type(*$C$DW$T$22)
    1412                    .dwattr $C$DW$72, DW_AT_name("UCTXCPTIFG")
    1413                    .dwattr $C$DW$72, DW_AT_TI_symbol_name("UCTXCPTIFG")
    1414                    .dwattr $C$DW$72, DW_AT_bit_offset(0x04)
    1415                    .dwattr $C$DW$72, DW_AT_bit_size(0x01)
    1416                    .dwattr $C$DW$72, DW_AT_data_member_location[DW_OP_plus_uconst 0x0]
    1417                    .dwattr $C$DW$72, DW_AT_accessibility(DW_ACCESS_public)
    1418                    .dwattr $C$DW$72, DW_AT_decl_file("..\usart_comms.h")
    1419                    .dwattr $C$DW$72, DW_AT_decl_line(0x7a)
    1420                    .dwattr $C$DW$72, DW_AT_decl_column(0x0d)
    1421            
    1422                    .dwattr $C$DW$T$36, DW_AT_decl_file("..\usart_comms.h")
    1423                    .dwattr $C$DW$T$36, DW_AT_decl_line(0x76)
    1424                    .dwattr $C$DW$T$36, DW_AT_decl_column(0x01)
    1425                    .dwendtag $C$DW$T$36
    1426            
    1427            $C$DW$T$48      .dwtag  DW_TAG_typedef
    1428                    .dwattr $C$DW$T$48, DW_AT_name("UCA0IFG_REG")
    1429                    .dwattr $C$DW$T$48, DW_AT_type(*$C$DW$T$36)
    1430                    .dwattr $C$DW$T$48, DW_AT_language(DW_LANG_C)
    1431                    .dwattr $C$DW$T$48, DW_AT_decl_file("..\usart_comms.h")
    1432                    .dwattr $C$DW$T$48, DW_AT_decl_line(0x7b)
    1433                    .dwattr $C$DW$T$48, DW_AT_decl_column(0x02)
    1434            
    1435            $C$DW$T$70      .dwtag  DW_TAG_volatile_type
    1436                    .dwattr $C$DW$T$70, DW_AT_type(*$C$DW$T$48)
    1437            
    1438            $C$DW$T$71      .dwtag  DW_TAG_pointer_type
    1439                    .dwattr $C$DW$T$71, DW_AT_type(*$C$DW$T$70)
    1440                    .dwattr $C$DW$T$71, DW_AT_address_class(0x10)
    1441            
    1442            $C$DW$T$72      .dwtag  DW_TAG_const_type
    1443                    .dwattr $C$DW$T$72, DW_AT_type(*$C$DW$T$71)
    1444            
    1445            
    1446            $C$DW$T$37      .dwtag  DW_TAG_structure_type
    1447                    .dwattr $C$DW$T$37, DW_AT_byte_size(0x02)
    1448            $C$DW$73        .dwtag  DW_TAG_member
    1449                    .dwattr $C$DW$73, DW_AT_type(*$C$DW$T$25)
    1450                    .dwattr $C$DW$73, DW_AT_name("UCIVx")
MSP430 Assembler PC v21.6.1 Tue Jan  3 09:51:30 2023

Copyright (c) 2003-2018 Texas Instruments Incorporated
usart_comms.asm                                                      PAGE   29

    1451                    .dwattr $C$DW$73, DW_AT_TI_symbol_name("UCIVx")
    1452                    .dwattr $C$DW$73, DW_AT_bit_offset(0x00)
    1453                    .dwattr $C$DW$73, DW_AT_bit_size(0x10)
    1454                    .dwattr $C$DW$73, DW_AT_data_member_location[DW_OP_plus_uconst 0x0]
    1455                    .dwattr $C$DW$73, DW_AT_accessibility(DW_ACCESS_public)
    1456                    .dwattr $C$DW$73, DW_AT_decl_file("..\usart_comms.h")
    1457                    .dwattr $C$DW$73, DW_AT_decl_line(0x72)
    1458                    .dwattr $C$DW$73, DW_AT_decl_column(0x0e)
    1459            
    1460                    .dwattr $C$DW$T$37, DW_AT_decl_file("..\usart_comms.h")
    1461                    .dwattr $C$DW$T$37, DW_AT_decl_line(0x71)
    1462                    .dwattr $C$DW$T$37, DW_AT_decl_column(0x01)
    1463                    .dwendtag $C$DW$T$37
    1464            
    1465            $C$DW$T$49      .dwtag  DW_TAG_typedef
    1466                    .dwattr $C$DW$T$49, DW_AT_name("UCA0IV_REG")
    1467                    .dwattr $C$DW$T$49, DW_AT_type(*$C$DW$T$37)
    1468                    .dwattr $C$DW$T$49, DW_AT_language(DW_LANG_C)
    1469                    .dwattr $C$DW$T$49, DW_AT_decl_file("..\usart_comms.h")
    1470                    .dwattr $C$DW$T$49, DW_AT_decl_line(0x73)
    1471                    .dwattr $C$DW$T$49, DW_AT_decl_column(0x02)
    1472            
    1473            
    1474            $C$DW$T$50      .dwtag  DW_TAG_structure_type
    1475                    .dwattr $C$DW$T$50, DW_AT_byte_size(0x16)
    1476            $C$DW$74        .dwtag  DW_TAG_member
    1477                    .dwattr $C$DW$74, DW_AT_type(*$C$DW$T$38)
    1478                    .dwattr $C$DW$74, DW_AT_name("CTLW0")
    1479                    .dwattr $C$DW$74, DW_AT_TI_symbol_name("CTLW0")
    1480                    .dwattr $C$DW$74, DW_AT_data_member_location[DW_OP_plus_uconst 0x0]
    1481                    .dwattr $C$DW$74, DW_AT_accessibility(DW_ACCESS_public)
    1482                    .dwattr $C$DW$74, DW_AT_decl_file("..\usart_comms.h")
    1483                    .dwattr $C$DW$74, DW_AT_decl_line(0x7f)
    1484                    .dwattr $C$DW$74, DW_AT_decl_column(0x13)
    1485            
    1486            $C$DW$75        .dwtag  DW_TAG_member
    1487                    .dwattr $C$DW$75, DW_AT_type(*$C$DW$T$39)
    1488                    .dwattr $C$DW$75, DW_AT_name("CLTW1")
    1489                    .dwattr $C$DW$75, DW_AT_TI_symbol_name("CLTW1")
    1490                    .dwattr $C$DW$75, DW_AT_data_member_location[DW_OP_plus_uconst 0x2]
    1491                    .dwattr $C$DW$75, DW_AT_accessibility(DW_ACCESS_public)
    1492                    .dwattr $C$DW$75, DW_AT_decl_file("..\usart_comms.h")
    1493                    .dwattr $C$DW$75, DW_AT_decl_line(0x80)
    1494                    .dwattr $C$DW$75, DW_AT_decl_column(0x13)
    1495            
    1496            $C$DW$76        .dwtag  DW_TAG_member
    1497                    .dwattr $C$DW$76, DW_AT_type(*$C$DW$T$40)
    1498                    .dwattr $C$DW$76, DW_AT_name("BRW")
    1499                    .dwattr $C$DW$76, DW_AT_TI_symbol_name("BRW")
    1500                    .dwattr $C$DW$76, DW_AT_data_member_location[DW_OP_plus_uconst 0x6]
    1501                    .dwattr $C$DW$76, DW_AT_accessibility(DW_ACCESS_public)
    1502                    .dwattr $C$DW$76, DW_AT_decl_file("..\usart_comms.h")
    1503                    .dwattr $C$DW$76, DW_AT_decl_line(0x81)
    1504                    .dwattr $C$DW$76, DW_AT_decl_column(0x13)
    1505            
MSP430 Assembler PC v21.6.1 Tue Jan  3 09:51:30 2023

Copyright (c) 2003-2018 Texas Instruments Incorporated
usart_comms.asm                                                      PAGE   30

    1506            $C$DW$77        .dwtag  DW_TAG_member
    1507                    .dwattr $C$DW$77, DW_AT_type(*$C$DW$T$41)
    1508                    .dwattr $C$DW$77, DW_AT_name("MCTLW")
    1509                    .dwattr $C$DW$77, DW_AT_TI_symbol_name("MCTLW")
    1510                    .dwattr $C$DW$77, DW_AT_data_member_location[DW_OP_plus_uconst 0x8]
    1511                    .dwattr $C$DW$77, DW_AT_accessibility(DW_ACCESS_public)
    1512                    .dwattr $C$DW$77, DW_AT_decl_file("..\usart_comms.h")
    1513                    .dwattr $C$DW$77, DW_AT_decl_line(0x82)
    1514                    .dwattr $C$DW$77, DW_AT_decl_column(0x13)
    1515            
    1516            $C$DW$78        .dwtag  DW_TAG_member
    1517                    .dwattr $C$DW$78, DW_AT_type(*$C$DW$T$42)
    1518                    .dwattr $C$DW$78, DW_AT_name("STATW")
    1519                    .dwattr $C$DW$78, DW_AT_TI_symbol_name("STATW")
    1520                    .dwattr $C$DW$78, DW_AT_data_member_location[DW_OP_plus_uconst 0xa]
    1521                    .dwattr $C$DW$78, DW_AT_accessibility(DW_ACCESS_public)
    1522                    .dwattr $C$DW$78, DW_AT_decl_file("..\usart_comms.h")
    1523                    .dwattr $C$DW$78, DW_AT_decl_line(0x83)
    1524                    .dwattr $C$DW$78, DW_AT_decl_column(0x13)
    1525            
    1526            $C$DW$79        .dwtag  DW_TAG_member
    1527                    .dwattr $C$DW$79, DW_AT_type(*$C$DW$T$43)
    1528                    .dwattr $C$DW$79, DW_AT_name("RXBUF")
    1529                    .dwattr $C$DW$79, DW_AT_TI_symbol_name("RXBUF")
    1530                    .dwattr $C$DW$79, DW_AT_data_member_location[DW_OP_plus_uconst 0xc]
    1531                    .dwattr $C$DW$79, DW_AT_accessibility(DW_ACCESS_public)
    1532                    .dwattr $C$DW$79, DW_AT_decl_file("..\usart_comms.h")
    1533                    .dwattr $C$DW$79, DW_AT_decl_line(0x84)
    1534                    .dwattr $C$DW$79, DW_AT_decl_column(0x13)
    1535            
    1536            $C$DW$80        .dwtag  DW_TAG_member
    1537                    .dwattr $C$DW$80, DW_AT_type(*$C$DW$T$44)
    1538                    .dwattr $C$DW$80, DW_AT_name("TXBUF")
    1539                    .dwattr $C$DW$80, DW_AT_TI_symbol_name("TXBUF")
    1540                    .dwattr $C$DW$80, DW_AT_data_member_location[DW_OP_plus_uconst 0xd]
    1541                    .dwattr $C$DW$80, DW_AT_accessibility(DW_ACCESS_public)
    1542                    .dwattr $C$DW$80, DW_AT_decl_file("..\usart_comms.h")
    1543                    .dwattr $C$DW$80, DW_AT_decl_line(0x85)
    1544                    .dwattr $C$DW$80, DW_AT_decl_column(0x13)
    1545            
    1546            $C$DW$81        .dwtag  DW_TAG_member
    1547                    .dwattr $C$DW$81, DW_AT_type(*$C$DW$T$45)
    1548                    .dwattr $C$DW$81, DW_AT_name("ABCTL")
    1549                    .dwattr $C$DW$81, DW_AT_TI_symbol_name("ABCTL")
    1550                    .dwattr $C$DW$81, DW_AT_data_member_location[DW_OP_plus_uconst 0xe]
    1551                    .dwattr $C$DW$81, DW_AT_accessibility(DW_ACCESS_public)
    1552                    .dwattr $C$DW$81, DW_AT_decl_file("..\usart_comms.h")
    1553                    .dwattr $C$DW$81, DW_AT_decl_line(0x86)
    1554                    .dwattr $C$DW$81, DW_AT_decl_column(0x13)
    1555            
    1556            $C$DW$82        .dwtag  DW_TAG_member
    1557                    .dwattr $C$DW$82, DW_AT_type(*$C$DW$T$46)
    1558                    .dwattr $C$DW$82, DW_AT_name("IRCTL")
    1559                    .dwattr $C$DW$82, DW_AT_TI_symbol_name("IRCTL")
    1560                    .dwattr $C$DW$82, DW_AT_data_member_location[DW_OP_plus_uconst 0x10]
MSP430 Assembler PC v21.6.1 Tue Jan  3 09:51:30 2023

Copyright (c) 2003-2018 Texas Instruments Incorporated
usart_comms.asm                                                      PAGE   31

    1561                    .dwattr $C$DW$82, DW_AT_accessibility(DW_ACCESS_public)
    1562                    .dwattr $C$DW$82, DW_AT_decl_file("..\usart_comms.h")
    1563                    .dwattr $C$DW$82, DW_AT_decl_line(0x87)
    1564                    .dwattr $C$DW$82, DW_AT_decl_column(0x13)
    1565            
    1566            $C$DW$83        .dwtag  DW_TAG_member
    1567                    .dwattr $C$DW$83, DW_AT_type(*$C$DW$T$47)
    1568                    .dwattr $C$DW$83, DW_AT_name("IE")
    1569                    .dwattr $C$DW$83, DW_AT_TI_symbol_name("IE")
    1570                    .dwattr $C$DW$83, DW_AT_data_member_location[DW_OP_plus_uconst 0x12]
    1571                    .dwattr $C$DW$83, DW_AT_accessibility(DW_ACCESS_public)
    1572                    .dwattr $C$DW$83, DW_AT_decl_file("..\usart_comms.h")
    1573                    .dwattr $C$DW$83, DW_AT_decl_line(0x88)
    1574                    .dwattr $C$DW$83, DW_AT_decl_column(0x13)
    1575            
    1576            $C$DW$84        .dwtag  DW_TAG_member
    1577                    .dwattr $C$DW$84, DW_AT_type(*$C$DW$T$48)
    1578                    .dwattr $C$DW$84, DW_AT_name("IFG")
    1579                    .dwattr $C$DW$84, DW_AT_TI_symbol_name("IFG")
    1580                    .dwattr $C$DW$84, DW_AT_data_member_location[DW_OP_plus_uconst 0x13]
    1581                    .dwattr $C$DW$84, DW_AT_accessibility(DW_ACCESS_public)
    1582                    .dwattr $C$DW$84, DW_AT_decl_file("..\usart_comms.h")
    1583                    .dwattr $C$DW$84, DW_AT_decl_line(0x89)
    1584                    .dwattr $C$DW$84, DW_AT_decl_column(0x13)
    1585            
    1586            $C$DW$85        .dwtag  DW_TAG_member
    1587                    .dwattr $C$DW$85, DW_AT_type(*$C$DW$T$49)
    1588                    .dwattr $C$DW$85, DW_AT_name("IV")
    1589                    .dwattr $C$DW$85, DW_AT_TI_symbol_name("IV")
    1590                    .dwattr $C$DW$85, DW_AT_data_member_location[DW_OP_plus_uconst 0x14]
    1591                    .dwattr $C$DW$85, DW_AT_accessibility(DW_ACCESS_public)
    1592                    .dwattr $C$DW$85, DW_AT_decl_file("..\usart_comms.h")
    1593                    .dwattr $C$DW$85, DW_AT_decl_line(0x8a)
    1594                    .dwattr $C$DW$85, DW_AT_decl_column(0x13)
    1595            
    1596                    .dwattr $C$DW$T$50, DW_AT_decl_file("..\usart_comms.h")
    1597                    .dwattr $C$DW$T$50, DW_AT_decl_line(0x7e)
    1598                    .dwattr $C$DW$T$50, DW_AT_decl_column(0x01)
    1599                    .dwendtag $C$DW$T$50
    1600            
    1601            $C$DW$T$73      .dwtag  DW_TAG_typedef
    1602                    .dwattr $C$DW$T$73, DW_AT_name("USART_REGs")
    1603                    .dwattr $C$DW$T$73, DW_AT_type(*$C$DW$T$50)
    1604                    .dwattr $C$DW$T$73, DW_AT_language(DW_LANG_C)
    1605                    .dwattr $C$DW$T$73, DW_AT_decl_file("..\usart_comms.h")
    1606                    .dwattr $C$DW$T$73, DW_AT_decl_line(0x8b)
    1607                    .dwattr $C$DW$T$73, DW_AT_decl_column(0x02)
    1608            
    1609            $C$DW$T$74      .dwtag  DW_TAG_volatile_type
    1610                    .dwattr $C$DW$T$74, DW_AT_type(*$C$DW$T$73)
    1611            
    1612            $C$DW$T$75      .dwtag  DW_TAG_pointer_type
    1613                    .dwattr $C$DW$T$75, DW_AT_type(*$C$DW$T$74)
    1614                    .dwattr $C$DW$T$75, DW_AT_address_class(0x10)
    1615            
MSP430 Assembler PC v21.6.1 Tue Jan  3 09:51:30 2023

Copyright (c) 2003-2018 Texas Instruments Incorporated
usart_comms.asm                                                      PAGE   32

    1616            $C$DW$T$76      .dwtag  DW_TAG_const_type
    1617                    .dwattr $C$DW$T$76, DW_AT_type(*$C$DW$T$75)
    1618            
    1619            
    1620            $C$DW$T$51      .dwtag  DW_TAG_structure_type
    1621                    .dwattr $C$DW$T$51, DW_AT_byte_size(0x10)
    1622            $C$DW$86        .dwtag  DW_TAG_member
    1623                    .dwattr $C$DW$86, DW_AT_type(*$C$DW$T$14)
    1624                    .dwattr $C$DW$86, DW_AT_name("__max_align1")
    1625                    .dwattr $C$DW$86, DW_AT_TI_symbol_name("__max_align1")
    1626                    .dwattr $C$DW$86, DW_AT_data_member_location[DW_OP_plus_uconst 0x0]
    1627                    .dwattr $C$DW$86, DW_AT_accessibility(DW_ACCESS_public)
    1628                    .dwattr $C$DW$86, DW_AT_decl_file("C:/ti/ccs1110/ccs/tools/compiler/ti-cgt-msp430_21.6.1.LTS/i
    1629                    .dwattr $C$DW$86, DW_AT_decl_line(0x7b)
    1630                    .dwattr $C$DW$86, DW_AT_decl_column(0x0c)
    1631            
    1632            $C$DW$87        .dwtag  DW_TAG_member
    1633                    .dwattr $C$DW$87, DW_AT_type(*$C$DW$T$18)
    1634                    .dwattr $C$DW$87, DW_AT_name("__max_align2")
    1635                    .dwattr $C$DW$87, DW_AT_TI_symbol_name("__max_align2")
    1636                    .dwattr $C$DW$87, DW_AT_data_member_location[DW_OP_plus_uconst 0x8]
    1637                    .dwattr $C$DW$87, DW_AT_accessibility(DW_ACCESS_public)
    1638                    .dwattr $C$DW$87, DW_AT_decl_file("C:/ti/ccs1110/ccs/tools/compiler/ti-cgt-msp430_21.6.1.LTS/i
    1639                    .dwattr $C$DW$87, DW_AT_decl_line(0x7c)
    1640                    .dwattr $C$DW$87, DW_AT_decl_column(0x0e)
    1641            
    1642                    .dwattr $C$DW$T$51, DW_AT_decl_file("C:/ti/ccs1110/ccs/tools/compiler/ti-cgt-msp430_21.6.1.LTS
    1643                    .dwattr $C$DW$T$51, DW_AT_decl_line(0x7a)
    1644                    .dwattr $C$DW$T$51, DW_AT_decl_column(0x10)
    1645                    .dwendtag $C$DW$T$51
    1646            
    1647            $C$DW$T$77      .dwtag  DW_TAG_typedef
    1648                    .dwattr $C$DW$T$77, DW_AT_name("__max_align_t")
    1649                    .dwattr $C$DW$T$77, DW_AT_type(*$C$DW$T$51)
    1650                    .dwattr $C$DW$T$77, DW_AT_language(DW_LANG_C)
    1651                    .dwattr $C$DW$T$77, DW_AT_decl_file("C:/ti/ccs1110/ccs/tools/compiler/ti-cgt-msp430_21.6.1.LTS
    1652                    .dwattr $C$DW$T$77, DW_AT_decl_line(0x7d)
    1653                    .dwattr $C$DW$T$77, DW_AT_decl_column(0x03)
    1654            
    1655            $C$DW$T$2       .dwtag  DW_TAG_unspecified_type
    1656                    .dwattr $C$DW$T$2, DW_AT_name("void")
    1657            
    1658            $C$DW$T$4       .dwtag  DW_TAG_base_type
    1659                    .dwattr $C$DW$T$4, DW_AT_encoding(DW_ATE_boolean)
    1660                    .dwattr $C$DW$T$4, DW_AT_name("bool")
    1661                    .dwattr $C$DW$T$4, DW_AT_byte_size(0x01)
    1662            
    1663            $C$DW$T$5       .dwtag  DW_TAG_base_type
    1664                    .dwattr $C$DW$T$5, DW_AT_encoding(DW_ATE_signed_char)
    1665                    .dwattr $C$DW$T$5, DW_AT_name("signed char")
    1666                    .dwattr $C$DW$T$5, DW_AT_byte_size(0x01)
    1667            
    1668            $C$DW$T$80      .dwtag  DW_TAG_typedef
    1669                    .dwattr $C$DW$T$80, DW_AT_name("__int8_t")
    1670                    .dwattr $C$DW$T$80, DW_AT_type(*$C$DW$T$5)
MSP430 Assembler PC v21.6.1 Tue Jan  3 09:51:30 2023

Copyright (c) 2003-2018 Texas Instruments Incorporated
usart_comms.asm                                                      PAGE   33

    1671                    .dwattr $C$DW$T$80, DW_AT_language(DW_LANG_C)
    1672                    .dwattr $C$DW$T$80, DW_AT_decl_file("C:/ti/ccs1110/ccs/tools/compiler/ti-cgt-msp430_21.6.1.LTS
    1673                    .dwattr $C$DW$T$80, DW_AT_decl_line(0x36)
    1674                    .dwattr $C$DW$T$80, DW_AT_decl_column(0x16)
    1675            
    1676            $C$DW$T$81      .dwtag  DW_TAG_typedef
    1677                    .dwattr $C$DW$T$81, DW_AT_name("__int_least8_t")
    1678                    .dwattr $C$DW$T$81, DW_AT_type(*$C$DW$T$80)
    1679                    .dwattr $C$DW$T$81, DW_AT_language(DW_LANG_C)
    1680                    .dwattr $C$DW$T$81, DW_AT_decl_file("C:/ti/ccs1110/ccs/tools/compiler/ti-cgt-msp430_21.6.1.LTS
    1681                    .dwattr $C$DW$T$81, DW_AT_decl_line(0x5a)
    1682                    .dwattr $C$DW$T$81, DW_AT_decl_column(0x12)
    1683            
    1684            $C$DW$T$82      .dwtag  DW_TAG_typedef
    1685                    .dwattr $C$DW$T$82, DW_AT_name("int_least8_t")
    1686                    .dwattr $C$DW$T$82, DW_AT_type(*$C$DW$T$81)
    1687                    .dwattr $C$DW$T$82, DW_AT_language(DW_LANG_C)
    1688                    .dwattr $C$DW$T$82, DW_AT_decl_file("C:/ti/ccs1110/ccs/tools/compiler/ti-cgt-msp430_21.6.1.LTS
    1689                    .dwattr $C$DW$T$82, DW_AT_decl_line(0x2a)
    1690                    .dwattr $C$DW$T$82, DW_AT_decl_column(0x19)
    1691            
    1692            $C$DW$T$83      .dwtag  DW_TAG_typedef
    1693                    .dwattr $C$DW$T$83, DW_AT_name("int8_t")
    1694                    .dwattr $C$DW$T$83, DW_AT_type(*$C$DW$T$80)
    1695                    .dwattr $C$DW$T$83, DW_AT_language(DW_LANG_C)
    1696                    .dwattr $C$DW$T$83, DW_AT_decl_file("C:/ti/ccs1110/ccs/tools/compiler/ti-cgt-msp430_21.6.1.LTS
    1697                    .dwattr $C$DW$T$83, DW_AT_decl_line(0x25)
    1698                    .dwattr $C$DW$T$83, DW_AT_decl_column(0x13)
    1699            
    1700            $C$DW$T$6       .dwtag  DW_TAG_base_type
    1701                    .dwattr $C$DW$T$6, DW_AT_encoding(DW_ATE_unsigned_char)
    1702                    .dwattr $C$DW$T$6, DW_AT_name("unsigned char")
    1703                    .dwattr $C$DW$T$6, DW_AT_byte_size(0x01)
    1704            
    1705            $C$DW$T$52      .dwtag  DW_TAG_pointer_type
    1706                    .dwattr $C$DW$T$52, DW_AT_type(*$C$DW$T$6)
    1707                    .dwattr $C$DW$T$52, DW_AT_address_class(0x10)
    1708            
    1709            $C$DW$T$21      .dwtag  DW_TAG_typedef
    1710                    .dwattr $C$DW$T$21, DW_AT_name("__uint8_t")
    1711                    .dwattr $C$DW$T$21, DW_AT_type(*$C$DW$T$6)
    1712                    .dwattr $C$DW$T$21, DW_AT_language(DW_LANG_C)
    1713                    .dwattr $C$DW$T$21, DW_AT_decl_file("C:/ti/ccs1110/ccs/tools/compiler/ti-cgt-msp430_21.6.1.LTS
    1714                    .dwattr $C$DW$T$21, DW_AT_decl_line(0x37)
    1715                    .dwattr $C$DW$T$21, DW_AT_decl_column(0x18)
    1716            
    1717            $C$DW$T$85      .dwtag  DW_TAG_typedef
    1718                    .dwattr $C$DW$T$85, DW_AT_name("__sa_family_t")
    1719                    .dwattr $C$DW$T$85, DW_AT_type(*$C$DW$T$21)
    1720                    .dwattr $C$DW$T$85, DW_AT_language(DW_LANG_C)
    1721                    .dwattr $C$DW$T$85, DW_AT_decl_file("C:/ti/ccs1110/ccs/tools/compiler/ti-cgt-msp430_21.6.1.LTS
    1722                    .dwattr $C$DW$T$85, DW_AT_decl_line(0x47)
    1723                    .dwattr $C$DW$T$85, DW_AT_decl_column(0x13)
    1724            
    1725            $C$DW$T$86      .dwtag  DW_TAG_typedef
MSP430 Assembler PC v21.6.1 Tue Jan  3 09:51:30 2023

Copyright (c) 2003-2018 Texas Instruments Incorporated
usart_comms.asm                                                      PAGE   34

    1726                    .dwattr $C$DW$T$86, DW_AT_name("__uint_least8_t")
    1727                    .dwattr $C$DW$T$86, DW_AT_type(*$C$DW$T$21)
    1728                    .dwattr $C$DW$T$86, DW_AT_language(DW_LANG_C)
    1729                    .dwattr $C$DW$T$86, DW_AT_decl_file("C:/ti/ccs1110/ccs/tools/compiler/ti-cgt-msp430_21.6.1.LTS
    1730                    .dwattr $C$DW$T$86, DW_AT_decl_line(0x74)
    1731                    .dwattr $C$DW$T$86, DW_AT_decl_column(0x13)
    1732            
    1733            $C$DW$T$87      .dwtag  DW_TAG_typedef
    1734                    .dwattr $C$DW$T$87, DW_AT_name("uint_least8_t")
    1735                    .dwattr $C$DW$T$87, DW_AT_type(*$C$DW$T$86)
    1736                    .dwattr $C$DW$T$87, DW_AT_language(DW_LANG_C)
    1737                    .dwattr $C$DW$T$87, DW_AT_decl_file("C:/ti/ccs1110/ccs/tools/compiler/ti-cgt-msp430_21.6.1.LTS
    1738                    .dwattr $C$DW$T$87, DW_AT_decl_line(0x2f)
    1739                    .dwattr $C$DW$T$87, DW_AT_decl_column(0x1a)
    1740            
    1741            $C$DW$T$22      .dwtag  DW_TAG_typedef
    1742                    .dwattr $C$DW$T$22, DW_AT_name("uint8_t")
    1743                    .dwattr $C$DW$T$22, DW_AT_type(*$C$DW$T$21)
    1744                    .dwattr $C$DW$T$22, DW_AT_language(DW_LANG_C)
    1745                    .dwattr $C$DW$T$22, DW_AT_decl_file("C:/ti/ccs1110/ccs/tools/compiler/ti-cgt-msp430_21.6.1.LTS
    1746                    .dwattr $C$DW$T$22, DW_AT_decl_line(0x3b)
    1747                    .dwattr $C$DW$T$22, DW_AT_decl_column(0x14)
    1748            
    1749            $C$DW$T$7       .dwtag  DW_TAG_base_type
    1750                    .dwattr $C$DW$T$7, DW_AT_encoding(DW_ATE_signed_char)
    1751                    .dwattr $C$DW$T$7, DW_AT_name("wchar_t")
    1752                    .dwattr $C$DW$T$7, DW_AT_byte_size(0x02)
    1753            
    1754            $C$DW$T$8       .dwtag  DW_TAG_base_type
    1755                    .dwattr $C$DW$T$8, DW_AT_encoding(DW_ATE_signed)
    1756                    .dwattr $C$DW$T$8, DW_AT_name("short")
    1757                    .dwattr $C$DW$T$8, DW_AT_byte_size(0x02)
    1758            
    1759            $C$DW$T$9       .dwtag  DW_TAG_base_type
    1760                    .dwattr $C$DW$T$9, DW_AT_encoding(DW_ATE_unsigned)
    1761                    .dwattr $C$DW$T$9, DW_AT_name("unsigned short")
    1762                    .dwattr $C$DW$T$9, DW_AT_byte_size(0x02)
    1763            
    1764            $C$DW$T$10      .dwtag  DW_TAG_base_type
    1765                    .dwattr $C$DW$T$10, DW_AT_encoding(DW_ATE_signed)
    1766                    .dwattr $C$DW$T$10, DW_AT_name("int")
    1767                    .dwattr $C$DW$T$10, DW_AT_byte_size(0x02)
    1768            
    1769            $C$DW$T$89      .dwtag  DW_TAG_typedef
    1770                    .dwattr $C$DW$T$89, DW_AT_name("_Mbstatet")
    1771                    .dwattr $C$DW$T$89, DW_AT_type(*$C$DW$T$10)
    1772                    .dwattr $C$DW$T$89, DW_AT_language(DW_LANG_C)
    1773                    .dwattr $C$DW$T$89, DW_AT_decl_file("C:/ti/ccs1110/ccs/tools/compiler/ti-cgt-msp430_21.6.1.LTS
    1774                    .dwattr $C$DW$T$89, DW_AT_decl_line(0x8f)
    1775                    .dwattr $C$DW$T$89, DW_AT_decl_column(0x0d)
    1776            
    1777            $C$DW$T$90      .dwtag  DW_TAG_typedef
    1778                    .dwattr $C$DW$T$90, DW_AT_name("__mbstate_t")
    1779                    .dwattr $C$DW$T$90, DW_AT_type(*$C$DW$T$89)
    1780                    .dwattr $C$DW$T$90, DW_AT_language(DW_LANG_C)
MSP430 Assembler PC v21.6.1 Tue Jan  3 09:51:30 2023

Copyright (c) 2003-2018 Texas Instruments Incorporated
usart_comms.asm                                                      PAGE   35

    1781                    .dwattr $C$DW$T$90, DW_AT_decl_file("C:/ti/ccs1110/ccs/tools/compiler/ti-cgt-msp430_21.6.1.LTS
    1782                    .dwattr $C$DW$T$90, DW_AT_decl_line(0x92)
    1783                    .dwattr $C$DW$T$90, DW_AT_decl_column(0x13)
    1784            
    1785            $C$DW$T$91      .dwtag  DW_TAG_typedef
    1786                    .dwattr $C$DW$T$91, DW_AT_name("__accmode_t")
    1787                    .dwattr $C$DW$T$91, DW_AT_type(*$C$DW$T$10)
    1788                    .dwattr $C$DW$T$91, DW_AT_language(DW_LANG_C)
    1789                    .dwattr $C$DW$T$91, DW_AT_decl_file("C:/ti/ccs1110/ccs/tools/compiler/ti-cgt-msp430_21.6.1.LTS
    1790                    .dwattr $C$DW$T$91, DW_AT_decl_line(0x3b)
    1791                    .dwattr $C$DW$T$91, DW_AT_decl_column(0x0e)
    1792            
    1793            $C$DW$T$92      .dwtag  DW_TAG_typedef
    1794                    .dwattr $C$DW$T$92, DW_AT_name("__cpulevel_t")
    1795                    .dwattr $C$DW$T$92, DW_AT_type(*$C$DW$T$10)
    1796                    .dwattr $C$DW$T$92, DW_AT_language(DW_LANG_C)
    1797                    .dwattr $C$DW$T$92, DW_AT_decl_file("C:/ti/ccs1110/ccs/tools/compiler/ti-cgt-msp430_21.6.1.LTS
    1798                    .dwattr $C$DW$T$92, DW_AT_decl_line(0x50)
    1799                    .dwattr $C$DW$T$92, DW_AT_decl_column(0x0e)
    1800            
    1801            $C$DW$T$93      .dwtag  DW_TAG_typedef
    1802                    .dwattr $C$DW$T$93, DW_AT_name("__cpusetid_t")
    1803                    .dwattr $C$DW$T$93, DW_AT_type(*$C$DW$T$10)
    1804                    .dwattr $C$DW$T$93, DW_AT_language(DW_LANG_C)
    1805                    .dwattr $C$DW$T$93, DW_AT_decl_file("C:/ti/ccs1110/ccs/tools/compiler/ti-cgt-msp430_21.6.1.LTS
    1806                    .dwattr $C$DW$T$93, DW_AT_decl_line(0x51)
    1807                    .dwattr $C$DW$T$93, DW_AT_decl_column(0x0e)
    1808            
    1809            $C$DW$T$94      .dwtag  DW_TAG_typedef
    1810                    .dwattr $C$DW$T$94, DW_AT_name("__cpuwhich_t")
    1811                    .dwattr $C$DW$T$94, DW_AT_type(*$C$DW$T$10)
    1812                    .dwattr $C$DW$T$94, DW_AT_language(DW_LANG_C)
    1813                    .dwattr $C$DW$T$94, DW_AT_decl_file("C:/ti/ccs1110/ccs/tools/compiler/ti-cgt-msp430_21.6.1.LTS
    1814                    .dwattr $C$DW$T$94, DW_AT_decl_line(0x4f)
    1815                    .dwattr $C$DW$T$94, DW_AT_decl_column(0x0e)
    1816            
    1817            $C$DW$T$95      .dwtag  DW_TAG_typedef
    1818                    .dwattr $C$DW$T$95, DW_AT_name("__ct_rune_t")
    1819                    .dwattr $C$DW$T$95, DW_AT_type(*$C$DW$T$10)
    1820                    .dwattr $C$DW$T$95, DW_AT_language(DW_LANG_C)
    1821                    .dwattr $C$DW$T$95, DW_AT_decl_file("C:/ti/ccs1110/ccs/tools/compiler/ti-cgt-msp430_21.6.1.LTS
    1822                    .dwattr $C$DW$T$95, DW_AT_decl_line(0x69)
    1823                    .dwattr $C$DW$T$95, DW_AT_decl_column(0x0e)
    1824            
    1825            $C$DW$T$96      .dwtag  DW_TAG_typedef
    1826                    .dwattr $C$DW$T$96, DW_AT_name("__rune_t")
    1827                    .dwattr $C$DW$T$96, DW_AT_type(*$C$DW$T$95)
    1828                    .dwattr $C$DW$T$96, DW_AT_language(DW_LANG_C)
    1829                    .dwattr $C$DW$T$96, DW_AT_decl_file("C:/ti/ccs1110/ccs/tools/compiler/ti-cgt-msp430_21.6.1.LTS
    1830                    .dwattr $C$DW$T$96, DW_AT_decl_line(0x6c)
    1831                    .dwattr $C$DW$T$96, DW_AT_decl_column(0x15)
    1832            
    1833            $C$DW$T$97      .dwtag  DW_TAG_typedef
    1834                    .dwattr $C$DW$T$97, DW_AT_name("__wint_t")
    1835                    .dwattr $C$DW$T$97, DW_AT_type(*$C$DW$T$95)
MSP430 Assembler PC v21.6.1 Tue Jan  3 09:51:30 2023

Copyright (c) 2003-2018 Texas Instruments Incorporated
usart_comms.asm                                                      PAGE   36

    1836                    .dwattr $C$DW$T$97, DW_AT_language(DW_LANG_C)
    1837                    .dwattr $C$DW$T$97, DW_AT_decl_file("C:/ti/ccs1110/ccs/tools/compiler/ti-cgt-msp430_21.6.1.LTS
    1838                    .dwattr $C$DW$T$97, DW_AT_decl_line(0x6d)
    1839                    .dwattr $C$DW$T$97, DW_AT_decl_column(0x15)
    1840            
    1841            $C$DW$T$98      .dwtag  DW_TAG_typedef
    1842                    .dwattr $C$DW$T$98, DW_AT_name("__int16_t")
    1843                    .dwattr $C$DW$T$98, DW_AT_type(*$C$DW$T$10)
    1844                    .dwattr $C$DW$T$98, DW_AT_language(DW_LANG_C)
    1845                    .dwattr $C$DW$T$98, DW_AT_decl_file("C:/ti/ccs1110/ccs/tools/compiler/ti-cgt-msp430_21.6.1.LTS
    1846                    .dwattr $C$DW$T$98, DW_AT_decl_line(0x38)
    1847                    .dwattr $C$DW$T$98, DW_AT_decl_column(0x0f)
    1848            
    1849            $C$DW$T$99      .dwtag  DW_TAG_typedef
    1850                    .dwattr $C$DW$T$99, DW_AT_name("__int_fast16_t")
    1851                    .dwattr $C$DW$T$99, DW_AT_type(*$C$DW$T$98)
    1852                    .dwattr $C$DW$T$99, DW_AT_language(DW_LANG_C)
    1853                    .dwattr $C$DW$T$99, DW_AT_decl_file("C:/ti/ccs1110/ccs/tools/compiler/ti-cgt-msp430_21.6.1.LTS
    1854                    .dwattr $C$DW$T$99, DW_AT_decl_line(0x57)
    1855                    .dwattr $C$DW$T$99, DW_AT_decl_column(0x13)
    1856            
    1857            $C$DW$T$100     .dwtag  DW_TAG_typedef
    1858                    .dwattr $C$DW$T$100, DW_AT_name("int_fast16_t")
    1859                    .dwattr $C$DW$T$100, DW_AT_type(*$C$DW$T$99)
    1860                    .dwattr $C$DW$T$100, DW_AT_language(DW_LANG_C)
    1861                    .dwattr $C$DW$T$100, DW_AT_decl_file("C:/ti/ccs1110/ccs/tools/compiler/ti-cgt-msp430_21.6.1.LT
    1862                    .dwattr $C$DW$T$100, DW_AT_decl_line(0x35)
    1863                    .dwattr $C$DW$T$100, DW_AT_decl_column(0x19)
    1864            
    1865            $C$DW$T$101     .dwtag  DW_TAG_typedef
    1866                    .dwattr $C$DW$T$101, DW_AT_name("__int_fast8_t")
    1867                    .dwattr $C$DW$T$101, DW_AT_type(*$C$DW$T$98)
    1868                    .dwattr $C$DW$T$101, DW_AT_language(DW_LANG_C)
    1869                    .dwattr $C$DW$T$101, DW_AT_decl_file("C:/ti/ccs1110/ccs/tools/compiler/ti-cgt-msp430_21.6.1.LT
    1870                    .dwattr $C$DW$T$101, DW_AT_decl_line(0x56)
    1871                    .dwattr $C$DW$T$101, DW_AT_decl_column(0x13)
    1872            
    1873            $C$DW$T$102     .dwtag  DW_TAG_typedef
    1874                    .dwattr $C$DW$T$102, DW_AT_name("int_fast8_t")
    1875                    .dwattr $C$DW$T$102, DW_AT_type(*$C$DW$T$101)
    1876                    .dwattr $C$DW$T$102, DW_AT_language(DW_LANG_C)
    1877                    .dwattr $C$DW$T$102, DW_AT_decl_file("C:/ti/ccs1110/ccs/tools/compiler/ti-cgt-msp430_21.6.1.LT
    1878                    .dwattr $C$DW$T$102, DW_AT_decl_line(0x34)
    1879                    .dwattr $C$DW$T$102, DW_AT_decl_column(0x18)
    1880            
    1881            $C$DW$T$103     .dwtag  DW_TAG_typedef
    1882                    .dwattr $C$DW$T$103, DW_AT_name("__int_least16_t")
    1883                    .dwattr $C$DW$T$103, DW_AT_type(*$C$DW$T$98)
    1884                    .dwattr $C$DW$T$103, DW_AT_language(DW_LANG_C)
    1885                    .dwattr $C$DW$T$103, DW_AT_decl_file("C:/ti/ccs1110/ccs/tools/compiler/ti-cgt-msp430_21.6.1.LT
    1886                    .dwattr $C$DW$T$103, DW_AT_decl_line(0x5b)
    1887                    .dwattr $C$DW$T$103, DW_AT_decl_column(0x13)
    1888            
    1889            $C$DW$T$104     .dwtag  DW_TAG_typedef
    1890                    .dwattr $C$DW$T$104, DW_AT_name("int_least16_t")
MSP430 Assembler PC v21.6.1 Tue Jan  3 09:51:30 2023

Copyright (c) 2003-2018 Texas Instruments Incorporated
usart_comms.asm                                                      PAGE   37

    1891                    .dwattr $C$DW$T$104, DW_AT_type(*$C$DW$T$103)
    1892                    .dwattr $C$DW$T$104, DW_AT_language(DW_LANG_C)
    1893                    .dwattr $C$DW$T$104, DW_AT_decl_file("C:/ti/ccs1110/ccs/tools/compiler/ti-cgt-msp430_21.6.1.LT
    1894                    .dwattr $C$DW$T$104, DW_AT_decl_line(0x2b)
    1895                    .dwattr $C$DW$T$104, DW_AT_decl_column(0x1a)
    1896            
    1897            $C$DW$T$105     .dwtag  DW_TAG_typedef
    1898                    .dwattr $C$DW$T$105, DW_AT_name("__register_t")
    1899                    .dwattr $C$DW$T$105, DW_AT_type(*$C$DW$T$98)
    1900                    .dwattr $C$DW$T$105, DW_AT_language(DW_LANG_C)
    1901                    .dwattr $C$DW$T$105, DW_AT_decl_file("C:/ti/ccs1110/ccs/tools/compiler/ti-cgt-msp430_21.6.1.LT
    1902                    .dwattr $C$DW$T$105, DW_AT_decl_line(0x5f)
    1903                    .dwattr $C$DW$T$105, DW_AT_decl_column(0x13)
    1904            
    1905            $C$DW$T$106     .dwtag  DW_TAG_typedef
    1906                    .dwattr $C$DW$T$106, DW_AT_name("int16_t")
    1907                    .dwattr $C$DW$T$106, DW_AT_type(*$C$DW$T$98)
    1908                    .dwattr $C$DW$T$106, DW_AT_language(DW_LANG_C)
    1909                    .dwattr $C$DW$T$106, DW_AT_decl_file("C:/ti/ccs1110/ccs/tools/compiler/ti-cgt-msp430_21.6.1.LT
    1910                    .dwattr $C$DW$T$106, DW_AT_decl_line(0x2b)
    1911                    .dwattr $C$DW$T$106, DW_AT_decl_column(0x14)
    1912            
    1913            $C$DW$T$107     .dwtag  DW_TAG_typedef
    1914                    .dwattr $C$DW$T$107, DW_AT_name("__nl_item")
    1915                    .dwattr $C$DW$T$107, DW_AT_type(*$C$DW$T$10)
    1916                    .dwattr $C$DW$T$107, DW_AT_language(DW_LANG_C)
    1917                    .dwattr $C$DW$T$107, DW_AT_decl_file("C:/ti/ccs1110/ccs/tools/compiler/ti-cgt-msp430_21.6.1.LT
    1918                    .dwattr $C$DW$T$107, DW_AT_decl_line(0x3c)
    1919                    .dwattr $C$DW$T$107, DW_AT_decl_column(0x0e)
    1920            
    1921            $C$DW$T$108     .dwtag  DW_TAG_typedef
    1922                    .dwattr $C$DW$T$108, DW_AT_name("__ptrdiff_t")
    1923                    .dwattr $C$DW$T$108, DW_AT_type(*$C$DW$T$10)
    1924                    .dwattr $C$DW$T$108, DW_AT_language(DW_LANG_C)
    1925                    .dwattr $C$DW$T$108, DW_AT_decl_file("C:/ti/ccs1110/ccs/tools/compiler/ti-cgt-msp430_21.6.1.LT
    1926                    .dwattr $C$DW$T$108, DW_AT_decl_line(0x5e)
    1927                    .dwattr $C$DW$T$108, DW_AT_decl_column(0x1c)
    1928            
    1929            $C$DW$T$11      .dwtag  DW_TAG_base_type
    1930                    .dwattr $C$DW$T$11, DW_AT_encoding(DW_ATE_unsigned)
    1931                    .dwattr $C$DW$T$11, DW_AT_name("unsigned int")
    1932                    .dwattr $C$DW$T$11, DW_AT_byte_size(0x02)
    1933            
    1934            $C$DW$T$109     .dwtag  DW_TAG_typedef
    1935                    .dwattr $C$DW$T$109, DW_AT_name("___wchar_t")
    1936                    .dwattr $C$DW$T$109, DW_AT_type(*$C$DW$T$11)
    1937                    .dwattr $C$DW$T$109, DW_AT_language(DW_LANG_C)
    1938                    .dwattr $C$DW$T$109, DW_AT_decl_file("C:/ti/ccs1110/ccs/tools/compiler/ti-cgt-msp430_21.6.1.LT
    1939                    .dwattr $C$DW$T$109, DW_AT_decl_line(0x7d)
    1940                    .dwattr $C$DW$T$109, DW_AT_decl_column(0x1a)
    1941            
    1942            $C$DW$T$111     .dwtag  DW_TAG_typedef
    1943                    .dwattr $C$DW$T$111, DW_AT_name("__size_t")
    1944                    .dwattr $C$DW$T$111, DW_AT_type(*$C$DW$T$11)
    1945                    .dwattr $C$DW$T$111, DW_AT_language(DW_LANG_C)
MSP430 Assembler PC v21.6.1 Tue Jan  3 09:51:30 2023

Copyright (c) 2003-2018 Texas Instruments Incorporated
usart_comms.asm                                                      PAGE   38

    1946                    .dwattr $C$DW$T$111, DW_AT_decl_file("C:/ti/ccs1110/ccs/tools/compiler/ti-cgt-msp430_21.6.1.LT
    1947                    .dwattr $C$DW$T$111, DW_AT_decl_line(0x61)
    1948                    .dwattr $C$DW$T$111, DW_AT_decl_column(0x19)
    1949            
    1950            $C$DW$T$24      .dwtag  DW_TAG_typedef
    1951                    .dwattr $C$DW$T$24, DW_AT_name("__uint16_t")
    1952                    .dwattr $C$DW$T$24, DW_AT_type(*$C$DW$T$11)
    1953                    .dwattr $C$DW$T$24, DW_AT_language(DW_LANG_C)
    1954                    .dwattr $C$DW$T$24, DW_AT_decl_file("C:/ti/ccs1110/ccs/tools/compiler/ti-cgt-msp430_21.6.1.LTS
    1955                    .dwattr $C$DW$T$24, DW_AT_decl_line(0x39)
    1956                    .dwattr $C$DW$T$24, DW_AT_decl_column(0x17)
    1957            
    1958            $C$DW$T$112     .dwtag  DW_TAG_typedef
    1959                    .dwattr $C$DW$T$112, DW_AT_name("__mode_t")
    1960                    .dwattr $C$DW$T$112, DW_AT_type(*$C$DW$T$24)
    1961                    .dwattr $C$DW$T$112, DW_AT_language(DW_LANG_C)
    1962                    .dwattr $C$DW$T$112, DW_AT_decl_file("C:/ti/ccs1110/ccs/tools/compiler/ti-cgt-msp430_21.6.1.LT
    1963                    .dwattr $C$DW$T$112, DW_AT_decl_line(0x3a)
    1964                    .dwattr $C$DW$T$112, DW_AT_decl_column(0x14)
    1965            
    1966            $C$DW$T$113     .dwtag  DW_TAG_typedef
    1967                    .dwattr $C$DW$T$113, DW_AT_name("__u_register_t")
    1968                    .dwattr $C$DW$T$113, DW_AT_type(*$C$DW$T$24)
    1969                    .dwattr $C$DW$T$113, DW_AT_language(DW_LANG_C)
    1970                    .dwattr $C$DW$T$113, DW_AT_decl_file("C:/ti/ccs1110/ccs/tools/compiler/ti-cgt-msp430_21.6.1.LT
    1971                    .dwattr $C$DW$T$113, DW_AT_decl_line(0x78)
    1972                    .dwattr $C$DW$T$113, DW_AT_decl_column(0x14)
    1973            
    1974            $C$DW$T$114     .dwtag  DW_TAG_typedef
    1975                    .dwattr $C$DW$T$114, DW_AT_name("__uint_fast16_t")
    1976                    .dwattr $C$DW$T$114, DW_AT_type(*$C$DW$T$24)
    1977                    .dwattr $C$DW$T$114, DW_AT_language(DW_LANG_C)
    1978                    .dwattr $C$DW$T$114, DW_AT_decl_file("C:/ti/ccs1110/ccs/tools/compiler/ti-cgt-msp430_21.6.1.LT
    1979                    .dwattr $C$DW$T$114, DW_AT_decl_line(0x71)
    1980                    .dwattr $C$DW$T$114, DW_AT_decl_column(0x14)
    1981            
    1982            $C$DW$T$115     .dwtag  DW_TAG_typedef
    1983                    .dwattr $C$DW$T$115, DW_AT_name("uint_fast16_t")
    1984                    .dwattr $C$DW$T$115, DW_AT_type(*$C$DW$T$114)
    1985                    .dwattr $C$DW$T$115, DW_AT_language(DW_LANG_C)
    1986                    .dwattr $C$DW$T$115, DW_AT_decl_file("C:/ti/ccs1110/ccs/tools/compiler/ti-cgt-msp430_21.6.1.LT
    1987                    .dwattr $C$DW$T$115, DW_AT_decl_line(0x3a)
    1988                    .dwattr $C$DW$T$115, DW_AT_decl_column(0x1a)
    1989            
    1990            $C$DW$T$116     .dwtag  DW_TAG_typedef
    1991                    .dwattr $C$DW$T$116, DW_AT_name("__uint_fast8_t")
    1992                    .dwattr $C$DW$T$116, DW_AT_type(*$C$DW$T$24)
    1993                    .dwattr $C$DW$T$116, DW_AT_language(DW_LANG_C)
    1994                    .dwattr $C$DW$T$116, DW_AT_decl_file("C:/ti/ccs1110/ccs/tools/compiler/ti-cgt-msp430_21.6.1.LT
    1995                    .dwattr $C$DW$T$116, DW_AT_decl_line(0x70)
    1996                    .dwattr $C$DW$T$116, DW_AT_decl_column(0x14)
    1997            
    1998            $C$DW$T$117     .dwtag  DW_TAG_typedef
    1999                    .dwattr $C$DW$T$117, DW_AT_name("uint_fast8_t")
    2000                    .dwattr $C$DW$T$117, DW_AT_type(*$C$DW$T$116)
MSP430 Assembler PC v21.6.1 Tue Jan  3 09:51:30 2023

Copyright (c) 2003-2018 Texas Instruments Incorporated
usart_comms.asm                                                      PAGE   39

    2001                    .dwattr $C$DW$T$117, DW_AT_language(DW_LANG_C)
    2002                    .dwattr $C$DW$T$117, DW_AT_decl_file("C:/ti/ccs1110/ccs/tools/compiler/ti-cgt-msp430_21.6.1.LT
    2003                    .dwattr $C$DW$T$117, DW_AT_decl_line(0x39)
    2004                    .dwattr $C$DW$T$117, DW_AT_decl_column(0x19)
    2005            
    2006            $C$DW$T$118     .dwtag  DW_TAG_typedef
    2007                    .dwattr $C$DW$T$118, DW_AT_name("__uint_least16_t")
    2008                    .dwattr $C$DW$T$118, DW_AT_type(*$C$DW$T$24)
    2009                    .dwattr $C$DW$T$118, DW_AT_language(DW_LANG_C)
    2010                    .dwattr $C$DW$T$118, DW_AT_decl_file("C:/ti/ccs1110/ccs/tools/compiler/ti-cgt-msp430_21.6.1.LT
    2011                    .dwattr $C$DW$T$118, DW_AT_decl_line(0x75)
    2012                    .dwattr $C$DW$T$118, DW_AT_decl_column(0x14)
    2013            
    2014            $C$DW$T$119     .dwtag  DW_TAG_typedef
    2015                    .dwattr $C$DW$T$119, DW_AT_name("__char16_t")
    2016                    .dwattr $C$DW$T$119, DW_AT_type(*$C$DW$T$118)
    2017                    .dwattr $C$DW$T$119, DW_AT_language(DW_LANG_C)
    2018                    .dwattr $C$DW$T$119, DW_AT_decl_file("C:/ti/ccs1110/ccs/tools/compiler/ti-cgt-msp430_21.6.1.LT
    2019                    .dwattr $C$DW$T$119, DW_AT_decl_line(0x71)
    2020                    .dwattr $C$DW$T$119, DW_AT_decl_column(0x1a)
    2021            
    2022            $C$DW$T$120     .dwtag  DW_TAG_typedef
    2023                    .dwattr $C$DW$T$120, DW_AT_name("uint_least16_t")
    2024                    .dwattr $C$DW$T$120, DW_AT_type(*$C$DW$T$118)
    2025                    .dwattr $C$DW$T$120, DW_AT_language(DW_LANG_C)
    2026                    .dwattr $C$DW$T$120, DW_AT_decl_file("C:/ti/ccs1110/ccs/tools/compiler/ti-cgt-msp430_21.6.1.LT
    2027                    .dwattr $C$DW$T$120, DW_AT_decl_line(0x30)
    2028                    .dwattr $C$DW$T$120, DW_AT_decl_column(0x1a)
    2029            
    2030            $C$DW$T$25      .dwtag  DW_TAG_typedef
    2031                    .dwattr $C$DW$T$25, DW_AT_name("uint16_t")
    2032                    .dwattr $C$DW$T$25, DW_AT_type(*$C$DW$T$24)
    2033                    .dwattr $C$DW$T$25, DW_AT_language(DW_LANG_C)
    2034                    .dwattr $C$DW$T$25, DW_AT_decl_file("C:/ti/ccs1110/ccs/tools/compiler/ti-cgt-msp430_21.6.1.LTS
    2035                    .dwattr $C$DW$T$25, DW_AT_decl_line(0x41)
    2036                    .dwattr $C$DW$T$25, DW_AT_decl_column(0x15)
    2037            
    2038            $C$DW$T$29      .dwtag  DW_TAG_const_type
    2039                    .dwattr $C$DW$T$29, DW_AT_type(*$C$DW$T$25)
    2040            
    2041            $C$DW$T$121     .dwtag  DW_TAG_typedef
    2042                    .dwattr $C$DW$T$121, DW_AT_name("__useconds_t")
    2043                    .dwattr $C$DW$T$121, DW_AT_type(*$C$DW$T$11)
    2044                    .dwattr $C$DW$T$121, DW_AT_language(DW_LANG_C)
    2045                    .dwattr $C$DW$T$121, DW_AT_decl_file("C:/ti/ccs1110/ccs/tools/compiler/ti-cgt-msp430_21.6.1.LT
    2046                    .dwattr $C$DW$T$121, DW_AT_decl_line(0x4e)
    2047                    .dwattr $C$DW$T$121, DW_AT_decl_column(0x16)
    2048            
    2049            $C$DW$T$122     .dwtag  DW_TAG_typedef
    2050                    .dwattr $C$DW$T$122, DW_AT_name("size_t")
    2051                    .dwattr $C$DW$T$122, DW_AT_type(*$C$DW$T$11)
    2052                    .dwattr $C$DW$T$122, DW_AT_language(DW_LANG_C)
    2053                    .dwattr $C$DW$T$122, DW_AT_decl_file("C:/ti/ccs1110/ccs/tools/compiler/ti-cgt-msp430_21.6.1.LT
    2054                    .dwattr $C$DW$T$122, DW_AT_decl_line(0x4d)
    2055                    .dwattr $C$DW$T$122, DW_AT_decl_column(0x19)
MSP430 Assembler PC v21.6.1 Tue Jan  3 09:51:30 2023

Copyright (c) 2003-2018 Texas Instruments Incorporated
usart_comms.asm                                                      PAGE   40

    2056            
    2057            $C$DW$T$12      .dwtag  DW_TAG_base_type
    2058                    .dwattr $C$DW$T$12, DW_AT_encoding(DW_ATE_signed)
    2059                    .dwattr $C$DW$T$12, DW_AT_name("long")
    2060                    .dwattr $C$DW$T$12, DW_AT_byte_size(0x04)
    2061            
    2062            $C$DW$T$123     .dwtag  DW_TAG_typedef
    2063                    .dwattr $C$DW$T$123, DW_AT_name("__int32_t")
    2064                    .dwattr $C$DW$T$123, DW_AT_type(*$C$DW$T$12)
    2065                    .dwattr $C$DW$T$123, DW_AT_language(DW_LANG_C)
    2066                    .dwattr $C$DW$T$123, DW_AT_decl_file("C:/ti/ccs1110/ccs/tools/compiler/ti-cgt-msp430_21.6.1.LT
    2067                    .dwattr $C$DW$T$123, DW_AT_decl_line(0x3a)
    2068                    .dwattr $C$DW$T$123, DW_AT_decl_column(0x10)
    2069            
    2070            $C$DW$T$124     .dwtag  DW_TAG_typedef
    2071                    .dwattr $C$DW$T$124, DW_AT_name("__blksize_t")
    2072                    .dwattr $C$DW$T$124, DW_AT_type(*$C$DW$T$123)
    2073                    .dwattr $C$DW$T$124, DW_AT_language(DW_LANG_C)
    2074                    .dwattr $C$DW$T$124, DW_AT_decl_file("C:/ti/ccs1110/ccs/tools/compiler/ti-cgt-msp430_21.6.1.LT
    2075                    .dwattr $C$DW$T$124, DW_AT_decl_line(0x2f)
    2076                    .dwattr $C$DW$T$124, DW_AT_decl_column(0x13)
    2077            
    2078            $C$DW$T$125     .dwtag  DW_TAG_typedef
    2079                    .dwattr $C$DW$T$125, DW_AT_name("__clockid_t")
    2080                    .dwattr $C$DW$T$125, DW_AT_type(*$C$DW$T$123)
    2081                    .dwattr $C$DW$T$125, DW_AT_language(DW_LANG_C)
    2082                    .dwattr $C$DW$T$125, DW_AT_decl_file("C:/ti/ccs1110/ccs/tools/compiler/ti-cgt-msp430_21.6.1.LT
    2083                    .dwattr $C$DW$T$125, DW_AT_decl_line(0x31)
    2084                    .dwattr $C$DW$T$125, DW_AT_decl_column(0x13)
    2085            
    2086            $C$DW$T$126     .dwtag  DW_TAG_typedef
    2087                    .dwattr $C$DW$T$126, DW_AT_name("__critical_t")
    2088                    .dwattr $C$DW$T$126, DW_AT_type(*$C$DW$T$123)
    2089                    .dwattr $C$DW$T$126, DW_AT_language(DW_LANG_C)
    2090                    .dwattr $C$DW$T$126, DW_AT_decl_file("C:/ti/ccs1110/ccs/tools/compiler/ti-cgt-msp430_21.6.1.LT
    2091                    .dwattr $C$DW$T$126, DW_AT_decl_line(0x4b)
    2092                    .dwattr $C$DW$T$126, DW_AT_decl_column(0x13)
    2093            
    2094            $C$DW$T$127     .dwtag  DW_TAG_typedef
    2095                    .dwattr $C$DW$T$127, DW_AT_name("__int_fast32_t")
    2096                    .dwattr $C$DW$T$127, DW_AT_type(*$C$DW$T$123)
    2097                    .dwattr $C$DW$T$127, DW_AT_language(DW_LANG_C)
    2098                    .dwattr $C$DW$T$127, DW_AT_decl_file("C:/ti/ccs1110/ccs/tools/compiler/ti-cgt-msp430_21.6.1.LT
    2099                    .dwattr $C$DW$T$127, DW_AT_decl_line(0x58)
    2100                    .dwattr $C$DW$T$127, DW_AT_decl_column(0x13)
    2101            
    2102            $C$DW$T$128     .dwtag  DW_TAG_typedef
    2103                    .dwattr $C$DW$T$128, DW_AT_name("int_fast32_t")
    2104                    .dwattr $C$DW$T$128, DW_AT_type(*$C$DW$T$127)
    2105                    .dwattr $C$DW$T$128, DW_AT_language(DW_LANG_C)
    2106                    .dwattr $C$DW$T$128, DW_AT_decl_file("C:/ti/ccs1110/ccs/tools/compiler/ti-cgt-msp430_21.6.1.LT
    2107                    .dwattr $C$DW$T$128, DW_AT_decl_line(0x36)
    2108                    .dwattr $C$DW$T$128, DW_AT_decl_column(0x19)
    2109            
    2110            $C$DW$T$129     .dwtag  DW_TAG_typedef
MSP430 Assembler PC v21.6.1 Tue Jan  3 09:51:30 2023

Copyright (c) 2003-2018 Texas Instruments Incorporated
usart_comms.asm                                                      PAGE   41

    2111                    .dwattr $C$DW$T$129, DW_AT_name("__int_least32_t")
    2112                    .dwattr $C$DW$T$129, DW_AT_type(*$C$DW$T$123)
    2113                    .dwattr $C$DW$T$129, DW_AT_language(DW_LANG_C)
    2114                    .dwattr $C$DW$T$129, DW_AT_decl_file("C:/ti/ccs1110/ccs/tools/compiler/ti-cgt-msp430_21.6.1.LT
    2115                    .dwattr $C$DW$T$129, DW_AT_decl_line(0x5c)
    2116                    .dwattr $C$DW$T$129, DW_AT_decl_column(0x13)
    2117            
    2118            $C$DW$T$130     .dwtag  DW_TAG_typedef
    2119                    .dwattr $C$DW$T$130, DW_AT_name("int_least32_t")
    2120                    .dwattr $C$DW$T$130, DW_AT_type(*$C$DW$T$129)
    2121                    .dwattr $C$DW$T$130, DW_AT_language(DW_LANG_C)
    2122                    .dwattr $C$DW$T$130, DW_AT_decl_file("C:/ti/ccs1110/ccs/tools/compiler/ti-cgt-msp430_21.6.1.LT
    2123                    .dwattr $C$DW$T$130, DW_AT_decl_line(0x2c)
    2124                    .dwattr $C$DW$T$130, DW_AT_decl_column(0x1a)
    2125            
    2126            $C$DW$T$131     .dwtag  DW_TAG_typedef
    2127                    .dwattr $C$DW$T$131, DW_AT_name("__intfptr_t")
    2128                    .dwattr $C$DW$T$131, DW_AT_type(*$C$DW$T$123)
    2129                    .dwattr $C$DW$T$131, DW_AT_language(DW_LANG_C)
    2130                    .dwattr $C$DW$T$131, DW_AT_decl_file("C:/ti/ccs1110/ccs/tools/compiler/ti-cgt-msp430_21.6.1.LT
    2131                    .dwattr $C$DW$T$131, DW_AT_decl_line(0x4e)
    2132                    .dwattr $C$DW$T$131, DW_AT_decl_column(0x13)
    2133            
    2134            $C$DW$T$132     .dwtag  DW_TAG_typedef
    2135                    .dwattr $C$DW$T$132, DW_AT_name("__intptr_t")
    2136                    .dwattr $C$DW$T$132, DW_AT_type(*$C$DW$T$123)
    2137                    .dwattr $C$DW$T$132, DW_AT_language(DW_LANG_C)
    2138                    .dwattr $C$DW$T$132, DW_AT_decl_file("C:/ti/ccs1110/ccs/tools/compiler/ti-cgt-msp430_21.6.1.LT
    2139                    .dwattr $C$DW$T$132, DW_AT_decl_line(0x51)
    2140                    .dwattr $C$DW$T$132, DW_AT_decl_column(0x13)
    2141            
    2142            $C$DW$T$133     .dwtag  DW_TAG_typedef
    2143                    .dwattr $C$DW$T$133, DW_AT_name("intptr_t")
    2144                    .dwattr $C$DW$T$133, DW_AT_type(*$C$DW$T$132)
    2145                    .dwattr $C$DW$T$133, DW_AT_language(DW_LANG_C)
    2146                    .dwattr $C$DW$T$133, DW_AT_decl_file("C:/ti/ccs1110/ccs/tools/compiler/ti-cgt-msp430_21.6.1.LT
    2147                    .dwattr $C$DW$T$133, DW_AT_decl_line(0x50)
    2148                    .dwattr $C$DW$T$133, DW_AT_decl_column(0x15)
    2149            
    2150            $C$DW$T$134     .dwtag  DW_TAG_typedef
    2151                    .dwattr $C$DW$T$134, DW_AT_name("__lwpid_t")
    2152                    .dwattr $C$DW$T$134, DW_AT_type(*$C$DW$T$123)
    2153                    .dwattr $C$DW$T$134, DW_AT_language(DW_LANG_C)
    2154                    .dwattr $C$DW$T$134, DW_AT_decl_file("C:/ti/ccs1110/ccs/tools/compiler/ti-cgt-msp430_21.6.1.LT
    2155                    .dwattr $C$DW$T$134, DW_AT_decl_line(0x39)
    2156                    .dwattr $C$DW$T$134, DW_AT_decl_column(0x13)
    2157            
    2158            $C$DW$T$135     .dwtag  DW_TAG_typedef
    2159                    .dwattr $C$DW$T$135, DW_AT_name("__pid_t")
    2160                    .dwattr $C$DW$T$135, DW_AT_type(*$C$DW$T$123)
    2161                    .dwattr $C$DW$T$135, DW_AT_language(DW_LANG_C)
    2162                    .dwattr $C$DW$T$135, DW_AT_decl_file("C:/ti/ccs1110/ccs/tools/compiler/ti-cgt-msp430_21.6.1.LT
    2163                    .dwattr $C$DW$T$135, DW_AT_decl_line(0x40)
    2164                    .dwattr $C$DW$T$135, DW_AT_decl_column(0x13)
    2165            
MSP430 Assembler PC v21.6.1 Tue Jan  3 09:51:30 2023

Copyright (c) 2003-2018 Texas Instruments Incorporated
usart_comms.asm                                                      PAGE   42

    2166            $C$DW$T$136     .dwtag  DW_TAG_typedef
    2167                    .dwattr $C$DW$T$136, DW_AT_name("__segsz_t")
    2168                    .dwattr $C$DW$T$136, DW_AT_type(*$C$DW$T$123)
    2169                    .dwattr $C$DW$T$136, DW_AT_language(DW_LANG_C)
    2170                    .dwattr $C$DW$T$136, DW_AT_decl_file("C:/ti/ccs1110/ccs/tools/compiler/ti-cgt-msp430_21.6.1.LT
    2171                    .dwattr $C$DW$T$136, DW_AT_decl_line(0x60)
    2172                    .dwattr $C$DW$T$136, DW_AT_decl_column(0x13)
    2173            
    2174            $C$DW$T$137     .dwtag  DW_TAG_typedef
    2175                    .dwattr $C$DW$T$137, DW_AT_name("__ssize_t")
    2176                    .dwattr $C$DW$T$137, DW_AT_type(*$C$DW$T$123)
    2177                    .dwattr $C$DW$T$137, DW_AT_language(DW_LANG_C)
    2178                    .dwattr $C$DW$T$137, DW_AT_decl_file("C:/ti/ccs1110/ccs/tools/compiler/ti-cgt-msp430_21.6.1.LT
    2179                    .dwattr $C$DW$T$137, DW_AT_decl_line(0x62)
    2180                    .dwattr $C$DW$T$137, DW_AT_decl_column(0x13)
    2181            
    2182            $C$DW$T$138     .dwtag  DW_TAG_typedef
    2183                    .dwattr $C$DW$T$138, DW_AT_name("int32_t")
    2184                    .dwattr $C$DW$T$138, DW_AT_type(*$C$DW$T$123)
    2185                    .dwattr $C$DW$T$138, DW_AT_language(DW_LANG_C)
    2186                    .dwattr $C$DW$T$138, DW_AT_decl_file("C:/ti/ccs1110/ccs/tools/compiler/ti-cgt-msp430_21.6.1.LT
    2187                    .dwattr $C$DW$T$138, DW_AT_decl_line(0x30)
    2188                    .dwattr $C$DW$T$138, DW_AT_decl_column(0x14)
    2189            
    2190            $C$DW$T$139     .dwtag  DW_TAG_typedef
    2191                    .dwattr $C$DW$T$139, DW_AT_name("__key_t")
    2192                    .dwattr $C$DW$T$139, DW_AT_type(*$C$DW$T$12)
    2193                    .dwattr $C$DW$T$139, DW_AT_language(DW_LANG_C)
    2194                    .dwattr $C$DW$T$139, DW_AT_decl_file("C:/ti/ccs1110/ccs/tools/compiler/ti-cgt-msp430_21.6.1.LT
    2195                    .dwattr $C$DW$T$139, DW_AT_decl_line(0x38)
    2196                    .dwattr $C$DW$T$139, DW_AT_decl_column(0x0f)
    2197            
    2198            $C$DW$T$140     .dwtag  DW_TAG_typedef
    2199                    .dwattr $C$DW$T$140, DW_AT_name("__suseconds_t")
    2200                    .dwattr $C$DW$T$140, DW_AT_type(*$C$DW$T$12)
    2201                    .dwattr $C$DW$T$140, DW_AT_language(DW_LANG_C)
    2202                    .dwattr $C$DW$T$140, DW_AT_decl_file("C:/ti/ccs1110/ccs/tools/compiler/ti-cgt-msp430_21.6.1.LT
    2203                    .dwattr $C$DW$T$140, DW_AT_decl_line(0x4a)
    2204                    .dwattr $C$DW$T$140, DW_AT_decl_column(0x0f)
    2205            
    2206            $C$DW$T$141     .dwtag  DW_TAG_typedef
    2207                    .dwattr $C$DW$T$141, DW_AT_name("_off_t")
    2208                    .dwattr $C$DW$T$141, DW_AT_type(*$C$DW$T$12)
    2209                    .dwattr $C$DW$T$141, DW_AT_language(DW_LANG_C)
    2210                    .dwattr $C$DW$T$141, DW_AT_decl_file("C:/ti/ccs1110/ccs/tools/compiler/ti-cgt-msp430_21.6.1.LT
    2211                    .dwattr $C$DW$T$141, DW_AT_decl_line(0x8d)
    2212                    .dwattr $C$DW$T$141, DW_AT_decl_column(0x12)
    2213            
    2214            $C$DW$T$142     .dwtag  DW_TAG_typedef
    2215                    .dwattr $C$DW$T$142, DW_AT_name("__off_t")
    2216                    .dwattr $C$DW$T$142, DW_AT_type(*$C$DW$T$141)
    2217                    .dwattr $C$DW$T$142, DW_AT_language(DW_LANG_C)
    2218                    .dwattr $C$DW$T$142, DW_AT_decl_file("C:/ti/ccs1110/ccs/tools/compiler/ti-cgt-msp430_21.6.1.LT
    2219                    .dwattr $C$DW$T$142, DW_AT_decl_line(0x3e)
    2220                    .dwattr $C$DW$T$142, DW_AT_decl_column(0x18)
MSP430 Assembler PC v21.6.1 Tue Jan  3 09:51:30 2023

Copyright (c) 2003-2018 Texas Instruments Incorporated
usart_comms.asm                                                      PAGE   43

    2221            
    2222            $C$DW$T$143     .dwtag  DW_TAG_typedef
    2223                    .dwattr $C$DW$T$143, DW_AT_name("fpos_t")
    2224                    .dwattr $C$DW$T$143, DW_AT_type(*$C$DW$T$12)
    2225                    .dwattr $C$DW$T$143, DW_AT_language(DW_LANG_C)
    2226                    .dwattr $C$DW$T$143, DW_AT_decl_file("C:/ti/ccs1110/ccs/tools/compiler/ti-cgt-msp430_21.6.1.LT
    2227                    .dwattr $C$DW$T$143, DW_AT_decl_line(0x6b)
    2228                    .dwattr $C$DW$T$143, DW_AT_decl_column(0x0e)
    2229            
    2230            $C$DW$T$144     .dwtag  DW_TAG_typedef
    2231                    .dwattr $C$DW$T$144, DW_AT_name("off_t")
    2232                    .dwattr $C$DW$T$144, DW_AT_type(*$C$DW$T$12)
    2233                    .dwattr $C$DW$T$144, DW_AT_language(DW_LANG_C)
    2234                    .dwattr $C$DW$T$144, DW_AT_decl_file("C:/ti/ccs1110/ccs/tools/compiler/ti-cgt-msp430_21.6.1.LT
    2235                    .dwattr $C$DW$T$144, DW_AT_decl_line(0x74)
    2236                    .dwattr $C$DW$T$144, DW_AT_decl_column(0x0e)
    2237            
    2238            $C$DW$T$13      .dwtag  DW_TAG_base_type
    2239                    .dwattr $C$DW$T$13, DW_AT_encoding(DW_ATE_unsigned)
    2240                    .dwattr $C$DW$T$13, DW_AT_name("unsigned long")
    2241                    .dwattr $C$DW$T$13, DW_AT_byte_size(0x04)
    2242            
    2243            $C$DW$T$145     .dwtag  DW_TAG_typedef
    2244                    .dwattr $C$DW$T$145, DW_AT_name("__uint32_t")
    2245                    .dwattr $C$DW$T$145, DW_AT_type(*$C$DW$T$13)
    2246                    .dwattr $C$DW$T$145, DW_AT_language(DW_LANG_C)
    2247                    .dwattr $C$DW$T$145, DW_AT_decl_file("C:/ti/ccs1110/ccs/tools/compiler/ti-cgt-msp430_21.6.1.LT
    2248                    .dwattr $C$DW$T$145, DW_AT_decl_line(0x3b)
    2249                    .dwattr $C$DW$T$145, DW_AT_decl_column(0x18)
    2250            
    2251            $C$DW$T$146     .dwtag  DW_TAG_typedef
    2252                    .dwattr $C$DW$T$146, DW_AT_name("__clock_t")
    2253                    .dwattr $C$DW$T$146, DW_AT_type(*$C$DW$T$145)
    2254                    .dwattr $C$DW$T$146, DW_AT_language(DW_LANG_C)
    2255                    .dwattr $C$DW$T$146, DW_AT_decl_file("C:/ti/ccs1110/ccs/tools/compiler/ti-cgt-msp430_21.6.1.LT
    2256                    .dwattr $C$DW$T$146, DW_AT_decl_line(0x4a)
    2257                    .dwattr $C$DW$T$146, DW_AT_decl_column(0x14)
    2258            
    2259            $C$DW$T$147     .dwtag  DW_TAG_typedef
    2260                    .dwattr $C$DW$T$147, DW_AT_name("__fflags_t")
    2261                    .dwattr $C$DW$T$147, DW_AT_type(*$C$DW$T$145)
    2262                    .dwattr $C$DW$T$147, DW_AT_language(DW_LANG_C)
    2263                    .dwattr $C$DW$T$147, DW_AT_decl_file("C:/ti/ccs1110/ccs/tools/compiler/ti-cgt-msp430_21.6.1.LT
    2264                    .dwattr $C$DW$T$147, DW_AT_decl_line(0x32)
    2265                    .dwattr $C$DW$T$147, DW_AT_decl_column(0x14)
    2266            
    2267            $C$DW$T$148     .dwtag  DW_TAG_typedef
    2268                    .dwattr $C$DW$T$148, DW_AT_name("__fixpt_t")
    2269                    .dwattr $C$DW$T$148, DW_AT_type(*$C$DW$T$145)
    2270                    .dwattr $C$DW$T$148, DW_AT_language(DW_LANG_C)
    2271                    .dwattr $C$DW$T$148, DW_AT_decl_file("C:/ti/ccs1110/ccs/tools/compiler/ti-cgt-msp430_21.6.1.LT
    2272                    .dwattr $C$DW$T$148, DW_AT_decl_line(0x81)
    2273                    .dwattr $C$DW$T$148, DW_AT_decl_column(0x14)
    2274            
    2275            $C$DW$T$149     .dwtag  DW_TAG_typedef
MSP430 Assembler PC v21.6.1 Tue Jan  3 09:51:30 2023

Copyright (c) 2003-2018 Texas Instruments Incorporated
usart_comms.asm                                                      PAGE   44

    2276                    .dwattr $C$DW$T$149, DW_AT_name("__gid_t")
    2277                    .dwattr $C$DW$T$149, DW_AT_type(*$C$DW$T$145)
    2278                    .dwattr $C$DW$T$149, DW_AT_language(DW_LANG_C)
    2279                    .dwattr $C$DW$T$149, DW_AT_decl_file("C:/ti/ccs1110/ccs/tools/compiler/ti-cgt-msp430_21.6.1.LT
    2280                    .dwattr $C$DW$T$149, DW_AT_decl_line(0x35)
    2281                    .dwattr $C$DW$T$149, DW_AT_decl_column(0x14)
    2282            
    2283            $C$DW$T$150     .dwtag  DW_TAG_typedef
    2284                    .dwattr $C$DW$T$150, DW_AT_name("__socklen_t")
    2285                    .dwattr $C$DW$T$150, DW_AT_type(*$C$DW$T$145)
    2286                    .dwattr $C$DW$T$150, DW_AT_language(DW_LANG_C)
    2287                    .dwattr $C$DW$T$150, DW_AT_decl_file("C:/ti/ccs1110/ccs/tools/compiler/ti-cgt-msp430_21.6.1.LT
    2288                    .dwattr $C$DW$T$150, DW_AT_decl_line(0x49)
    2289                    .dwattr $C$DW$T$150, DW_AT_decl_column(0x14)
    2290            
    2291            $C$DW$T$151     .dwtag  DW_TAG_typedef
    2292                    .dwattr $C$DW$T$151, DW_AT_name("__time_t")
    2293                    .dwattr $C$DW$T$151, DW_AT_type(*$C$DW$T$145)
    2294                    .dwattr $C$DW$T$151, DW_AT_language(DW_LANG_C)
    2295                    .dwattr $C$DW$T$151, DW_AT_decl_file("C:/ti/ccs1110/ccs/tools/compiler/ti-cgt-msp430_21.6.1.LT
    2296                    .dwattr $C$DW$T$151, DW_AT_decl_line(0x66)
    2297                    .dwattr $C$DW$T$151, DW_AT_decl_column(0x19)
    2298            
    2299            $C$DW$T$152     .dwtag  DW_TAG_typedef
    2300                    .dwattr $C$DW$T$152, DW_AT_name("__uid_t")
    2301                    .dwattr $C$DW$T$152, DW_AT_type(*$C$DW$T$145)
    2302                    .dwattr $C$DW$T$152, DW_AT_language(DW_LANG_C)
    2303                    .dwattr $C$DW$T$152, DW_AT_decl_file("C:/ti/ccs1110/ccs/tools/compiler/ti-cgt-msp430_21.6.1.LT
    2304                    .dwattr $C$DW$T$152, DW_AT_decl_line(0x4d)
    2305                    .dwattr $C$DW$T$152, DW_AT_decl_column(0x14)
    2306            
    2307            $C$DW$T$153     .dwtag  DW_TAG_typedef
    2308                    .dwattr $C$DW$T$153, DW_AT_name("__uint_fast32_t")
    2309                    .dwattr $C$DW$T$153, DW_AT_type(*$C$DW$T$145)
    2310                    .dwattr $C$DW$T$153, DW_AT_language(DW_LANG_C)
    2311                    .dwattr $C$DW$T$153, DW_AT_decl_file("C:/ti/ccs1110/ccs/tools/compiler/ti-cgt-msp430_21.6.1.LT
    2312                    .dwattr $C$DW$T$153, DW_AT_decl_line(0x72)
    2313                    .dwattr $C$DW$T$153, DW_AT_decl_column(0x14)
    2314            
    2315            $C$DW$T$154     .dwtag  DW_TAG_typedef
    2316                    .dwattr $C$DW$T$154, DW_AT_name("uint_fast32_t")
    2317                    .dwattr $C$DW$T$154, DW_AT_type(*$C$DW$T$153)
    2318                    .dwattr $C$DW$T$154, DW_AT_language(DW_LANG_C)
    2319                    .dwattr $C$DW$T$154, DW_AT_decl_file("C:/ti/ccs1110/ccs/tools/compiler/ti-cgt-msp430_21.6.1.LT
    2320                    .dwattr $C$DW$T$154, DW_AT_decl_line(0x3b)
    2321                    .dwattr $C$DW$T$154, DW_AT_decl_column(0x1a)
    2322            
    2323            $C$DW$T$155     .dwtag  DW_TAG_typedef
    2324                    .dwattr $C$DW$T$155, DW_AT_name("__uint_least32_t")
    2325                    .dwattr $C$DW$T$155, DW_AT_type(*$C$DW$T$145)
    2326                    .dwattr $C$DW$T$155, DW_AT_language(DW_LANG_C)
    2327                    .dwattr $C$DW$T$155, DW_AT_decl_file("C:/ti/ccs1110/ccs/tools/compiler/ti-cgt-msp430_21.6.1.LT
    2328                    .dwattr $C$DW$T$155, DW_AT_decl_line(0x76)
    2329                    .dwattr $C$DW$T$155, DW_AT_decl_column(0x14)
    2330            
MSP430 Assembler PC v21.6.1 Tue Jan  3 09:51:30 2023

Copyright (c) 2003-2018 Texas Instruments Incorporated
usart_comms.asm                                                      PAGE   45

    2331            $C$DW$T$156     .dwtag  DW_TAG_typedef
    2332                    .dwattr $C$DW$T$156, DW_AT_name("__char32_t")
    2333                    .dwattr $C$DW$T$156, DW_AT_type(*$C$DW$T$155)
    2334                    .dwattr $C$DW$T$156, DW_AT_language(DW_LANG_C)
    2335                    .dwattr $C$DW$T$156, DW_AT_decl_file("C:/ti/ccs1110/ccs/tools/compiler/ti-cgt-msp430_21.6.1.LT
    2336                    .dwattr $C$DW$T$156, DW_AT_decl_line(0x72)
    2337                    .dwattr $C$DW$T$156, DW_AT_decl_column(0x1a)
    2338            
    2339            $C$DW$T$157     .dwtag  DW_TAG_typedef
    2340                    .dwattr $C$DW$T$157, DW_AT_name("uint_least32_t")
    2341                    .dwattr $C$DW$T$157, DW_AT_type(*$C$DW$T$155)
    2342                    .dwattr $C$DW$T$157, DW_AT_language(DW_LANG_C)
    2343                    .dwattr $C$DW$T$157, DW_AT_decl_file("C:/ti/ccs1110/ccs/tools/compiler/ti-cgt-msp430_21.6.1.LT
    2344                    .dwattr $C$DW$T$157, DW_AT_decl_line(0x31)
    2345                    .dwattr $C$DW$T$157, DW_AT_decl_column(0x1a)
    2346            
    2347            $C$DW$T$158     .dwtag  DW_TAG_typedef
    2348                    .dwattr $C$DW$T$158, DW_AT_name("__uintfptr_t")
    2349                    .dwattr $C$DW$T$158, DW_AT_type(*$C$DW$T$145)
    2350                    .dwattr $C$DW$T$158, DW_AT_language(DW_LANG_C)
    2351                    .dwattr $C$DW$T$158, DW_AT_decl_file("C:/ti/ccs1110/ccs/tools/compiler/ti-cgt-msp430_21.6.1.LT
    2352                    .dwattr $C$DW$T$158, DW_AT_decl_line(0x68)
    2353                    .dwattr $C$DW$T$158, DW_AT_decl_column(0x14)
    2354            
    2355            $C$DW$T$159     .dwtag  DW_TAG_typedef
    2356                    .dwattr $C$DW$T$159, DW_AT_name("__uintptr_t")
    2357                    .dwattr $C$DW$T$159, DW_AT_type(*$C$DW$T$145)
    2358                    .dwattr $C$DW$T$159, DW_AT_language(DW_LANG_C)
    2359                    .dwattr $C$DW$T$159, DW_AT_decl_file("C:/ti/ccs1110/ccs/tools/compiler/ti-cgt-msp430_21.6.1.LT
    2360                    .dwattr $C$DW$T$159, DW_AT_decl_line(0x6b)
    2361                    .dwattr $C$DW$T$159, DW_AT_decl_column(0x14)
    2362            
    2363            $C$DW$T$160     .dwtag  DW_TAG_typedef
    2364                    .dwattr $C$DW$T$160, DW_AT_name("uintptr_t")
    2365                    .dwattr $C$DW$T$160, DW_AT_type(*$C$DW$T$159)
    2366                    .dwattr $C$DW$T$160, DW_AT_language(DW_LANG_C)
    2367                    .dwattr $C$DW$T$160, DW_AT_decl_file("C:/ti/ccs1110/ccs/tools/compiler/ti-cgt-msp430_21.6.1.LT
    2368                    .dwattr $C$DW$T$160, DW_AT_decl_line(0x54)
    2369                    .dwattr $C$DW$T$160, DW_AT_decl_column(0x16)
    2370            
    2371            $C$DW$T$161     .dwtag  DW_TAG_typedef
    2372                    .dwattr $C$DW$T$161, DW_AT_name("__vm_offset_t")
    2373                    .dwattr $C$DW$T$161, DW_AT_type(*$C$DW$T$145)
    2374                    .dwattr $C$DW$T$161, DW_AT_language(DW_LANG_C)
    2375                    .dwattr $C$DW$T$161, DW_AT_decl_file("C:/ti/ccs1110/ccs/tools/compiler/ti-cgt-msp430_21.6.1.LT
    2376                    .dwattr $C$DW$T$161, DW_AT_decl_line(0x79)
    2377                    .dwattr $C$DW$T$161, DW_AT_decl_column(0x14)
    2378            
    2379            $C$DW$T$162     .dwtag  DW_TAG_typedef
    2380                    .dwattr $C$DW$T$162, DW_AT_name("__vm_paddr_t")
    2381                    .dwattr $C$DW$T$162, DW_AT_type(*$C$DW$T$145)
    2382                    .dwattr $C$DW$T$162, DW_AT_language(DW_LANG_C)
    2383                    .dwattr $C$DW$T$162, DW_AT_decl_file("C:/ti/ccs1110/ccs/tools/compiler/ti-cgt-msp430_21.6.1.LT
    2384                    .dwattr $C$DW$T$162, DW_AT_decl_line(0x7a)
    2385                    .dwattr $C$DW$T$162, DW_AT_decl_column(0x14)
MSP430 Assembler PC v21.6.1 Tue Jan  3 09:51:30 2023

Copyright (c) 2003-2018 Texas Instruments Incorporated
usart_comms.asm                                                      PAGE   46

    2386            
    2387            $C$DW$T$163     .dwtag  DW_TAG_typedef
    2388                    .dwattr $C$DW$T$163, DW_AT_name("__vm_size_t")
    2389                    .dwattr $C$DW$T$163, DW_AT_type(*$C$DW$T$145)
    2390                    .dwattr $C$DW$T$163, DW_AT_language(DW_LANG_C)
    2391                    .dwattr $C$DW$T$163, DW_AT_decl_file("C:/ti/ccs1110/ccs/tools/compiler/ti-cgt-msp430_21.6.1.LT
    2392                    .dwattr $C$DW$T$163, DW_AT_decl_line(0x7b)
    2393                    .dwattr $C$DW$T$163, DW_AT_decl_column(0x14)
    2394            
    2395            $C$DW$T$164     .dwtag  DW_TAG_typedef
    2396                    .dwattr $C$DW$T$164, DW_AT_name("uint32_t")
    2397                    .dwattr $C$DW$T$164, DW_AT_type(*$C$DW$T$145)
    2398                    .dwattr $C$DW$T$164, DW_AT_language(DW_LANG_C)
    2399                    .dwattr $C$DW$T$164, DW_AT_decl_file("C:/ti/ccs1110/ccs/tools/compiler/ti-cgt-msp430_21.6.1.LT
    2400                    .dwattr $C$DW$T$164, DW_AT_decl_line(0x46)
    2401                    .dwattr $C$DW$T$164, DW_AT_decl_column(0x15)
    2402            
    2403            $C$DW$T$14      .dwtag  DW_TAG_base_type
    2404                    .dwattr $C$DW$T$14, DW_AT_encoding(DW_ATE_signed)
    2405                    .dwattr $C$DW$T$14, DW_AT_name("long long")
    2406                    .dwattr $C$DW$T$14, DW_AT_byte_size(0x08)
    2407            
    2408            $C$DW$T$165     .dwtag  DW_TAG_typedef
    2409                    .dwattr $C$DW$T$165, DW_AT_name("__int64_t")
    2410                    .dwattr $C$DW$T$165, DW_AT_type(*$C$DW$T$14)
    2411                    .dwattr $C$DW$T$165, DW_AT_language(DW_LANG_C)
    2412                    .dwattr $C$DW$T$165, DW_AT_decl_file("C:/ti/ccs1110/ccs/tools/compiler/ti-cgt-msp430_21.6.1.LT
    2413                    .dwattr $C$DW$T$165, DW_AT_decl_line(0x40)
    2414                    .dwattr $C$DW$T$165, DW_AT_decl_column(0x14)
    2415            
    2416            $C$DW$T$166     .dwtag  DW_TAG_typedef
    2417                    .dwattr $C$DW$T$166, DW_AT_name("__blkcnt_t")
    2418                    .dwattr $C$DW$T$166, DW_AT_type(*$C$DW$T$165)
    2419                    .dwattr $C$DW$T$166, DW_AT_language(DW_LANG_C)
    2420                    .dwattr $C$DW$T$166, DW_AT_decl_file("C:/ti/ccs1110/ccs/tools/compiler/ti-cgt-msp430_21.6.1.LT
    2421                    .dwattr $C$DW$T$166, DW_AT_decl_line(0x30)
    2422                    .dwattr $C$DW$T$166, DW_AT_decl_column(0x13)
    2423            
    2424            $C$DW$T$167     .dwtag  DW_TAG_typedef
    2425                    .dwattr $C$DW$T$167, DW_AT_name("__id_t")
    2426                    .dwattr $C$DW$T$167, DW_AT_type(*$C$DW$T$165)
    2427                    .dwattr $C$DW$T$167, DW_AT_language(DW_LANG_C)
    2428                    .dwattr $C$DW$T$167, DW_AT_decl_file("C:/ti/ccs1110/ccs/tools/compiler/ti-cgt-msp430_21.6.1.LT
    2429                    .dwattr $C$DW$T$167, DW_AT_decl_line(0x36)
    2430                    .dwattr $C$DW$T$167, DW_AT_decl_column(0x13)
    2431            
    2432            $C$DW$T$168     .dwtag  DW_TAG_typedef
    2433                    .dwattr $C$DW$T$168, DW_AT_name("__int_fast64_t")
    2434                    .dwattr $C$DW$T$168, DW_AT_type(*$C$DW$T$165)
    2435                    .dwattr $C$DW$T$168, DW_AT_language(DW_LANG_C)
    2436                    .dwattr $C$DW$T$168, DW_AT_decl_file("C:/ti/ccs1110/ccs/tools/compiler/ti-cgt-msp430_21.6.1.LT
    2437                    .dwattr $C$DW$T$168, DW_AT_decl_line(0x59)
    2438                    .dwattr $C$DW$T$168, DW_AT_decl_column(0x13)
    2439            
    2440            $C$DW$T$169     .dwtag  DW_TAG_typedef
MSP430 Assembler PC v21.6.1 Tue Jan  3 09:51:30 2023

Copyright (c) 2003-2018 Texas Instruments Incorporated
usart_comms.asm                                                      PAGE   47

    2441                    .dwattr $C$DW$T$169, DW_AT_name("int_fast64_t")
    2442                    .dwattr $C$DW$T$169, DW_AT_type(*$C$DW$T$168)
    2443                    .dwattr $C$DW$T$169, DW_AT_language(DW_LANG_C)
    2444                    .dwattr $C$DW$T$169, DW_AT_decl_file("C:/ti/ccs1110/ccs/tools/compiler/ti-cgt-msp430_21.6.1.LT
    2445                    .dwattr $C$DW$T$169, DW_AT_decl_line(0x37)
    2446                    .dwattr $C$DW$T$169, DW_AT_decl_column(0x19)
    2447            
    2448            $C$DW$T$170     .dwtag  DW_TAG_typedef
    2449                    .dwattr $C$DW$T$170, DW_AT_name("__int_least64_t")
    2450                    .dwattr $C$DW$T$170, DW_AT_type(*$C$DW$T$165)
    2451                    .dwattr $C$DW$T$170, DW_AT_language(DW_LANG_C)
    2452                    .dwattr $C$DW$T$170, DW_AT_decl_file("C:/ti/ccs1110/ccs/tools/compiler/ti-cgt-msp430_21.6.1.LT
    2453                    .dwattr $C$DW$T$170, DW_AT_decl_line(0x5d)
    2454                    .dwattr $C$DW$T$170, DW_AT_decl_column(0x13)
    2455            
    2456            $C$DW$T$171     .dwtag  DW_TAG_typedef
    2457                    .dwattr $C$DW$T$171, DW_AT_name("int_least64_t")
    2458                    .dwattr $C$DW$T$171, DW_AT_type(*$C$DW$T$170)
    2459                    .dwattr $C$DW$T$171, DW_AT_language(DW_LANG_C)
    2460                    .dwattr $C$DW$T$171, DW_AT_decl_file("C:/ti/ccs1110/ccs/tools/compiler/ti-cgt-msp430_21.6.1.LT
    2461                    .dwattr $C$DW$T$171, DW_AT_decl_line(0x2d)
    2462                    .dwattr $C$DW$T$171, DW_AT_decl_column(0x1a)
    2463            
    2464            $C$DW$T$172     .dwtag  DW_TAG_typedef
    2465                    .dwattr $C$DW$T$172, DW_AT_name("__intmax_t")
    2466                    .dwattr $C$DW$T$172, DW_AT_type(*$C$DW$T$165)
    2467                    .dwattr $C$DW$T$172, DW_AT_language(DW_LANG_C)
    2468                    .dwattr $C$DW$T$172, DW_AT_decl_file("C:/ti/ccs1110/ccs/tools/compiler/ti-cgt-msp430_21.6.1.LT
    2469                    .dwattr $C$DW$T$172, DW_AT_decl_line(0x4f)
    2470                    .dwattr $C$DW$T$172, DW_AT_decl_column(0x13)
    2471            
    2472            $C$DW$T$173     .dwtag  DW_TAG_typedef
    2473                    .dwattr $C$DW$T$173, DW_AT_name("intmax_t")
    2474                    .dwattr $C$DW$T$173, DW_AT_type(*$C$DW$T$172)
    2475                    .dwattr $C$DW$T$173, DW_AT_language(DW_LANG_C)
    2476                    .dwattr $C$DW$T$173, DW_AT_decl_file("C:/ti/ccs1110/ccs/tools/compiler/ti-cgt-msp430_21.6.1.LT
    2477                    .dwattr $C$DW$T$173, DW_AT_decl_line(0x58)
    2478                    .dwattr $C$DW$T$173, DW_AT_decl_column(0x15)
    2479            
    2480            $C$DW$T$174     .dwtag  DW_TAG_typedef
    2481                    .dwattr $C$DW$T$174, DW_AT_name("__off64_t")
    2482                    .dwattr $C$DW$T$174, DW_AT_type(*$C$DW$T$165)
    2483                    .dwattr $C$DW$T$174, DW_AT_language(DW_LANG_C)
    2484                    .dwattr $C$DW$T$174, DW_AT_decl_file("C:/ti/ccs1110/ccs/tools/compiler/ti-cgt-msp430_21.6.1.LT
    2485                    .dwattr $C$DW$T$174, DW_AT_decl_line(0x3f)
    2486                    .dwattr $C$DW$T$174, DW_AT_decl_column(0x13)
    2487            
    2488            $C$DW$T$175     .dwtag  DW_TAG_typedef
    2489                    .dwattr $C$DW$T$175, DW_AT_name("__rlim_t")
    2490                    .dwattr $C$DW$T$175, DW_AT_type(*$C$DW$T$165)
    2491                    .dwattr $C$DW$T$175, DW_AT_language(DW_LANG_C)
    2492                    .dwattr $C$DW$T$175, DW_AT_decl_file("C:/ti/ccs1110/ccs/tools/compiler/ti-cgt-msp430_21.6.1.LT
    2493                    .dwattr $C$DW$T$175, DW_AT_decl_line(0x41)
    2494                    .dwattr $C$DW$T$175, DW_AT_decl_column(0x13)
    2495            
MSP430 Assembler PC v21.6.1 Tue Jan  3 09:51:30 2023

Copyright (c) 2003-2018 Texas Instruments Incorporated
usart_comms.asm                                                      PAGE   48

    2496            $C$DW$T$176     .dwtag  DW_TAG_typedef
    2497                    .dwattr $C$DW$T$176, DW_AT_name("int64_t")
    2498                    .dwattr $C$DW$T$176, DW_AT_type(*$C$DW$T$165)
    2499                    .dwattr $C$DW$T$176, DW_AT_language(DW_LANG_C)
    2500                    .dwattr $C$DW$T$176, DW_AT_decl_file("C:/ti/ccs1110/ccs/tools/compiler/ti-cgt-msp430_21.6.1.LT
    2501                    .dwattr $C$DW$T$176, DW_AT_decl_line(0x35)
    2502                    .dwattr $C$DW$T$176, DW_AT_decl_column(0x14)
    2503            
    2504            $C$DW$T$15      .dwtag  DW_TAG_base_type
    2505                    .dwattr $C$DW$T$15, DW_AT_encoding(DW_ATE_unsigned)
    2506                    .dwattr $C$DW$T$15, DW_AT_name("unsigned long long")
    2507                    .dwattr $C$DW$T$15, DW_AT_byte_size(0x08)
    2508            
    2509            $C$DW$T$177     .dwtag  DW_TAG_typedef
    2510                    .dwattr $C$DW$T$177, DW_AT_name("__uint64_t")
    2511                    .dwattr $C$DW$T$177, DW_AT_type(*$C$DW$T$15)
    2512                    .dwattr $C$DW$T$177, DW_AT_language(DW_LANG_C)
    2513                    .dwattr $C$DW$T$177, DW_AT_decl_file("C:/ti/ccs1110/ccs/tools/compiler/ti-cgt-msp430_21.6.1.LT
    2514                    .dwattr $C$DW$T$177, DW_AT_decl_line(0x45)
    2515                    .dwattr $C$DW$T$177, DW_AT_decl_column(0x1c)
    2516            
    2517            $C$DW$T$178     .dwtag  DW_TAG_typedef
    2518                    .dwattr $C$DW$T$178, DW_AT_name("__dev_t")
    2519                    .dwattr $C$DW$T$178, DW_AT_type(*$C$DW$T$177)
    2520                    .dwattr $C$DW$T$178, DW_AT_language(DW_LANG_C)
    2521                    .dwattr $C$DW$T$178, DW_AT_decl_file("C:/ti/ccs1110/ccs/tools/compiler/ti-cgt-msp430_21.6.1.LT
    2522                    .dwattr $C$DW$T$178, DW_AT_decl_line(0x7f)
    2523                    .dwattr $C$DW$T$178, DW_AT_decl_column(0x14)
    2524            
    2525            $C$DW$T$179     .dwtag  DW_TAG_typedef
    2526                    .dwattr $C$DW$T$179, DW_AT_name("__fsblkcnt_t")
    2527                    .dwattr $C$DW$T$179, DW_AT_type(*$C$DW$T$177)
    2528                    .dwattr $C$DW$T$179, DW_AT_language(DW_LANG_C)
    2529                    .dwattr $C$DW$T$179, DW_AT_decl_file("C:/ti/ccs1110/ccs/tools/compiler/ti-cgt-msp430_21.6.1.LT
    2530                    .dwattr $C$DW$T$179, DW_AT_decl_line(0x33)
    2531                    .dwattr $C$DW$T$179, DW_AT_decl_column(0x14)
    2532            
    2533            $C$DW$T$180     .dwtag  DW_TAG_typedef
    2534                    .dwattr $C$DW$T$180, DW_AT_name("__fsfilcnt_t")
    2535                    .dwattr $C$DW$T$180, DW_AT_type(*$C$DW$T$177)
    2536                    .dwattr $C$DW$T$180, DW_AT_language(DW_LANG_C)
    2537                    .dwattr $C$DW$T$180, DW_AT_decl_file("C:/ti/ccs1110/ccs/tools/compiler/ti-cgt-msp430_21.6.1.LT
    2538                    .dwattr $C$DW$T$180, DW_AT_decl_line(0x34)
    2539                    .dwattr $C$DW$T$180, DW_AT_decl_column(0x14)
    2540            
    2541            $C$DW$T$181     .dwtag  DW_TAG_typedef
    2542                    .dwattr $C$DW$T$181, DW_AT_name("__ino_t")
    2543                    .dwattr $C$DW$T$181, DW_AT_type(*$C$DW$T$177)
    2544                    .dwattr $C$DW$T$181, DW_AT_language(DW_LANG_C)
    2545                    .dwattr $C$DW$T$181, DW_AT_decl_file("C:/ti/ccs1110/ccs/tools/compiler/ti-cgt-msp430_21.6.1.LT
    2546                    .dwattr $C$DW$T$181, DW_AT_decl_line(0x37)
    2547                    .dwattr $C$DW$T$181, DW_AT_decl_column(0x14)
    2548            
    2549            $C$DW$T$182     .dwtag  DW_TAG_typedef
    2550                    .dwattr $C$DW$T$182, DW_AT_name("__nlink_t")
MSP430 Assembler PC v21.6.1 Tue Jan  3 09:51:30 2023

Copyright (c) 2003-2018 Texas Instruments Incorporated
usart_comms.asm                                                      PAGE   49

    2551                    .dwattr $C$DW$T$182, DW_AT_type(*$C$DW$T$177)
    2552                    .dwattr $C$DW$T$182, DW_AT_language(DW_LANG_C)
    2553                    .dwattr $C$DW$T$182, DW_AT_decl_file("C:/ti/ccs1110/ccs/tools/compiler/ti-cgt-msp430_21.6.1.LT
    2554                    .dwattr $C$DW$T$182, DW_AT_decl_line(0x3d)
    2555                    .dwattr $C$DW$T$182, DW_AT_decl_column(0x14)
    2556            
    2557            $C$DW$T$183     .dwtag  DW_TAG_typedef
    2558                    .dwattr $C$DW$T$183, DW_AT_name("__uint_fast64_t")
    2559                    .dwattr $C$DW$T$183, DW_AT_type(*$C$DW$T$177)
    2560                    .dwattr $C$DW$T$183, DW_AT_language(DW_LANG_C)
    2561                    .dwattr $C$DW$T$183, DW_AT_decl_file("C:/ti/ccs1110/ccs/tools/compiler/ti-cgt-msp430_21.6.1.LT
    2562                    .dwattr $C$DW$T$183, DW_AT_decl_line(0x73)
    2563                    .dwattr $C$DW$T$183, DW_AT_decl_column(0x14)
    2564            
    2565            $C$DW$T$184     .dwtag  DW_TAG_typedef
    2566                    .dwattr $C$DW$T$184, DW_AT_name("uint_fast64_t")
    2567                    .dwattr $C$DW$T$184, DW_AT_type(*$C$DW$T$183)
    2568                    .dwattr $C$DW$T$184, DW_AT_language(DW_LANG_C)
    2569                    .dwattr $C$DW$T$184, DW_AT_decl_file("C:/ti/ccs1110/ccs/tools/compiler/ti-cgt-msp430_21.6.1.LT
    2570                    .dwattr $C$DW$T$184, DW_AT_decl_line(0x3c)
    2571                    .dwattr $C$DW$T$184, DW_AT_decl_column(0x1a)
    2572            
    2573            $C$DW$T$185     .dwtag  DW_TAG_typedef
    2574                    .dwattr $C$DW$T$185, DW_AT_name("__uint_least64_t")
    2575                    .dwattr $C$DW$T$185, DW_AT_type(*$C$DW$T$177)
    2576                    .dwattr $C$DW$T$185, DW_AT_language(DW_LANG_C)
    2577                    .dwattr $C$DW$T$185, DW_AT_decl_file("C:/ti/ccs1110/ccs/tools/compiler/ti-cgt-msp430_21.6.1.LT
    2578                    .dwattr $C$DW$T$185, DW_AT_decl_line(0x77)
    2579                    .dwattr $C$DW$T$185, DW_AT_decl_column(0x14)
    2580            
    2581            $C$DW$T$186     .dwtag  DW_TAG_typedef
    2582                    .dwattr $C$DW$T$186, DW_AT_name("uint_least64_t")
    2583                    .dwattr $C$DW$T$186, DW_AT_type(*$C$DW$T$185)
    2584                    .dwattr $C$DW$T$186, DW_AT_language(DW_LANG_C)
    2585                    .dwattr $C$DW$T$186, DW_AT_decl_file("C:/ti/ccs1110/ccs/tools/compiler/ti-cgt-msp430_21.6.1.LT
    2586                    .dwattr $C$DW$T$186, DW_AT_decl_line(0x32)
    2587                    .dwattr $C$DW$T$186, DW_AT_decl_column(0x1a)
    2588            
    2589            $C$DW$T$187     .dwtag  DW_TAG_typedef
    2590                    .dwattr $C$DW$T$187, DW_AT_name("__uintmax_t")
    2591                    .dwattr $C$DW$T$187, DW_AT_type(*$C$DW$T$177)
    2592                    .dwattr $C$DW$T$187, DW_AT_language(DW_LANG_C)
    2593                    .dwattr $C$DW$T$187, DW_AT_decl_file("C:/ti/ccs1110/ccs/tools/compiler/ti-cgt-msp430_21.6.1.LT
    2594                    .dwattr $C$DW$T$187, DW_AT_decl_line(0x69)
    2595                    .dwattr $C$DW$T$187, DW_AT_decl_column(0x14)
    2596            
    2597            $C$DW$T$188     .dwtag  DW_TAG_typedef
    2598                    .dwattr $C$DW$T$188, DW_AT_name("__rman_res_t")
    2599                    .dwattr $C$DW$T$188, DW_AT_type(*$C$DW$T$187)
    2600                    .dwattr $C$DW$T$188, DW_AT_language(DW_LANG_C)
    2601                    .dwattr $C$DW$T$188, DW_AT_decl_file("C:/ti/ccs1110/ccs/tools/compiler/ti-cgt-msp430_21.6.1.LT
    2602                    .dwattr $C$DW$T$188, DW_AT_decl_line(0x9a)
    2603                    .dwattr $C$DW$T$188, DW_AT_decl_column(0x19)
    2604            
    2605            $C$DW$T$189     .dwtag  DW_TAG_typedef
MSP430 Assembler PC v21.6.1 Tue Jan  3 09:51:30 2023

Copyright (c) 2003-2018 Texas Instruments Incorporated
usart_comms.asm                                                      PAGE   50

    2606                    .dwattr $C$DW$T$189, DW_AT_name("uintmax_t")
    2607                    .dwattr $C$DW$T$189, DW_AT_type(*$C$DW$T$187)
    2608                    .dwattr $C$DW$T$189, DW_AT_language(DW_LANG_C)
    2609                    .dwattr $C$DW$T$189, DW_AT_decl_file("C:/ti/ccs1110/ccs/tools/compiler/ti-cgt-msp430_21.6.1.LT
    2610                    .dwattr $C$DW$T$189, DW_AT_decl_line(0x5c)
    2611                    .dwattr $C$DW$T$189, DW_AT_decl_column(0x16)
    2612            
    2613            $C$DW$T$190     .dwtag  DW_TAG_typedef
    2614                    .dwattr $C$DW$T$190, DW_AT_name("uint64_t")
    2615                    .dwattr $C$DW$T$190, DW_AT_type(*$C$DW$T$177)
    2616                    .dwattr $C$DW$T$190, DW_AT_language(DW_LANG_C)
    2617                    .dwattr $C$DW$T$190, DW_AT_decl_file("C:/ti/ccs1110/ccs/tools/compiler/ti-cgt-msp430_21.6.1.LT
    2618                    .dwattr $C$DW$T$190, DW_AT_decl_line(0x4b)
    2619                    .dwattr $C$DW$T$190, DW_AT_decl_column(0x15)
    2620            
    2621            $C$DW$T$16      .dwtag  DW_TAG_base_type
    2622                    .dwattr $C$DW$T$16, DW_AT_encoding(DW_ATE_float)
    2623                    .dwattr $C$DW$T$16, DW_AT_name("float")
    2624                    .dwattr $C$DW$T$16, DW_AT_byte_size(0x04)
    2625            
    2626            $C$DW$T$191     .dwtag  DW_TAG_typedef
    2627                    .dwattr $C$DW$T$191, DW_AT_name("__float_t")
    2628                    .dwattr $C$DW$T$191, DW_AT_type(*$C$DW$T$16)
    2629                    .dwattr $C$DW$T$191, DW_AT_language(DW_LANG_C)
    2630                    .dwattr $C$DW$T$191, DW_AT_decl_file("C:/ti/ccs1110/ccs/tools/compiler/ti-cgt-msp430_21.6.1.LT
    2631                    .dwattr $C$DW$T$191, DW_AT_decl_line(0x4d)
    2632                    .dwattr $C$DW$T$191, DW_AT_decl_column(0x10)
    2633            
    2634            $C$DW$T$17      .dwtag  DW_TAG_base_type
    2635                    .dwattr $C$DW$T$17, DW_AT_encoding(DW_ATE_float)
    2636                    .dwattr $C$DW$T$17, DW_AT_name("double")
    2637                    .dwattr $C$DW$T$17, DW_AT_byte_size(0x08)
    2638            
    2639            $C$DW$T$192     .dwtag  DW_TAG_typedef
    2640                    .dwattr $C$DW$T$192, DW_AT_name("__double_t")
    2641                    .dwattr $C$DW$T$192, DW_AT_type(*$C$DW$T$17)
    2642                    .dwattr $C$DW$T$192, DW_AT_language(DW_LANG_C)
    2643                    .dwattr $C$DW$T$192, DW_AT_decl_file("C:/ti/ccs1110/ccs/tools/compiler/ti-cgt-msp430_21.6.1.LT
    2644                    .dwattr $C$DW$T$192, DW_AT_decl_line(0x4c)
    2645                    .dwattr $C$DW$T$192, DW_AT_decl_column(0x11)
    2646            
    2647            $C$DW$T$18      .dwtag  DW_TAG_base_type
    2648                    .dwattr $C$DW$T$18, DW_AT_encoding(DW_ATE_float)
    2649                    .dwattr $C$DW$T$18, DW_AT_name("long double")
    2650                    .dwattr $C$DW$T$18, DW_AT_byte_size(0x08)
    2651            
    2652            $C$DW$T$194     .dwtag  DW_TAG_pointer_type
    2653                    .dwattr $C$DW$T$194, DW_AT_type(*$C$DW$T$6)
    2654                    .dwattr $C$DW$T$194, DW_AT_address_class(0x10)
    2655            
    2656            $C$DW$T$195     .dwtag  DW_TAG_typedef
    2657                    .dwattr $C$DW$T$195, DW_AT_name("__va_list")
    2658                    .dwattr $C$DW$T$195, DW_AT_type(*$C$DW$T$194)
    2659                    .dwattr $C$DW$T$195, DW_AT_language(DW_LANG_C)
    2660                    .dwattr $C$DW$T$195, DW_AT_decl_file("C:/ti/ccs1110/ccs/tools/compiler/ti-cgt-msp430_21.6.1.LT
MSP430 Assembler PC v21.6.1 Tue Jan  3 09:51:30 2023

Copyright (c) 2003-2018 Texas Instruments Incorporated
usart_comms.asm                                                      PAGE   51

    2661                    .dwattr $C$DW$T$195, DW_AT_decl_line(0x92)
    2662                    .dwattr $C$DW$T$195, DW_AT_decl_column(0x0f)
    2663            
    2664            $C$DW$T$196     .dwtag  DW_TAG_typedef
    2665                    .dwattr $C$DW$T$196, DW_AT_name("va_list")
    2666                    .dwattr $C$DW$T$196, DW_AT_type(*$C$DW$T$195)
    2667                    .dwattr $C$DW$T$196, DW_AT_language(DW_LANG_C)
    2668                    .dwattr $C$DW$T$196, DW_AT_decl_file("C:/ti/ccs1110/ccs/tools/compiler/ti-cgt-msp430_21.6.1.LT
    2669                    .dwattr $C$DW$T$196, DW_AT_decl_line(0x33)
    2670                    .dwattr $C$DW$T$196, DW_AT_decl_column(0x13)
    2671            
    2672            
    2673            $C$DW$T$19      .dwtag  DW_TAG_structure_type
    2674                    .dwattr $C$DW$T$19, DW_AT_name("__mq")
    2675                    .dwattr $C$DW$T$19, DW_AT_declaration
    2676                    .dwattr $C$DW$T$19, DW_AT_decl_file("C:/ti/ccs1110/ccs/tools/compiler/ti-cgt-msp430_21.6.1.LTS
    2677                    .dwattr $C$DW$T$19, DW_AT_decl_line(0x4c)
    2678                    .dwattr $C$DW$T$19, DW_AT_decl_column(0x10)
    2679                    .dwendtag $C$DW$T$19
    2680            
    2681            $C$DW$T$197     .dwtag  DW_TAG_pointer_type
    2682                    .dwattr $C$DW$T$197, DW_AT_type(*$C$DW$T$19)
    2683                    .dwattr $C$DW$T$197, DW_AT_address_class(0x10)
    2684            
    2685            $C$DW$T$198     .dwtag  DW_TAG_typedef
    2686                    .dwattr $C$DW$T$198, DW_AT_name("__mqd_t")
    2687                    .dwattr $C$DW$T$198, DW_AT_type(*$C$DW$T$197)
    2688                    .dwattr $C$DW$T$198, DW_AT_language(DW_LANG_C)
    2689                    .dwattr $C$DW$T$198, DW_AT_decl_file("C:/ti/ccs1110/ccs/tools/compiler/ti-cgt-msp430_21.6.1.LT
    2690                    .dwattr $C$DW$T$198, DW_AT_decl_line(0x4c)
    2691                    .dwattr $C$DW$T$198, DW_AT_decl_column(0x16)
    2692            
    2693            
    2694            $C$DW$T$53      .dwtag  DW_TAG_structure_type
    2695                    .dwattr $C$DW$T$53, DW_AT_name("__sFILE")
    2696                    .dwattr $C$DW$T$53, DW_AT_byte_size(0x0c)
    2697            $C$DW$88        .dwtag  DW_TAG_member
    2698                    .dwattr $C$DW$88, DW_AT_type(*$C$DW$T$10)
    2699                    .dwattr $C$DW$88, DW_AT_name("fd")
    2700                    .dwattr $C$DW$88, DW_AT_TI_symbol_name("fd")
    2701                    .dwattr $C$DW$88, DW_AT_data_member_location[DW_OP_plus_uconst 0x0]
    2702                    .dwattr $C$DW$88, DW_AT_accessibility(DW_ACCESS_public)
    2703                    .dwattr $C$DW$88, DW_AT_decl_file("C:/ti/ccs1110/ccs/tools/compiler/ti-cgt-msp430_21.6.1.LTS/i
    2704                    .dwattr $C$DW$88, DW_AT_decl_line(0x52)
    2705                    .dwattr $C$DW$88, DW_AT_decl_column(0x0b)
    2706            
    2707            $C$DW$89        .dwtag  DW_TAG_member
    2708                    .dwattr $C$DW$89, DW_AT_type(*$C$DW$T$52)
    2709                    .dwattr $C$DW$89, DW_AT_name("buf")
    2710                    .dwattr $C$DW$89, DW_AT_TI_symbol_name("buf")
    2711                    .dwattr $C$DW$89, DW_AT_data_member_location[DW_OP_plus_uconst 0x2]
    2712                    .dwattr $C$DW$89, DW_AT_accessibility(DW_ACCESS_public)
    2713                    .dwattr $C$DW$89, DW_AT_decl_file("C:/ti/ccs1110/ccs/tools/compiler/ti-cgt-msp430_21.6.1.LTS/i
    2714                    .dwattr $C$DW$89, DW_AT_decl_line(0x53)
    2715                    .dwattr $C$DW$89, DW_AT_decl_column(0x16)
MSP430 Assembler PC v21.6.1 Tue Jan  3 09:51:30 2023

Copyright (c) 2003-2018 Texas Instruments Incorporated
usart_comms.asm                                                      PAGE   52

    2716            
    2717            $C$DW$90        .dwtag  DW_TAG_member
    2718                    .dwattr $C$DW$90, DW_AT_type(*$C$DW$T$52)
    2719                    .dwattr $C$DW$90, DW_AT_name("pos")
    2720                    .dwattr $C$DW$90, DW_AT_TI_symbol_name("pos")
    2721                    .dwattr $C$DW$90, DW_AT_data_member_location[DW_OP_plus_uconst 0x4]
    2722                    .dwattr $C$DW$90, DW_AT_accessibility(DW_ACCESS_public)
    2723                    .dwattr $C$DW$90, DW_AT_decl_file("C:/ti/ccs1110/ccs/tools/compiler/ti-cgt-msp430_21.6.1.LTS/i
    2724                    .dwattr $C$DW$90, DW_AT_decl_line(0x54)
    2725                    .dwattr $C$DW$90, DW_AT_decl_column(0x16)
    2726            
    2727            $C$DW$91        .dwtag  DW_TAG_member
    2728                    .dwattr $C$DW$91, DW_AT_type(*$C$DW$T$52)
    2729                    .dwattr $C$DW$91, DW_AT_name("bufend")
    2730                    .dwattr $C$DW$91, DW_AT_TI_symbol_name("bufend")
    2731                    .dwattr $C$DW$91, DW_AT_data_member_location[DW_OP_plus_uconst 0x6]
    2732                    .dwattr $C$DW$91, DW_AT_accessibility(DW_ACCESS_public)
    2733                    .dwattr $C$DW$91, DW_AT_decl_file("C:/ti/ccs1110/ccs/tools/compiler/ti-cgt-msp430_21.6.1.LTS/i
    2734                    .dwattr $C$DW$91, DW_AT_decl_line(0x55)
    2735                    .dwattr $C$DW$91, DW_AT_decl_column(0x16)
    2736            
    2737            $C$DW$92        .dwtag  DW_TAG_member
    2738                    .dwattr $C$DW$92, DW_AT_type(*$C$DW$T$52)
    2739                    .dwattr $C$DW$92, DW_AT_name("buff_stop")
    2740                    .dwattr $C$DW$92, DW_AT_TI_symbol_name("buff_stop")
    2741                    .dwattr $C$DW$92, DW_AT_data_member_location[DW_OP_plus_uconst 0x8]
    2742                    .dwattr $C$DW$92, DW_AT_accessibility(DW_ACCESS_public)
    2743                    .dwattr $C$DW$92, DW_AT_decl_file("C:/ti/ccs1110/ccs/tools/compiler/ti-cgt-msp430_21.6.1.LTS/i
    2744                    .dwattr $C$DW$92, DW_AT_decl_line(0x56)
    2745                    .dwattr $C$DW$92, DW_AT_decl_column(0x16)
    2746            
    2747            $C$DW$93        .dwtag  DW_TAG_member
    2748                    .dwattr $C$DW$93, DW_AT_type(*$C$DW$T$11)
    2749                    .dwattr $C$DW$93, DW_AT_name("flags")
    2750                    .dwattr $C$DW$93, DW_AT_TI_symbol_name("flags")
    2751                    .dwattr $C$DW$93, DW_AT_data_member_location[DW_OP_plus_uconst 0xa]
    2752                    .dwattr $C$DW$93, DW_AT_accessibility(DW_ACCESS_public)
    2753                    .dwattr $C$DW$93, DW_AT_decl_file("C:/ti/ccs1110/ccs/tools/compiler/ti-cgt-msp430_21.6.1.LTS/i
    2754                    .dwattr $C$DW$93, DW_AT_decl_line(0x57)
    2755                    .dwattr $C$DW$93, DW_AT_decl_column(0x16)
    2756            
    2757                    .dwattr $C$DW$T$53, DW_AT_decl_file("C:/ti/ccs1110/ccs/tools/compiler/ti-cgt-msp430_21.6.1.LTS
    2758                    .dwattr $C$DW$T$53, DW_AT_decl_line(0x51)
    2759                    .dwattr $C$DW$T$53, DW_AT_decl_column(0x08)
    2760                    .dwendtag $C$DW$T$53
    2761            
    2762            $C$DW$T$199     .dwtag  DW_TAG_typedef
    2763                    .dwattr $C$DW$T$199, DW_AT_name("FILE")
    2764                    .dwattr $C$DW$T$199, DW_AT_type(*$C$DW$T$53)
    2765                    .dwattr $C$DW$T$199, DW_AT_language(DW_LANG_C)
    2766                    .dwattr $C$DW$T$199, DW_AT_decl_file("C:/ti/ccs1110/ccs/tools/compiler/ti-cgt-msp430_21.6.1.LT
    2767                    .dwattr $C$DW$T$199, DW_AT_decl_line(0x5c)
    2768                    .dwattr $C$DW$T$199, DW_AT_decl_column(0x18)
    2769            
    2770            
MSP430 Assembler PC v21.6.1 Tue Jan  3 09:51:30 2023

Copyright (c) 2003-2018 Texas Instruments Incorporated
usart_comms.asm                                                      PAGE   53

    2771            $C$DW$T$20      .dwtag  DW_TAG_structure_type
    2772                    .dwattr $C$DW$T$20, DW_AT_name("__timer")
    2773                    .dwattr $C$DW$T$20, DW_AT_declaration
    2774                    .dwattr $C$DW$T$20, DW_AT_decl_file("C:/ti/ccs1110/ccs/tools/compiler/ti-cgt-msp430_21.6.1.LTS
    2775                    .dwattr $C$DW$T$20, DW_AT_decl_line(0x4b)
    2776                    .dwattr $C$DW$T$20, DW_AT_decl_column(0x10)
    2777                    .dwendtag $C$DW$T$20
    2778            
    2779            $C$DW$T$200     .dwtag  DW_TAG_pointer_type
    2780                    .dwattr $C$DW$T$200, DW_AT_type(*$C$DW$T$20)
    2781                    .dwattr $C$DW$T$200, DW_AT_address_class(0x10)
    2782            
    2783            $C$DW$T$201     .dwtag  DW_TAG_typedef
    2784                    .dwattr $C$DW$T$201, DW_AT_name("__timer_t")
    2785                    .dwattr $C$DW$T$201, DW_AT_type(*$C$DW$T$200)
    2786                    .dwattr $C$DW$T$201, DW_AT_language(DW_LANG_C)
    2787                    .dwattr $C$DW$T$201, DW_AT_decl_file("C:/ti/ccs1110/ccs/tools/compiler/ti-cgt-msp430_21.6.1.LT
    2788                    .dwattr $C$DW$T$201, DW_AT_decl_line(0x4b)
    2789                    .dwattr $C$DW$T$201, DW_AT_decl_column(0x19)
    2790            
    2791                    .dwattr $C$DW$CU, DW_AT_language(DW_LANG_C)
    2792            
    2793            ;***************************************************************
    2794            ;* DWARF CIE ENTRIES                                           *
    2795            ;***************************************************************
    2796            
    2797            $C$DW$CIE       .dwcie 16
    2798                    .dwcfi  cfa_register, 1
    2799                    .dwcfi  cfa_offset, 0
    2800                    .dwcfi  same_value, 0
    2801                    .dwcfi  same_value, 1
    2802                    .dwcfi  same_value, 3
    2803                    .dwcfi  same_value, 4
    2804                    .dwcfi  same_value, 5
    2805                    .dwcfi  same_value, 6
    2806                    .dwcfi  same_value, 7
    2807                    .dwcfi  same_value, 8
    2808                    .dwcfi  same_value, 9
    2809                    .dwcfi  same_value, 10
    2810                    .dwendentry
    2811            
    2812            ;***************************************************************
    2813            ;* DWARF REGISTER MAP                                          *
    2814            ;***************************************************************
    2815            
    2816            $C$DW$94        .dwtag  DW_TAG_TI_assign_register
    2817                    .dwattr $C$DW$94, DW_AT_name("PC")
    2818                    .dwattr $C$DW$94, DW_AT_location[DW_OP_reg0]
    2819            
    2820            $C$DW$95        .dwtag  DW_TAG_TI_assign_register
    2821                    .dwattr $C$DW$95, DW_AT_name("SP")
    2822                    .dwattr $C$DW$95, DW_AT_location[DW_OP_reg1]
    2823            
    2824            $C$DW$96        .dwtag  DW_TAG_TI_assign_register
    2825                    .dwattr $C$DW$96, DW_AT_name("SR")
MSP430 Assembler PC v21.6.1 Tue Jan  3 09:51:30 2023

Copyright (c) 2003-2018 Texas Instruments Incorporated
usart_comms.asm                                                      PAGE   54

    2826                    .dwattr $C$DW$96, DW_AT_location[DW_OP_reg2]
    2827            
    2828            $C$DW$97        .dwtag  DW_TAG_TI_assign_register
    2829                    .dwattr $C$DW$97, DW_AT_name("CG")
    2830                    .dwattr $C$DW$97, DW_AT_location[DW_OP_reg3]
    2831            
    2832            $C$DW$98        .dwtag  DW_TAG_TI_assign_register
    2833                    .dwattr $C$DW$98, DW_AT_name("r4")
    2834                    .dwattr $C$DW$98, DW_AT_location[DW_OP_reg4]
    2835            
    2836            $C$DW$99        .dwtag  DW_TAG_TI_assign_register
    2837                    .dwattr $C$DW$99, DW_AT_name("r5")
    2838                    .dwattr $C$DW$99, DW_AT_location[DW_OP_reg5]
    2839            
    2840            $C$DW$100       .dwtag  DW_TAG_TI_assign_register
    2841                    .dwattr $C$DW$100, DW_AT_name("r6")
    2842                    .dwattr $C$DW$100, DW_AT_location[DW_OP_reg6]
    2843            
    2844            $C$DW$101       .dwtag  DW_TAG_TI_assign_register
    2845                    .dwattr $C$DW$101, DW_AT_name("r7")
    2846                    .dwattr $C$DW$101, DW_AT_location[DW_OP_reg7]
    2847            
    2848            $C$DW$102       .dwtag  DW_TAG_TI_assign_register
    2849                    .dwattr $C$DW$102, DW_AT_name("r8")
    2850                    .dwattr $C$DW$102, DW_AT_location[DW_OP_reg8]
    2851            
    2852            $C$DW$103       .dwtag  DW_TAG_TI_assign_register
    2853                    .dwattr $C$DW$103, DW_AT_name("r9")
    2854                    .dwattr $C$DW$103, DW_AT_location[DW_OP_reg9]
    2855            
    2856            $C$DW$104       .dwtag  DW_TAG_TI_assign_register
    2857                    .dwattr $C$DW$104, DW_AT_name("r10")
    2858                    .dwattr $C$DW$104, DW_AT_location[DW_OP_reg10]
    2859            
    2860            $C$DW$105       .dwtag  DW_TAG_TI_assign_register
    2861                    .dwattr $C$DW$105, DW_AT_name("r11")
    2862                    .dwattr $C$DW$105, DW_AT_location[DW_OP_reg11]
    2863            
    2864            $C$DW$106       .dwtag  DW_TAG_TI_assign_register
    2865                    .dwattr $C$DW$106, DW_AT_name("r12")
    2866                    .dwattr $C$DW$106, DW_AT_location[DW_OP_reg12]
    2867            
    2868            $C$DW$107       .dwtag  DW_TAG_TI_assign_register
    2869                    .dwattr $C$DW$107, DW_AT_name("r13")
    2870                    .dwattr $C$DW$107, DW_AT_location[DW_OP_reg13]
    2871            
    2872            $C$DW$108       .dwtag  DW_TAG_TI_assign_register
    2873                    .dwattr $C$DW$108, DW_AT_name("r14")
    2874                    .dwattr $C$DW$108, DW_AT_location[DW_OP_reg14]
    2875            
    2876            $C$DW$109       .dwtag  DW_TAG_TI_assign_register
    2877                    .dwattr $C$DW$109, DW_AT_name("r15")
    2878                    .dwattr $C$DW$109, DW_AT_location[DW_OP_reg15]
    2879            
    2880            $C$DW$110       .dwtag  DW_TAG_TI_assign_register
MSP430 Assembler PC v21.6.1 Tue Jan  3 09:51:30 2023

Copyright (c) 2003-2018 Texas Instruments Incorporated
usart_comms.asm                                                      PAGE   55

    2881                    .dwattr $C$DW$110, DW_AT_name("CIE_RETA")
    2882                    .dwattr $C$DW$110, DW_AT_location[DW_OP_reg16]
    2883            
    2884                    .dwendtag $C$DW$CU
    2885            

No Assembly Errors, No Assembly Warnings
